(dp0
S'status'
p1
S'Disconnected'
p2
sS'direction'
p3
S'Outgoing'
p4
sS'remote'
p5
S''
p6
sS'description'
p7
S'Packet Data'
p8
sS'callid'
p9
L54L
sS'oid'
p10
L231397L
sS'number'
p11
g6
sS'person_oid'
p12
L2L
sS'contact'
p13
L-1L
sS'starttime'
p14
cdatetime
datetime
p15
(S'\x07\xd5\x03\x04\x0e&\x02\x00\x00\x00'
p16
tp17
Rp18
sS'duration'
p19
L1L
sS'endtime'
p20
g15
(S'\x07\xd5\x03\x04\x0e&\x03\x00\x00\x00'
p21
tp22
Rp23
sS'phonenumber_oid'
p24
L3L
s.(dp0
S'status'
p1
S'Disconnected'
p2
sS'direction'
p3
S'Outgoing'
p4
sS'remote'
p5
S''
p6
sS'description'
p7
S'Packet Data'
p8
sS'callid'
p9
L58L
sS'oid'
p10
L231398L
sS'number'
p11
g6
sS'person_oid'
p12
L2L
sS'contact'
p13
L-1L
sS'starttime'
p14
cdatetime
datetime
p15
(S'\x07\xd5\x03\x05\x159\x1e\x00\x00\x00'
p16
tp17
Rp18
sS'duration'
p19
L1L
sS'endtime'
p20
g15
(S'\x07\xd5\x03\x05\x159\x1f\x00\x00\x00'
p21
tp22
Rp23
sS'phonenumber_oid'
p24
L3L
s.(dp0
S'status'
p1
S'Disconnected'
p2
sS'direction'
p3
S'Outgoing'
p4
sS'remote'
p5
S''
p6
sS'description'
p7
S'Packet Data'
p8
sS'callid'
p9
L63L
sS'oid'
p10
L231399L
sS'number'
p11
g6
sS'person_oid'
p12
L2L
sS'contact'
p13
L-1L
sS'starttime'
p14
cdatetime
datetime
p15
(S'\x07\xd5\x03\x06\x04\x0b\r\x00\x00\x00'
p16
tp17
Rp18
sS'duration'
p19
L52L
sS'endtime'
p20
g15
(S'\x07\xd5\x03\x06\x04\x0c\x05\x00\x00\x00'
p21
tp22
Rp23
sS'phonenumber_oid'
p24
L3L
s.(dp0
S'status'
p1
S'Disconnected'
p2
sS'direction'
p3
S'Outgoing'
p4
sS'remote'
p5
S''
p6
sS'description'
p7
S'Packet Data'
p8
sS'callid'
p9
L63L
sS'oid'
p10
L231409L
sS'number'
p11
g6
sS'person_oid'
p12
L2L
sS'contact'
p13
L-1L
sS'starttime'
p14
cdatetime
datetime
p15
(S'\x07\xd5\x03\x06\x04\x0b\r\x00\x00\x00'
p16
tp17
Rp18
sS'duration'
p19
L52L
sS'endtime'
p20
g15
(S'\x07\xd5\x03\x06\x04\x0c\x05\x00\x00\x00'
p21
tp22
Rp23
sS'phonenumber_oid'
p24
L3L
s.(dp0
S'status'
p1
S'Disconnected'
p2
sS'direction'
p3
S'Outgoing'
p4
sS'remote'
p5
S''
p6
sS'description'
p7
S'Packet Data'
p8
sS'callid'
p9
L64L
sS'oid'
p10
L231400L
sS'number'
p11
g6
sS'person_oid'
p12
L2L
sS'contact'
p13
L-1L
sS'starttime'
p14
cdatetime
datetime
p15
(S'\x07\xd5\x03\x06\x04\x0c\x18\x00\x00\x00'
p16
tp17
Rp18
sS'duration'
p19
L35L
sS'endtime'
p20
g15
(S'\x07\xd5\x03\x06\x04\x0c;\x00\x00\x00'
p21
tp22
Rp23
sS'phonenumber_oid'
p24
L3L
s.(dp0
S'status'
p1
S'Disconnected'
p2
sS'direction'
p3
S'Outgoing'
p4
sS'remote'
p5
S''
p6
sS'description'
p7
S'Packet Data'
p8
sS'callid'
p9
L64L
sS'oid'
p10
L231410L
sS'number'
p11
g6
sS'person_oid'
p12
L2L
sS'contact'
p13
L-1L
sS'starttime'
p14
cdatetime
datetime
p15
(S'\x07\xd5\x03\x06\x04\x0c\x18\x00\x00\x00'
p16
tp17
Rp18
sS'duration'
p19
L35L
sS'endtime'
p20
g15
(S'\x07\xd5\x03\x06\x04\x0c;\x00\x00\x00'
p21
tp22
Rp23
sS'phonenumber_oid'
p24
L3L
s.(dp0
S'status'
p1
S'Disconnected'
p2
sS'direction'
p3
S'Outgoing'
p4
sS'remote'
p5
S''
p6
sS'description'
p7
S'Packet Data'
p8
sS'callid'
p9
L65L
sS'oid'
p10
L231401L
sS'number'
p11
g6
sS'person_oid'
p12
L2L
sS'contact'
p13
L-1L
sS'starttime'
p14
cdatetime
datetime
p15
(S'\x07\xd5\x03\x06\x04\r.\x00\x00\x00'
p16
tp17
Rp18
sS'duration'
p19
L29L
sS'endtime'
p20
g15
(S'\x07\xd5\x03\x06\x04\x0e\x0f\x00\x00\x00'
p21
tp22
Rp23
sS'phonenumber_oid'
p24
L3L
s.(dp0
S'status'
p1
S'Disconnected'
p2
sS'direction'
p3
S'Outgoing'
p4
sS'remote'
p5
S''
p6
sS'description'
p7
S'Packet Data'
p8
sS'callid'
p9
L65L
sS'oid'
p10
L231411L
sS'number'
p11
g6
sS'person_oid'
p12
L2L
sS'contact'
p13
L-1L
sS'starttime'
p14
cdatetime
datetime
p15
(S'\x07\xd5\x03\x06\x04\r.\x00\x00\x00'
p16
tp17
Rp18
sS'duration'
p19
L29L
sS'endtime'
p20
g15
(S'\x07\xd5\x03\x06\x04\x0e\x0f\x00\x00\x00'
p21
tp22
Rp23
sS'phonenumber_oid'
p24
L3L
s.(dp0
S'status'
p1
S'Disconnected'
p2
sS'direction'
p3
S'Outgoing'
p4
sS'remote'
p5
S''
p6
sS'description'
p7
S'Packet Data'
p8
sS'callid'
p9
L66L
sS'oid'
p10
L231402L
sS'number'
p11
g6
sS'person_oid'
p12
L2L
sS'contact'
p13
L-1L
sS'starttime'
p14
cdatetime
datetime
p15
(S'\x07\xd5\x03\x06\x04\x12\x1b\x00\x00\x00'
p16
tp17
Rp18
sS'duration'
p19
L29L
sS'endtime'
p20
g15
(S'\x07\xd5\x03\x06\x04\x128\x00\x00\x00'
p21
tp22
Rp23
sS'phonenumber_oid'
p24
L3L
s.(dp0
S'status'
p1
S'Disconnected'
p2
sS'direction'
p3
S'Outgoing'
p4
sS'remote'
p5
S''
p6
sS'description'
p7
S'Packet Data'
p8
sS'callid'
p9
L66L
sS'oid'
p10
L231412L
sS'number'
p11
g6
sS'person_oid'
p12
L2L
sS'contact'
p13
L-1L
sS'starttime'
p14
cdatetime
datetime
p15
(S'\x07\xd5\x03\x06\x04\x12\x1b\x00\x00\x00'
p16
tp17
Rp18
sS'duration'
p19
L29L
sS'endtime'
p20
g15
(S'\x07\xd5\x03\x06\x04\x128\x00\x00\x00'
p21
tp22
Rp23
sS'phonenumber_oid'
p24
L3L
s.(dp0
S'status'
p1
S'Disconnected'
p2
sS'direction'
p3
S'Outgoing'
p4
sS'remote'
p5
S''
p6
sS'description'
p7
S'Packet Data'
p8
sS'callid'
p9
L67L
sS'oid'
p10
L231403L
sS'number'
p11
g6
sS'person_oid'
p12
L2L
sS'contact'
p13
L-1L
sS'starttime'
p14
cdatetime
datetime
p15
(S'\x07\xd5\x03\x06\x04\x15\x1a\x00\x00\x00'
p16
tp17
Rp18
sS'duration'
p19
L29L
sS'endtime'
p20
g15
(S'\x07\xd5\x03\x06\x04\x157\x00\x00\x00'
p21
tp22
Rp23
sS'phonenumber_oid'
p24
L3L
s.(dp0
S'status'
p1
S'Disconnected'
p2
sS'direction'
p3
S'Outgoing'
p4
sS'remote'
p5
S''
p6
sS'description'
p7
S'Packet Data'
p8
sS'callid'
p9
L67L
sS'oid'
p10
L231413L
sS'number'
p11
g6
sS'person_oid'
p12
L2L
sS'contact'
p13
L-1L
sS'starttime'
p14
cdatetime
datetime
p15
(S'\x07\xd5\x03\x06\x04\x15\x1a\x00\x00\x00'
p16
tp17
Rp18
sS'duration'
p19
L29L
sS'endtime'
p20
g15
(S'\x07\xd5\x03\x06\x04\x157\x00\x00\x00'
p21
tp22
Rp23
sS'phonenumber_oid'
p24
L3L
s.(dp0
S'status'
p1
S'Disconnected'
p2
sS'direction'
p3
S'Outgoing'
p4
sS'remote'
p5
S''
p6
sS'description'
p7
S'Packet Data'
p8
sS'callid'
p9
L69L
sS'oid'
p10
L231404L
sS'number'
p11
g6
sS'person_oid'
p12
L2L
sS'contact'
p13
L-1L
sS'starttime'
p14
cdatetime
datetime
p15
(S'\x07\xd5\x03\x06\x04\x1b5\x00\x00\x00'
p16
tp17
Rp18
sS'duration'
p19
L29L
sS'endtime'
p20
g15
(S'\x07\xd5\x03\x06\x04\x1c\x16\x00\x00\x00'
p21
tp22
Rp23
sS'phonenumber_oid'
p24
L3L
s.(dp0
S'status'
p1
S'Disconnected'
p2
sS'direction'
p3
S'Outgoing'
p4
sS'remote'
p5
S''
p6
sS'description'
p7
S'Packet Data'
p8
sS'callid'
p9
L69L
sS'oid'
p10
L231414L
sS'number'
p11
g6
sS'person_oid'
p12
L2L
sS'contact'
p13
L-1L
sS'starttime'
p14
cdatetime
datetime
p15
(S'\x07\xd5\x03\x06\x04\x1b5\x00\x00\x00'
p16
tp17
Rp18
sS'duration'
p19
L29L
sS'endtime'
p20
g15
(S'\x07\xd5\x03\x06\x04\x1c\x16\x00\x00\x00'
p21
tp22
Rp23
sS'phonenumber_oid'
p24
L3L
s.(dp0
S'status'
p1
S'Disconnected'
p2
sS'direction'
p3
S'Outgoing'
p4
sS'remote'
p5
S''
p6
sS'description'
p7
S'Packet Data'
p8
sS'callid'
p9
L71L
sS'oid'
p10
L231405L
sS'number'
p11
g6
sS'person_oid'
p12
L2L
sS'contact'
p13
L-1L
sS'starttime'
p14
cdatetime
datetime
p15
(S'\x07\xd5\x03\x06\x04\x1e\x18\x00\x00\x00'
p16
tp17
Rp18
sS'duration'
p19
L28L
sS'endtime'
p20
g15
(S'\x07\xd5\x03\x06\x04\x1e4\x00\x00\x00'
p21
tp22
Rp23
sS'phonenumber_oid'
p24
L3L
s.(dp0
S'status'
p1
S'Disconnected'
p2
sS'direction'
p3
S'Outgoing'
p4
sS'remote'
p5
S''
p6
sS'description'
p7
S'Packet Data'
p8
sS'callid'
p9
L71L
sS'oid'
p10
L231415L
sS'number'
p11
g6
sS'person_oid'
p12
L2L
sS'contact'
p13
L-1L
sS'starttime'
p14
cdatetime
datetime
p15
(S'\x07\xd5\x03\x06\x04\x1e\x18\x00\x00\x00'
p16
tp17
Rp18
sS'duration'
p19
L28L
sS'endtime'
p20
g15
(S'\x07\xd5\x03\x06\x04\x1e4\x00\x00\x00'
p21
tp22
Rp23
sS'phonenumber_oid'
p24
L3L
s.(dp0
S'status'
p1
S'Disconnected'
p2
sS'direction'
p3
S'Outgoing'
p4
sS'remote'
p5
S''
p6
sS'description'
p7
S'Packet Data'
p8
sS'callid'
p9
L72L
sS'oid'
p10
L231406L
sS'number'
p11
g6
sS'person_oid'
p12
L2L
sS'contact'
p13
L-1L
sS'starttime'
p14
cdatetime
datetime
p15
(S'\x07\xd5\x03\x06\x04 \x06\x00\x00\x00'
p16
tp17
Rp18
sS'duration'
p19
L37L
sS'endtime'
p20
g15
(S'\x07\xd5\x03\x06\x04 +\x00\x00\x00'
p21
tp22
Rp23
sS'phonenumber_oid'
p24
L3L
s.(dp0
S'status'
p1
S'Disconnected'
p2
sS'direction'
p3
S'Outgoing'
p4
sS'remote'
p5
S''
p6
sS'description'
p7
S'Packet Data'
p8
sS'callid'
p9
L72L
sS'oid'
p10
L231416L
sS'number'
p11
g6
sS'person_oid'
p12
L2L
sS'contact'
p13
L-1L
sS'starttime'
p14
cdatetime
datetime
p15
(S'\x07\xd5\x03\x06\x04 \x06\x00\x00\x00'
p16
tp17
Rp18
sS'duration'
p19
L37L
sS'endtime'
p20
g15
(S'\x07\xd5\x03\x06\x04 +\x00\x00\x00'
p21
tp22
Rp23
sS'phonenumber_oid'
p24
L3L
s.(dp0
S'status'
p1
S'Connected'
p2
sS'direction'
p3
S'Outgoing'
p4
sS'remote'
p5
S''
p6
sS'description'
p7
S'Packet Data'
p8
sS'callid'
p9
L73L
sS'oid'
p10
L231407L
sS'number'
p11
g6
sS'person_oid'
p12
L2L
sS'contact'
p13
L-1L
sS'starttime'
p14
cdatetime
datetime
p15
(S'\x07\xd5\x03\x06\x04-\r\x00\x00\x00'
p16
tp17
Rp18
sS'duration'
p19
L0L
sS'endtime'
p20
g15
(S'\x07\xd5\x03\x06\x04-\r\x00\x00\x00'
p21
tp22
Rp23
sS'phonenumber_oid'
p24
L3L
s.(dp0
S'status'
p1
S'Connected'
p2
sS'direction'
p3
S'Outgoing'
p4
sS'remote'
p5
S''
p6
sS'description'
p7
S'Packet Data'
p8
sS'callid'
p9
L73L
sS'oid'
p10
L231417L
sS'number'
p11
g6
sS'person_oid'
p12
L2L
sS'contact'
p13
L-1L
sS'starttime'
p14
cdatetime
datetime
p15
(S'\x07\xd5\x03\x06\x04-\r\x00\x00\x00'
p16
tp17
Rp18
sS'duration'
p19
L0L
sS'endtime'
p20
g15
(S'\x07\xd5\x03\x06\x04-\r\x00\x00\x00'
p21
tp22
Rp23
sS'phonenumber_oid'
p24
L3L
s.(dp0
S'status'
p1
S'Disconnected'
p2
sS'direction'
p3
S'Outgoing'
p4
sS'remote'
p5
S''
p6
sS'description'
p7
S'Packet Data'
p8
sS'callid'
p9
L86L
sS'oid'
p10
L231408L
sS'number'
p11
g6
sS'person_oid'
p12
L2L
sS'contact'
p13
L-1L
sS'starttime'
p14
cdatetime
datetime
p15
(S'\x07\xd5\x03\x06\r\x02\x10\x00\x00\x00'
p16
tp17
Rp18
sS'duration'
p19
L30L
sS'endtime'
p20
g15
(S'\x07\xd5\x03\x06\r\x02.\x00\x00\x00'
p21
tp22
Rp23
sS'phonenumber_oid'
p24
L3L
s.(dp0
S'status'
p1
S'Disconnected'
p2
sS'direction'
p3
S'Outgoing'
p4
sS'remote'
p5
S''
p6
sS'description'
p7
S'Packet Data'
p8
sS'callid'
p9
L86L
sS'oid'
p10
L231418L
sS'number'
p11
g6
sS'person_oid'
p12
L2L
sS'contact'
p13
L-1L
sS'starttime'
p14
cdatetime
datetime
p15
(S'\x07\xd5\x03\x06\r\x02\x10\x00\x00\x00'
p16
tp17
Rp18
sS'duration'
p19
L30L
sS'endtime'
p20
g15
(S'\x07\xd5\x03\x06\r\x02.\x00\x00\x00'
p21
tp22
Rp23
sS'phonenumber_oid'
p24
L3L
s.(dp0
S'status'
p1
S'Disconnected'
p2
sS'direction'
p3
S'Outgoing'
p4
sS'remote'
p5
S''
p6
sS'description'
p7
S'Packet Data'
p8
sS'callid'
p9
L185L
sS'oid'
p10
L231419L
sS'number'
p11
g6
sS'person_oid'
p12
L2L
sS'contact'
p13
L-1L
sS'starttime'
p14
cdatetime
datetime
p15
(S'\x07\xd5\x03\x07\x0f\x16\x1f\x00\x00\x00'
p16
tp17
Rp18
sS'duration'
p19
L29L
sS'endtime'
p20
g15
(S'\x07\xd5\x03\x07\x0f\x17\x00\x00\x00\x00'
p21
tp22
Rp23
sS'phonenumber_oid'
p24
L3L
s.(dp0
S'status'
p1
S'Disconnected'
p2
sS'direction'
p3
S'Outgoing'
p4
sS'remote'
p5
S''
p6
sS'description'
p7
S'Packet Data'
p8
sS'callid'
p9
L188L
sS'oid'
p10
L231420L
sS'number'
p11
g6
sS'person_oid'
p12
L2L
sS'contact'
p13
L-1L
sS'starttime'
p14
cdatetime
datetime
p15
(S'\x07\xd5\x03\x07\x0f\x1f#\x00\x00\x00'
p16
tp17
Rp18
sS'duration'
p19
L29L
sS'endtime'
p20
g15
(S'\x07\xd5\x03\x07\x0f \x04\x00\x00\x00'
p21
tp22
Rp23
sS'phonenumber_oid'
p24
L3L
s.(dp0
S'status'
p1
S'Disconnected'
p2
sS'direction'
p3
S'Outgoing'
p4
sS'remote'
p5
S''
p6
sS'description'
p7
S'Packet Data'
p8
sS'callid'
p9
L189L
sS'oid'
p10
L231421L
sS'number'
p11
g6
sS'person_oid'
p12
L2L
sS'contact'
p13
L-1L
sS'starttime'
p14
cdatetime
datetime
p15
(S'\x07\xd5\x03\x07\x0f$0\x00\x00\x00'
p16
tp17
Rp18
sS'duration'
p19
L31L
sS'endtime'
p20
g15
(S'\x07\xd5\x03\x07\x0f%\x13\x00\x00\x00'
p21
tp22
Rp23
sS'phonenumber_oid'
p24
L3L
s.(dp0
S'status'
p1
S'Disconnected'
p2
sS'direction'
p3
S'Outgoing'
p4
sS'remote'
p5
S''
p6
sS'description'
p7
S'Packet Data'
p8
sS'callid'
p9
L197L
sS'oid'
p10
L231422L
sS'number'
p11
g6
sS'person_oid'
p12
L2L
sS'contact'
p13
L-1L
sS'starttime'
p14
cdatetime
datetime
p15
(S'\x07\xd5\x03\x07\x10\x11\x05\x00\x00\x00'
p16
tp17
Rp18
sS'duration'
p19
L29L
sS'endtime'
p20
g15
(S'\x07\xd5\x03\x07\x10\x11"\x00\x00\x00'
p21
tp22
Rp23
sS'phonenumber_oid'
p24
L3L
s.(dp0
S'status'
p1
S'Disconnected'
p2
sS'direction'
p3
S'Outgoing'
p4
sS'remote'
p5
S''
p6
sS'description'
p7
S'Packet Data'
p8
sS'callid'
p9
L202L
sS'oid'
p10
L231423L
sS'number'
p11
g6
sS'person_oid'
p12
L2L
sS'contact'
p13
L-1L
sS'starttime'
p14
cdatetime
datetime
p15
(S'\x07\xd5\x03\x07\x10&-\x00\x00\x00'
p16
tp17
Rp18
sS'duration'
p19
L29L
sS'endtime'
p20
g15
(S"\x07\xd5\x03\x07\x10'\x0e\x00\x00\x00"
p21
tp22
Rp23
sS'phonenumber_oid'
p24
L3L
s.(dp0
S'status'
p1
S'Disconnected'
p2
sS'direction'
p3
S'Outgoing'
p4
sS'remote'
p5
S''
p6
sS'description'
p7
S'Packet Data'
p8
sS'callid'
p9
L205L
sS'oid'
p10
L231424L
sS'number'
p11
g6
sS'person_oid'
p12
L2L
sS'contact'
p13
L-1L
sS'starttime'
p14
cdatetime
datetime
p15
(S'\x07\xd5\x03\x07\x10/,\x00\x00\x00'
p16
tp17
Rp18
sS'duration'
p19
L121L
sS'endtime'
p20
g15
(S'\x07\xd5\x03\x07\x101-\x00\x00\x00'
p21
tp22
Rp23
sS'phonenumber_oid'
p24
L3L
s.(dp0
S'status'
p1
S'Disconnected'
p2
sS'direction'
p3
S'Outgoing'
p4
sS'remote'
p5
S''
p6
sS'description'
p7
S'Packet Data'
p8
sS'callid'
p9
L209L
sS'oid'
p10
L231425L
sS'number'
p11
g6
sS'person_oid'
p12
L2L
sS'contact'
p13
L-1L
sS'starttime'
p14
cdatetime
datetime
p15
(S'\x07\xd5\x03\x07\x103\x1c\x00\x00\x00'
p16
tp17
Rp18
sS'duration'
p19
L827L
sS'endtime'
p20
g15
(S'\x07\xd5\x03\x07\x11\x05\x0f\x00\x00\x00'
p21
tp22
Rp23
sS'phonenumber_oid'
p24
L3L
s.(dp0
S'status'
p1
S'Disconnected'
p2
sS'direction'
p3
S'Outgoing'
p4
sS'remote'
p5
S''
p6
sS'description'
p7
S'Packet Data'
p8
sS'callid'
p9
L213L
sS'oid'
p10
L231426L
sS'number'
p11
g6
sS'person_oid'
p12
L2L
sS'contact'
p13
L-1L
sS'starttime'
p14
cdatetime
datetime
p15
(S'\x07\xd5\x03\x07\x11\t\x03\x00\x00\x00'
p16
tp17
Rp18
sS'duration'
p19
L116L
sS'endtime'
p20
g15
(S'\x07\xd5\x03\x07\x11\n;\x00\x00\x00'
p21
tp22
Rp23
sS'phonenumber_oid'
p24
L3L
s.(dp0
S'status'
p1
S'Disconnected'
p2
sS'direction'
p3
S'Outgoing'
p4
sS'remote'
p5
S''
p6
sS'description'
p7
S'Packet Data'
p8
sS'callid'
p9
L216L
sS'oid'
p10
L231427L
sS'number'
p11
g6
sS'person_oid'
p12
L2L
sS'contact'
p13
L-1L
sS'starttime'
p14
cdatetime
datetime
p15
(S'\x07\xd5\x03\x07\x11\x0c\x0f\x00\x00\x00'
p16
tp17
Rp18
sS'duration'
p19
L1732L
sS'endtime'
p20
g15
(S'\x07\xd5\x03\x07\x11)\x07\x00\x00\x00'
p21
tp22
Rp23
sS'phonenumber_oid'
p24
L3L
s.(dp0
S'status'
p1
S'Disconnected'
p2
sS'direction'
p3
S'Outgoing'
p4
sS'remote'
p5
S''
p6
sS'description'
p7
S'Packet Data'
p8
sS'callid'
p9
L233L
sS'oid'
p10
L231428L
sS'number'
p11
g6
sS'person_oid'
p12
L2L
sS'contact'
p13
L-1L
sS'starttime'
p14
cdatetime
datetime
p15
(S'\x07\xd5\x03\x07\x13\x1d#\x00\x00\x00'
p16
tp17
Rp18
sS'duration'
p19
L944L
sS'endtime'
p20
g15
(S'\x07\xd5\x03\x07\x13-\x13\x00\x00\x00'
p21
tp22
Rp23
sS'phonenumber_oid'
p24
L3L
s.(dp0
S'status'
p1
S'Disconnected'
p2
sS'direction'
p3
S'Outgoing'
p4
sS'remote'
p5
S''
p6
sS'description'
p7
S'Packet Data'
p8
sS'callid'
p9
L236L
sS'oid'
p10
L231429L
sS'number'
p11
g6
sS'person_oid'
p12
L2L
sS'contact'
p13
L-1L
sS'starttime'
p14
cdatetime
datetime
p15
(S'\x07\xd5\x03\x07\x13&\x19\x00\x00\x00'
p16
tp17
Rp18
sS'duration'
p19
L1L
sS'endtime'
p20
g15
(S'\x07\xd5\x03\x07\x13&\x1a\x00\x00\x00'
p21
tp22
Rp23
sS'phonenumber_oid'
p24
L3L
s.(dp0
S'status'
p1
S'Disconnected'
p2
sS'direction'
p3
S'Outgoing'
p4
sS'remote'
p5
S''
p6
sS'description'
p7
S'Packet Data'
p8
sS'callid'
p9
L238L
sS'oid'
p10
L231430L
sS'number'
p11
g6
sS'person_oid'
p12
L2L
sS'contact'
p13
L-1L
sS'starttime'
p14
cdatetime
datetime
p15
(S'\x07\xd5\x03\x07\x131\x04\x00\x00\x00'
p16
tp17
Rp18
sS'duration'
p19
L1L
sS'endtime'
p20
g15
(S'\x07\xd5\x03\x07\x131\x05\x00\x00\x00'
p21
tp22
Rp23
sS'phonenumber_oid'
p24
L3L
s.(dp0
S'status'
p1
S'Disconnected'
p2
sS'direction'
p3
S'Outgoing'
p4
sS'remote'
p5
S''
p6
sS'description'
p7
S'Packet Data'
p8
sS'callid'
p9
L242L
sS'oid'
p10
L231431L
sS'number'
p11
g6
sS'person_oid'
p12
L2L
sS'contact'
p13
L-1L
sS'starttime'
p14
cdatetime
datetime
p15
(S'\x07\xd5\x03\x07\x14\x00\x03\x00\x00\x00'
p16
tp17
Rp18
sS'duration'
p19
L1L
sS'endtime'
p20
g15
(S'\x07\xd5\x03\x07\x14\x00\x04\x00\x00\x00'
p21
tp22
Rp23
sS'phonenumber_oid'
p24
L3L
s.(dp0
S'status'
p1
S'Disconnected'
p2
sS'direction'
p3
S'Outgoing'
p4
sS'remote'
p5
S''
p6
sS'description'
p7
S'Packet Data'
p8
sS'callid'
p9
L243L
sS'oid'
p10
L231432L
sS'number'
p11
g6
sS'person_oid'
p12
L2L
sS'contact'
p13
L-1L
sS'starttime'
p14
cdatetime
datetime
p15
(S'\x07\xd5\x03\x07\x14\x02+\x00\x00\x00'
p16
tp17
Rp18
sS'duration'
p19
L1L
sS'endtime'
p20
g15
(S'\x07\xd5\x03\x07\x14\x02,\x00\x00\x00'
p21
tp22
Rp23
sS'phonenumber_oid'
p24
L3L
s.(dp0
S'status'
p1
S'Disconnected'
p2
sS'direction'
p3
S'Outgoing'
p4
sS'remote'
p5
S''
p6
sS'description'
p7
S'Packet Data'
p8
sS'callid'
p9
L245L
sS'oid'
p10
L231433L
sS'number'
p11
g6
sS'person_oid'
p12
L2L
sS'contact'
p13
L-1L
sS'starttime'
p14
cdatetime
datetime
p15
(S"\x07\xd5\x03\x07\x14\x07'\x00\x00\x00"
p16
tp17
Rp18
sS'duration'
p19
L1L
sS'endtime'
p20
g15
(S'\x07\xd5\x03\x07\x14\x07(\x00\x00\x00'
p21
tp22
Rp23
sS'phonenumber_oid'
p24
L3L
s.(dp0
S'status'
p1
S'Disconnected'
p2
sS'direction'
p3
S'Outgoing'
p4
sS'remote'
p5
S''
p6
sS'description'
p7
S'Packet Data'
p8
sS'callid'
p9
L246L
sS'oid'
p10
L231434L
sS'number'
p11
g6
sS'person_oid'
p12
L2L
sS'contact'
p13
L-1L
sS'starttime'
p14
cdatetime
datetime
p15
(S'\x07\xd5\x03\x07\x14\x078\x00\x00\x00'
p16
tp17
Rp18
sS'duration'
p19
L1L
sS'endtime'
p20
g15
(S'\x07\xd5\x03\x07\x14\x079\x00\x00\x00'
p21
tp22
Rp23
sS'phonenumber_oid'
p24
L3L
s.(dp0
S'status'
p1
S'Disconnected'
p2
sS'direction'
p3
S'Outgoing'
p4
sS'remote'
p5
S''
p6
sS'description'
p7
S'Packet Data'
p8
sS'callid'
p9
L247L
sS'oid'
p10
L231435L
sS'number'
p11
g6
sS'person_oid'
p12
L2L
sS'contact'
p13
L-1L
sS'starttime'
p14
cdatetime
datetime
p15
(S'\x07\xd5\x03\x07\x14\x0b\x03\x00\x00\x00'
p16
tp17
Rp18
sS'duration'
p19
L1L
sS'endtime'
p20
g15
(S'\x07\xd5\x03\x07\x14\x0b\x04\x00\x00\x00'
p21
tp22
Rp23
sS'phonenumber_oid'
p24
L3L
s.(dp0
S'status'
p1
S'Disconnected'
p2
sS'direction'
p3
S'Outgoing'
p4
sS'remote'
p5
S''
p6
sS'description'
p7
S'Packet Data'
p8
sS'callid'
p9
L251L
sS'oid'
p10
L231436L
sS'number'
p11
g6
sS'person_oid'
p12
L2L
sS'contact'
p13
L-1L
sS'starttime'
p14
cdatetime
datetime
p15
(S'\x07\xd5\x03\x07\x14\x0e\x02\x00\x00\x00'
p16
tp17
Rp18
sS'duration'
p19
L371L
sS'endtime'
p20
g15
(S'\x07\xd5\x03\x07\x14\x14\r\x00\x00\x00'
p21
tp22
Rp23
sS'phonenumber_oid'
p24
L3L
s.(dp0
S'status'
p1
S'Disconnected'
p2
sS'direction'
p3
S'Outgoing'
p4
sS'remote'
p5
S''
p6
sS'description'
p7
S'Packet Data'
p8
sS'callid'
p9
L252L
sS'oid'
p10
L231437L
sS'number'
p11
g6
sS'person_oid'
p12
L2L
sS'contact'
p13
L-1L
sS'starttime'
p14
cdatetime
datetime
p15
(S'\x07\xd5\x03\x07\x14\x12\x03\x00\x00\x00'
p16
tp17
Rp18
sS'duration'
p19
L1L
sS'endtime'
p20
g15
(S'\x07\xd5\x03\x07\x14\x12\x04\x00\x00\x00'
p21
tp22
Rp23
sS'phonenumber_oid'
p24
L3L
s.(dp0
S'status'
p1
S'Disconnected'
p2
sS'direction'
p3
S'Outgoing'
p4
sS'remote'
p5
S''
p6
sS'description'
p7
S'Packet Data'
p8
sS'callid'
p9
L253L
sS'oid'
p10
L231438L
sS'number'
p11
g6
sS'person_oid'
p12
L2L
sS'contact'
p13
L-1L
sS'starttime'
p14
cdatetime
datetime
p15
(S'\x07\xd5\x03\x07\x14\x1d\x03\x00\x00\x00'
p16
tp17
Rp18
sS'duration'
p19
L1L
sS'endtime'
p20
g15
(S'\x07\xd5\x03\x07\x14\x1d\x04\x00\x00\x00'
p21
tp22
Rp23
sS'phonenumber_oid'
p24
L3L
s.(dp0
S'status'
p1
S'Disconnected'
p2
sS'direction'
p3
S'Outgoing'
p4
sS'remote'
p5
S''
p6
sS'description'
p7
S'Packet Data'
p8
sS'callid'
p9
L256L
sS'oid'
p10
L231439L
sS'number'
p11
g6
sS'person_oid'
p12
L2L
sS'contact'
p13
L-1L
sS'starttime'
p14
cdatetime
datetime
p15
(S'\x07\xd5\x03\x07\x14(\x03\x00\x00\x00'
p16
tp17
Rp18
sS'duration'
p19
L0L
sS'endtime'
p20
g15
(S'\x07\xd5\x03\x07\x14(\x03\x00\x00\x00'
p21
tp22
Rp23
sS'phonenumber_oid'
p24
L3L
s.(dp0
S'status'
p1
S'Connected'
p2
sS'direction'
p3
S'Outgoing'
p4
sS'remote'
p5
S''
p6
sS'description'
p7
S'Packet Data'
p8
sS'callid'
p9
L338L
sS'oid'
p10
L231440L
sS'number'
p11
g6
sS'person_oid'
p12
L2L
sS'contact'
p13
L-1L
sS'starttime'
p14
cdatetime
datetime
p15
(S'\x07\xd5\x03\x08\x0f2\x13\x00\x00\x00'
p16
tp17
Rp18
sS'duration'
p19
L282L
sS'endtime'
p20
g15
(S'\x07\xd5\x03\x08\x0f7\x01\x00\x00\x00'
p21
tp22
Rp23
sS'phonenumber_oid'
p24
L3L
s.(dp0
S'status'
p1
S'Disconnected'
p2
sS'direction'
p3
S'Outgoing'
p4
sS'remote'
p5
S''
p6
sS'description'
p7
S'Packet Data'
p8
sS'callid'
p9
L352L
sS'oid'
p10
L231441L
sS'number'
p11
g6
sS'person_oid'
p12
L2L
sS'contact'
p13
L-1L
sS'starttime'
p14
cdatetime
datetime
p15
(S'\x07\xd5\x03\x08\x11\x13\x1a\x00\x00\x00'
p16
tp17
Rp18
sS'duration'
p19
L3426L
sS'endtime'
p20
g15
(S'\x07\xd5\x03\x08\x12\x10 \x00\x00\x00'
p21
tp22
Rp23
sS'phonenumber_oid'
p24
L3L
s.(dp0
S'status'
p1
S'Disconnected'
p2
sS'direction'
p3
S'Outgoing'
p4
sS'remote'
p5
S''
p6
sS'description'
p7
S'Packet Data'
p8
sS'callid'
p9
L409L
sS'oid'
p10
L231442L
sS'number'
p11
g6
sS'person_oid'
p12
L2L
sS'contact'
p13
L-1L
sS'starttime'
p14
cdatetime
datetime
p15
(S'\x07\xd5\x03\t\x02\x1c\x03\x00\x00\x00'
p16
tp17
Rp18
sS'duration'
p19
L0L
sS'endtime'
p20
g15
(S'\x07\xd5\x03\t\x02\x1c\x03\x00\x00\x00'
p21
tp22
Rp23
sS'phonenumber_oid'
p24
L3L
s.