(dp0
S'status'
p1
S''
p2
sS'direction'
p3
S'Outgoing'
p4
sS'remote'
p5
g2
sS'description'
p6
S'Voice Call'
p7
sS'callid'
p8
L1123L
sS'oid'
p9
L819602L
sS'number'
p10
g2
sS'person_oid'
p11
L77L
sS'contact'
p12
L63L
sS'starttime'
p13
cdatetime
datetime
p14
(S'\x07\xd5\x02\x01\x12\x1f\x18\x00\x00\x00'
p15
tp16
Rp17
sS'duration'
p18
L17L
sS'endtime'
p19
g14
(S'\x07\xd5\x02\x01\x12\x1f)\x00\x00\x00'
p20
tp21
Rp22
sS'phonenumber_oid'
p23
L3474L
s.(dp0
S'status'
p1
S''
p2
sS'direction'
p3
S'Outgoing'
p4
sS'remote'
p5
g2
sS'description'
p6
S'Voice Call'
p7
sS'callid'
p8
L1123L
sS'oid'
p9
L819604L
sS'number'
p10
g2
sS'person_oid'
p11
L77L
sS'contact'
p12
L63L
sS'starttime'
p13
cdatetime
datetime
p14
(S'\x07\xd5\x02\x01\x12\x1f\x18\x00\x00\x00'
p15
tp16
Rp17
sS'duration'
p18
L17L
sS'endtime'
p19
g14
(S'\x07\xd5\x02\x01\x12\x1f)\x00\x00\x00'
p20
tp21
Rp22
sS'phonenumber_oid'
p23
L3474L
s.(dp0
S'status'
p1
S''
p2
sS'direction'
p3
S'Outgoing'
p4
sS'remote'
p5
g2
sS'description'
p6
S'Voice Call'
p7
sS'callid'
p8
L1124L
sS'oid'
p9
L819603L
sS'number'
p10
g2
sS'person_oid'
p11
L77L
sS'contact'
p12
L63L
sS'starttime'
p13
cdatetime
datetime
p14
(S'\x07\xd5\x02\x01\x12  \x00\x00\x00'
p15
tp16
Rp17
sS'duration'
p18
L64L
sS'endtime'
p19
g14
(S'\x07\xd5\x02\x01\x12!$\x00\x00\x00'
p20
tp21
Rp22
sS'phonenumber_oid'
p23
L3474L
s.(dp0
S'status'
p1
S''
p2
sS'direction'
p3
S'Outgoing'
p4
sS'remote'
p5
g2
sS'description'
p6
S'Voice Call'
p7
sS'callid'
p8
L1124L
sS'oid'
p9
L819605L
sS'number'
p10
g2
sS'person_oid'
p11
L77L
sS'contact'
p12
L63L
sS'starttime'
p13
cdatetime
datetime
p14
(S'\x07\xd5\x02\x01\x12  \x00\x00\x00'
p15
tp16
Rp17
sS'duration'
p18
L64L
sS'endtime'
p19
g14
(S'\x07\xd5\x02\x01\x12!$\x00\x00\x00'
p20
tp21
Rp22
sS'phonenumber_oid'
p23
L3474L
s.(dp0
S'status'
p1
S''
p2
sS'direction'
p3
S'Incoming'
p4
sS'remote'
p5
g2
sS'description'
p6
S'Voice Call'
p7
sS'callid'
p8
L1129L
sS'oid'
p9
L819606L
sS'number'
p10
g2
sS'person_oid'
p11
L77L
sS'contact'
p12
L63L
sS'starttime'
p13
cdatetime
datetime
p14
(S'\x07\xd5\x02\x02\x0f2\t\x00\x00\x00'
p15
tp16
Rp17
sS'duration'
p18
L71L
sS'endtime'
p19
g14
(S'\x07\xd5\x02\x02\x0f3\x14\x00\x00\x00'
p20
tp21
Rp22
sS'phonenumber_oid'
p23
L3474L
s.(dp0
S'status'
p1
S''
p2
sS'direction'
p3
S'Incoming'
p4
sS'remote'
p5
g2
sS'description'
p6
S'Voice Call'
p7
sS'callid'
p8
L1129L
sS'oid'
p9
L819612L
sS'number'
p10
g2
sS'person_oid'
p11
L77L
sS'contact'
p12
L63L
sS'starttime'
p13
cdatetime
datetime
p14
(S'\x07\xd5\x02\x02\x0f2\t\x00\x00\x00'
p15
tp16
Rp17
sS'duration'
p18
L71L
sS'endtime'
p19
g14
(S'\x07\xd5\x02\x02\x0f3\x14\x00\x00\x00'
p20
tp21
Rp22
sS'phonenumber_oid'
p23
L3474L
s.(dp0
S'status'
p1
S''
p2
sS'direction'
p3
S'Outgoing'
p4
sS'remote'
p5
g2
sS'description'
p6
S'Voice Call'
p7
sS'callid'
p8
L1130L
sS'oid'
p9
L819607L
sS'number'
p10
g2
sS'person_oid'
p11
L77L
sS'contact'
p12
L10L
sS'starttime'
p13
cdatetime
datetime
p14
(S'\x07\xd5\x02\x02\x11!:\x00\x00\x00'
p15
tp16
Rp17
sS'duration'
p18
L76L
sS'endtime'
p19
g14
(S'\x07\xd5\x02\x02\x11#\x0e\x00\x00\x00'
p20
tp21
Rp22
sS'phonenumber_oid'
p23
L3476L
s.(dp0
S'status'
p1
S''
p2
sS'direction'
p3
S'Outgoing'
p4
sS'remote'
p5
g2
sS'description'
p6
S'Voice Call'
p7
sS'callid'
p8
L1130L
sS'oid'
p9
L819613L
sS'number'
p10
g2
sS'person_oid'
p11
L77L
sS'contact'
p12
L10L
sS'starttime'
p13
cdatetime
datetime
p14
(S'\x07\xd5\x02\x02\x11!:\x00\x00\x00'
p15
tp16
Rp17
sS'duration'
p18
L76L
sS'endtime'
p19
g14
(S'\x07\xd5\x02\x02\x11#\x0e\x00\x00\x00'
p20
tp21
Rp22
sS'phonenumber_oid'
p23
L3476L
s.(dp0
S'status'
p1
S''
p2
sS'direction'
p3
S'Outgoing'
p4
sS'remote'
p5
g2
sS'description'
p6
S'Voice Call'
p7
sS'callid'
p8
L1132L
sS'oid'
p9
L819608L
sS'number'
p10
g2
sS'person_oid'
p11
L77L
sS'contact'
p12
L10L
sS'starttime'
p13
cdatetime
datetime
p14
(S'\x07\xd5\x02\x02\x15\x11&\x00\x00\x00'
p15
tp16
Rp17
sS'duration'
p18
L14L
sS'endtime'
p19
g14
(S'\x07\xd5\x02\x02\x15\x114\x00\x00\x00'
p20
tp21
Rp22
sS'phonenumber_oid'
p23
L3476L
s.(dp0
S'status'
p1
S''
p2
sS'direction'
p3
S'Outgoing'
p4
sS'remote'
p5
g2
sS'description'
p6
S'Voice Call'
p7
sS'callid'
p8
L1132L
sS'oid'
p9
L819614L
sS'number'
p10
g2
sS'person_oid'
p11
L77L
sS'contact'
p12
L10L
sS'starttime'
p13
cdatetime
datetime
p14
(S'\x07\xd5\x02\x02\x15\x11&\x00\x00\x00'
p15
tp16
Rp17
sS'duration'
p18
L14L
sS'endtime'
p19
g14
(S'\x07\xd5\x02\x02\x15\x114\x00\x00\x00'
p20
tp21
Rp22
sS'phonenumber_oid'
p23
L3476L
s.(dp0
S'status'
p1
S''
p2
sS'direction'
p3
S'Outgoing'
p4
sS'remote'
p5
g2
sS'description'
p6
S'Voice Call'
p7
sS'callid'
p8
L1133L
sS'oid'
p9
L819609L
sS'number'
p10
g2
sS'person_oid'
p11
L77L
sS'contact'
p12
L63L
sS'starttime'
p13
cdatetime
datetime
p14
(S'\x07\xd5\x02\x02\x15\x135\x00\x00\x00'
p15
tp16
Rp17
sS'duration'
p18
L17L
sS'endtime'
p19
g14
(S'\x07\xd5\x02\x02\x15\x14\n\x00\x00\x00'
p20
tp21
Rp22
sS'phonenumber_oid'
p23
L3474L
s.(dp0
S'status'
p1
S''
p2
sS'direction'
p3
S'Outgoing'
p4
sS'remote'
p5
g2
sS'description'
p6
S'Voice Call'
p7
sS'callid'
p8
L1133L
sS'oid'
p9
L819615L
sS'number'
p10
g2
sS'person_oid'
p11
L77L
sS'contact'
p12
L63L
sS'starttime'
p13
cdatetime
datetime
p14
(S'\x07\xd5\x02\x02\x15\x135\x00\x00\x00'
p15
tp16
Rp17
sS'duration'
p18
L17L
sS'endtime'
p19
g14
(S'\x07\xd5\x02\x02\x15\x14\n\x00\x00\x00'
p20
tp21
Rp22
sS'phonenumber_oid'
p23
L3474L
s.(dp0
S'status'
p1
S''
p2
sS'direction'
p3
S'Outgoing'
p4
sS'remote'
p5
g2
sS'description'
p6
S'Voice Call'
p7
sS'callid'
p8
L1134L
sS'oid'
p9
L819610L
sS'number'
p10
g2
sS'person_oid'
p11
L77L
sS'contact'
p12
L63L
sS'starttime'
p13
cdatetime
datetime
p14
(S'\x07\xd5\x02\x02\x15\x1c\x00\x00\x00\x00'
p15
tp16
Rp17
sS'duration'
p18
L0L
sS'endtime'
p19
g14
(S'\x07\xd5\x02\x02\x15\x1c\x00\x00\x00\x00'
p20
tp21
Rp22
sS'phonenumber_oid'
p23
L3474L
s.(dp0
S'status'
p1
S''
p2
sS'direction'
p3
S'Outgoing'
p4
sS'remote'
p5
g2
sS'description'
p6
S'Voice Call'
p7
sS'callid'
p8
L1134L
sS'oid'
p9
L819616L
sS'number'
p10
g2
sS'person_oid'
p11
L77L
sS'contact'
p12
L63L
sS'starttime'
p13
cdatetime
datetime
p14
(S'\x07\xd5\x02\x02\x15\x1c\x00\x00\x00\x00'
p15
tp16
Rp17
sS'duration'
p18
L0L
sS'endtime'
p19
g14
(S'\x07\xd5\x02\x02\x15\x1c\x00\x00\x00\x00'
p20
tp21
Rp22
sS'phonenumber_oid'
p23
L3474L
s.(dp0
S'status'
p1
S''
p2
sS'direction'
p3
S'Outgoing'
p4
sS'remote'
p5
g2
sS'description'
p6
S'Voice Call'
p7
sS'callid'
p8
L1135L
sS'oid'
p9
L819611L
sS'number'
p10
g2
sS'person_oid'
p11
L77L
sS'contact'
p12
L63L
sS'starttime'
p13
cdatetime
datetime
p14
(S'\x07\xd5\x02\x02\x16%2\x00\x00\x00'
p15
tp16
Rp17
sS'duration'
p18
L136L
sS'endtime'
p19
g14
(S'\x07\xd5\x02\x02\x16(\x06\x00\x00\x00'
p20
tp21
Rp22
sS'phonenumber_oid'
p23
L3474L
s.(dp0
S'status'
p1
S''
p2
sS'direction'
p3
S'Outgoing'
p4
sS'remote'
p5
g2
sS'description'
p6
S'Voice Call'
p7
sS'callid'
p8
L1135L
sS'oid'
p9
L819617L
sS'number'
p10
g2
sS'person_oid'
p11
L77L
sS'contact'
p12
L63L
sS'starttime'
p13
cdatetime
datetime
p14
(S'\x07\xd5\x02\x02\x16%2\x00\x00\x00'
p15
tp16
Rp17
sS'duration'
p18
L136L
sS'endtime'
p19
g14
(S'\x07\xd5\x02\x02\x16(\x06\x00\x00\x00'
p20
tp21
Rp22
sS'phonenumber_oid'
p23
L3474L
s.(dp0
S'status'
p1
S''
p2
sS'direction'
p3
S'Outgoing'
p4
sS'remote'
p5
g2
sS'description'
p6
S'Voice Call'
p7
sS'callid'
p8
L1136L
sS'oid'
p9
L819618L
sS'number'
p10
g2
sS'person_oid'
p11
L77L
sS'contact'
p12
L143L
sS'starttime'
p13
cdatetime
datetime
p14
(S'\x07\xd5\x02\x03\x0e3 \x00\x00\x00'
p15
tp16
Rp17
sS'duration'
p18
L8L
sS'endtime'
p19
g14
(S'\x07\xd5\x02\x03\x0e3(\x00\x00\x00'
p20
tp21
Rp22
sS'phonenumber_oid'
p23
L3481L
s.(dp0
S'status'
p1
S''
p2
sS'direction'
p3
S'Outgoing'
p4
sS'remote'
p5
g2
sS'description'
p6
S'Voice Call'
p7
sS'callid'
p8
L1136L
sS'oid'
p9
L819632L
sS'number'
p10
g2
sS'person_oid'
p11
L77L
sS'contact'
p12
L143L
sS'starttime'
p13
cdatetime
datetime
p14
(S'\x07\xd5\x02\x03\x0e3 \x00\x00\x00'
p15
tp16
Rp17
sS'duration'
p18
L8L
sS'endtime'
p19
g14
(S'\x07\xd5\x02\x03\x0e3(\x00\x00\x00'
p20
tp21
Rp22
sS'phonenumber_oid'
p23
L3481L
s.(dp0
S'status'
p1
S''
p2
sS'direction'
p3
S'Outgoing'
p4
sS'remote'
p5
g2
sS'description'
p6
S'Voice Call'
p7
sS'callid'
p8
L1137L
sS'oid'
p9
L819619L
sS'number'
p10
g2
sS'person_oid'
p11
L77L
sS'contact'
p12
L172L
sS'starttime'
p13
cdatetime
datetime
p14
(S"\x07\xd5\x02\x03\x0e;'\x00\x00\x00"
p15
tp16
Rp17
sS'duration'
p18
L28L
sS'endtime'
p19
g14
(S'\x07\xd5\x02\x03\x0f\x00\x07\x00\x00\x00'
p20
tp21
Rp22
sS'phonenumber_oid'
p23
L3475L
s.(dp0
S'status'
p1
S''
p2
sS'direction'
p3
S'Outgoing'
p4
sS'remote'
p5
g2
sS'description'
p6
S'Voice Call'
p7
sS'callid'
p8
L1137L
sS'oid'
p9
L819633L
sS'number'
p10
g2
sS'person_oid'
p11
L77L
sS'contact'
p12
L172L
sS'starttime'
p13
cdatetime
datetime
p14
(S"\x07\xd5\x02\x03\x0e;'\x00\x00\x00"
p15
tp16
Rp17
sS'duration'
p18
L28L
sS'endtime'
p19
g14
(S'\x07\xd5\x02\x03\x0f\x00\x07\x00\x00\x00'
p20
tp21
Rp22
sS'phonenumber_oid'
p23
L3475L
s.(dp0
S'status'
p1
S''
p2
sS'direction'
p3
S'Outgoing'
p4
sS'remote'
p5
g2
sS'description'
p6
S'Voice Call'
p7
sS'callid'
p8
L1138L
sS'oid'
p9
L819620L
sS'number'
p10
g2
sS'person_oid'
p11
L77L
sS'contact'
p12
L172L
sS'starttime'
p13
cdatetime
datetime
p14
(S'\x07\xd5\x02\x03\x0f\n\x06\x00\x00\x00'
p15
tp16
Rp17
sS'duration'
p18
L4L
sS'endtime'
p19
g14
(S'\x07\xd5\x02\x03\x0f\n\n\x00\x00\x00'
p20
tp21
Rp22
sS'phonenumber_oid'
p23
L3475L
s.(dp0
S'status'
p1
S''
p2
sS'direction'
p3
S'Outgoing'
p4
sS'remote'
p5
g2
sS'description'
p6
S'Voice Call'
p7
sS'callid'
p8
L1138L
sS'oid'
p9
L819634L
sS'number'
p10
g2
sS'person_oid'
p11
L77L
sS'contact'
p12
L172L
sS'starttime'
p13
cdatetime
datetime
p14
(S'\x07\xd5\x02\x03\x0f\n\x06\x00\x00\x00'
p15
tp16
Rp17
sS'duration'
p18
L4L
sS'endtime'
p19
g14
(S'\x07\xd5\x02\x03\x0f\n\n\x00\x00\x00'
p20
tp21
Rp22
sS'phonenumber_oid'
p23
L3475L
s.(dp0
S'status'
p1
S''
p2
sS'direction'
p3
S'Outgoing'
p4
sS'remote'
p5
g2
sS'description'
p6
S'Voice Call'
p7
sS'callid'
p8
L1139L
sS'oid'
p9
L819621L
sS'number'
p10
g2
sS'person_oid'
p11
L77L
sS'contact'
p12
L172L
sS'starttime'
p13
cdatetime
datetime
p14
(S'\x07\xd5\x02\x03\x0f\x0e\x00\x00\x00\x00'
p15
tp16
Rp17
sS'duration'
p18
L1L
sS'endtime'
p19
g14
(S'\x07\xd5\x02\x03\x0f\x0e\x01\x00\x00\x00'
p20
tp21
Rp22
sS'phonenumber_oid'
p23
L3475L
s.(dp0
S'status'
p1
S''
p2
sS'direction'
p3
S'Outgoing'
p4
sS'remote'
p5
g2
sS'description'
p6
S'Voice Call'
p7
sS'callid'
p8
L1139L
sS'oid'
p9
L819635L
sS'number'
p10
g2
sS'person_oid'
p11
L77L
sS'contact'
p12
L172L
sS'starttime'
p13
cdatetime
datetime
p14
(S'\x07\xd5\x02\x03\x0f\x0e\x00\x00\x00\x00'
p15
tp16
Rp17
sS'duration'
p18
L1L
sS'endtime'
p19
g14
(S'\x07\xd5\x02\x03\x0f\x0e\x01\x00\x00\x00'
p20
tp21
Rp22
sS'phonenumber_oid'
p23
L3475L
s.(dp0
S'status'
p1
S''
p2
sS'direction'
p3
S'Outgoing'
p4
sS'remote'
p5
g2
sS'description'
p6
S'Voice Call'
p7
sS'callid'
p8
L1140L
sS'oid'
p9
L819622L
sS'number'
p10
g2
sS'person_oid'
p11
L77L
sS'contact'
p12
L172L
sS'starttime'
p13
cdatetime
datetime
p14
(S'\x07\xd5\x02\x03\x0f\x10:\x00\x00\x00'
p15
tp16
Rp17
sS'duration'
p18
L1L
sS'endtime'
p19
g14
(S'\x07\xd5\x02\x03\x0f\x10;\x00\x00\x00'
p20
tp21
Rp22
sS'phonenumber_oid'
p23
L3475L
s.(dp0
S'status'
p1
S''
p2
sS'direction'
p3
S'Outgoing'
p4
sS'remote'
p5
g2
sS'description'
p6
S'Voice Call'
p7
sS'callid'
p8
L1140L
sS'oid'
p9
L819636L
sS'number'
p10
g2
sS'person_oid'
p11
L77L
sS'contact'
p12
L172L
sS'starttime'
p13
cdatetime
datetime
p14
(S'\x07\xd5\x02\x03\x0f\x10:\x00\x00\x00'
p15
tp16
Rp17
sS'duration'
p18
L1L
sS'endtime'
p19
g14
(S'\x07\xd5\x02\x03\x0f\x10;\x00\x00\x00'
p20
tp21
Rp22
sS'phonenumber_oid'
p23
L3475L
s.(dp0
S'status'
p1
S''
p2
sS'direction'
p3
S'Outgoing'
p4
sS'remote'
p5
g2
sS'description'
p6
S'Voice Call'
p7
sS'callid'
p8
L1141L
sS'oid'
p9
L819623L
sS'number'
p10
g2
sS'person_oid'
p11
L77L
sS'contact'
p12
L172L
sS'starttime'
p13
cdatetime
datetime
p14
(S'\x07\xd5\x02\x03\x0f\x15;\x00\x00\x00'
p15
tp16
Rp17
sS'duration'
p18
L1L
sS'endtime'
p19
g14
(S'\x07\xd5\x02\x03\x0f\x16\x00\x00\x00\x00'
p20
tp21
Rp22
sS'phonenumber_oid'
p23
L3475L
s.(dp0
S'status'
p1
S''
p2
sS'direction'
p3
S'Outgoing'
p4
sS'remote'
p5
g2
sS'description'
p6
S'Voice Call'
p7
sS'callid'
p8
L1141L
sS'oid'
p9
L819637L
sS'number'
p10
g2
sS'person_oid'
p11
L77L
sS'contact'
p12
L172L
sS'starttime'
p13
cdatetime
datetime
p14
(S'\x07\xd5\x02\x03\x0f\x15;\x00\x00\x00'
p15
tp16
Rp17
sS'duration'
p18
L1L
sS'endtime'
p19
g14
(S'\x07\xd5\x02\x03\x0f\x16\x00\x00\x00\x00'
p20
tp21
Rp22
sS'phonenumber_oid'
p23
L3475L
s.(dp0
S'status'
p1
S''
p2
sS'direction'
p3
S'Outgoing'
p4
sS'remote'
p5
g2
sS'description'
p6
S'Voice Call'
p7
sS'callid'
p8
L1142L
sS'oid'
p9
L819624L
sS'number'
p10
g2
sS'person_oid'
p11
L77L
sS'contact'
p12
L172L
sS'starttime'
p13
cdatetime
datetime
p14
(S'\x07\xd5\x02\x03\x0f \x10\x00\x00\x00'
p15
tp16
Rp17
sS'duration'
p18
L1L
sS'endtime'
p19
g14
(S'\x07\xd5\x02\x03\x0f \x11\x00\x00\x00'
p20
tp21
Rp22
sS'phonenumber_oid'
p23
L3475L
s.(dp0
S'status'
p1
S''
p2
sS'direction'
p3
S'Outgoing'
p4
sS'remote'
p5
g2
sS'description'
p6
S'Voice Call'
p7
sS'callid'
p8
L1142L
sS'oid'
p9
L819638L
sS'number'
p10
g2
sS'person_oid'
p11
L77L
sS'contact'
p12
L172L
sS'starttime'
p13
cdatetime
datetime
p14
(S'\x07\xd5\x02\x03\x0f \x10\x00\x00\x00'
p15
tp16
Rp17
sS'duration'
p18
L1L
sS'endtime'
p19
g14
(S'\x07\xd5\x02\x03\x0f \x11\x00\x00\x00'
p20
tp21
Rp22
sS'phonenumber_oid'
p23
L3475L
s.(dp0
S'status'
p1
S''
p2
sS'direction'
p3
S'Outgoing'
p4
sS'remote'
p5
g2
sS'description'
p6
S'Voice Call'
p7
sS'callid'
p8
L1143L
sS'oid'
p9
L819625L
sS'number'
p10
g2
sS'person_oid'
p11
L77L
sS'contact'
p12
L172L
sS'starttime'
p13
cdatetime
datetime
p14
(S'\x07\xd5\x02\x03\x0f#\r\x00\x00\x00'
p15
tp16
Rp17
sS'duration'
p18
L0L
sS'endtime'
p19
g14
(S'\x07\xd5\x02\x03\x0f#\r\x00\x00\x00'
p20
tp21
Rp22
sS'phonenumber_oid'
p23
L3475L
s.(dp0
S'status'
p1
S''
p2
sS'direction'
p3
S'Outgoing'
p4
sS'remote'
p5
g2
sS'description'
p6
S'Voice Call'
p7
sS'callid'
p8
L1143L
sS'oid'
p9
L819639L
sS'number'
p10
g2
sS'person_oid'
p11
L77L
sS'contact'
p12
L172L
sS'starttime'
p13
cdatetime
datetime
p14
(S'\x07\xd5\x02\x03\x0f#\r\x00\x00\x00'
p15
tp16
Rp17
sS'duration'
p18
L0L
sS'endtime'
p19
g14
(S'\x07\xd5\x02\x03\x0f#\r\x00\x00\x00'
p20
tp21
Rp22
sS'phonenumber_oid'
p23
L3475L
s.(dp0
S'status'
p1
S''
p2
sS'direction'
p3
S'Outgoing'
p4
sS'remote'
p5
g2
sS'description'
p6
S'Voice Call'
p7
sS'callid'
p8
L1145L
sS'oid'
p9
L819626L
sS'number'
p10
g2
sS'person_oid'
p11
L77L
sS'contact'
p12
L10L
sS'starttime'
p13
cdatetime
datetime
p14
(S'\x07\xd5\x02\x03\x0f0\x0c\x00\x00\x00'
p15
tp16
Rp17
sS'duration'
p18
L50L
sS'endtime'
p19
g14
(S'\x07\xd5\x02\x03\x0f1\x02\x00\x00\x00'
p20
tp21
Rp22
sS'phonenumber_oid'
p23
L3476L
s.(dp0
S'status'
p1
S''
p2
sS'direction'
p3
S'Outgoing'
p4
sS'remote'
p5
g2
sS'description'
p6
S'Voice Call'
p7
sS'callid'
p8
L1145L
sS'oid'
p9
L819640L
sS'number'
p10
g2
sS'person_oid'
p11
L77L
sS'contact'
p12
L10L
sS'starttime'
p13
cdatetime
datetime
p14
(S'\x07\xd5\x02\x03\x0f0\x0c\x00\x00\x00'
p15
tp16
Rp17
sS'duration'
p18
L50L
sS'endtime'
p19
g14
(S'\x07\xd5\x02\x03\x0f1\x02\x00\x00\x00'
p20
tp21
Rp22
sS'phonenumber_oid'
p23
L3476L
s.(dp0
S'status'
p1
S''
p2
sS'direction'
p3
S'Outgoing'
p4
sS'remote'
p5
g2
sS'description'
p6
S'Voice Call'
p7
sS'callid'
p8
L1147L
sS'oid'
p9
L819627L
sS'number'
p10
g2
sS'person_oid'
p11
L77L
sS'contact'
p12
L172L
sS'starttime'
p13
cdatetime
datetime
p14
(S'\x07\xd5\x02\x03\x0f1 \x00\x00\x00'
p15
tp16
Rp17
sS'duration'
p18
L1L
sS'endtime'
p19
g14
(S'\x07\xd5\x02\x03\x0f1!\x00\x00\x00'
p20
tp21
Rp22
sS'phonenumber_oid'
p23
L3475L
s.(dp0
S'status'
p1
S''
p2
sS'direction'
p3
S'Outgoing'
p4
sS'remote'
p5
g2
sS'description'
p6
S'Voice Call'
p7
sS'callid'
p8
L1147L
sS'oid'
p9
L819641L
sS'number'
p10
g2
sS'person_oid'
p11
L77L
sS'contact'
p12
L172L
sS'starttime'
p13
cdatetime
datetime
p14
(S'\x07\xd5\x02\x03\x0f1 \x00\x00\x00'
p15
tp16
Rp17
sS'duration'
p18
L1L
sS'endtime'
p19
g14
(S'\x07\xd5\x02\x03\x0f1!\x00\x00\x00'
p20
tp21
Rp22
sS'phonenumber_oid'
p23
L3475L
s.(dp0
S'status'
p1
S''
p2
sS'direction'
p3
S'Outgoing'
p4
sS'remote'
p5
g2
sS'description'
p6
S'Voice Call'
p7
sS'callid'
p8
L1148L
sS'oid'
p9
L819628L
sS'number'
p10
g2
sS'person_oid'
p11
L77L
sS'contact'
p12
L172L
sS'starttime'
p13
cdatetime
datetime
p14
(S'\x07\xd5\x02\x03\x10\x061\x00\x00\x00'
p15
tp16
Rp17
sS'duration'
p18
L154L
sS'endtime'
p19
g14
(S'\x07\xd5\x02\x03\x10\t\x17\x00\x00\x00'
p20
tp21
Rp22
sS'phonenumber_oid'
p23
L3475L
s.(dp0
S'status'
p1
S''
p2
sS'direction'
p3
S'Outgoing'
p4
sS'remote'
p5
g2
sS'description'
p6
S'Voice Call'
p7
sS'callid'
p8
L1148L
sS'oid'
p9
L819642L
sS'number'
p10
g2
sS'person_oid'
p11
L77L
sS'contact'
p12
L172L
sS'starttime'
p13
cdatetime
datetime
p14
(S'\x07\xd5\x02\x03\x10\x061\x00\x00\x00'
p15
tp16
Rp17
sS'duration'
p18
L154L
sS'endtime'
p19
g14
(S'\x07\xd5\x02\x03\x10\t\x17\x00\x00\x00'
p20
tp21
Rp22
sS'phonenumber_oid'
p23
L3475L
s.(dp0
S'status'
p1
S''
p2
sS'direction'
p3
S'Outgoing'
p4
sS'remote'
p5
g2
sS'description'
p6
S'Voice Call'
p7
sS'callid'
p8
L1152L
sS'oid'
p9
L819629L
sS'number'
p10
g2
sS'person_oid'
p11
L77L
sS'contact'
p12
L63L
sS'starttime'
p13
cdatetime
datetime
p14
(S'\x07\xd5\x02\x03\x1193\x00\x00\x00'
p15
tp16
Rp17
sS'duration'
p18
L17L
sS'endtime'
p19
g14
(S'\x07\xd5\x02\x03\x11:\x08\x00\x00\x00'
p20
tp21
Rp22
sS'phonenumber_oid'
p23
L3474L
s.(dp0
S'status'
p1
S''
p2
sS'direction'
p3
S'Outgoing'
p4
sS'remote'
p5
g2
sS'description'
p6
S'Voice Call'
p7
sS'callid'
p8
L1152L
sS'oid'
p9
L819643L
sS'number'
p10
g2
sS'person_oid'
p11
L77L
sS'contact'
p12
L63L
sS'starttime'
p13
cdatetime
datetime
p14
(S'\x07\xd5\x02\x03\x1193\x00\x00\x00'
p15
tp16
Rp17
sS'duration'
p18
L17L
sS'endtime'
p19
g14
(S'\x07\xd5\x02\x03\x11:\x08\x00\x00\x00'
p20
tp21
Rp22
sS'phonenumber_oid'
p23
L3474L
s.(dp0
S'status'
p1
S''
p2
sS'direction'
p3
S'Incoming'
p4
sS'remote'
p5
g2
sS'description'
p6
S'Voice Call'
p7
sS'callid'
p8
L1159L
sS'oid'
p9
L819630L
sS'number'
p10
g2
sS'person_oid'
p11
L77L
sS'contact'
p12
L63L
sS'starttime'
p13
cdatetime
datetime
p14
(S'\x07\xd5\x02\x03\x12-\x1d\x00\x00\x00'
p15
tp16
Rp17
sS'duration'
p18
L14L
sS'endtime'
p19
g14
(S'\x07\xd5\x02\x03\x12-+\x00\x00\x00'
p20
tp21
Rp22
sS'phonenumber_oid'
p23
L3474L
s.(dp0
S'status'
p1
S''
p2
sS'direction'
p3
S'Incoming'
p4
sS'remote'
p5
g2
sS'description'
p6
S'Voice Call'
p7
sS'callid'
p8
L1159L
sS'oid'
p9
L819644L
sS'number'
p10
g2
sS'person_oid'
p11
L77L
sS'contact'
p12
L63L
sS'starttime'
p13
cdatetime
datetime
p14
(S'\x07\xd5\x02\x03\x12-\x1d\x00\x00\x00'
p15
tp16
Rp17
sS'duration'
p18
L14L
sS'endtime'
p19
g14
(S'\x07\xd5\x02\x03\x12-+\x00\x00\x00'
p20
tp21
Rp22
sS'phonenumber_oid'
p23
L3474L
s.(dp0
S'status'
p1
S''
p2
sS'direction'
p3
S'Outgoing'
p4
sS'remote'
p5
g2
sS'description'
p6
S'Voice Call'
p7
sS'callid'
p8
L1160L
sS'oid'
p9
L819631L
sS'number'
p10
g2
sS'person_oid'
p11
L77L
sS'contact'
p12
L172L
sS'starttime'
p13
cdatetime
datetime
p14
(S'\x07\xd5\x02\x03\x15\n)\x00\x00\x00'
p15
tp16
Rp17
sS'duration'
p18
L4116L
sS'endtime'
p19
g14
(S'\x07\xd5\x02\x03\x16\x13\x11\x00\x00\x00'
p20
tp21
Rp22
sS'phonenumber_oid'
p23
L3475L
s.(dp0
S'status'
p1
S''
p2
sS'direction'
p3
S'Outgoing'
p4
sS'remote'
p5
g2
sS'description'
p6
S'Voice Call'
p7
sS'callid'
p8
L1160L
sS'oid'
p9
L819645L
sS'number'
p10
g2
sS'person_oid'
p11
L77L
sS'contact'
p12
L172L
sS'starttime'
p13
cdatetime
datetime
p14
(S'\x07\xd5\x02\x03\x15\n)\x00\x00\x00'
p15
tp16
Rp17
sS'duration'
p18
L4116L
sS'endtime'
p19
g14
(S'\x07\xd5\x02\x03\x16\x13\x11\x00\x00\x00'
p20
tp21
Rp22
sS'phonenumber_oid'
p23
L3475L
s.(dp0
S'status'
p1
S''
p2
sS'direction'
p3
S'Incoming'
p4
sS'remote'
p5
g2
sS'description'
p6
S'Voice Call'
p7
sS'callid'
p8
L1163L
sS'oid'
p9
L819646L
sS'number'
p10
g2
sS'person_oid'
p11
L77L
sS'contact'
p12
L36L
sS'starttime'
p13
cdatetime
datetime
p14
(S'\x07\xd5\x02\x04\x14\x07+\x00\x00\x00'
p15
tp16
Rp17
sS'duration'
p18
L125L
sS'endtime'
p19
g14
(S'\x07\xd5\x02\x04\x14\t0\x00\x00\x00'
p20
tp21
Rp22
sS'phonenumber_oid'
p23
L3484L
s.(dp0
S'status'
p1
S''
p2
sS'direction'
p3
S'Incoming'
p4
sS'remote'
p5
g2
sS'description'
p6
S'Voice Call'
p7
sS'callid'
p8
L1163L
sS'oid'
p9
L819647L
sS'number'
p10
g2
sS'person_oid'
p11
L77L
sS'contact'
p12
L36L
sS'starttime'
p13
cdatetime
datetime
p14
(S'\x07\xd5\x02\x04\x14\x07+\x00\x00\x00'
p15
tp16
Rp17
sS'duration'
p18
L125L
sS'endtime'
p19
g14
(S'\x07\xd5\x02\x04\x14\t0\x00\x00\x00'
p20
tp21
Rp22
sS'phonenumber_oid'
p23
L3484L
s.(dp0
S'status'
p1
S''
p2
sS'direction'
p3
S'Outgoing'
p4
sS'remote'
p5
g2
sS'description'
p6
S'Voice Call'
p7
sS'callid'
p8
L1164L
sS'oid'
p9
L819648L
sS'number'
p10
g2
sS'person_oid'
p11
L77L
sS'contact'
p12
L36L
sS'starttime'
p13
cdatetime
datetime
p14
(S'\x07\xd5\x02\x05\x11\x15\x16\x00\x00\x00'
p15
tp16
Rp17
sS'duration'
p18
L25L
sS'endtime'
p19
g14
(S'\x07\xd5\x02\x05\x11\x15/\x00\x00\x00'
p20
tp21
Rp22
sS'phonenumber_oid'
p23
L3484L
s.(dp0
S'status'
p1
S''
p2
sS'direction'
p3
S'Outgoing'
p4
sS'remote'
p5
g2
sS'description'
p6
S'Voice Call'
p7
sS'callid'
p8
L1164L
sS'oid'
p9
L819651L
sS'number'
p10
g2
sS'person_oid'
p11
L77L
sS'contact'
p12
L36L
sS'starttime'
p13
cdatetime
datetime
p14
(S'\x07\xd5\x02\x05\x11\x15\x16\x00\x00\x00'
p15
tp16
Rp17
sS'duration'
p18
L25L
sS'endtime'
p19
g14
(S'\x07\xd5\x02\x05\x11\x15/\x00\x00\x00'
p20
tp21
Rp22
sS'phonenumber_oid'
p23
L3484L
s.(dp0
S'status'
p1
S''
p2
sS'direction'
p3
S'Outgoing'
p4
sS'remote'
p5
g2
sS'description'
p6
S'Voice Call'
p7
sS'callid'
p8
L1165L
sS'oid'
p9
L819649L
sS'number'
p10
g2
sS'person_oid'
p11
L77L
sS'contact'
p12
L36L
sS'starttime'
p13
cdatetime
datetime
p14
(S'\x07\xd5\x02\x05\x11\x159\x00\x00\x00'
p15
tp16
Rp17
sS'duration'
p18
L4L
sS'endtime'
p19
g14
(S'\x07\xd5\x02\x05\x11\x16\x01\x00\x00\x00'
p20
tp21
Rp22
sS'phonenumber_oid'
p23
L3484L
s.(dp0
S'status'
p1
S''
p2
sS'direction'
p3
S'Outgoing'
p4
sS'remote'
p5
g2
sS'description'
p6
S'Voice Call'
p7
sS'callid'
p8
L1165L
sS'oid'
p9
L819652L
sS'number'
p10
g2
sS'person_oid'
p11
L77L
sS'contact'
p12
L36L
sS'starttime'
p13
cdatetime
datetime
p14
(S'\x07\xd5\x02\x05\x11\x159\x00\x00\x00'
p15
tp16
Rp17
sS'duration'
p18
L4L
sS'endtime'
p19
g14
(S'\x07\xd5\x02\x05\x11\x16\x01\x00\x00\x00'
p20
tp21
Rp22
sS'phonenumber_oid'
p23
L3484L
s.(dp0
S'status'
p1
S''
p2
sS'direction'
p3
S'Incoming'
p4
sS'remote'
p5
g2
sS'description'
p6
S'Voice Call'
p7
sS'callid'
p8
L1167L
sS'oid'
p9
L819650L
sS'number'
p10
g2
sS'person_oid'
p11
L77L
sS'contact'
p12
L36L
sS'starttime'
p13
cdatetime
datetime
p14
(S'\x07\xd5\x02\x05\x11\x18\x00\x00\x00\x00'
p15
tp16
Rp17
sS'duration'
p18
L368L
sS'endtime'
p19
g14
(S'\x07\xd5\x02\x05\x11\x1e\x08\x00\x00\x00'
p20
tp21
Rp22
sS'phonenumber_oid'
p23
L3484L
s.(dp0
S'status'
p1
S''
p2
sS'direction'
p3
S'Incoming'
p4
sS'remote'
p5
g2
sS'description'
p6
S'Voice Call'
p7
sS'callid'
p8
L1167L
sS'oid'
p9
L819653L
sS'number'
p10
g2
sS'person_oid'
p11
L77L
sS'contact'
p12
L36L
sS'starttime'
p13
cdatetime
datetime
p14
(S'\x07\xd5\x02\x05\x11\x18\x00\x00\x00\x00'
p15
tp16
Rp17
sS'duration'
p18
L368L
sS'endtime'
p19
g14
(S'\x07\xd5\x02\x05\x11\x1e\x08\x00\x00\x00'
p20
tp21
Rp22
sS'phonenumber_oid'
p23
L3484L
s.(dp0
S'status'
p1
S''
p2
sS'direction'
p3
S'Outgoing'
p4
sS'remote'
p5
g2
sS'description'
p6
S'Voice Call'
p7
sS'callid'
p8
L1170L
sS'oid'
p9
L819654L
sS'number'
p10
g2
sS'person_oid'
p11
L77L
sS'contact'
p12
L148L
sS'starttime'
p13
cdatetime
datetime
p14
(S'\x07\xd5\x02\x06\x0b\r\x15\x00\x00\x00'
p15
tp16
Rp17
sS'duration'
p18
L31L
sS'endtime'
p19
g14
(S'\x07\xd5\x02\x06\x0b\r4\x00\x00\x00'
p20
tp21
Rp22
sS'phonenumber_oid'
p23
L3482L
s.(dp0
S'status'
p1
S''
p2
sS'direction'
p3
S'Outgoing'
p4
sS'remote'
p5
g2
sS'description'
p6
S'Voice Call'
p7
sS'callid'
p8
L1170L
sS'oid'
p9
L819658L
sS'number'
p10
g2
sS'person_oid'
p11
L77L
sS'contact'
p12
L148L
sS'starttime'
p13
cdatetime
datetime
p14
(S'\x07\xd5\x02\x06\x0b\r\x15\x00\x00\x00'
p15
tp16
Rp17
sS'duration'
p18
L31L
sS'endtime'
p19
g14
(S'\x07\xd5\x02\x06\x0b\r4\x00\x00\x00'
p20
tp21
Rp22
sS'phonenumber_oid'
p23
L3482L
s.(dp0
S'status'
p1
S''
p2
sS'direction'
p3
S'Outgoing'
p4
sS'remote'
p5
g2
sS'description'
p6
S'Voice Call'
p7
sS'callid'
p8
L1171L
sS'oid'
p9
L819655L
sS'number'
p10
g2
sS'person_oid'
p11
L77L
sS'contact'
p12
L148L
sS'starttime'
p13
cdatetime
datetime
p14
(S'\x07\xd5\x02\x06\x0b \n\x00\x00\x00'
p15
tp16
Rp17
sS'duration'
p18
L18L
sS'endtime'
p19
g14
(S'\x07\xd5\x02\x06\x0b \x1c\x00\x00\x00'
p20
tp21
Rp22
sS'phonenumber_oid'
p23
L3482L
s.(dp0
S'status'
p1
S''
p2
sS'direction'
p3
S'Outgoing'
p4
sS'remote'
p5
g2
sS'description'
p6
S'Voice Call'
p7
sS'callid'
p8
L1171L
sS'oid'
p9
L819659L
sS'number'
p10
g2
sS'person_oid'
p11
L77L
sS'contact'
p12
L148L
sS'starttime'
p13
cdatetime
datetime
p14
(S'\x07\xd5\x02\x06\x0b \n\x00\x00\x00'
p15
tp16
Rp17
sS'duration'
p18
L18L
sS'endtime'
p19
g14
(S'\x07\xd5\x02\x06\x0b \x1c\x00\x00\x00'
p20
tp21
Rp22
sS'phonenumber_oid'
p23
L3482L
s.(dp0
S'status'
p1
S''
p2
sS'direction'
p3
S'Outgoing'
p4
sS'remote'
p5
g2
sS'description'
p6
S'Voice Call'
p7
sS'callid'
p8
L1174L
sS'oid'
p9
L819656L
sS'number'
p10
g2
sS'person_oid'
p11
L77L
sS'contact'
p12
L148L
sS'starttime'
p13
cdatetime
datetime
p14
(S"\x07\xd5\x02\x06\x12\x08'\x00\x00\x00"
p15
tp16
Rp17
sS'duration'
p18
L6L
sS'endtime'
p19
g14
(S'\x07\xd5\x02\x06\x12\x08-\x00\x00\x00'
p20
tp21
Rp22
sS'phonenumber_oid'
p23
L3482L
s.(dp0
S'status'
p1
S''
p2
sS'direction'
p3
S'Outgoing'
p4
sS'remote'
p5
g2
sS'description'
p6
S'Voice Call'
p7
sS'callid'
p8
L1174L
sS'oid'
p9
L819660L
sS'number'
p10
g2
sS'person_oid'
p11
L77L
sS'contact'
p12
L148L
sS'starttime'
p13
cdatetime
datetime
p14
(S"\x07\xd5\x02\x06\x12\x08'\x00\x00\x00"
p15
tp16
Rp17
sS'duration'
p18
L6L
sS'endtime'
p19
g14
(S'\x07\xd5\x02\x06\x12\x08-\x00\x00\x00'
p20
tp21
Rp22
sS'phonenumber_oid'
p23
L3482L
s.(dp0
S'status'
p1
S''
p2
sS'direction'
p3
S'Outgoing'
p4
sS'remote'
p5
g2
sS'description'
p6
S'Voice Call'
p7
sS'callid'
p8
L1175L
sS'oid'
p9
L819657L
sS'number'
p10
g2
sS'person_oid'
p11
L77L
sS'contact'
p12
L148L
sS'starttime'
p13
cdatetime
datetime
p14
(S'\x07\xd5\x02\x07\x00\x05#\x00\x00\x00'
p15
tp16
Rp17
sS'duration'
p18
L17L
sS'endtime'
p19
g14
(S'\x07\xd5\x02\x07\x00\x054\x00\x00\x00'
p20
tp21
Rp22
sS'phonenumber_oid'
p23
L3482L
s.(dp0
S'status'
p1
S''
p2
sS'direction'
p3
S'Outgoing'
p4
sS'remote'
p5
g2
sS'description'
p6
S'Voice Call'
p7
sS'callid'
p8
L1175L
sS'oid'
p9
L819661L
sS'number'
p10
g2
sS'person_oid'
p11
L77L
sS'contact'
p12
L148L
sS'starttime'
p13
cdatetime
datetime
p14
(S'\x07\xd5\x02\x07\x00\x05#\x00\x00\x00'
p15
tp16
Rp17
sS'duration'
p18
L17L
sS'endtime'
p19
g14
(S'\x07\xd5\x02\x07\x00\x054\x00\x00\x00'
p20
tp21
Rp22
sS'phonenumber_oid'
p23
L3482L
s.(dp0
S'status'
p1
S''
p2
sS'direction'
p3
S'Outgoing'
p4
sS'remote'
p5
g2
sS'description'
p6
S'Voice Call'
p7
sS'callid'
p8
L1180L
sS'oid'
p9
L819662L
sS'number'
p10
g2
sS'person_oid'
p11
L77L
sS'contact'
p12
L10L
sS'starttime'
p13
cdatetime
datetime
p14
(S'\x07\xd5\x02\x07\x15\x00\x11\x00\x00\x00'
p15
tp16
Rp17
sS'duration'
p18
L100L
sS'endtime'
p19
g14
(S'\x07\xd5\x02\x07\x15\x019\x00\x00\x00'
p20
tp21
Rp22
sS'phonenumber_oid'
p23
L3476L
s.(dp0
S'status'
p1
S''
p2
sS'direction'
p3
S'Outgoing'
p4
sS'remote'
p5
g2
sS'description'
p6
S'Voice Call'
p7
sS'callid'
p8
L1180L
sS'oid'
p9
L819663L
sS'number'
p10
g2
sS'person_oid'
p11
L77L
sS'contact'
p12
L10L
sS'starttime'
p13
cdatetime
datetime
p14
(S'\x07\xd5\x02\x07\x15\x00\x11\x00\x00\x00'
p15
tp16
Rp17
sS'duration'
p18
L100L
sS'endtime'
p19
g14
(S'\x07\xd5\x02\x07\x15\x019\x00\x00\x00'
p20
tp21
Rp22
sS'phonenumber_oid'
p23
L3476L
s.(dp0
S'status'
p1
S''
p2
sS'direction'
p3
S'Outgoing'
p4
sS'remote'
p5
g2
sS'description'
p6
S'Voice Call'
p7
sS'callid'
p8
L1188L
sS'oid'
p9
L819664L
sS'number'
p10
g2
sS'person_oid'
p11
L77L
sS'contact'
p12
L10L
sS'starttime'
p13
cdatetime
datetime
p14
(S'\x07\xd5\x02\x08\r8\x12\x00\x00\x00'
p15
tp16
Rp17
sS'duration'
p18
L41L
sS'endtime'
p19
g14
(S'\x07\xd5\x02\x08\r8;\x00\x00\x00'
p20
tp21
Rp22
sS'phonenumber_oid'
p23
L3476L
s.(dp0
S'status'
p1
S''
p2
sS'direction'
p3
S'Outgoing'
p4
sS'remote'
p5
g2
sS'description'
p6
S'Voice Call'
p7
sS'callid'
p8
L1188L
sS'oid'
p9
L819668L
sS'number'
p10
g2
sS'person_oid'
p11
L77L
sS'contact'
p12
L10L
sS'starttime'
p13
cdatetime
datetime
p14
(S'\x07\xd5\x02\x08\r8\x12\x00\x00\x00'
p15
tp16
Rp17
sS'duration'
p18
L41L
sS'endtime'
p19
g14
(S'\x07\xd5\x02\x08\r8;\x00\x00\x00'
p20
tp21
Rp22
sS'phonenumber_oid'
p23
L3476L
s.(dp0
S'status'
p1
S''
p2
sS'direction'
p3
S'Outgoing'
p4
sS'remote'
p5
g2
sS'description'
p6
S'Voice Call'
p7
sS'callid'
p8
L1191L
sS'oid'
p9
L819665L
sS'number'
p10
g2
sS'person_oid'
p11
L77L
sS'contact'
p12
L63L
sS'starttime'
p13
cdatetime
datetime
p14
(S'\x07\xd5\x02\x08\r;"\x00\x00\x00'
p15
tp16
Rp17
sS'duration'
p18
L193L
sS'endtime'
p19
g14
(S'\x07\xd5\x02\x08\x0e\x02/\x00\x00\x00'
p20
tp21
Rp22
sS'phonenumber_oid'
p23
L3474L
s.(dp0
S'status'
p1
S''
p2
sS'direction'
p3
S'Outgoing'
p4
sS'remote'
p5
g2
sS'description'
p6
S'Voice Call'
p7
sS'callid'
p8
L1191L
sS'oid'
p9
L819669L
sS'number'
p10
g2
sS'person_oid'
p11
L77L
sS'contact'
p12
L63L
sS'starttime'
p13
cdatetime
datetime
p14
(S'\x07\xd5\x02\x08\r;"\x00\x00\x00'
p15
tp16
Rp17
sS'duration'
p18
L193L
sS'endtime'
p19
g14
(S'\x07\xd5\x02\x08\x0e\x02/\x00\x00\x00'
p20
tp21
Rp22
sS'phonenumber_oid'
p23
L3474L
s.(dp0
S'status'
p1
S''
p2
sS'direction'
p3
S'Outgoing'
p4
sS'remote'
p5
g2
sS'description'
p6
S'Voice Call'
p7
sS'callid'
p8
L1195L
sS'oid'
p9
L819666L
sS'number'
p10
g2
sS'person_oid'
p11
L77L
sS'contact'
p12
L63L
sS'starttime'
p13
cdatetime
datetime
p14
(S'\x07\xd5\x02\x08\x15\x1e1\x00\x00\x00'
p15
tp16
Rp17
sS'duration'
p18
L21L
sS'endtime'
p19
g14
(S'\x07\xd5\x02\x08\x15\x1f\n\x00\x00\x00'
p20
tp21
Rp22
sS'phonenumber_oid'
p23
L3474L
s.(dp0
S'status'
p1
S''
p2
sS'direction'
p3
S'Outgoing'
p4
sS'remote'
p5
g2
sS'description'
p6
S'Voice Call'
p7
sS'callid'
p8
L1195L
sS'oid'
p9
L819670L
sS'number'
p10
g2
sS'person_oid'
p11
L77L
sS'contact'
p12
L63L
sS'starttime'
p13
cdatetime
datetime
p14
(S'\x07\xd5\x02\x08\x15\x1e1\x00\x00\x00'
p15
tp16
Rp17
sS'duration'
p18
L21L
sS'endtime'
p19
g14
(S'\x07\xd5\x02\x08\x15\x1f\n\x00\x00\x00'
p20
tp21
Rp22
sS'phonenumber_oid'
p23
L3474L
s.(dp0
S'status'
p1
S''
p2
sS'direction'
p3
S'Outgoing'
p4
sS'remote'
p5
g2
sS'description'
p6
S'Voice Call'
p7
sS'callid'
p8
L1196L
sS'oid'
p9
L819667L
sS'number'
p10
g2
sS'person_oid'
p11
L77L
sS'contact'
p12
L63L
sS'starttime'
p13
cdatetime
datetime
p14
(S'\x07\xd5\x02\x08\x159\x15\x00\x00\x00'
p15
tp16
Rp17
sS'duration'
p18
L19L
sS'endtime'
p19
g14
(S'\x07\xd5\x02\x08\x159(\x00\x00\x00'
p20
tp21
Rp22
sS'phonenumber_oid'
p23
L3474L
s.(dp0
S'status'
p1
S''
p2
sS'direction'
p3
S'Outgoing'
p4
sS'remote'
p5
g2
sS'description'
p6
S'Voice Call'
p7
sS'callid'
p8
L1196L
sS'oid'
p9
L819671L
sS'number'
p10
g2
sS'person_oid'
p11
L77L
sS'contact'
p12
L63L
sS'starttime'
p13
cdatetime
datetime
p14
(S'\x07\xd5\x02\x08\x159\x15\x00\x00\x00'
p15
tp16
Rp17
sS'duration'
p18
L19L
sS'endtime'
p19
g14
(S'\x07\xd5\x02\x08\x159(\x00\x00\x00'
p20
tp21
Rp22
sS'phonenumber_oid'
p23
L3474L
s.(dp0
S'status'
p1
S''
p2
sS'direction'
p3
S'Outgoing'
p4
sS'remote'
p5
g2
sS'description'
p6
S'Voice Call'
p7
sS'callid'
p8
L1199L
sS'oid'
p9
L819672L
sS'number'
p10
g2
sS'person_oid'
p11
L77L
sS'contact'
p12
L3L
sS'starttime'
p13
cdatetime
datetime
p14
(S'\x07\xd5\x02\t\x1480\x00\x00\x00'
p15
tp16
Rp17
sS'duration'
p18
L60L
sS'endtime'
p19
g14
(S'\x07\xd5\x02\t\x1490\x00\x00\x00'
p20
tp21
Rp22
sS'phonenumber_oid'
p23
L3507L
s.(dp0
S'status'
p1
S''
p2
sS'direction'
p3
S'Outgoing'
p4
sS'remote'
p5
g2
sS'description'
p6
S'Voice Call'
p7
sS'callid'
p8
L1199L
sS'oid'
p9
L819673L
sS'number'
p10
g2
sS'person_oid'
p11
L77L
sS'contact'
p12
L3L
sS'starttime'
p13
cdatetime
datetime
p14
(S'\x07\xd5\x02\t\x1480\x00\x00\x00'
p15
tp16
Rp17
sS'duration'
p18
L60L
sS'endtime'
p19
g14
(S'\x07\xd5\x02\t\x1490\x00\x00\x00'
p20
tp21
Rp22
sS'phonenumber_oid'
p23
L3507L
s.(dp0
S'status'
p1
S''
p2
sS'direction'
p3
S'Outgoing'
p4
sS'remote'
p5
g2
sS'description'
p6
S'Voice Call'
p7
sS'callid'
p8
L1201L
sS'oid'
p9
L819674L
sS'number'
p10
g2
sS'person_oid'
p11
L77L
sS'contact'
p12
L121L
sS'starttime'
p13
cdatetime
datetime
p14
(S'\x07\xd5\x02\x0c\x0c6\x12\x00\x00\x00'
p15
tp16
Rp17
sS'duration'
p18
L28L
sS'endtime'
p19
g14
(S'\x07\xd5\x02\x0c\x0c6.\x00\x00\x00'
p20
tp21
Rp22
sS'phonenumber_oid'
p23
L3487L
s.(dp0
S'status'
p1
S''
p2
sS'direction'
p3
S'Outgoing'
p4
sS'remote'
p5
g2
sS'description'
p6
S'Voice Call'
p7
sS'callid'
p8
L1201L
sS'oid'
p9
L819679L
sS'number'
p10
g2
sS'person_oid'
p11
L77L
sS'contact'
p12
L121L
sS'starttime'
p13
cdatetime
datetime
p14
(S'\x07\xd5\x02\x0c\x0c6\x12\x00\x00\x00'
p15
tp16
Rp17
sS'duration'
p18
L28L
sS'endtime'
p19
g14
(S'\x07\xd5\x02\x0c\x0c6.\x00\x00\x00'
p20
tp21
Rp22
sS'phonenumber_oid'
p23
L3487L
s.(dp0
S'status'
p1
S''
p2
sS'direction'
p3
S'Outgoing'
p4
sS'remote'
p5
g2
sS'description'
p6
S'Voice Call'
p7
sS'callid'
p8
L1202L
sS'oid'
p9
L819675L
sS'number'
p10
g2
sS'person_oid'
p11
L77L
sS'contact'
p12
L10L
sS'starttime'
p13
cdatetime
datetime
p14
(S'\x07\xd5\x02\x0c\x0c7\x0f\x00\x00\x00'
p15
tp16
Rp17
sS'duration'
p18
L24L
sS'endtime'
p19
g14
(S"\x07\xd5\x02\x0c\x0c7'\x00\x00\x00"
p20
tp21
Rp22
sS'phonenumber_oid'
p23
L3476L
s.(dp0
S'status'
p1
S''
p2
sS'direction'
p3
S'Outgoing'
p4
sS'remote'
p5
g2
sS'description'
p6
S'Voice Call'
p7
sS'callid'
p8
L1202L
sS'oid'
p9
L819680L
sS'number'
p10
g2
sS'person_oid'
p11
L77L
sS'contact'
p12
L10L
sS'starttime'
p13
cdatetime
datetime
p14
(S'\x07\xd5\x02\x0c\x0c7\x0f\x00\x00\x00'
p15
tp16
Rp17
sS'duration'
p18
L24L
sS'endtime'
p19
g14
(S"\x07\xd5\x02\x0c\x0c7'\x00\x00\x00"
p20
tp21
Rp22
sS'phonenumber_oid'
p23
L3476L
s.(dp0
S'status'
p1
S''
p2
sS'direction'
p3
S'Outgoing'
p4
sS'remote'
p5
g2
sS'description'
p6
S'Voice Call'
p7
sS'callid'
p8
L1206L
sS'oid'
p9
L819676L
sS'number'
p10
g2
sS'person_oid'
p11
L77L
sS'contact'
p12
L10L
sS'starttime'
p13
cdatetime
datetime
p14
(S'\x07\xd5\x02\x0c\x10\x13!\x00\x00\x00'
p15
tp16
Rp17
sS'duration'
p18
L55L
sS'endtime'
p19
g14
(S'\x07\xd5\x02\x0c\x10\x14\x1c\x00\x00\x00'
p20
tp21
Rp22
sS'phonenumber_oid'
p23
L3476L
s.(dp0
S'status'
p1
S''
p2
sS'direction'
p3
S'Outgoing'
p4
sS'remote'
p5
g2
sS'description'
p6
S'Voice Call'
p7
sS'callid'
p8
L1206L
sS'oid'
p9
L819681L
sS'number'
p10
g2
sS'person_oid'
p11
L77L
sS'contact'
p12
L10L
sS'starttime'
p13
cdatetime
datetime
p14
(S'\x07\xd5\x02\x0c\x10\x13!\x00\x00\x00'
p15
tp16
Rp17
sS'duration'
p18
L55L
sS'endtime'
p19
g14
(S'\x07\xd5\x02\x0c\x10\x14\x1c\x00\x00\x00'
p20
tp21
Rp22
sS'phonenumber_oid'
p23
L3476L
s.(dp0
S'status'
p1
S''
p2
sS'direction'
p3
S'Outgoing'
p4
sS'remote'
p5
g2
sS'description'
p6
S'Voice Call'
p7
sS'callid'
p8
L1210L
sS'oid'
p9
L819677L
sS'number'
p10
g2
sS'person_oid'
p11
L77L
sS'contact'
p12
L14L
sS'starttime'
p13
cdatetime
datetime
p14
(S'\x07\xd5\x02\x0c\x13\t\x07\x00\x00\x00'
p15
tp16
Rp17
sS'duration'
p18
L72L
sS'endtime'
p19
g14
(S'\x07\xd5\x02\x0c\x13\n\x13\x00\x00\x00'
p20
tp21
Rp22
sS'phonenumber_oid'
p23
L3495L
s.(dp0
S'status'
p1
S''
p2
sS'direction'
p3
S'Outgoing'
p4
sS'remote'
p5
g2
sS'description'
p6
S'Voice Call'
p7
sS'callid'
p8
L1210L
sS'oid'
p9
L819682L
sS'number'
p10
g2
sS'person_oid'
p11
L77L
sS'contact'
p12
L14L
sS'starttime'
p13
cdatetime
datetime
p14
(S'\x07\xd5\x02\x0c\x13\t\x07\x00\x00\x00'
p15
tp16
Rp17
sS'duration'
p18
L72L
sS'endtime'
p19
g14
(S'\x07\xd5\x02\x0c\x13\n\x13\x00\x00\x00'
p20
tp21
Rp22
sS'phonenumber_oid'
p23
L3495L
s.(dp0
S'status'
p1
S''
p2
sS'direction'
p3
S'Incoming'
p4
sS'remote'
p5
g2
sS'description'
p6
S'Voice Call'
p7
sS'callid'
p8
L1212L
sS'oid'
p9
L819678L
sS'number'
p10
g2
sS'person_oid'
p11
L77L
sS'contact'
p12
L14L
sS'starttime'
p13
cdatetime
datetime
p14
(S'\x07\xd5\x02\x0c\x13\t0\x00\x00\x00'
p15
tp16
Rp17
sS'duration'
p18
L1055L
sS'endtime'
p19
g14
(S'\x07\xd5\x02\x0c\x13\x1b\x17\x00\x00\x00'
p20
tp21
Rp22
sS'phonenumber_oid'
p23
L3495L
s.(dp0
S'status'
p1
S''
p2
sS'direction'
p3
S'Incoming'
p4
sS'remote'
p5
g2
sS'description'
p6
S'Voice Call'
p7
sS'callid'
p8
L1212L
sS'oid'
p9
L819683L
sS'number'
p10
g2
sS'person_oid'
p11
L77L
sS'contact'
p12
L14L
sS'starttime'
p13
cdatetime
datetime
p14
(S'\x07\xd5\x02\x0c\x13\t0\x00\x00\x00'
p15
tp16
Rp17
sS'duration'
p18
L1055L
sS'endtime'
p19
g14
(S'\x07\xd5\x02\x0c\x13\x1b\x17\x00\x00\x00'
p20
tp21
Rp22
sS'phonenumber_oid'
p23
L3495L
s.(dp0
S'status'
p1
S''
p2
sS'direction'
p3
S'Outgoing'
p4
sS'remote'
p5
g2
sS'description'
p6
S'Voice Call'
p7
sS'callid'
p8
L1213L
sS'oid'
p9
L819684L
sS'number'
p10
g2
sS'person_oid'
p11
L77L
sS'contact'
p12
L63L
sS'starttime'
p13
cdatetime
datetime
p14
(S'\x07\xd5\x02\r\x10\x01$\x00\x00\x00'
p15
tp16
Rp17
sS'duration'
p18
L16L
sS'endtime'
p19
g14
(S'\x07\xd5\x02\r\x10\x014\x00\x00\x00'
p20
tp21
Rp22
sS'phonenumber_oid'
p23
L3474L
s.(dp0
S'status'
p1
S''
p2
sS'direction'
p3
S'Outgoing'
p4
sS'remote'
p5
g2
sS'description'
p6
S'Voice Call'
p7
sS'callid'
p8
L1213L
sS'oid'
p9
L819685L
sS'number'
p10
g2
sS'person_oid'
p11
L77L
sS'contact'
p12
L63L
sS'starttime'
p13
cdatetime
datetime
p14
(S'\x07\xd5\x02\r\x10\x01$\x00\x00\x00'
p15
tp16
Rp17
sS'duration'
p18
L16L
sS'endtime'
p19
g14
(S'\x07\xd5\x02\r\x10\x014\x00\x00\x00'
p20
tp21
Rp22
sS'phonenumber_oid'
p23
L3474L
s.(dp0
S'status'
p1
S''
p2
sS'direction'
p3
S'Outgoing'
p4
sS'remote'
p5
g2
sS'description'
p6
S'Voice Call'
p7
sS'callid'
p8
L1218L
sS'oid'
p9
L819686L
sS'number'
p10
g2
sS'person_oid'
p11
L77L
sS'contact'
p12
L10L
sS'starttime'
p13
cdatetime
datetime
p14
(S"\x07\xd5\x02\x0e\x11\x19'\x00\x00\x00"
p15
tp16
Rp17
sS'duration'
p18
L38L
sS'endtime'
p19
g14
(S'\x07\xd5\x02\x0e\x11\x1a\x11\x00\x00\x00'
p20
tp21
Rp22
sS'phonenumber_oid'
p23
L3476L
s.(dp0
S'status'
p1
S''
p2
sS'direction'
p3
S'Outgoing'
p4
sS'remote'
p5
g2
sS'description'
p6
S'Voice Call'
p7
sS'callid'
p8
L1218L
sS'oid'
p9
L819687L
sS'number'
p10
g2
sS'person_oid'
p11
L77L
sS'contact'
p12
L10L
sS'starttime'
p13
cdatetime
datetime
p14
(S"\x07\xd5\x02\x0e\x11\x19'\x00\x00\x00"
p15
tp16
Rp17
sS'duration'
p18
L38L
sS'endtime'
p19
g14
(S'\x07\xd5\x02\x0e\x11\x1a\x11\x00\x00\x00'
p20
tp21
Rp22
sS'phonenumber_oid'
p23
L3476L
s.(dp0
S'status'
p1
S''
p2
sS'direction'
p3
S'Outgoing'
p4
sS'remote'
p5
g2
sS'description'
p6
S'Voice Call'
p7
sS'callid'
p8
L1223L
sS'oid'
p9
L819688L
sS'number'
p10
g2
sS'person_oid'
p11
L77L
sS'contact'
p12
L63L
sS'starttime'
p13
cdatetime
datetime
p14
(S'\x07\xd5\x02\x0f\x12\x03\x12\x00\x00\x00'
p15
tp16
Rp17
sS'duration'
p18
L159L
sS'endtime'
p19
g14
(S'\x07\xd5\x02\x0f\x12\x059\x00\x00\x00'
p20
tp21
Rp22
sS'phonenumber_oid'
p23
L3474L
s.(dp0
S'status'
p1
S''
p2
sS'direction'
p3
S'Outgoing'
p4
sS'remote'
p5
g2
sS'description'
p6
S'Voice Call'
p7
sS'callid'
p8
L1223L
sS'oid'
p9
L819690L
sS'number'
p10
g2
sS'person_oid'
p11
L77L
sS'contact'
p12
L63L
sS'starttime'
p13
cdatetime
datetime
p14
(S'\x07\xd5\x02\x0f\x12\x03\x12\x00\x00\x00'
p15
tp16
Rp17
sS'duration'
p18
L159L
sS'endtime'
p19
g14
(S'\x07\xd5\x02\x0f\x12\x059\x00\x00\x00'
p20
tp21
Rp22
sS'phonenumber_oid'
p23
L3474L
s.(dp0
S'status'
p1
S''
p2
sS'direction'
p3
S'Outgoing'
p4
sS'remote'
p5
g2
sS'description'
p6
S'Voice Call'
p7
sS'callid'
p8
L1228L
sS'oid'
p9
L819689L
sS'number'
p10
g2
sS'person_oid'
p11
L77L
sS'contact'
p12
L10L
sS'starttime'
p13
cdatetime
datetime
p14
(S'\x07\xd5\x02\x0f\x13\x1e%\x00\x00\x00'
p15
tp16
Rp17
sS'duration'
p18
L65L
sS'endtime'
p19
g14
(S'\x07\xd5\x02\x0f\x13\x1f*\x00\x00\x00'
p20
tp21
Rp22
sS'phonenumber_oid'
p23
L3476L
s.(dp0
S'status'
p1
S''
p2
sS'direction'
p3
S'Outgoing'
p4
sS'remote'
p5
g2
sS'description'
p6
S'Voice Call'
p7
sS'callid'
p8
L1228L
sS'oid'
p9
L819691L
sS'number'
p10
g2
sS'person_oid'
p11
L77L
sS'contact'
p12
L10L
sS'starttime'
p13
cdatetime
datetime
p14
(S'\x07\xd5\x02\x0f\x13\x1e%\x00\x00\x00'
p15
tp16
Rp17
sS'duration'
p18
L65L
sS'endtime'
p19
g14
(S'\x07\xd5\x02\x0f\x13\x1f*\x00\x00\x00'
p20
tp21
Rp22
sS'phonenumber_oid'
p23
L3476L
s.(dp0
S'status'
p1
S''
p2
sS'direction'
p3
S'Outgoing'
p4
sS'remote'
p5
g2
sS'description'
p6
S'Voice Call'
p7
sS'callid'
p8
L1233L
sS'oid'
p9
L819692L
sS'number'
p10
g2
sS'person_oid'
p11
L77L
sS'contact'
p12
L10L
sS'starttime'
p13
cdatetime
datetime
p14
(S'\x07\xd5\x02\x10\x11\x1e\x07\x00\x00\x00'
p15
tp16
Rp17
sS'duration'
p18
L31L
sS'endtime'
p19
g14
(S'\x07\xd5\x02\x10\x11\x1e&\x00\x00\x00'
p20
tp21
Rp22
sS'phonenumber_oid'
p23
L3476L
s.(dp0
S'status'
p1
S''
p2
sS'direction'
p3
S'Outgoing'
p4
sS'remote'
p5
g2
sS'description'
p6
S'Voice Call'
p7
sS'callid'
p8
L1233L
sS'oid'
p9
L819695L
sS'number'
p10
g2
sS'person_oid'
p11
L77L
sS'contact'
p12
L10L
sS'starttime'
p13
cdatetime
datetime
p14
(S'\x07\xd5\x02\x10\x11\x1e\x07\x00\x00\x00'
p15
tp16
Rp17
sS'duration'
p18
L31L
sS'endtime'
p19
g14
(S'\x07\xd5\x02\x10\x11\x1e&\x00\x00\x00'
p20
tp21
Rp22
sS'phonenumber_oid'
p23
L3476L
s.(dp0
S'status'
p1
S''
p2
sS'direction'
p3
S'Missed Call'
p4
sS'remote'
p5
g2
sS'description'
p6
S'Voice Call'
p7
sS'callid'
p8
L1237L
sS'oid'
p9
L819693L
sS'number'
p10
g2
sS'person_oid'
p11
L77L
sS'contact'
p12
L63L
sS'starttime'
p13
cdatetime
datetime
p14
(S'\x07\xd5\x02\x11\x01\x1a\x15\x00\x00\x00'
p15
tp16
Rp17
sS'duration'
p18
L0L
sS'endtime'
p19
g14
(S'\x07\xd5\x02\x11\x01\x1a\x15\x00\x00\x00'
p20
tp21
Rp22
sS'phonenumber_oid'
p23
L3474L
s.(dp0
S'status'
p1
S''
p2
sS'direction'
p3
S'Missed Call'
p4
sS'remote'
p5
g2
sS'description'
p6
S'Voice Call'
p7
sS'callid'
p8
L1237L
sS'oid'
p9
L819696L
sS'number'
p10
g2
sS'person_oid'
p11
L77L
sS'contact'
p12
L63L
sS'starttime'
p13
cdatetime
datetime
p14
(S'\x07\xd5\x02\x11\x01\x1a\x15\x00\x00\x00'
p15
tp16
Rp17
sS'duration'
p18
L0L
sS'endtime'
p19
g14
(S'\x07\xd5\x02\x11\x01\x1a\x15\x00\x00\x00'
p20
tp21
Rp22
sS'phonenumber_oid'
p23
L3474L
s.(dp0
S'status'
p1
S''
p2
sS'direction'
p3
S'Incoming'
p4
sS'remote'
p5
g2
sS'description'
p6
S'Voice Call'
p7
sS'callid'
p8
L1239L
sS'oid'
p9
L819694L
sS'number'
p10
g2
sS'person_oid'
p11
L77L
sS'contact'
p12
L63L
sS'starttime'
p13
cdatetime
datetime
p14
(S'\x07\xd5\x02\x11\x01\x1b\n\x00\x00\x00'
p15
tp16
Rp17
sS'duration'
p18
L20L
sS'endtime'
p19
g14
(S'\x07\xd5\x02\x11\x01\x1b\x1e\x00\x00\x00'
p20
tp21
Rp22
sS'phonenumber_oid'
p23
L3474L
s.(dp0
S'status'
p1
S''
p2
sS'direction'
p3
S'Incoming'
p4
sS'remote'
p5
g2
sS'description'
p6
S'Voice Call'
p7
sS'callid'
p8
L1239L
sS'oid'
p9
L819697L
sS'number'
p10
g2
sS'person_oid'
p11
L77L
sS'contact'
p12
L63L
sS'starttime'
p13
cdatetime
datetime
p14
(S'\x07\xd5\x02\x11\x01\x1b\n\x00\x00\x00'
p15
tp16
Rp17
sS'duration'
p18
L20L
sS'endtime'
p19
g14
(S'\x07\xd5\x02\x11\x01\x1b\x1e\x00\x00\x00'
p20
tp21
Rp22
sS'phonenumber_oid'
p23
L3474L
s.(dp0
S'status'
p1
S''
p2
sS'direction'
p3
S'Outgoing'
p4
sS'remote'
p5
g2
sS'description'
p6
S'Voice Call'
p7
sS'callid'
p8
L1240L
sS'oid'
p9
L819698L
sS'number'
p10
g2
sS'person_oid'
p11
L77L
sS'contact'
p12
L10L
sS'starttime'
p13
cdatetime
datetime
p14
(S'\x07\xd5\x02\x11\x0f\x16:\x00\x00\x00'
p15
tp16
Rp17
sS'duration'
p18
L33L
sS'endtime'
p19
g14
(S'\x07\xd5\x02\x11\x0f\x17\x1f\x00\x00\x00'
p20
tp21
Rp22
sS'phonenumber_oid'
p23
L3476L
s.(dp0
S'status'
p1
S''
p2
sS'direction'
p3
S'Outgoing'
p4
sS'remote'
p5
g2
sS'description'
p6
S'Voice Call'
p7
sS'callid'
p8
L1240L
sS'oid'
p9
L819700L
sS'number'
p10
g2
sS'person_oid'
p11
L77L
sS'contact'
p12
L10L
sS'starttime'
p13
cdatetime
datetime
p14
(S'\x07\xd5\x02\x11\x0f\x16:\x00\x00\x00'
p15
tp16
Rp17
sS'duration'
p18
L33L
sS'endtime'
p19
g14
(S'\x07\xd5\x02\x11\x0f\x17\x1f\x00\x00\x00'
p20
tp21
Rp22
sS'phonenumber_oid'
p23
L3476L
s.(dp0
S'status'
p1
S''
p2
sS'direction'
p3
S'Outgoing'
p4
sS'remote'
p5
g2
sS'description'
p6
S'Voice Call'
p7
sS'callid'
p8
L1243L
sS'oid'
p9
L819699L
sS'number'
p10
g2
sS'person_oid'
p11
L77L
sS'contact'
p12
L10L
sS'starttime'
p13
cdatetime
datetime
p14
(S'\x07\xd5\x02\x11\x11\x02\t\x00\x00\x00'
p15
tp16
Rp17
sS'duration'
p18
L51L
sS'endtime'
p19
g14
(S'\x07\xd5\x02\x11\x11\x03\x00\x00\x00\x00'
p20
tp21
Rp22
sS'phonenumber_oid'
p23
L3476L
s.(dp0
S'status'
p1
S''
p2
sS'direction'
p3
S'Outgoing'
p4
sS'remote'
p5
g2
sS'description'
p6
S'Voice Call'
p7
sS'callid'
p8
L1243L
sS'oid'
p9
L819701L
sS'number'
p10
g2
sS'person_oid'
p11
L77L
sS'contact'
p12
L10L
sS'starttime'
p13
cdatetime
datetime
p14
(S'\x07\xd5\x02\x11\x11\x02\t\x00\x00\x00'
p15
tp16
Rp17
sS'duration'
p18
L51L
sS'endtime'
p19
g14
(S'\x07\xd5\x02\x11\x11\x03\x00\x00\x00\x00'
p20
tp21
Rp22
sS'phonenumber_oid'
p23
L3476L
s.(dp0
S'status'
p1
S''
p2
sS'direction'
p3
S'Outgoing'
p4
sS'remote'
p5
g2
sS'description'
p6
S'Voice Call'
p7
sS'callid'
p8
L1246L
sS'oid'
p9
L819702L
sS'number'
p10
g2
sS'person_oid'
p11
L77L
sS'contact'
p12
L63L
sS'starttime'
p13
cdatetime
datetime
p14
(S'\x07\xd5\x02\x12\x0e\x18\x17\x00\x00\x00'
p15
tp16
Rp17
sS'duration'
p18
L26L
sS'endtime'
p19
g14
(S'\x07\xd5\x02\x12\x0e\x181\x00\x00\x00'
p20
tp21
Rp22
sS'phonenumber_oid'
p23
L3474L
s.(dp0
S'status'
p1
S''
p2
sS'direction'
p3
S'Outgoing'
p4
sS'remote'
p5
g2
sS'description'
p6
S'Voice Call'
p7
sS'callid'
p8
L1246L
sS'oid'
p9
L819703L
sS'number'
p10
g2
sS'person_oid'
p11
L77L
sS'contact'
p12
L63L
sS'starttime'
p13
cdatetime
datetime
p14
(S'\x07\xd5\x02\x12\x0e\x18\x17\x00\x00\x00'
p15
tp16
Rp17
sS'duration'
p18
L26L
sS'endtime'
p19
g14
(S'\x07\xd5\x02\x12\x0e\x181\x00\x00\x00'
p20
tp21
Rp22
sS'phonenumber_oid'
p23
L3474L
s.(dp0
S'status'
p1
S''
p2
sS'direction'
p3
S'Missed Call'
p4
sS'remote'
p5
g2
sS'description'
p6
S'Voice Call'
p7
sS'callid'
p8
L1250L
sS'oid'
p9
L819704L
sS'number'
p10
g2
sS'person_oid'
p11
L77L
sS'contact'
p12
L143L
sS'starttime'
p13
cdatetime
datetime
p14
(S'\x07\xd5\x02\x13\t9/\x00\x00\x00'
p15
tp16
Rp17
sS'duration'
p18
L0L
sS'endtime'
p19
g14
(S'\x07\xd5\x02\x13\t9/\x00\x00\x00'
p20
tp21
Rp22
sS'phonenumber_oid'
p23
L3481L
s.(dp0
S'status'
p1
S''
p2
sS'direction'
p3
S'Missed Call'
p4
sS'remote'
p5
g2
sS'description'
p6
S'Voice Call'
p7
sS'callid'
p8
L1250L
sS'oid'
p9
L819708L
sS'number'
p10
g2
sS'person_oid'
p11
L77L
sS'contact'
p12
L143L
sS'starttime'
p13
cdatetime
datetime
p14
(S'\x07\xd5\x02\x13\t9/\x00\x00\x00'
p15
tp16
Rp17
sS'duration'
p18
L0L
sS'endtime'
p19
g14
(S'\x07\xd5\x02\x13\t9/\x00\x00\x00'
p20
tp21
Rp22
sS'phonenumber_oid'
p23
L3481L
s.(dp0
S'status'
p1
S''
p2
sS'direction'
p3
S'Missed Call'
p4
sS'remote'
p5
g2
sS'description'
p6
S'Voice Call'
p7
sS'callid'
p8
L1251L
sS'oid'
p9
L819705L
sS'number'
p10
g2
sS'person_oid'
p11
L77L
sS'contact'
p12
L143L
sS'starttime'
p13
cdatetime
datetime
p14
(S'\x07\xd5\x02\x13\n\x01\x0f\x00\x00\x00'
p15
tp16
Rp17
sS'duration'
p18
L0L
sS'endtime'
p19
g14
(S'\x07\xd5\x02\x13\n\x01\x0f\x00\x00\x00'
p20
tp21
Rp22
sS'phonenumber_oid'
p23
L3481L
s.(dp0
S'status'
p1
S''
p2
sS'direction'
p3
S'Missed Call'
p4
sS'remote'
p5
g2
sS'description'
p6
S'Voice Call'
p7
sS'callid'
p8
L1251L
sS'oid'
p9
L819709L
sS'number'
p10
g2
sS'person_oid'
p11
L77L
sS'contact'
p12
L143L
sS'starttime'
p13
cdatetime
datetime
p14
(S'\x07\xd5\x02\x13\n\x01\x0f\x00\x00\x00'
p15
tp16
Rp17
sS'duration'
p18
L0L
sS'endtime'
p19
g14
(S'\x07\xd5\x02\x13\n\x01\x0f\x00\x00\x00'
p20
tp21
Rp22
sS'phonenumber_oid'
p23
L3481L
s.(dp0
S'status'
p1
S''
p2
sS'direction'
p3
S'Outgoing'
p4
sS'remote'
p5
g2
sS'description'
p6
S'Voice Call'
p7
sS'callid'
p8
L1253L
sS'oid'
p9
L819706L
sS'number'
p10
g2
sS'person_oid'
p11
L77L
sS'contact'
p12
L10L
sS'starttime'
p13
cdatetime
datetime
p14
(S'\x07\xd5\x02\x13\n\t\x05\x00\x00\x00'
p15
tp16
Rp17
sS'duration'
p18
L50L
sS'endtime'
p19
g14
(S'\x07\xd5\x02\x13\n\t7\x00\x00\x00'
p20
tp21
Rp22
sS'phonenumber_oid'
p23
L3476L
s.(dp0
S'status'
p1
S''
p2
sS'direction'
p3
S'Outgoing'
p4
sS'remote'
p5
g2
sS'description'
p6
S'Voice Call'
p7
sS'callid'
p8
L1253L
sS'oid'
p9
L819710L
sS'number'
p10
g2
sS'person_oid'
p11
L77L
sS'contact'
p12
L10L
sS'starttime'
p13
cdatetime
datetime
p14
(S'\x07\xd5\x02\x13\n\t\x05\x00\x00\x00'
p15
tp16
Rp17
sS'duration'
p18
L50L
sS'endtime'
p19
g14
(S'\x07\xd5\x02\x13\n\t7\x00\x00\x00'
p20
tp21
Rp22
sS'phonenumber_oid'
p23
L3476L
s.(dp0
S'status'
p1
S''
p2
sS'direction'
p3
S'Outgoing'
p4
sS'remote'
p5
g2
sS'description'
p6
S'Voice Call'
p7
sS'callid'
p8
L1255L
sS'oid'
p9
L819707L
sS'number'
p10
g2
sS'person_oid'
p11
L77L
sS'contact'
p12
L143L
sS'starttime'
p13
cdatetime
datetime
p14
(S'\x07\xd5\x02\x13\n\n\x0b\x00\x00\x00'
p15
tp16
Rp17
sS'duration'
p18
L45L
sS'endtime'
p19
g14
(S'\x07\xd5\x02\x13\n\n8\x00\x00\x00'
p20
tp21
Rp22
sS'phonenumber_oid'
p23
L3481L
s.(dp0
S'status'
p1
S''
p2
sS'direction'
p3
S'Outgoing'
p4
sS'remote'
p5
g2
sS'description'
p6
S'Voice Call'
p7
sS'callid'
p8
L1255L
sS'oid'
p9
L819711L
sS'number'
p10
g2
sS'person_oid'
p11
L77L
sS'contact'
p12
L143L
sS'starttime'
p13
cdatetime
datetime
p14
(S'\x07\xd5\x02\x13\n\n\x0b\x00\x00\x00'
p15
tp16
Rp17
sS'duration'
p18
L45L
sS'endtime'
p19
g14
(S'\x07\xd5\x02\x13\n\n8\x00\x00\x00'
p20
tp21
Rp22
sS'phonenumber_oid'
p23
L3481L
s.(dp0
S'status'
p1
S''
p2
sS'direction'
p3
S'Outgoing'
p4
sS'remote'
p5
g2
sS'description'
p6
S'Voice Call'
p7
sS'callid'
p8
L1257L
sS'oid'
p9
L819712L
sS'number'
p10
g2
sS'person_oid'
p11
L77L
sS'contact'
p12
L10L
sS'starttime'
p13
cdatetime
datetime
p14
(S'\x07\xd5\x02\x16\t\x15\x01\x00\x00\x00'
p15
tp16
Rp17
sS'duration'
p18
L1L
sS'endtime'
p19
g14
(S'\x07\xd5\x02\x16\t\x15\x02\x00\x00\x00'
p20
tp21
Rp22
sS'phonenumber_oid'
p23
L3476L
s.(dp0
S'status'
p1
S''
p2
sS'direction'
p3
S'Outgoing'
p4
sS'remote'
p5
g2
sS'description'
p6
S'Voice Call'
p7
sS'callid'
p8
L1257L
sS'oid'
p9
L819718L
sS'number'
p10
g2
sS'person_oid'
p11
L77L
sS'contact'
p12
L10L
sS'starttime'
p13
cdatetime
datetime
p14
(S'\x07\xd5\x02\x16\t\x15\x01\x00\x00\x00'
p15
tp16
Rp17
sS'duration'
p18
L1L
sS'endtime'
p19
g14
(S'\x07\xd5\x02\x16\t\x15\x02\x00\x00\x00'
p20
tp21
Rp22
sS'phonenumber_oid'
p23
L3476L
s.(dp0
S'status'
p1
S''
p2
sS'direction'
p3
S'Outgoing'
p4
sS'remote'
p5
g2
sS'description'
p6
S'Voice Call'
p7
sS'callid'
p8
L1258L
sS'oid'
p9
L819713L
sS'number'
p10
g2
sS'person_oid'
p11
L77L
sS'contact'
p12
L63L
sS'starttime'
p13
cdatetime
datetime
p14
(S'\x07\xd5\x02\x16\t\x15\x11\x00\x00\x00'
p15
tp16
Rp17
sS'duration'
p18
L25L
sS'endtime'
p19
g14
(S'\x07\xd5\x02\x16\t\x15*\x00\x00\x00'
p20
tp21
Rp22
sS'phonenumber_oid'
p23
L3474L
s.(dp0
S'status'
p1
S''
p2
sS'direction'
p3
S'Outgoing'
p4
sS'remote'
p5
g2
sS'description'
p6
S'Voice Call'
p7
sS'callid'
p8
L1258L
sS'oid'
p9
L819719L
sS'number'
p10
g2
sS'person_oid'
p11
L77L
sS'contact'
p12
L63L
sS'starttime'
p13
cdatetime
datetime
p14
(S'\x07\xd5\x02\x16\t\x15\x11\x00\x00\x00'
p15
tp16
Rp17
sS'duration'
p18
L25L
sS'endtime'
p19
g14
(S'\x07\xd5\x02\x16\t\x15*\x00\x00\x00'
p20
tp21
Rp22
sS'phonenumber_oid'
p23
L3474L
s.(dp0
S'status'
p1
S''
p2
sS'direction'
p3
S'Incoming'
p4
sS'remote'
p5
g2
sS'description'
p6
S'Voice Call'
p7
sS'callid'
p8
L1261L
sS'oid'
p9
L819714L
sS'number'
p10
g2
sS'person_oid'
p11
L77L
sS'contact'
p12
L63L
sS'starttime'
p13
cdatetime
datetime
p14
(S'\x07\xd5\x02\x16\x0f\t\x1a\x00\x00\x00'
p15
tp16
Rp17
sS'duration'
p18
L0L
sS'endtime'
p19
g14
(S'\x07\xd5\x02\x16\x0f\t\x1a\x00\x00\x00'
p20
tp21
Rp22
sS'phonenumber_oid'
p23
L3474L
s.(dp0
S'status'
p1
S''
p2
sS'direction'
p3
S'Incoming'
p4
sS'remote'
p5
g2
sS'description'
p6
S'Voice Call'
p7
sS'callid'
p8
L1261L
sS'oid'
p9
L819720L
sS'number'
p10
g2
sS'person_oid'
p11
L77L
sS'contact'
p12
L63L
sS'starttime'
p13
cdatetime
datetime
p14
(S'\x07\xd5\x02\x16\x0f\t\x1a\x00\x00\x00'
p15
tp16
Rp17
sS'duration'
p18
L0L
sS'endtime'
p19
g14
(S'\x07\xd5\x02\x16\x0f\t\x1a\x00\x00\x00'
p20
tp21
Rp22
sS'phonenumber_oid'
p23
L3474L
s.(dp0
S'status'
p1
S''
p2
sS'direction'
p3
S'Outgoing'
p4
sS'remote'
p5
g2
sS'description'
p6
S'Voice Call'
p7
sS'callid'
p8
L1263L
sS'oid'
p9
L819715L
sS'number'
p10
g2
sS'person_oid'
p11
L77L
sS'contact'
p12
L10L
sS'starttime'
p13
cdatetime
datetime
p14
(S'\x07\xd5\x02\x16\x0f\x0c\x1a\x00\x00\x00'
p15
tp16
Rp17
sS'duration'
p18
L40L
sS'endtime'
p19
g14
(S'\x07\xd5\x02\x16\x0f\r\x06\x00\x00\x00'
p20
tp21
Rp22
sS'phonenumber_oid'
p23
L3476L
s.(dp0
S'status'
p1
S''
p2
sS'direction'
p3
S'Outgoing'
p4
sS'remote'
p5
g2
sS'description'
p6
S'Voice Call'
p7
sS'callid'
p8
L1263L
sS'oid'
p9
L819721L
sS'number'
p10
g2
sS'person_oid'
p11
L77L
sS'contact'
p12
L10L
sS'starttime'
p13
cdatetime
datetime
p14
(S'\x07\xd5\x02\x16\x0f\x0c\x1a\x00\x00\x00'
p15
tp16
Rp17
sS'duration'
p18
L40L
sS'endtime'
p19
g14
(S'\x07\xd5\x02\x16\x0f\r\x06\x00\x00\x00'
p20
tp21
Rp22
sS'phonenumber_oid'
p23
L3476L
s.(dp0
S'status'
p1
S''
p2
sS'direction'
p3
S'Incoming'
p4
sS'remote'
p5
g2
sS'description'
p6
S'Voice Call'
p7
sS'callid'
p8
L1266L
sS'oid'
p9
L819716L
sS'number'
p10
g2
sS'person_oid'
p11
L77L
sS'contact'
p12
L63L
sS'starttime'
p13
cdatetime
datetime
p14
(S'\x07\xd5\x02\x16\x100\x1a\x00\x00\x00'
p15
tp16
Rp17
sS'duration'
p18
L0L
sS'endtime'
p19
g14
(S'\x07\xd5\x02\x16\x100\x1a\x00\x00\x00'
p20
tp21
Rp22
sS'phonenumber_oid'
p23
L3474L
s.(dp0
S'status'
p1
S''
p2
sS'direction'
p3
S'Incoming'
p4
sS'remote'
p5
g2
sS'description'
p6
S'Voice Call'
p7
sS'callid'
p8
L1266L
sS'oid'
p9
L819722L
sS'number'
p10
g2
sS'person_oid'
p11
L77L
sS'contact'
p12
L63L
sS'starttime'
p13
cdatetime
datetime
p14
(S'\x07\xd5\x02\x16\x100\x1a\x00\x00\x00'
p15
tp16
Rp17
sS'duration'
p18
L0L
sS'endtime'
p19
g14
(S'\x07\xd5\x02\x16\x100\x1a\x00\x00\x00'
p20
tp21
Rp22
sS'phonenumber_oid'
p23
L3474L
s.(dp0
S'status'
p1
S''
p2
sS'direction'
p3
S'Outgoing'
p4
sS'remote'
p5
g2
sS'description'
p6
S'Voice Call'
p7
sS'callid'
p8
L1268L
sS'oid'
p9
L819717L
sS'number'
p10
g2
sS'person_oid'
p11
L77L
sS'contact'
p12
L10L
sS'starttime'
p13
cdatetime
datetime
p14
(S'\x07\xd5\x02\x16\x11#\x16\x00\x00\x00'
p15
tp16
Rp17
sS'duration'
p18
L51L
sS'endtime'
p19
g14
(S'\x07\xd5\x02\x16\x11$\r\x00\x00\x00'
p20
tp21
Rp22
sS'phonenumber_oid'
p23
L3476L
s.(dp0
S'status'
p1
S''
p2
sS'direction'
p3
S'Outgoing'
p4
sS'remote'
p5
g2
sS'description'
p6
S'Voice Call'
p7
sS'callid'
p8
L1268L
sS'oid'
p9
L819723L
sS'number'
p10
g2
sS'person_oid'
p11
L77L
sS'contact'
p12
L10L
sS'starttime'
p13
cdatetime
datetime
p14
(S'\x07\xd5\x02\x16\x11#\x16\x00\x00\x00'
p15
tp16
Rp17
sS'duration'
p18
L51L
sS'endtime'
p19
g14
(S'\x07\xd5\x02\x16\x11$\r\x00\x00\x00'
p20
tp21
Rp22
sS'phonenumber_oid'
p23
L3476L
s.(dp0
S'status'
p1
S''
p2
sS'direction'
p3
S'Outgoing'
p4
sS'remote'
p5
g2
sS'description'
p6
S'Voice Call'
p7
sS'callid'
p8
L1270L
sS'oid'
p9
L819724L
sS'number'
p10
g2
sS'person_oid'
p11
L77L
sS'contact'
p12
L174L
sS'starttime'
p13
cdatetime
datetime
p14
(S'\x07\xd5\x02\x17\x0b#\x04\x00\x00\x00'
p15
tp16
Rp17
sS'duration'
p18
L35L
sS'endtime'
p19
g14
(S"\x07\xd5\x02\x17\x0b#'\x00\x00\x00"
p20
tp21
Rp22
sS'phonenumber_oid'
p23
L3509L
s.(dp0
S'status'
p1
S''
p2
sS'direction'
p3
S'Outgoing'
p4
sS'remote'
p5
g2
sS'description'
p6
S'Voice Call'
p7
sS'callid'
p8
L1270L
sS'oid'
p9
L819726L
sS'number'
p10
g2
sS'person_oid'
p11
L77L
sS'contact'
p12
L174L
sS'starttime'
p13
cdatetime
datetime
p14
(S'\x07\xd5\x02\x17\x0b#\x04\x00\x00\x00'
p15
tp16
Rp17
sS'duration'
p18
L35L
sS'endtime'
p19
g14
(S"\x07\xd5\x02\x17\x0b#'\x00\x00\x00"
p20
tp21
Rp22
sS'phonenumber_oid'
p23
L3509L
s.(dp0
S'status'
p1
S''
p2
sS'direction'
p3
S'Outgoing'
p4
sS'remote'
p5
g2
sS'description'
p6
S'Voice Call'
p7
sS'callid'
p8
L1271L
sS'oid'
p9
L819725L
sS'number'
p10
g2
sS'person_oid'
p11
L77L
sS'contact'
p12
L63L
sS'starttime'
p13
cdatetime
datetime
p14
(S'\x07\xd5\x02\x17\x13\x1b\x00\x00\x00\x00'
p15
tp16
Rp17
sS'duration'
p18
L23L
sS'endtime'
p19
g14
(S'\x07\xd5\x02\x17\x13\x1b\x17\x00\x00\x00'
p20
tp21
Rp22
sS'phonenumber_oid'
p23
L3474L
s.(dp0
S'status'
p1
S''
p2
sS'direction'
p3
S'Outgoing'
p4
sS'remote'
p5
g2
sS'description'
p6
S'Voice Call'
p7
sS'callid'
p8
L1271L
sS'oid'
p9
L819727L
sS'number'
p10
g2
sS'person_oid'
p11
L77L
sS'contact'
p12
L63L
sS'starttime'
p13
cdatetime
datetime
p14
(S'\x07\xd5\x02\x17\x13\x1b\x00\x00\x00\x00'
p15
tp16
Rp17
sS'duration'
p18
L23L
sS'endtime'
p19
g14
(S'\x07\xd5\x02\x17\x13\x1b\x17\x00\x00\x00'
p20
tp21
Rp22
sS'phonenumber_oid'
p23
L3474L
s.(dp0
S'status'
p1
S''
p2
sS'direction'
p3
S'Outgoing'
p4
sS'remote'
p5
g2
sS'description'
p6
S'Voice Call'
p7
sS'callid'
p8
L1279L
sS'oid'
p9
L819728L
sS'number'
p10
g2
sS'person_oid'
p11
L77L
sS'contact'
p12
L10L
sS'starttime'
p13
cdatetime
datetime
p14
(S'\x07\xd5\x02\x18\x0b7\n\x00\x00\x00'
p15
tp16
Rp17
sS'duration'
p18
L33L
sS'endtime'
p19
g14
(S'\x07\xd5\x02\x18\x0b7+\x00\x00\x00'
p20
tp21
Rp22
sS'phonenumber_oid'
p23
L3476L
s.(dp0
S'status'
p1
S''
p2
sS'direction'
p3
S'Outgoing'
p4
sS'remote'
p5
g2
sS'description'
p6
S'Voice Call'
p7
sS'callid'
p8
L1279L
sS'oid'
p9
L819736L
sS'number'
p10
g2
sS'person_oid'
p11
L77L
sS'contact'
p12
L10L
sS'starttime'
p13
cdatetime
datetime
p14
(S'\x07\xd5\x02\x18\x0b7\n\x00\x00\x00'
p15
tp16
Rp17
sS'duration'
p18
L33L
sS'endtime'
p19
g14
(S'\x07\xd5\x02\x18\x0b7+\x00\x00\x00'
p20
tp21
Rp22
sS'phonenumber_oid'
p23
L3476L
s.(dp0
S'status'
p1
S''
p2
sS'direction'
p3
S'Missed Call'
p4
sS'remote'
p5
g2
sS'description'
p6
S'Voice Call'
p7
sS'callid'
p8
L1281L
sS'oid'
p9
L819729L
sS'number'
p10
g2
sS'person_oid'
p11
L77L
sS'contact'
p12
L63L
sS'starttime'
p13
cdatetime
datetime
p14
(S'\x07\xd5\x02\x18\x0c1)\x00\x00\x00'
p15
tp16
Rp17
sS'duration'
p18
L0L
sS'endtime'
p19
g14
(S'\x07\xd5\x02\x18\x0c1)\x00\x00\x00'
p20
tp21
Rp22
sS'phonenumber_oid'
p23
L3474L
s.(dp0
S'status'
p1
S''
p2
sS'direction'
p3
S'Missed Call'
p4
sS'remote'
p5
g2
sS'description'
p6
S'Voice Call'
p7
sS'callid'
p8
L1281L
sS'oid'
p9
L819737L
sS'number'
p10
g2
sS'person_oid'
p11
L77L
sS'contact'
p12
L63L
sS'starttime'
p13
cdatetime
datetime
p14
(S'\x07\xd5\x02\x18\x0c1)\x00\x00\x00'
p15
tp16
Rp17
sS'duration'
p18
L0L
sS'endtime'
p19
g14
(S'\x07\xd5\x02\x18\x0c1)\x00\x00\x00'
p20
tp21
Rp22
sS'phonenumber_oid'
p23
L3474L
s.(dp0
S'status'
p1
S''
p2
sS'direction'
p3
S'Outgoing'
p4
sS'remote'
p5
g2
sS'description'
p6
S'Voice Call'
p7
sS'callid'
p8
L1283L
sS'oid'
p9
L819730L
sS'number'
p10
g2
sS'person_oid'
p11
L77L
sS'contact'
p12
L10L
sS'starttime'
p13
cdatetime
datetime
p14
(S'\x07\xd5\x02\x18\r0\x0b\x00\x00\x00'
p15
tp16
Rp17
sS'duration'
p18
L47L
sS'endtime'
p19
g14
(S'\x07\xd5\x02\x18\r0:\x00\x00\x00'
p20
tp21
Rp22
sS'phonenumber_oid'
p23
L3476L
s.(dp0
S'status'
p1
S''
p2
sS'direction'
p3
S'Outgoing'
p4
sS'remote'
p5
g2
sS'description'
p6
S'Voice Call'
p7
sS'callid'
p8
L1283L
sS'oid'
p9
L819738L
sS'number'
p10
g2
sS'person_oid'
p11
L77L
sS'contact'
p12
L10L
sS'starttime'
p13
cdatetime
datetime
p14
(S'\x07\xd5\x02\x18\r0\x0b\x00\x00\x00'
p15
tp16
Rp17
sS'duration'
p18
L47L
sS'endtime'
p19
g14
(S'\x07\xd5\x02\x18\r0:\x00\x00\x00'
p20
tp21
Rp22
sS'phonenumber_oid'
p23
L3476L
s.(dp0
S'status'
p1
S''
p2
sS'direction'
p3
S'Outgoing'
p4
sS'remote'
p5
g2
sS'description'
p6
S'Voice Call'
p7
sS'callid'
p8
L1285L
sS'oid'
p9
L819731L
sS'number'
p10
g2
sS'person_oid'
p11
L77L
sS'contact'
p12
L63L
sS'starttime'
p13
cdatetime
datetime
p14
(S'\x07\xd5\x02\x18\r1(\x00\x00\x00'
p15
tp16
Rp17
sS'duration'
p18
L38L
sS'endtime'
p19
g14
(S'\x07\xd5\x02\x18\r2\x12\x00\x00\x00'
p20
tp21
Rp22
sS'phonenumber_oid'
p23
L3474L
s.(dp0
S'status'
p1
S''
p2
sS'direction'
p3
S'Outgoing'
p4
sS'remote'
p5
g2
sS'description'
p6
S'Voice Call'
p7
sS'callid'
p8
L1285L
sS'oid'
p9
L819739L
sS'number'
p10
g2
sS'person_oid'
p11
L77L
sS'contact'
p12
L63L
sS'starttime'
p13
cdatetime
datetime
p14
(S'\x07\xd5\x02\x18\r1(\x00\x00\x00'
p15
tp16
Rp17
sS'duration'
p18
L38L
sS'endtime'
p19
g14
(S'\x07\xd5\x02\x18\r2\x12\x00\x00\x00'
p20
tp21
Rp22
sS'phonenumber_oid'
p23
L3474L
s.(dp0
S'status'
p1
S''
p2
sS'direction'
p3
S'Incoming'
p4
sS'remote'
p5
g2
sS'description'
p6
S'Voice Call'
p7
sS'callid'
p8
L1287L
sS'oid'
p9
L819732L
sS'number'
p10
g2
sS'person_oid'
p11
L77L
sS'contact'
p12
L63L
sS'starttime'
p13
cdatetime
datetime
p14
(S'\x07\xd5\x02\x18\x0e\x02\x13\x00\x00\x00'
p15
tp16
Rp17
sS'duration'
p18
L0L
sS'endtime'
p19
g14
(S'\x07\xd5\x02\x18\x0e\x02\x13\x00\x00\x00'
p20
tp21
Rp22
sS'phonenumber_oid'
p23
L3474L
s.(dp0
S'status'
p1
S''
p2
sS'direction'
p3
S'Incoming'
p4
sS'remote'
p5
g2
sS'description'
p6
S'Voice Call'
p7
sS'callid'
p8
L1287L
sS'oid'
p9
L819740L
sS'number'
p10
g2
sS'person_oid'
p11
L77L
sS'contact'
p12
L63L
sS'starttime'
p13
cdatetime
datetime
p14
(S'\x07\xd5\x02\x18\x0e\x02\x13\x00\x00\x00'
p15
tp16
Rp17
sS'duration'
p18
L0L
sS'endtime'
p19
g14
(S'\x07\xd5\x02\x18\x0e\x02\x13\x00\x00\x00'
p20
tp21
Rp22
sS'phonenumber_oid'
p23
L3474L
s.(dp0
S'status'
p1
S''
p2
sS'direction'
p3
S'Outgoing'
p4
sS'remote'
p5
g2
sS'description'
p6
S'Voice Call'
p7
sS'callid'
p8
L1289L
sS'oid'
p9
L819733L
sS'number'
p10
g2
sS'person_oid'
p11
L77L
sS'contact'
p12
L63L
sS'starttime'
p13
cdatetime
datetime
p14
(S'\x07\xd5\x02\x18\x0e\x03\x18\x00\x00\x00'
p15
tp16
Rp17
sS'duration'
p18
L39L
sS'endtime'
p19
g14
(S'\x07\xd5\x02\x18\x0e\x04\x03\x00\x00\x00'
p20
tp21
Rp22
sS'phonenumber_oid'
p23
L3474L
s.(dp0
S'status'
p1
S''
p2
sS'direction'
p3
S'Outgoing'
p4
sS'remote'
p5
g2
sS'description'
p6
S'Voice Call'
p7
sS'callid'
p8
L1289L
sS'oid'
p9
L819741L
sS'number'
p10
g2
sS'person_oid'
p11
L77L
sS'contact'
p12
L63L
sS'starttime'
p13
cdatetime
datetime
p14
(S'\x07\xd5\x02\x18\x0e\x03\x18\x00\x00\x00'
p15
tp16
Rp17
sS'duration'
p18
L39L
sS'endtime'
p19
g14
(S'\x07\xd5\x02\x18\x0e\x04\x03\x00\x00\x00'
p20
tp21
Rp22
sS'phonenumber_oid'
p23
L3474L
s.(dp0
S'status'
p1
S''
p2
sS'direction'
p3
S'Outgoing'
p4
sS'remote'
p5
g2
sS'description'
p6
S'Voice Call'
p7
sS'callid'
p8
L1290L
sS'oid'
p9
L819734L
sS'number'
p10
g2
sS'person_oid'
p11
L77L
sS'contact'
p12
L10L
sS'starttime'
p13
cdatetime
datetime
p14
(S'\x07\xd5\x02\x18\x0e\x04\x0b\x00\x00\x00'
p15
tp16
Rp17
sS'duration'
p18
L28L
sS'endtime'
p19
g14
(S"\x07\xd5\x02\x18\x0e\x04'\x00\x00\x00"
p20
tp21
Rp22
sS'phonenumber_oid'
p23
L3476L
s.(dp0
S'status'
p1
S''
p2
sS'direction'
p3
S'Outgoing'
p4
sS'remote'
p5
g2
sS'description'
p6
S'Voice Call'
p7
sS'callid'
p8
L1290L
sS'oid'
p9
L819742L
sS'number'
p10
g2
sS'person_oid'
p11
L77L
sS'contact'
p12
L10L
sS'starttime'
p13
cdatetime
datetime
p14
(S'\x07\xd5\x02\x18\x0e\x04\x0b\x00\x00\x00'
p15
tp16
Rp17
sS'duration'
p18
L28L
sS'endtime'
p19
g14
(S"\x07\xd5\x02\x18\x0e\x04'\x00\x00\x00"
p20
tp21
Rp22
sS'phonenumber_oid'
p23
L3476L
s.(dp0
S'status'
p1
S''
p2
sS'direction'
p3
S'Outgoing'
p4
sS'remote'
p5
g2
sS'description'
p6
S'Voice Call'
p7
sS'callid'
p8
L1292L
sS'oid'
p9
L819735L
sS'number'
p10
g2
sS'person_oid'
p11
L77L
sS'contact'
p12
L63L
sS'starttime'
p13
cdatetime
datetime
p14
(S'\x07\xd5\x02\x18\x10\n\x1a\x00\x00\x00'
p15
tp16
Rp17
sS'duration'
p18
L40L
sS'endtime'
p19
g14
(S'\x07\xd5\x02\x18\x10\x0b\x06\x00\x00\x00'
p20
tp21
Rp22
sS'phonenumber_oid'
p23
L3474L
s.(dp0
S'status'
p1
S''
p2
sS'direction'
p3
S'Outgoing'
p4
sS'remote'
p5
g2
sS'description'
p6
S'Voice Call'
p7
sS'callid'
p8
L1292L
sS'oid'
p9
L819743L
sS'number'
p10
g2
sS'person_oid'
p11
L77L
sS'contact'
p12
L63L
sS'starttime'
p13
cdatetime
datetime
p14
(S'\x07\xd5\x02\x18\x10\n\x1a\x00\x00\x00'
p15
tp16
Rp17
sS'duration'
p18
L40L
sS'endtime'
p19
g14
(S'\x07\xd5\x02\x18\x10\x0b\x06\x00\x00\x00'
p20
tp21
Rp22
sS'phonenumber_oid'
p23
L3474L
s.(dp0
S'status'
p1
S''
p2
sS'direction'
p3
S'Incoming'
p4
sS'remote'
p5
g2
sS'description'
p6
S'Voice Call'
p7
sS'callid'
p8
L1295L
sS'oid'
p9
L819744L
sS'number'
p10
g2
sS'person_oid'
p11
L77L
sS'contact'
p12
L63L
sS'starttime'
p13
cdatetime
datetime
p14
(S'\x07\xd5\x02\x19\r \x06\x00\x00\x00'
p15
tp16
Rp17
sS'duration'
p18
L35L
sS'endtime'
p19
g14
(S'\x07\xd5\x02\x19\r )\x00\x00\x00'
p20
tp21
Rp22
sS'phonenumber_oid'
p23
L3474L
s.(dp0
S'status'
p1
S''
p2
sS'direction'
p3
S'Incoming'
p4
sS'remote'
p5
g2
sS'description'
p6
S'Voice Call'
p7
sS'callid'
p8
L1295L
sS'oid'
p9
L819753L
sS'number'
p10
g2
sS'person_oid'
p11
L77L
sS'contact'
p12
L63L
sS'starttime'
p13
cdatetime
datetime
p14
(S'\x07\xd5\x02\x19\r \x06\x00\x00\x00'
p15
tp16
Rp17
sS'duration'
p18
L35L
sS'endtime'
p19
g14
(S'\x07\xd5\x02\x19\r )\x00\x00\x00'
p20
tp21
Rp22
sS'phonenumber_oid'
p23
L3474L
s.(dp0
S'status'
p1
S''
p2
sS'direction'
p3
S'Outgoing'
p4
sS'remote'
p5
g2
sS'description'
p6
S'Voice Call'
p7
sS'callid'
p8
L1296L
sS'oid'
p9
L819745L
sS'number'
p10
g2
sS'person_oid'
p11
L77L
sS'contact'
p12
L63L
sS'starttime'
p13
cdatetime
datetime
p14
(S'\x07\xd5\x02\x19\x0e\x08\x04\x00\x00\x00'
p15
tp16
Rp17
sS'duration'
p18
L1L
sS'endtime'
p19
g14
(S'\x07\xd5\x02\x19\x0e\x08\x05\x00\x00\x00'
p20
tp21
Rp22
sS'phonenumber_oid'
p23
L3474L
s.(dp0
S'status'
p1
S''
p2
sS'direction'
p3
S'Outgoing'
p4
sS'remote'
p5
g2
sS'description'
p6
S'Voice Call'
p7
sS'callid'
p8
L1296L
sS'oid'
p9
L819754L
sS'number'
p10
g2
sS'person_oid'
p11
L77L
sS'contact'
p12
L63L
sS'starttime'
p13
cdatetime
datetime
p14
(S'\x07\xd5\x02\x19\x0e\x08\x04\x00\x00\x00'
p15
tp16
Rp17
sS'duration'
p18
L1L
sS'endtime'
p19
g14
(S'\x07\xd5\x02\x19\x0e\x08\x05\x00\x00\x00'
p20
tp21
Rp22
sS'phonenumber_oid'
p23
L3474L
s.(dp0
S'status'
p1
S''
p2
sS'direction'
p3
S'Outgoing'
p4
sS'remote'
p5
g2
sS'description'
p6
S'Voice Call'
p7
sS'callid'
p8
L1297L
sS'oid'
p9
L819746L
sS'number'
p10
g2
sS'person_oid'
p11
L77L
sS'contact'
p12
L63L
sS'starttime'
p13
cdatetime
datetime
p14
(S'\x07\xd5\x02\x19\x0e\x1f\x04\x00\x00\x00'
p15
tp16
Rp17
sS'duration'
p18
L0L
sS'endtime'
p19
g14
(S'\x07\xd5\x02\x19\x0e\x1f\x04\x00\x00\x00'
p20
tp21
Rp22
sS'phonenumber_oid'
p23
L3474L
s.(dp0
S'status'
p1
S''
p2
sS'direction'
p3
S'Outgoing'
p4
sS'remote'
p5
g2
sS'description'
p6
S'Voice Call'
p7
sS'callid'
p8
L1297L
sS'oid'
p9
L819755L
sS'number'
p10
g2
sS'person_oid'
p11
L77L
sS'contact'
p12
L63L
sS'starttime'
p13
cdatetime
datetime
p14
(S'\x07\xd5\x02\x19\x0e\x1f\x04\x00\x00\x00'
p15
tp16
Rp17
sS'duration'
p18
L0L
sS'endtime'
p19
g14
(S'\x07\xd5\x02\x19\x0e\x1f\x04\x00\x00\x00'
p20
tp21
Rp22
sS'phonenumber_oid'
p23
L3474L
s.(dp0
S'status'
p1
S''
p2
sS'direction'
p3
S'Outgoing'
p4
sS'remote'
p5
g2
sS'description'
p6
S'Voice Call'
p7
sS'callid'
p8
L1298L
sS'oid'
p9
L819747L
sS'number'
p10
g2
sS'person_oid'
p11
L77L
sS'contact'
p12
L63L
sS'starttime'
p13
cdatetime
datetime
p14
(S'\x07\xd5\x02\x19\x0e!\x1b\x00\x00\x00'
p15
tp16
Rp17
sS'duration'
p18
L31L
sS'endtime'
p19
g14
(S'\x07\xd5\x02\x19\x0e!:\x00\x00\x00'
p20
tp21
Rp22
sS'phonenumber_oid'
p23
L3474L
s.(dp0
S'status'
p1
S''
p2
sS'direction'
p3
S'Outgoing'
p4
sS'remote'
p5
g2
sS'description'
p6
S'Voice Call'
p7
sS'callid'
p8
L1298L
sS'oid'
p9
L819756L
sS'number'
p10
g2
sS'person_oid'
p11
L77L
sS'contact'
p12
L63L
sS'starttime'
p13
cdatetime
datetime
p14
(S'\x07\xd5\x02\x19\x0e!\x1b\x00\x00\x00'
p15
tp16
Rp17
sS'duration'
p18
L31L
sS'endtime'
p19
g14
(S'\x07\xd5\x02\x19\x0e!:\x00\x00\x00'
p20
tp21
Rp22
sS'phonenumber_oid'
p23
L3474L
s.(dp0
S'status'
p1
S''
p2
sS'direction'
p3
S'Outgoing'
p4
sS'remote'
p5
g2
sS'description'
p6
S'Voice Call'
p7
sS'callid'
p8
L1299L
sS'oid'
p9
L819748L
sS'number'
p10
g2
sS'person_oid'
p11
L77L
sS'contact'
p12
L63L
sS'starttime'
p13
cdatetime
datetime
p14
(S'\x07\xd5\x02\x19\x0e:\x15\x00\x00\x00'
p15
tp16
Rp17
sS'duration'
p18
L0L
sS'endtime'
p19
g14
(S'\x07\xd5\x02\x19\x0e:\x15\x00\x00\x00'
p20
tp21
Rp22
sS'phonenumber_oid'
p23
L3474L
s.(dp0
S'status'
p1
S''
p2
sS'direction'
p3
S'Outgoing'
p4
sS'remote'
p5
g2
sS'description'
p6
S'Voice Call'
p7
sS'callid'
p8
L1299L
sS'oid'
p9
L819757L
sS'number'
p10
g2
sS'person_oid'
p11
L77L
sS'contact'
p12
L63L
sS'starttime'
p13
cdatetime
datetime
p14
(S'\x07\xd5\x02\x19\x0e:\x15\x00\x00\x00'
p15
tp16
Rp17
sS'duration'
p18
L0L
sS'endtime'
p19
g14
(S'\x07\xd5\x02\x19\x0e:\x15\x00\x00\x00'
p20
tp21
Rp22
sS'phonenumber_oid'
p23
L3474L
s.(dp0
S'status'
p1
S''
p2
sS'direction'
p3
S'Incoming'
p4
sS'remote'
p5
g2
sS'description'
p6
S'Voice Call'
p7
sS'callid'
p8
L1301L
sS'oid'
p9
L819749L
sS'number'
p10
g2
sS'person_oid'
p11
L77L
sS'contact'
p12
L63L
sS'starttime'
p13
cdatetime
datetime
p14
(S'\x07\xd5\x02\x19\x0f\x07&\x00\x00\x00'
p15
tp16
Rp17
sS'duration'
p18
L0L
sS'endtime'
p19
g14
(S'\x07\xd5\x02\x19\x0f\x07&\x00\x00\x00'
p20
tp21
Rp22
sS'phonenumber_oid'
p23
L3474L
s.(dp0
S'status'
p1
S''
p2
sS'direction'
p3
S'Incoming'
p4
sS'remote'
p5
g2
sS'description'
p6
S'Voice Call'
p7
sS'callid'
p8
L1301L
sS'oid'
p9
L819758L
sS'number'
p10
g2
sS'person_oid'
p11
L77L
sS'contact'
p12
L63L
sS'starttime'
p13
cdatetime
datetime
p14
(S'\x07\xd5\x02\x19\x0f\x07&\x00\x00\x00'
p15
tp16
Rp17
sS'duration'
p18
L0L
sS'endtime'
p19
g14
(S'\x07\xd5\x02\x19\x0f\x07&\x00\x00\x00'
p20
tp21
Rp22
sS'phonenumber_oid'
p23
L3474L
s.(dp0
S'status'
p1
S''
p2
sS'direction'
p3
S'Outgoing'
p4
sS'remote'
p5
g2
sS'description'
p6
S'Voice Call'
p7
sS'callid'
p8
L1303L
sS'oid'
p9
L819750L
sS'number'
p10
g2
sS'person_oid'
p11
L77L
sS'contact'
p12
L10L
sS'starttime'
p13
cdatetime
datetime
p14
(S'\x07\xd5\x02\x19\x0f\t!\x00\x00\x00'
p15
tp16
Rp17
sS'duration'
p18
L138L
sS'endtime'
p19
g14
(S'\x07\xd5\x02\x19\x0f\x0b3\x00\x00\x00'
p20
tp21
Rp22
sS'phonenumber_oid'
p23
L3476L
s.(dp0
S'status'
p1
S''
p2
sS'direction'
p3
S'Outgoing'
p4
sS'remote'
p5
g2
sS'description'
p6
S'Voice Call'
p7
sS'callid'
p8
L1303L
sS'oid'
p9
L819759L
sS'number'
p10
g2
sS'person_oid'
p11
L77L
sS'contact'
p12
L10L
sS'starttime'
p13
cdatetime
datetime
p14
(S'\x07\xd5\x02\x19\x0f\t!\x00\x00\x00'
p15
tp16
Rp17
sS'duration'
p18
L138L
sS'endtime'
p19
g14
(S'\x07\xd5\x02\x19\x0f\x0b3\x00\x00\x00'
p20
tp21
Rp22
sS'phonenumber_oid'
p23
L3476L
s.(dp0
S'status'
p1
S''
p2
sS'direction'
p3
S'Incoming'
p4
sS'remote'
p5
g2
sS'description'
p6
S'Voice Call'
p7
sS'callid'
p8
L1305L
sS'oid'
p9
L819751L
sS'number'
p10
g2
sS'person_oid'
p11
L77L
sS'contact'
p12
L63L
sS'starttime'
p13
cdatetime
datetime
p14
(S'\x07\xd5\x02\x19\x0f\n\x02\x00\x00\x00'
p15
tp16
Rp17
sS'duration'
p18
L75L
sS'endtime'
p19
g14
(S'\x07\xd5\x02\x19\x0f\x0b\x11\x00\x00\x00'
p20
tp21
Rp22
sS'phonenumber_oid'
p23
L3474L
s.(dp0
S'status'
p1
S''
p2
sS'direction'
p3
S'Incoming'
p4
sS'remote'
p5
g2
sS'description'
p6
S'Voice Call'
p7
sS'callid'
p8
L1305L
sS'oid'
p9
L819760L
sS'number'
p10
g2
sS'person_oid'
p11
L77L
sS'contact'
p12
L63L
sS'starttime'
p13
cdatetime
datetime
p14
(S'\x07\xd5\x02\x19\x0f\n\x02\x00\x00\x00'
p15
tp16
Rp17
sS'duration'
p18
L75L
sS'endtime'
p19
g14
(S'\x07\xd5\x02\x19\x0f\x0b\x11\x00\x00\x00'
p20
tp21
Rp22
sS'phonenumber_oid'
p23
L3474L
s.(dp0
S'status'
p1
S''
p2
sS'direction'
p3
S'Incoming'
p4
sS'remote'
p5
g2
sS'description'
p6
S'Voice Call'
p7
sS'callid'
p8
L1308L
sS'oid'
p9
L819752L
sS'number'
p10
g2
sS'person_oid'
p11
L77L
sS'contact'
p12
L143L
sS'starttime'
p13
cdatetime
datetime
p14
(S'\x07\xd5\x02\x19\x10\x1e\x05\x00\x00\x00'
p15
tp16
Rp17
sS'duration'
p18
L49L
sS'endtime'
p19
g14
(S'\x07\xd5\x02\x19\x10\x1e6\x00\x00\x00'
p20
tp21
Rp22
sS'phonenumber_oid'
p23
L3481L
s.(dp0
S'status'
p1
S''
p2
sS'direction'
p3
S'Incoming'
p4
sS'remote'
p5
g2
sS'description'
p6
S'Voice Call'
p7
sS'callid'
p8
L1308L
sS'oid'
p9
L819761L
sS'number'
p10
g2
sS'person_oid'
p11
L77L
sS'contact'
p12
L143L
sS'starttime'
p13
cdatetime
datetime
p14
(S'\x07\xd5\x02\x19\x10\x1e\x05\x00\x00\x00'
p15
tp16
Rp17
sS'duration'
p18
L49L
sS'endtime'
p19
g14
(S'\x07\xd5\x02\x19\x10\x1e6\x00\x00\x00'
p20
tp21
Rp22
sS'phonenumber_oid'
p23
L3481L
s.(dp0
S'status'
p1
S''
p2
sS'direction'
p3
S'Outgoing'
p4
sS'remote'
p5
g2
sS'description'
p6
S'Voice Call'
p7
sS'callid'
p8
L1309L
sS'oid'
p9
L819762L
sS'number'
p10
g2
sS'person_oid'
p11
L77L
sS'contact'
p12
L63L
sS'starttime'
p13
cdatetime
datetime
p14
(S'\x07\xd5\x02\x1a\x0b\x06+\x00\x00\x00'
p15
tp16
Rp17
sS'duration'
p18
L0L
sS'endtime'
p19
g14
(S'\x07\xd5\x02\x1a\x0b\x06+\x00\x00\x00'
p20
tp21
Rp22
sS'phonenumber_oid'
p23
L3474L
s.(dp0
S'status'
p1
S''
p2
sS'direction'
p3
S'Outgoing'
p4
sS'remote'
p5
g2
sS'description'
p6
S'Voice Call'
p7
sS'callid'
p8
L1309L
sS'oid'
p9
L819770L
sS'number'
p10
g2
sS'person_oid'
p11
L77L
sS'contact'
p12
L63L
sS'starttime'
p13
cdatetime
datetime
p14
(S'\x07\xd5\x02\x1a\x0b\x06+\x00\x00\x00'
p15
tp16
Rp17
sS'duration'
p18
L0L
sS'endtime'
p19
g14
(S'\x07\xd5\x02\x1a\x0b\x06+\x00\x00\x00'
p20
tp21
Rp22
sS'phonenumber_oid'
p23
L3474L
s.(dp0
S'status'
p1
S''
p2
sS'direction'
p3
S'Outgoing'
p4
sS'remote'
p5
g2
sS'description'
p6
S'Voice Call'
p7
sS'callid'
p8
L1310L
sS'oid'
p9
L819763L
sS'number'
p10
g2
sS'person_oid'
p11
L77L
sS'contact'
p12
L40L
sS'starttime'
p13
cdatetime
datetime
p14
(S'\x07\xd5\x02\x1a\x10\x00#\x00\x00\x00'
p15
tp16
Rp17
sS'duration'
p18
L28L
sS'endtime'
p19
g14
(S'\x07\xd5\x02\x1a\x10\x01\x03\x00\x00\x00'
p20
tp21
Rp22
sS'phonenumber_oid'
p23
L3477L
s.(dp0
S'status'
p1
S''
p2
sS'direction'
p3
S'Outgoing'
p4
sS'remote'
p5
g2
sS'description'
p6
S'Voice Call'
p7
sS'callid'
p8
L1310L
sS'oid'
p9
L819771L
sS'number'
p10
g2
sS'person_oid'
p11
L77L
sS'contact'
p12
L40L
sS'starttime'
p13
cdatetime
datetime
p14
(S'\x07\xd5\x02\x1a\x10\x00#\x00\x00\x00'
p15
tp16
Rp17
sS'duration'
p18
L28L
sS'endtime'
p19
g14
(S'\x07\xd5\x02\x1a\x10\x01\x03\x00\x00\x00'
p20
tp21
Rp22
sS'phonenumber_oid'
p23
L3477L
s.(dp0
S'status'
p1
S''
p2
sS'direction'
p3
S'Outgoing'
p4
sS'remote'
p5
g2
sS'description'
p6
S'Voice Call'
p7
sS'callid'
p8
L1311L
sS'oid'
p9
L819764L
sS'number'
p10
g2
sS'person_oid'
p11
L77L
sS'contact'
p12
L60L
sS'starttime'
p13
cdatetime
datetime
p14
(S'\x07\xd5\x02\x1a\x10\x04\x11\x00\x00\x00'
p15
tp16
Rp17
sS'duration'
p18
L16L
sS'endtime'
p19
g14
(S'\x07\xd5\x02\x1a\x10\x04!\x00\x00\x00'
p20
tp21
Rp22
sS'phonenumber_oid'
p23
L3485L
s.(dp0
S'status'
p1
S''
p2
sS'direction'
p3
S'Outgoing'
p4
sS'remote'
p5
g2
sS'description'
p6
S'Voice Call'
p7
sS'callid'
p8
L1311L
sS'oid'
p9
L819772L
sS'number'
p10
g2
sS'person_oid'
p11
L77L
sS'contact'
p12
L60L
sS'starttime'
p13
cdatetime
datetime
p14
(S'\x07\xd5\x02\x1a\x10\x04\x11\x00\x00\x00'
p15
tp16
Rp17
sS'duration'
p18
L16L
sS'endtime'
p19
g14
(S'\x07\xd5\x02\x1a\x10\x04!\x00\x00\x00'
p20
tp21
Rp22
sS'phonenumber_oid'
p23
L3485L
s.(dp0
S'status'
p1
S''
p2
sS'direction'
p3
S'Outgoing'
p4
sS'remote'
p5
g2
sS'description'
p6
S'Voice Call'
p7
sS'callid'
p8
L1312L
sS'oid'
p9
L819765L
sS'number'
p10
g2
sS'person_oid'
p11
L77L
sS'contact'
p12
L63L
sS'starttime'
p13
cdatetime
datetime
p14
(S'\x07\xd5\x02\x1a\x10\t\r\x00\x00\x00'
p15
tp16
Rp17
sS'duration'
p18
L181L
sS'endtime'
p19
g14
(S'\x07\xd5\x02\x1a\x10\x0c\x0e\x00\x00\x00'
p20
tp21
Rp22
sS'phonenumber_oid'
p23
L3474L
s.(dp0
S'status'
p1
S''
p2
sS'direction'
p3
S'Outgoing'
p4
sS'remote'
p5
g2
sS'description'
p6
S'Voice Call'
p7
sS'callid'
p8
L1312L
sS'oid'
p9
L819773L
sS'number'
p10
g2
sS'person_oid'
p11
L77L
sS'contact'
p12
L63L
sS'starttime'
p13
cdatetime
datetime
p14
(S'\x07\xd5\x02\x1a\x10\t\r\x00\x00\x00'
p15
tp16
Rp17
sS'duration'
p18
L181L
sS'endtime'
p19
g14
(S'\x07\xd5\x02\x1a\x10\x0c\x0e\x00\x00\x00'
p20
tp21
Rp22
sS'phonenumber_oid'
p23
L3474L
s.(dp0
S'status'
p1
S''
p2
sS'direction'
p3
S'Missed Call'
p4
sS'remote'
p5
g2
sS'description'
p6
S'Voice Call'
p7
sS'callid'
p8
L1313L
sS'oid'
p9
L819766L
sS'number'
p10
g2
sS'person_oid'
p11
L77L
sS'contact'
p12
L63L
sS'starttime'
p13
cdatetime
datetime
p14
(S'\x07\xd5\x02\x1a\x10\x1e\t\x00\x00\x00'
p15
tp16
Rp17
sS'duration'
p18
L0L
sS'endtime'
p19
g14
(S'\x07\xd5\x02\x1a\x10\x1e\t\x00\x00\x00'
p20
tp21
Rp22
sS'phonenumber_oid'
p23
L3474L
s.(dp0
S'status'
p1
S''
p2
sS'direction'
p3
S'Missed Call'
p4
sS'remote'
p5
g2
sS'description'
p6
S'Voice Call'
p7
sS'callid'
p8
L1313L
sS'oid'
p9
L819774L
sS'number'
p10
g2
sS'person_oid'
p11
L77L
sS'contact'
p12
L63L
sS'starttime'
p13
cdatetime
datetime
p14
(S'\x07\xd5\x02\x1a\x10\x1e\t\x00\x00\x00'
p15
tp16
Rp17
sS'duration'
p18
L0L
sS'endtime'
p19
g14
(S'\x07\xd5\x02\x1a\x10\x1e\t\x00\x00\x00'
p20
tp21
Rp22
sS'phonenumber_oid'
p23
L3474L
s.(dp0
S'status'
p1
S''
p2
sS'direction'
p3
S'Outgoing'
p4
sS'remote'
p5
g2
sS'description'
p6
S'Voice Call'
p7
sS'callid'
p8
L1314L
sS'oid'
p9
L819767L
sS'number'
p10
g2
sS'person_oid'
p11
L77L
sS'contact'
p12
L63L
sS'starttime'
p13
cdatetime
datetime
p14
(S'\x07\xd5\x02\x1a\x10,5\x00\x00\x00'
p15
tp16
Rp17
sS'duration'
p18
L11L
sS'endtime'
p19
g14
(S'\x07\xd5\x02\x1a\x10-\x04\x00\x00\x00'
p20
tp21
Rp22
sS'phonenumber_oid'
p23
L3474L
s.(dp0
S'status'
p1
S''
p2
sS'direction'
p3
S'Outgoing'
p4
sS'remote'
p5
g2
sS'description'
p6
S'Voice Call'
p7
sS'callid'
p8
L1314L
sS'oid'
p9
L819775L
sS'number'
p10
g2
sS'person_oid'
p11
L77L
sS'contact'
p12
L63L
sS'starttime'
p13
cdatetime
datetime
p14
(S'\x07\xd5\x02\x1a\x10,5\x00\x00\x00'
p15
tp16
Rp17
sS'duration'
p18
L11L
sS'endtime'
p19
g14
(S'\x07\xd5\x02\x1a\x10-\x04\x00\x00\x00'
p20
tp21
Rp22
sS'phonenumber_oid'
p23
L3474L
s.(dp0
S'status'
p1
S''
p2
sS'direction'
p3
S'Incoming'
p4
sS'remote'
p5
g2
sS'description'
p6
S'Voice Call'
p7
sS'callid'
p8
L1316L
sS'oid'
p9
L819768L
sS'number'
p10
g2
sS'person_oid'
p11
L77L
sS'contact'
p12
L40L
sS'starttime'
p13
cdatetime
datetime
p14
(S'\x07\xd5\x02\x1a\x11\x11\n\x00\x00\x00'
p15
tp16
Rp17
sS'duration'
p18
L529L
sS'endtime'
p19
g14
(S'\x07\xd5\x02\x1a\x11\x19;\x00\x00\x00'
p20
tp21
Rp22
sS'phonenumber_oid'
p23
L3477L
s.(dp0
S'status'
p1
S''
p2
sS'direction'
p3
S'Incoming'
p4
sS'remote'
p5
g2
sS'description'
p6
S'Voice Call'
p7
sS'callid'
p8
L1316L
sS'oid'
p9
L819776L
sS'number'
p10
g2
sS'person_oid'
p11
L77L
sS'contact'
p12
L40L
sS'starttime'
p13
cdatetime
datetime
p14
(S'\x07\xd5\x02\x1a\x11\x11\n\x00\x00\x00'
p15
tp16
Rp17
sS'duration'
p18
L529L
sS'endtime'
p19
g14
(S'\x07\xd5\x02\x1a\x11\x19;\x00\x00\x00'
p20
tp21
Rp22
sS'phonenumber_oid'
p23
L3477L
s.(dp0
S'status'
p1
S''
p2
sS'direction'
p3
S'Outgoing'
p4
sS'remote'
p5
g2
sS'description'
p6
S'Voice Call'
p7
sS'callid'
p8
L1317L
sS'oid'
p9
L819769L
sS'number'
p10
g2
sS'person_oid'
p11
L77L
sS'contact'
p12
L60L
sS'starttime'
p13
cdatetime
datetime
p14
(S'\x07\xd5\x02\x1a\x12\x1d\x19\x00\x00\x00'
p15
tp16
Rp17
sS'duration'
p18
L2L
sS'endtime'
p19
g14
(S'\x07\xd5\x02\x1a\x12\x1d\x1b\x00\x00\x00'
p20
tp21
Rp22
sS'phonenumber_oid'
p23
L3485L
s.(dp0
S'status'
p1
S''
p2
sS'direction'
p3
S'Outgoing'
p4
sS'remote'
p5
g2
sS'description'
p6
S'Voice Call'
p7
sS'callid'
p8
L1317L
sS'oid'
p9
L819777L
sS'number'
p10
g2
sS'person_oid'
p11
L77L
sS'contact'
p12
L60L
sS'starttime'
p13
cdatetime
datetime
p14
(S'\x07\xd5\x02\x1a\x12\x1d\x19\x00\x00\x00'
p15
tp16
Rp17
sS'duration'
p18
L2L
sS'endtime'
p19
g14
(S'\x07\xd5\x02\x1a\x12\x1d\x1b\x00\x00\x00'
p20
tp21
Rp22
sS'phonenumber_oid'
p23
L3485L
s.(dp0
S'status'
p1
S''
p2
sS'direction'
p3
S'Outgoing'
p4
sS'remote'
p5
g2
sS'description'
p6
S'Voice Call'
p7
sS'callid'
p8
L1318L
sS'oid'
p9
L819778L
sS'number'
p10
g2
sS'person_oid'
p11
L77L
sS'contact'
p12
L14L
sS'starttime'
p13
cdatetime
datetime
p14
(S'\x07\xd5\x02\x1b\x16\x05+\x00\x00\x00'
p15
tp16
Rp17
sS'duration'
p18
L721L
sS'endtime'
p19
g14
(S'\x07\xd5\x02\x1b\x16\x11,\x00\x00\x00'
p20
tp21
Rp22
sS'phonenumber_oid'
p23
L3495L
s.(dp0
S'status'
p1
S''
p2
sS'direction'
p3
S'Outgoing'
p4
sS'remote'
p5
g2
sS'description'
p6
S'Voice Call'
p7
sS'callid'
p8
L1318L
sS'oid'
p9
L819779L
sS'number'
p10
g2
sS'person_oid'
p11
L77L
sS'contact'
p12
L14L
sS'starttime'
p13
cdatetime
datetime
p14
(S'\x07\xd5\x02\x1b\x16\x05+\x00\x00\x00'
p15
tp16
Rp17
sS'duration'
p18
L721L
sS'endtime'
p19
g14
(S'\x07\xd5\x02\x1b\x16\x11,\x00\x00\x00'
p20
tp21
Rp22
sS'phonenumber_oid'
p23
L3495L
s.(dp0
S'status'
p1
S''
p2
sS'direction'
p3
S'Outgoing'
p4
sS'remote'
p5
g2
sS'description'
p6
S'Voice Call'
p7
sS'callid'
p8
L1321L
sS'oid'
p9
L819780L
sS'number'
p10
g2
sS'person_oid'
p11
L77L
sS'contact'
p12
L10L
sS'starttime'
p13
cdatetime
datetime
p14
(S'\x07\xd5\x02\x1c\x08-\n\x00\x00\x00'
p15
tp16
Rp17
sS'duration'
p18
L43L
sS'endtime'
p19
g14
(S'\x07\xd5\x02\x1c\x08-5\x00\x00\x00'
p20
tp21
Rp22
sS'phonenumber_oid'
p23
L3476L
s.(dp0
S'status'
p1
S''
p2
sS'direction'
p3
S'Outgoing'
p4
sS'remote'
p5
g2
sS'description'
p6
S'Voice Call'
p7
sS'callid'
p8
L1321L
sS'oid'
p9
L819783L
sS'number'
p10
g2
sS'person_oid'
p11
L77L
sS'contact'
p12
L10L
sS'starttime'
p13
cdatetime
datetime
p14
(S'\x07\xd5\x02\x1c\x08-\n\x00\x00\x00'
p15
tp16
Rp17
sS'duration'
p18
L43L
sS'endtime'
p19
g14
(S'\x07\xd5\x02\x1c\x08-5\x00\x00\x00'
p20
tp21
Rp22
sS'phonenumber_oid'
p23
L3476L
s.(dp0
S'status'
p1
S''
p2
sS'direction'
p3
S'Incoming'
p4
sS'remote'
p5
g2
sS'description'
p6
S'Voice Call'
p7
sS'callid'
p8
L1324L
sS'oid'
p9
L819781L
sS'number'
p10
g2
sS'person_oid'
p11
L77L
sS'contact'
p12
L63L
sS'starttime'
p13
cdatetime
datetime
p14
(S'\x07\xd5\x02\x1c\x10\x02\x15\x00\x00\x00'
p15
tp16
Rp17
sS'duration'
p18
L0L
sS'endtime'
p19
g14
(S'\x07\xd5\x02\x1c\x10\x02\x15\x00\x00\x00'
p20
tp21
Rp22
sS'phonenumber_oid'
p23
L3474L
s.(dp0
S'status'
p1
S''
p2
sS'direction'
p3
S'Incoming'
p4
sS'remote'
p5
g2
sS'description'
p6
S'Voice Call'
p7
sS'callid'
p8
L1324L
sS'oid'
p9
L819784L
sS'number'
p10
g2
sS'person_oid'
p11
L77L
sS'contact'
p12
L63L
sS'starttime'
p13
cdatetime
datetime
p14
(S'\x07\xd5\x02\x1c\x10\x02\x15\x00\x00\x00'
p15
tp16
Rp17
sS'duration'
p18
L0L
sS'endtime'
p19
g14
(S'\x07\xd5\x02\x1c\x10\x02\x15\x00\x00\x00'
p20
tp21
Rp22
sS'phonenumber_oid'
p23
L3474L
s.(dp0
S'status'
p1
S''
p2
sS'direction'
p3
S'Outgoing'
p4
sS'remote'
p5
g2
sS'description'
p6
S'Voice Call'
p7
sS'callid'
p8
L1326L
sS'oid'
p9
L819782L
sS'number'
p10
g2
sS'person_oid'
p11
L77L
sS'contact'
p12
L10L
sS'starttime'
p13
cdatetime
datetime
p14
(S'\x07\xd5\x02\x1c\x11\x1d\x07\x00\x00\x00'
p15
tp16
Rp17
sS'duration'
p18
L57L
sS'endtime'
p19
g14
(S'\x07\xd5\x02\x1c\x11\x1e\x04\x00\x00\x00'
p20
tp21
Rp22
sS'phonenumber_oid'
p23
L3476L
s.(dp0
S'status'
p1
S''
p2
sS'direction'
p3
S'Outgoing'
p4
sS'remote'
p5
g2
sS'description'
p6
S'Voice Call'
p7
sS'callid'
p8
L1326L
sS'oid'
p9
L819785L
sS'number'
p10
g2
sS'person_oid'
p11
L77L
sS'contact'
p12
L10L
sS'starttime'
p13
cdatetime
datetime
p14
(S'\x07\xd5\x02\x1c\x11\x1d\x07\x00\x00\x00'
p15
tp16
Rp17
sS'duration'
p18
L57L
sS'endtime'
p19
g14
(S'\x07\xd5\x02\x1c\x11\x1e\x04\x00\x00\x00'
p20
tp21
Rp22
sS'phonenumber_oid'
p23
L3476L
s.(dp0
S'status'
p1
S''
p2
sS'direction'
p3
S'Missed Call'
p4
sS'remote'
p5
g2
sS'description'
p6
S'Voice Call'
p7
sS'callid'
p8
L1334L
sS'oid'
p9
L819786L
sS'number'
p10
g2
sS'person_oid'
p11
L77L
sS'contact'
p12
L63L
sS'starttime'
p13
cdatetime
datetime
p14
(S'\x07\xd5\x03\x01\x0f!\x0b\x00\x00\x00'
p15
tp16
Rp17
sS'duration'
p18
L0L
sS'endtime'
p19
g14
(S'\x07\xd5\x03\x01\x0f!\x0b\x00\x00\x00'
p20
tp21
Rp22
sS'phonenumber_oid'
p23
L3474L
s.(dp0
S'status'
p1
S''
p2
sS'direction'
p3
S'Missed Call'
p4
sS'remote'
p5
g2
sS'description'
p6
S'Voice Call'
p7
sS'callid'
p8
L1334L
sS'oid'
p9
L819790L
sS'number'
p10
g2
sS'person_oid'
p11
L77L
sS'contact'
p12
L63L
sS'starttime'
p13
cdatetime
datetime
p14
(S'\x07\xd5\x03\x01\x0f!\x0b\x00\x00\x00'
p15
tp16
Rp17
sS'duration'
p18
L0L
sS'endtime'
p19
g14
(S'\x07\xd5\x03\x01\x0f!\x0b\x00\x00\x00'
p20
tp21
Rp22
sS'phonenumber_oid'
p23
L3474L
s.(dp0
S'status'
p1
S''
p2
sS'direction'
p3
S'Outgoing'
p4
sS'remote'
p5
g2
sS'description'
p6
S'Voice Call'
p7
sS'callid'
p8
L1336L
sS'oid'
p9
L819787L
sS'number'
p10
g2
sS'person_oid'
p11
L77L
sS'contact'
p12
L10L
sS'starttime'
p13
cdatetime
datetime
p14
(S'\x07\xd5\x03\x01\x0f)\x12\x00\x00\x00'
p15
tp16
Rp17
sS'duration'
p18
L61L
sS'endtime'
p19
g14
(S'\x07\xd5\x03\x01\x0f*\x13\x00\x00\x00'
p20
tp21
Rp22
sS'phonenumber_oid'
p23
L3476L
s.(dp0
S'status'
p1
S''
p2
sS'direction'
p3
S'Outgoing'
p4
sS'remote'
p5
g2
sS'description'
p6
S'Voice Call'
p7
sS'callid'
p8
L1336L
sS'oid'
p9
L819791L
sS'number'
p10
g2
sS'person_oid'
p11
L77L
sS'contact'
p12
L10L
sS'starttime'
p13
cdatetime
datetime
p14
(S'\x07\xd5\x03\x01\x0f)\x12\x00\x00\x00'
p15
tp16
Rp17
sS'duration'
p18
L61L
sS'endtime'
p19
g14
(S'\x07\xd5\x03\x01\x0f*\x13\x00\x00\x00'
p20
tp21
Rp22
sS'phonenumber_oid'
p23
L3476L
s.(dp0
S'status'
p1
S''
p2
sS'direction'
p3
S'Outgoing'
p4
sS'remote'
p5
g2
sS'description'
p6
S'Voice Call'
p7
sS'callid'
p8
L1338L
sS'oid'
p9
L819788L
sS'number'
p10
g2
sS'person_oid'
p11
L77L
sS'contact'
p12
L63L
sS'starttime'
p13
cdatetime
datetime
p14
(S'\x07\xd5\x03\x01\x0f+\x01\x00\x00\x00'
p15
tp16
Rp17
sS'duration'
p18
L26L
sS'endtime'
p19
g14
(S'\x07\xd5\x03\x01\x0f+\x1b\x00\x00\x00'
p20
tp21
Rp22
sS'phonenumber_oid'
p23
L3474L
s.(dp0
S'status'
p1
S''
p2
sS'direction'
p3
S'Outgoing'
p4
sS'remote'
p5
g2
sS'description'
p6
S'Voice Call'
p7
sS'callid'
p8
L1338L
sS'oid'
p9
L819792L
sS'number'
p10
g2
sS'person_oid'
p11
L77L
sS'contact'
p12
L63L
sS'starttime'
p13
cdatetime
datetime
p14
(S'\x07\xd5\x03\x01\x0f+\x01\x00\x00\x00'
p15
tp16
Rp17
sS'duration'
p18
L26L
sS'endtime'
p19
g14
(S'\x07\xd5\x03\x01\x0f+\x1b\x00\x00\x00'
p20
tp21
Rp22
sS'phonenumber_oid'
p23
L3474L
s.(dp0
S'status'
p1
S''
p2
sS'direction'
p3
S'Incoming'
p4
sS'remote'
p5
g2
sS'description'
p6
S'Voice Call'
p7
sS'callid'
p8
L1340L
sS'oid'
p9
L819789L
sS'number'
p10
g2
sS'person_oid'
p11
L77L
sS'contact'
p12
L63L
sS'starttime'
p13
cdatetime
datetime
p14
(S'\x07\xd5\x03\x01\x10\x02(\x00\x00\x00'
p15
tp16
Rp17
sS'duration'
p18
L151L
sS'endtime'
p19
g14
(S'\x07\xd5\x03\x01\x10\x05\x0b\x00\x00\x00'
p20
tp21
Rp22
sS'phonenumber_oid'
p23
L3474L
s.(dp0
S'status'
p1
S''
p2
sS'direction'
p3
S'Incoming'
p4
sS'remote'
p5
g2
sS'description'
p6
S'Voice Call'
p7
sS'callid'
p8
L1340L
sS'oid'
p9
L819793L
sS'number'
p10
g2
sS'person_oid'
p11
L77L
sS'contact'
p12
L63L
sS'starttime'
p13
cdatetime
datetime
p14
(S'\x07\xd5\x03\x01\x10\x02(\x00\x00\x00'
p15
tp16
Rp17
sS'duration'
p18
L151L
sS'endtime'
p19
g14
(S'\x07\xd5\x03\x01\x10\x05\x0b\x00\x00\x00'
p20
tp21
Rp22
sS'phonenumber_oid'
p23
L3474L
s.(dp0
S'status'
p1
S''
p2
sS'direction'
p3
S'Incoming'
p4
sS'remote'
p5
g2
sS'description'
p6
S'Voice Call'
p7
sS'callid'
p8
L1344L
sS'oid'
p9
L819794L
sS'number'
p10
g2
sS'person_oid'
p11
L77L
sS'contact'
p12
L63L
sS'starttime'
p13
cdatetime
datetime
p14
(S'\x07\xd5\x03\x02\x10\x1f0\x00\x00\x00'
p15
tp16
Rp17
sS'duration'
p18
L0L
sS'endtime'
p19
g14
(S'\x07\xd5\x03\x02\x10\x1f0\x00\x00\x00'
p20
tp21
Rp22
sS'phonenumber_oid'
p23
L3474L
s.(dp0
S'status'
p1
S''
p2
sS'direction'
p3
S'Incoming'
p4
sS'remote'
p5
g2
sS'description'
p6
S'Voice Call'
p7
sS'callid'
p8
L1344L
sS'oid'
p9
L819796L
sS'number'
p10
g2
sS'person_oid'
p11
L77L
sS'contact'
p12
L63L
sS'starttime'
p13
cdatetime
datetime
p14
(S'\x07\xd5\x03\x02\x10\x1f0\x00\x00\x00'
p15
tp16
Rp17
sS'duration'
p18
L0L
sS'endtime'
p19
g14
(S'\x07\xd5\x03\x02\x10\x1f0\x00\x00\x00'
p20
tp21
Rp22
sS'phonenumber_oid'
p23
L3474L
s.(dp0
S'status'
p1
S''
p2
sS'direction'
p3
S'Outgoing'
p4
sS'remote'
p5
g2
sS'description'
p6
S'Voice Call'
p7
sS'callid'
p8
L1346L
sS'oid'
p9
L819795L
sS'number'
p10
g2
sS'person_oid'
p11
L77L
sS'contact'
p12
L10L
sS'starttime'
p13
cdatetime
datetime
p14
(S'\x07\xd5\x03\x02\x132\x19\x00\x00\x00'
p15
tp16
Rp17
sS'duration'
p18
L53L
sS'endtime'
p19
g14
(S'\x07\xd5\x03\x02\x133\x12\x00\x00\x00'
p20
tp21
Rp22
sS'phonenumber_oid'
p23
L3476L
s.(dp0
S'status'
p1
S''
p2
sS'direction'
p3
S'Outgoing'
p4
sS'remote'
p5
g2
sS'description'
p6
S'Voice Call'
p7
sS'callid'
p8
L1346L
sS'oid'
p9
L819797L
sS'number'
p10
g2
sS'person_oid'
p11
L77L
sS'contact'
p12
L10L
sS'starttime'
p13
cdatetime
datetime
p14
(S'\x07\xd5\x03\x02\x132\x19\x00\x00\x00'
p15
tp16
Rp17
sS'duration'
p18
L53L
sS'endtime'
p19
g14
(S'\x07\xd5\x03\x02\x133\x12\x00\x00\x00'
p20
tp21
Rp22
sS'phonenumber_oid'
p23
L3476L
s.(dp0
S'status'
p1
S''
p2
sS'direction'
p3
S'Outgoing'
p4
sS'remote'
p5
g2
sS'description'
p6
S'Voice Call'
p7
sS'callid'
p8
L1349L
sS'oid'
p9
L819798L
sS'number'
p10
g2
sS'person_oid'
p11
L77L
sS'contact'
p12
L143L
sS'starttime'
p13
cdatetime
datetime
p14
(S'\x07\xd5\x03\x03\x0c\x0f\x01\x00\x00\x00'
p15
tp16
Rp17
sS'duration'
p18
L50L
sS'endtime'
p19
g14
(S'\x07\xd5\x03\x03\x0c\x0f3\x00\x00\x00'
p20
tp21
Rp22
sS'phonenumber_oid'
p23
L3481L
s.(dp0
S'status'
p1
S''
p2
sS'direction'
p3
S'Outgoing'
p4
sS'remote'
p5
g2
sS'description'
p6
S'Voice Call'
p7
sS'callid'
p8
L1349L
sS'oid'
p9
L819800L
sS'number'
p10
g2
sS'person_oid'
p11
L77L
sS'contact'
p12
L143L
sS'starttime'
p13
cdatetime
datetime
p14
(S'\x07\xd5\x03\x03\x0c\x0f\x01\x00\x00\x00'
p15
tp16
Rp17
sS'duration'
p18
L50L
sS'endtime'
p19
g14
(S'\x07\xd5\x03\x03\x0c\x0f3\x00\x00\x00'
p20
tp21
Rp22
sS'phonenumber_oid'
p23
L3481L
s.(dp0
S'status'
p1
S''
p2
sS'direction'
p3
S'Outgoing'
p4
sS'remote'
p5
g2
sS'description'
p6
S'Voice Call'
p7
sS'callid'
p8
L1351L
sS'oid'
p9
L819799L
sS'number'
p10
g2
sS'person_oid'
p11
L77L
sS'contact'
p12
L10L
sS'starttime'
p13
cdatetime
datetime
p14
(S'\x07\xd5\x03\x03\x175\x08\x00\x00\x00'
p15
tp16
Rp17
sS'duration'
p18
L77L
sS'endtime'
p19
g14
(S'\x07\xd5\x03\x03\x176\x19\x00\x00\x00'
p20
tp21
Rp22
sS'phonenumber_oid'
p23
L3476L
s.(dp0
S'status'
p1
S''
p2
sS'direction'
p3
S'Outgoing'
p4
sS'remote'
p5
g2
sS'description'
p6
S'Voice Call'
p7
sS'callid'
p8
L1351L
sS'oid'
p9
L819801L
sS'number'
p10
g2
sS'person_oid'
p11
L77L
sS'contact'
p12
L10L
sS'starttime'
p13
cdatetime
datetime
p14
(S'\x07\xd5\x03\x03\x175\x08\x00\x00\x00'
p15
tp16
Rp17
sS'duration'
p18
L77L
sS'endtime'
p19
g14
(S'\x07\xd5\x03\x03\x176\x19\x00\x00\x00'
p20
tp21
Rp22
sS'phonenumber_oid'
p23
L3476L
s.(dp0
S'status'
p1
S''
p2
sS'direction'
p3
S'Outgoing'
p4
sS'remote'
p5
g2
sS'description'
p6
S'Voice Call'
p7
sS'callid'
p8
L1355L
sS'oid'
p9
L819802L
sS'number'
p10
g2
sS'person_oid'
p11
L77L
sS'contact'
p12
L63L
sS'starttime'
p13
cdatetime
datetime
p14
(S'\x07\xd5\x03\x04\x0e*\x1b\x00\x00\x00'
p15
tp16
Rp17
sS'duration'
p18
L22L
sS'endtime'
p19
g14
(S'\x07\xd5\x03\x04\x0e*1\x00\x00\x00'
p20
tp21
Rp22
sS'phonenumber_oid'
p23
L3474L
s.(dp0
S'status'
p1
S''
p2
sS'direction'
p3
S'Outgoing'
p4
sS'remote'
p5
g2
sS'description'
p6
S'Voice Call'
p7
sS'callid'
p8
L1355L
sS'oid'
p9
L819806L
sS'number'
p10
g2
sS'person_oid'
p11
L77L
sS'contact'
p12
L63L
sS'starttime'
p13
cdatetime
datetime
p14
(S'\x07\xd5\x03\x04\x0e*\x1b\x00\x00\x00'
p15
tp16
Rp17
sS'duration'
p18
L22L
sS'endtime'
p19
g14
(S'\x07\xd5\x03\x04\x0e*1\x00\x00\x00'
p20
tp21
Rp22
sS'phonenumber_oid'
p23
L3474L
s.(dp0
S'status'
p1
S''
p2
sS'direction'
p3
S'Missed Call'
p4
sS'remote'
p5
g2
sS'description'
p6
S'Voice Call'
p7
sS'callid'
p8
L1356L
sS'oid'
p9
L819803L
sS'number'
p10
g2
sS'person_oid'
p11
L77L
sS'contact'
p12
L63L
sS'starttime'
p13
cdatetime
datetime
p14
(S"\x07\xd5\x03\x04\x0f'\x0f\x00\x00\x00"
p15
tp16
Rp17
sS'duration'
p18
L0L
sS'endtime'
p19
g14
(S"\x07\xd5\x03\x04\x0f'\x0f\x00\x00\x00"
p20
tp21
Rp22
sS'phonenumber_oid'
p23
L3474L
s.(dp0
S'status'
p1
S''
p2
sS'direction'
p3
S'Missed Call'
p4
sS'remote'
p5
g2
sS'description'
p6
S'Voice Call'
p7
sS'callid'
p8
L1356L
sS'oid'
p9
L819807L
sS'number'
p10
g2
sS'person_oid'
p11
L77L
sS'contact'
p12
L63L
sS'starttime'
p13
cdatetime
datetime
p14
(S"\x07\xd5\x03\x04\x0f'\x0f\x00\x00\x00"
p15
tp16
Rp17
sS'duration'
p18
L0L
sS'endtime'
p19
g14
(S"\x07\xd5\x03\x04\x0f'\x0f\x00\x00\x00"
p20
tp21
Rp22
sS'phonenumber_oid'
p23
L3474L
s.(dp0
S'status'
p1
S''
p2
sS'direction'
p3
S'Missed Call'
p4
sS'remote'
p5
g2
sS'description'
p6
S'Voice Call'
p7
sS'callid'
p8
L1357L
sS'oid'
p9
L819804L
sS'number'
p10
g2
sS'person_oid'
p11
L77L
sS'contact'
p12
L63L
sS'starttime'
p13
cdatetime
datetime
p14
(S'\x07\xd5\x03\x04\x10\x06#\x00\x00\x00'
p15
tp16
Rp17
sS'duration'
p18
L0L
sS'endtime'
p19
g14
(S'\x07\xd5\x03\x04\x10\x06#\x00\x00\x00'
p20
tp21
Rp22
sS'phonenumber_oid'
p23
L3474L
s.(dp0
S'status'
p1
S''
p2
sS'direction'
p3
S'Missed Call'
p4
sS'remote'
p5
g2
sS'description'
p6
S'Voice Call'
p7
sS'callid'
p8
L1357L
sS'oid'
p9
L819808L
sS'number'
p10
g2
sS'person_oid'
p11
L77L
sS'contact'
p12
L63L
sS'starttime'
p13
cdatetime
datetime
p14
(S'\x07\xd5\x03\x04\x10\x06#\x00\x00\x00'
p15
tp16
Rp17
sS'duration'
p18
L0L
sS'endtime'
p19
g14
(S'\x07\xd5\x03\x04\x10\x06#\x00\x00\x00'
p20
tp21
Rp22
sS'phonenumber_oid'
p23
L3474L
s.(dp0
S'status'
p1
S''
p2
sS'direction'
p3
S'Incoming'
p4
sS'remote'
p5
g2
sS'description'
p6
S'Voice Call'
p7
sS'callid'
p8
L1362L
sS'oid'
p9
L819805L
sS'number'
p10
g2
sS'person_oid'
p11
L77L
sS'contact'
p12
L36L
sS'starttime'
p13
cdatetime
datetime
p14
(S'\x07\xd5\x03\x04\x13\x1b\t\x00\x00\x00'
p15
tp16
Rp17
sS'duration'
p18
L433L
sS'endtime'
p19
g14
(S'\x07\xd5\x03\x04\x13"\x16\x00\x00\x00'
p20
tp21
Rp22
sS'phonenumber_oid'
p23
L3484L
s.(dp0
S'status'
p1
S''
p2
sS'direction'
p3
S'Incoming'
p4
sS'remote'
p5
g2
sS'description'
p6
S'Voice Call'
p7
sS'callid'
p8
L1362L
sS'oid'
p9
L819809L
sS'number'
p10
g2
sS'person_oid'
p11
L77L
sS'contact'
p12
L36L
sS'starttime'
p13
cdatetime
datetime
p14
(S'\x07\xd5\x03\x04\x13\x1b\t\x00\x00\x00'
p15
tp16
Rp17
sS'duration'
p18
L433L
sS'endtime'
p19
g14
(S'\x07\xd5\x03\x04\x13"\x16\x00\x00\x00'
p20
tp21
Rp22
sS'phonenumber_oid'
p23
L3484L
s.(dp0
S'status'
p1
S''
p2
sS'direction'
p3
S'Outgoing'
p4
sS'remote'
p5
g2
sS'description'
p6
S'Voice Call'
p7
sS'callid'
p8
L1363L
sS'oid'
p9
L819810L
sS'number'
p10
g2
sS'person_oid'
p11
L77L
sS'contact'
p12
L10L
sS'starttime'
p13
cdatetime
datetime
p14
(S'\x07\xd5\x03\x05\n\x0e9\x00\x00\x00'
p15
tp16
Rp17
sS'duration'
p18
L33L
sS'endtime'
p19
g14
(S'\x07\xd5\x03\x05\n\x0f\x1e\x00\x00\x00'
p20
tp21
Rp22
sS'phonenumber_oid'
p23
L3476L
s.(dp0
S'status'
p1
S''
p2
sS'direction'
p3
S'Outgoing'
p4
sS'remote'
p5
g2
sS'description'
p6
S'Voice Call'
p7
sS'callid'
p8
L1363L
sS'oid'
p9
L819817L
sS'number'
p10
g2
sS'person_oid'
p11
L77L
sS'contact'
p12
L10L
sS'starttime'
p13
cdatetime
datetime
p14
(S'\x07\xd5\x03\x05\n\x0e9\x00\x00\x00'
p15
tp16
Rp17
sS'duration'
p18
L33L
sS'endtime'
p19
g14
(S'\x07\xd5\x03\x05\n\x0f\x1e\x00\x00\x00'
p20
tp21
Rp22
sS'phonenumber_oid'
p23
L3476L
s.(dp0
S'status'
p1
S''
p2
sS'direction'
p3
S'Outgoing'
p4
sS'remote'
p5
g2
sS'description'
p6
S'Voice Call'
p7
sS'callid'
p8
L1365L
sS'oid'
p9
L819811L
sS'number'
p10
g2
sS'person_oid'
p11
L77L
sS'contact'
p12
L63L
sS'starttime'
p13
cdatetime
datetime
p14
(S'\x07\xd5\x03\x05\x0f\x1c\x01\x00\x00\x00'
p15
tp16
Rp17
sS'duration'
p18
L26L
sS'endtime'
p19
g14
(S'\x07\xd5\x03\x05\x0f\x1c\x1b\x00\x00\x00'
p20
tp21
Rp22
sS'phonenumber_oid'
p23
L3474L
s.(dp0
S'status'
p1
S''
p2
sS'direction'
p3
S'Outgoing'
p4
sS'remote'
p5
g2
sS'description'
p6
S'Voice Call'
p7
sS'callid'
p8
L1365L
sS'oid'
p9
L819818L
sS'number'
p10
g2
sS'person_oid'
p11
L77L
sS'contact'
p12
L63L
sS'starttime'
p13
cdatetime
datetime
p14
(S'\x07\xd5\x03\x05\x0f\x1c\x01\x00\x00\x00'
p15
tp16
Rp17
sS'duration'
p18
L26L
sS'endtime'
p19
g14
(S'\x07\xd5\x03\x05\x0f\x1c\x1b\x00\x00\x00'
p20
tp21
Rp22
sS'phonenumber_oid'
p23
L3474L
s.(dp0
S'status'
p1
S''
p2
sS'direction'
p3
S'Outgoing'
p4
sS'remote'
p5
g2
sS'description'
p6
S'Voice Call'
p7
sS'callid'
p8
L1368L
sS'oid'
p9
L819812L
sS'number'
p10
g2
sS'person_oid'
p11
L77L
sS'contact'
p12
L63L
sS'starttime'
p13
cdatetime
datetime
p14
(S'\x07\xd5\x03\x05\x10\x02/\x00\x00\x00'
p15
tp16
Rp17
sS'duration'
p18
L12L
sS'endtime'
p19
g14
(S'\x07\xd5\x03\x05\x10\x02;\x00\x00\x00'
p20
tp21
Rp22
sS'phonenumber_oid'
p23
L3474L
s.(dp0
S'status'
p1
S''
p2
sS'direction'
p3
S'Outgoing'
p4
sS'remote'
p5
g2
sS'description'
p6
S'Voice Call'
p7
sS'callid'
p8
L1368L
sS'oid'
p9
L819819L
sS'number'
p10
g2
sS'person_oid'
p11
L77L
sS'contact'
p12
L63L
sS'starttime'
p13
cdatetime
datetime
p14
(S'\x07\xd5\x03\x05\x10\x02/\x00\x00\x00'
p15
tp16
Rp17
sS'duration'
p18
L12L
sS'endtime'
p19
g14
(S'\x07\xd5\x03\x05\x10\x02;\x00\x00\x00'
p20
tp21
Rp22
sS'phonenumber_oid'
p23
L3474L
s.(dp0
S'status'
p1
S''
p2
sS'direction'
p3
S'Outgoing'
p4
sS'remote'
p5
g2
sS'description'
p6
S'Voice Call'
p7
sS'callid'
p8
L1369L
sS'oid'
p9
L819813L
sS'number'
p10
g2
sS'person_oid'
p11
L77L
sS'contact'
p12
L63L
sS'starttime'
p13
cdatetime
datetime
p14
(S'\x07\xd5\x03\x05\x10\r8\x00\x00\x00'
p15
tp16
Rp17
sS'duration'
p18
L0L
sS'endtime'
p19
g14
(S'\x07\xd5\x03\x05\x10\r8\x00\x00\x00'
p20
tp21
Rp22
sS'phonenumber_oid'
p23
L3474L
s.(dp0
S'status'
p1
S''
p2
sS'direction'
p3
S'Outgoing'
p4
sS'remote'
p5
g2
sS'description'
p6
S'Voice Call'
p7
sS'callid'
p8
L1369L
sS'oid'
p9
L819820L
sS'number'
p10
g2
sS'person_oid'
p11
L77L
sS'contact'
p12
L63L
sS'starttime'
p13
cdatetime
datetime
p14
(S'\x07\xd5\x03\x05\x10\r8\x00\x00\x00'
p15
tp16
Rp17
sS'duration'
p18
L0L
sS'endtime'
p19
g14
(S'\x07\xd5\x03\x05\x10\r8\x00\x00\x00'
p20
tp21
Rp22
sS'phonenumber_oid'
p23
L3474L
s.(dp0
S'status'
p1
S''
p2
sS'direction'
p3
S'Outgoing'
p4
sS'remote'
p5
g2
sS'description'
p6
S'Voice Call'
p7
sS'callid'
p8
L1370L
sS'oid'
p9
L819814L
sS'number'
p10
g2
sS'person_oid'
p11
L77L
sS'contact'
p12
L63L
sS'starttime'
p13
cdatetime
datetime
p14
(S'\x07\xd5\x03\x05\x10\x10\x10\x00\x00\x00'
p15
tp16
Rp17
sS'duration'
p18
L12L
sS'endtime'
p19
g14
(S'\x07\xd5\x03\x05\x10\x10\x1c\x00\x00\x00'
p20
tp21
Rp22
sS'phonenumber_oid'
p23
L3474L
s.(dp0
S'status'
p1
S''
p2
sS'direction'
p3
S'Outgoing'
p4
sS'remote'
p5
g2
sS'description'
p6
S'Voice Call'
p7
sS'callid'
p8
L1370L
sS'oid'
p9
L819821L
sS'number'
p10
g2
sS'person_oid'
p11
L77L
sS'contact'
p12
L63L
sS'starttime'
p13
cdatetime
datetime
p14
(S'\x07\xd5\x03\x05\x10\x10\x10\x00\x00\x00'
p15
tp16
Rp17
sS'duration'
p18
L12L
sS'endtime'
p19
g14
(S'\x07\xd5\x03\x05\x10\x10\x1c\x00\x00\x00'
p20
tp21
Rp22
sS'phonenumber_oid'
p23
L3474L
s.(dp0
S'status'
p1
S''
p2
sS'direction'
p3
S'Incoming'
p4
sS'remote'
p5
g2
sS'description'
p6
S'Voice Call'
p7
sS'callid'
p8
L1372L
sS'oid'
p9
L819815L
sS'number'
p10
g2
sS'person_oid'
p11
L77L
sS'contact'
p12
L63L
sS'starttime'
p13
cdatetime
datetime
p14
(S'\x07\xd5\x03\x05\x10\x12 \x00\x00\x00'
p15
tp16
Rp17
sS'duration'
p18
L33L
sS'endtime'
p19
g14
(S'\x07\xd5\x03\x05\x10\x13\x05\x00\x00\x00'
p20
tp21
Rp22
sS'phonenumber_oid'
p23
L3474L
s.(dp0
S'status'
p1
S''
p2
sS'direction'
p3
S'Incoming'
p4
sS'remote'
p5
g2
sS'description'
p6
S'Voice Call'
p7
sS'callid'
p8
L1372L
sS'oid'
p9
L819822L
sS'number'
p10
g2
sS'person_oid'
p11
L77L
sS'contact'
p12
L63L
sS'starttime'
p13
cdatetime
datetime
p14
(S'\x07\xd5\x03\x05\x10\x12 \x00\x00\x00'
p15
tp16
Rp17
sS'duration'
p18
L33L
sS'endtime'
p19
g14
(S'\x07\xd5\x03\x05\x10\x13\x05\x00\x00\x00'
p20
tp21
Rp22
sS'phonenumber_oid'
p23
L3474L
s.(dp0
S'status'
p1
S''
p2
sS'direction'
p3
S'Incoming'
p4
sS'remote'
p5
g2
sS'description'
p6
S'Voice Call'
p7
sS'callid'
p8
L1374L
sS'oid'
p9
L819816L
sS'number'
p10
g2
sS'person_oid'
p11
L77L
sS'contact'
p12
L63L
sS'starttime'
p13
cdatetime
datetime
p14
(S'\x07\xd5\x03\x05\x10"9\x00\x00\x00'
p15
tp16
Rp17
sS'duration'
p18
L12L
sS'endtime'
p19
g14
(S'\x07\xd5\x03\x05\x10#\t\x00\x00\x00'
p20
tp21
Rp22
sS'phonenumber_oid'
p23
L3474L
s.(dp0
S'status'
p1
S''
p2
sS'direction'
p3
S'Incoming'
p4
sS'remote'
p5
g2
sS'description'
p6
S'Voice Call'
p7
sS'callid'
p8
L1374L
sS'oid'
p9
L819823L
sS'number'
p10
g2
sS'person_oid'
p11
L77L
sS'contact'
p12
L63L
sS'starttime'
p13
cdatetime
datetime
p14
(S'\x07\xd5\x03\x05\x10"9\x00\x00\x00'
p15
tp16
Rp17
sS'duration'
p18
L12L
sS'endtime'
p19
g14
(S'\x07\xd5\x03\x05\x10#\t\x00\x00\x00'
p20
tp21
Rp22
sS'phonenumber_oid'
p23
L3474L
s.(dp0
S'status'
p1
S''
p2
sS'direction'
p3
S'Outgoing'
p4
sS'remote'
p5
g2
sS'description'
p6
S'Voice Call'
p7
sS'callid'
p8
L1377L
sS'oid'
p9
L819824L
sS'number'
p10
g2
sS'person_oid'
p11
L77L
sS'contact'
p12
L10L
sS'starttime'
p13
cdatetime
datetime
p14
(S'\x07\xd5\x03\x06\x13 \x07\x00\x00\x00'
p15
tp16
Rp17
sS'duration'
p18
L165L
sS'endtime'
p19
g14
(S'\x07\xd5\x03\x06\x13"4\x00\x00\x00'
p20
tp21
Rp22
sS'phonenumber_oid'
p23
L3476L
s.(dp0
S'status'
p1
S''
p2
sS'direction'
p3
S'Outgoing'
p4
sS'remote'
p5
g2
sS'description'
p6
S'Voice Call'
p7
sS'callid'
p8
L1377L
sS'oid'
p9
L819826L
sS'number'
p10
g2
sS'person_oid'
p11
L77L
sS'contact'
p12
L10L
sS'starttime'
p13
cdatetime
datetime
p14
(S'\x07\xd5\x03\x06\x13 \x07\x00\x00\x00'
p15
tp16
Rp17
sS'duration'
p18
L165L
sS'endtime'
p19
g14
(S'\x07\xd5\x03\x06\x13"4\x00\x00\x00'
p20
tp21
Rp22
sS'phonenumber_oid'
p23
L3476L
s.(dp0
S'status'
p1
S''
p2
sS'direction'
p3
S'Outgoing'
p4
sS'remote'
p5
g2
sS'description'
p6
S'Voice Call'
p7
sS'callid'
p8
L1381L
sS'oid'
p9
L819825L
sS'number'
p10
g2
sS'person_oid'
p11
L77L
sS'contact'
p12
L47L
sS'starttime'
p13
cdatetime
datetime
p14
(S'\x07\xd5\x03\x06\x13,\t\x00\x00\x00'
p15
tp16
Rp17
sS'duration'
p18
L29L
sS'endtime'
p19
g14
(S'\x07\xd5\x03\x06\x13,&\x00\x00\x00'
p20
tp21
Rp22
sS'phonenumber_oid'
p23
L3510L
s.(dp0
S'status'
p1
S''
p2
sS'direction'
p3
S'Outgoing'
p4
sS'remote'
p5
g2
sS'description'
p6
S'Voice Call'
p7
sS'callid'
p8
L1381L
sS'oid'
p9
L819827L
sS'number'
p10
g2
sS'person_oid'
p11
L77L
sS'contact'
p12
L47L
sS'starttime'
p13
cdatetime
datetime
p14
(S'\x07\xd5\x03\x06\x13,\t\x00\x00\x00'
p15
tp16
Rp17
sS'duration'
p18
L29L
sS'endtime'
p19
g14
(S'\x07\xd5\x03\x06\x13,&\x00\x00\x00'
p20
tp21
Rp22
sS'phonenumber_oid'
p23
L3510L
s.(dp0
S'status'
p1
S''
p2
sS'direction'
p3
S'Missed Call'
p4
sS'remote'
p5
g2
sS'description'
p6
S'Voice Call'
p7
sS'callid'
p8
L1384L
sS'oid'
p9
L819828L
sS'number'
p10
g2
sS'person_oid'
p11
L77L
sS'contact'
p12
L63L
sS'starttime'
p13
cdatetime
datetime
p14
(S'\x07\xd5\x03\x07\x0f/\x03\x00\x00\x00'
p15
tp16
Rp17
sS'duration'
p18
L0L
sS'endtime'
p19
g14
(S'\x07\xd5\x03\x07\x0f/\x03\x00\x00\x00'
p20
tp21
Rp22
sS'phonenumber_oid'
p23
L3474L
s.(dp0
S'status'
p1
S''
p2
sS'direction'
p3
S'Missed Call'
p4
sS'remote'
p5
g2
sS'description'
p6
S'Voice Call'
p7
sS'callid'
p8
L1384L
sS'oid'
p9
L819831L
sS'number'
p10
g2
sS'person_oid'
p11
L77L
sS'contact'
p12
L63L
sS'starttime'
p13
cdatetime
datetime
p14
(S'\x07\xd5\x03\x07\x0f/\x03\x00\x00\x00'
p15
tp16
Rp17
sS'duration'
p18
L0L
sS'endtime'
p19
g14
(S'\x07\xd5\x03\x07\x0f/\x03\x00\x00\x00'
p20
tp21
Rp22
sS'phonenumber_oid'
p23
L3474L
s.(dp0
S'status'
p1
S''
p2
sS'direction'
p3
S'Outgoing'
p4
sS'remote'
p5
g2
sS'description'
p6
S'Voice Call'
p7
sS'callid'
p8
L1386L
sS'oid'
p9
L819829L
sS'number'
p10
g2
sS'person_oid'
p11
L77L
sS'contact'
p12
L63L
sS'starttime'
p13
cdatetime
datetime
p14
(S'\x07\xd5\x03\x07\x10\x02\x1c\x00\x00\x00'
p15
tp16
Rp17
sS'duration'
p18
L9L
sS'endtime'
p19
g14
(S'\x07\xd5\x03\x07\x10\x02%\x00\x00\x00'
p20
tp21
Rp22
sS'phonenumber_oid'
p23
L3474L
s.(dp0
S'status'
p1
S''
p2
sS'direction'
p3
S'Outgoing'
p4
sS'remote'
p5
g2
sS'description'
p6
S'Voice Call'
p7
sS'callid'
p8
L1386L
sS'oid'
p9
L819832L
sS'number'
p10
g2
sS'person_oid'
p11
L77L
sS'contact'
p12
L63L
sS'starttime'
p13
cdatetime
datetime
p14
(S'\x07\xd5\x03\x07\x10\x02\x1c\x00\x00\x00'
p15
tp16
Rp17
sS'duration'
p18
L9L
sS'endtime'
p19
g14
(S'\x07\xd5\x03\x07\x10\x02%\x00\x00\x00'
p20
tp21
Rp22
sS'phonenumber_oid'
p23
L3474L
s.(dp0
S'status'
p1
S''
p2
sS'direction'
p3
S'Outgoing'
p4
sS'remote'
p5
g2
sS'description'
p6
S'Voice Call'
p7
sS'callid'
p8
L1391L
sS'oid'
p9
L819830L
sS'number'
p10
g2
sS'person_oid'
p11
L77L
sS'contact'
p12
L10L
sS'starttime'
p13
cdatetime
datetime
p14
(S'\x07\xd5\x03\x07\x17\x16\x1d\x00\x00\x00'
p15
tp16
Rp17
sS'duration'
p18
L38L
sS'endtime'
p19
g14
(S'\x07\xd5\x03\x07\x17\x17\x07\x00\x00\x00'
p20
tp21
Rp22
sS'phonenumber_oid'
p23
L3476L
s.(dp0
S'status'
p1
S''
p2
sS'direction'
p3
S'Outgoing'
p4
sS'remote'
p5
g2
sS'description'
p6
S'Voice Call'
p7
sS'callid'
p8
L1391L
sS'oid'
p9
L819833L
sS'number'
p10
g2
sS'person_oid'
p11
L77L
sS'contact'
p12
L10L
sS'starttime'
p13
cdatetime
datetime
p14
(S'\x07\xd5\x03\x07\x17\x16\x1d\x00\x00\x00'
p15
tp16
Rp17
sS'duration'
p18
L38L
sS'endtime'
p19
g14
(S'\x07\xd5\x03\x07\x17\x17\x07\x00\x00\x00'
p20
tp21
Rp22
sS'phonenumber_oid'
p23
L3476L
s.(dp0
S'status'
p1
S''
p2
sS'direction'
p3
S'Outgoing'
p4
sS'remote'
p5
g2
sS'description'
p6
S'Voice Call'
p7
sS'callid'
p8
L1398L
sS'oid'
p9
L819834L
sS'number'
p10
g2
sS'person_oid'
p11
L77L
sS'contact'
p12
L10L
sS'starttime'
p13
cdatetime
datetime
p14
(S'\x07\xd5\x03\t\x13\x01\x02\x00\x00\x00'
p15
tp16
Rp17
sS'duration'
p18
L46L
sS'endtime'
p19
g14
(S'\x07\xd5\x03\t\x13\x010\x00\x00\x00'
p20
tp21
Rp22
sS'phonenumber_oid'
p23
L3476L
s.(dp0
S'status'
p1
S''
p2
sS'direction'
p3
S'Outgoing'
p4
sS'remote'
p5
g2
sS'description'
p6
S'Voice Call'
p7
sS'callid'
p8
L1398L
sS'oid'
p9
L819837L
sS'number'
p10
g2
sS'person_oid'
p11
L77L
sS'contact'
p12
L10L
sS'starttime'
p13
cdatetime
datetime
p14
(S'\x07\xd5\x03\t\x13\x01\x02\x00\x00\x00'
p15
tp16
Rp17
sS'duration'
p18
L46L
sS'endtime'
p19
g14
(S'\x07\xd5\x03\t\x13\x010\x00\x00\x00'
p20
tp21
Rp22
sS'phonenumber_oid'
p23
L3476L
s.(dp0
S'status'
p1
S''
p2
sS'direction'
p3
S'Incoming'
p4
sS'remote'
p5
g2
sS'description'
p6
S'Voice Call'
p7
sS'callid'
p8
L1402L
sS'oid'
p9
L819835L
sS'number'
p10
g2
sS'person_oid'
p11
L77L
sS'contact'
p12
L36L
sS'starttime'
p13
cdatetime
datetime
p14
(S'\x07\xd5\x03\t\x14\x0e\x1b\x00\x00\x00'
p15
tp16
Rp17
sS'duration'
p18
L12L
sS'endtime'
p19
g14
(S"\x07\xd5\x03\t\x14\x0e'\x00\x00\x00"
p20
tp21
Rp22
sS'phonenumber_oid'
p23
L3484L
s.(dp0
S'status'
p1
S''
p2
sS'direction'
p3
S'Incoming'
p4
sS'remote'
p5
g2
sS'description'
p6
S'Voice Call'
p7
sS'callid'
p8
L1402L
sS'oid'
p9
L819838L
sS'number'
p10
g2
sS'person_oid'
p11
L77L
sS'contact'
p12
L36L
sS'starttime'
p13
cdatetime
datetime
p14
(S'\x07\xd5\x03\t\x14\x0e\x1b\x00\x00\x00'
p15
tp16
Rp17
sS'duration'
p18
L12L
sS'endtime'
p19
g14
(S"\x07\xd5\x03\t\x14\x0e'\x00\x00\x00"
p20
tp21
Rp22
sS'phonenumber_oid'
p23
L3484L
s.(dp0
S'status'
p1
S''
p2
sS'direction'
p3
S'Outgoing'
p4
sS'remote'
p5
g2
sS'description'
p6
S'Voice Call'
p7
sS'callid'
p8
L1403L
sS'oid'
p9
L819836L
sS'number'
p10
g2
sS'person_oid'
p11
L77L
sS'contact'
p12
L36L
sS'starttime'
p13
cdatetime
datetime
p14
(S'\x07\xd5\x03\t\x14\x17\x19\x00\x00\x00'
p15
tp16
Rp17
sS'duration'
p18
L374L
sS'endtime'
p19
g14
(S"\x07\xd5\x03\t\x14\x1d'\x00\x00\x00"
p20
tp21
Rp22
sS'phonenumber_oid'
p23
L3484L
s.(dp0
S'status'
p1
S''
p2
sS'direction'
p3
S'Outgoing'
p4
sS'remote'
p5
g2
sS'description'
p6
S'Voice Call'
p7
sS'callid'
p8
L1403L
sS'oid'
p9
L819839L
sS'number'
p10
g2
sS'person_oid'
p11
L77L
sS'contact'
p12
L36L
sS'starttime'
p13
cdatetime
datetime
p14
(S'\x07\xd5\x03\t\x14\x17\x19\x00\x00\x00'
p15
tp16
Rp17
sS'duration'
p18
L374L
sS'endtime'
p19
g14
(S"\x07\xd5\x03\t\x14\x1d'\x00\x00\x00"
p20
tp21
Rp22
sS'phonenumber_oid'
p23
L3484L
s.(dp0
S'status'
p1
S''
p2
sS'direction'
p3
S'Outgoing'
p4
sS'remote'
p5
g2
sS'description'
p6
S'Voice Call'
p7
sS'callid'
p8
L1408L
sS'oid'
p9
L819840L
sS'number'
p10
g2
sS'person_oid'
p11
L77L
sS'contact'
p12
L105L
sS'starttime'
p13
cdatetime
datetime
p14
(S'\x07\xd5\x03\x0c\x0b4!\x00\x00\x00'
p15
tp16
Rp17
sS'duration'
p18
L534L
sS'endtime'
p19
g14
(S'\x07\xd5\x03\x0c\x0c\x01\x1b\x00\x00\x00'
p20
tp21
Rp22
sS'phonenumber_oid'
p23
L3496L
s.(dp0
S'status'
p1
S''
p2
sS'direction'
p3
S'Outgoing'
p4
sS'remote'
p5
g2
sS'description'
p6
S'Voice Call'
p7
sS'callid'
p8
L1408L
sS'oid'
p9
L819841L
sS'number'
p10
g2
sS'person_oid'
p11
L77L
sS'contact'
p12
L105L
sS'starttime'
p13
cdatetime
datetime
p14
(S'\x07\xd5\x03\x0c\x0b4!\x00\x00\x00'
p15
tp16
Rp17
sS'duration'
p18
L534L
sS'endtime'
p19
g14
(S'\x07\xd5\x03\x0c\x0c\x01\x1b\x00\x00\x00'
p20
tp21
Rp22
sS'phonenumber_oid'
p23
L3496L
s.(dp0
S'status'
p1
S''
p2
sS'direction'
p3
S'Outgoing'
p4
sS'remote'
p5
g2
sS'description'
p6
S'Voice Call'
p7
sS'callid'
p8
L1410L
sS'oid'
p9
L819842L
sS'number'
p10
g2
sS'person_oid'
p11
L77L
sS'contact'
p12
L60L
sS'starttime'
p13
cdatetime
datetime
p14
(S'\x07\xd5\x03\r\x1221\x00\x00\x00'
p15
tp16
Rp17
sS'duration'
p18
L16L
sS'endtime'
p19
g14
(S'\x07\xd5\x03\r\x123\x05\x00\x00\x00'
p20
tp21
Rp22
sS'phonenumber_oid'
p23
L3485L
s.(dp0
S'status'
p1
S''
p2
sS'direction'
p3
S'Outgoing'
p4
sS'remote'
p5
g2
sS'description'
p6
S'Voice Call'
p7
sS'callid'
p8
L1410L
sS'oid'
p9
L819843L
sS'number'
p10
g2
sS'person_oid'
p11
L77L
sS'contact'
p12
L60L
sS'starttime'
p13
cdatetime
datetime
p14
(S'\x07\xd5\x03\r\x1221\x00\x00\x00'
p15
tp16
Rp17
sS'duration'
p18
L16L
sS'endtime'
p19
g14
(S'\x07\xd5\x03\r\x123\x05\x00\x00\x00'
p20
tp21
Rp22
sS'phonenumber_oid'
p23
L3485L
s.(dp0
S'status'
p1
S''
p2
sS'direction'
p3
S'Incoming'
p4
sS'remote'
p5
g2
sS'description'
p6
S'Voice Call'
p7
sS'callid'
p8
L1413L
sS'oid'
p9
L819844L
sS'number'
p10
g2
sS'person_oid'
p11
L77L
sS'contact'
p12
L146L
sS'starttime'
p13
cdatetime
datetime
p14
(S'\x07\xd5\x03\x0e\x13\x14%\x00\x00\x00'
p15
tp16
Rp17
sS'duration'
p18
L56L
sS'endtime'
p19
g14
(S'\x07\xd5\x03\x0e\x13\x15!\x00\x00\x00'
p20
tp21
Rp22
sS'phonenumber_oid'
p23
L3511L
s.(dp0
S'status'
p1
S''
p2
sS'direction'
p3
S'Incoming'
p4
sS'remote'
p5
g2
sS'description'
p6
S'Voice Call'
p7
sS'callid'
p8
L1413L
sS'oid'
p9
L819845L
sS'number'
p10
g2
sS'person_oid'
p11
L77L
sS'contact'
p12
L146L
sS'starttime'
p13
cdatetime
datetime
p14
(S'\x07\xd5\x03\x0e\x13\x14%\x00\x00\x00'
p15
tp16
Rp17
sS'duration'
p18
L56L
sS'endtime'
p19
g14
(S'\x07\xd5\x03\x0e\x13\x15!\x00\x00\x00'
p20
tp21
Rp22
sS'phonenumber_oid'
p23
L3511L
s.(dp0
S'status'
p1
S''
p2
sS'direction'
p3
S'Missed Call'
p4
sS'remote'
p5
g2
sS'description'
p6
S'Voice Call'
p7
sS'callid'
p8
L1419L
sS'oid'
p9
L819846L
sS'number'
p10
g2
sS'person_oid'
p11
L77L
sS'contact'
p12
L63L
sS'starttime'
p13
cdatetime
datetime
p14
(S'\x07\xd5\x03\x0f\x0e:"\x00\x00\x00'
p15
tp16
Rp17
sS'duration'
p18
L0L
sS'endtime'
p19
g14
(S'\x07\xd5\x03\x0f\x0e:"\x00\x00\x00'
p20
tp21
Rp22
sS'phonenumber_oid'
p23
L3474L
s.(dp0
S'status'
p1
S''
p2
sS'direction'
p3
S'Missed Call'
p4
sS'remote'
p5
g2
sS'description'
p6
S'Voice Call'
p7
sS'callid'
p8
L1419L
sS'oid'
p9
L819854L
sS'number'
p10
g2
sS'person_oid'
p11
L77L
sS'contact'
p12
L63L
sS'starttime'
p13
cdatetime
datetime
p14
(S'\x07\xd5\x03\x0f\x0e:"\x00\x00\x00'
p15
tp16
Rp17
sS'duration'
p18
L0L
sS'endtime'
p19
g14
(S'\x07\xd5\x03\x0f\x0e:"\x00\x00\x00'
p20
tp21
Rp22
sS'phonenumber_oid'
p23
L3474L
s.(dp0
S'status'
p1
S''
p2
sS'direction'
p3
S'Missed Call'
p4
sS'remote'
p5
g2
sS'description'
p6
S'Voice Call'
p7
sS'callid'
p8
L1421L
sS'oid'
p9
L819847L
sS'number'
p10
g2
sS'person_oid'
p11
L77L
sS'contact'
p12
L63L
sS'starttime'
p13
cdatetime
datetime
p14
(S'\x07\xd5\x03\x0f\x0f\x00\x1b\x00\x00\x00'
p15
tp16
Rp17
sS'duration'
p18
L0L
sS'endtime'
p19
g14
(S'\x07\xd5\x03\x0f\x0f\x00\x1b\x00\x00\x00'
p20
tp21
Rp22
sS'phonenumber_oid'
p23
L3474L
s.(dp0
S'status'
p1
S''
p2
sS'direction'
p3
S'Missed Call'
p4
sS'remote'
p5
g2
sS'description'
p6
S'Voice Call'
p7
sS'callid'
p8
L1421L
sS'oid'
p9
L819855L
sS'number'
p10
g2
sS'person_oid'
p11
L77L
sS'contact'
p12
L63L
sS'starttime'
p13
cdatetime
datetime
p14
(S'\x07\xd5\x03\x0f\x0f\x00\x1b\x00\x00\x00'
p15
tp16
Rp17
sS'duration'
p18
L0L
sS'endtime'
p19
g14
(S'\x07\xd5\x03\x0f\x0f\x00\x1b\x00\x00\x00'
p20
tp21
Rp22
sS'phonenumber_oid'
p23
L3474L
s.(dp0
S'status'
p1
S''
p2
sS'direction'
p3
S'Missed Call'
p4
sS'remote'
p5
g2
sS'description'
p6
S'Voice Call'
p7
sS'callid'
p8
L1422L
sS'oid'
p9
L819848L
sS'number'
p10
g2
sS'person_oid'
p11
L77L
sS'contact'
p12
L63L
sS'starttime'
p13
cdatetime
datetime
p14
(S'\x07\xd5\x03\x0f\x0f\x01\x1c\x00\x00\x00'
p15
tp16
Rp17
sS'duration'
p18
L0L
sS'endtime'
p19
g14
(S'\x07\xd5\x03\x0f\x0f\x01\x1c\x00\x00\x00'
p20
tp21
Rp22
sS'phonenumber_oid'
p23
L3474L
s.(dp0
S'status'
p1
S''
p2
sS'direction'
p3
S'Missed Call'
p4
sS'remote'
p5
g2
sS'description'
p6
S'Voice Call'
p7
sS'callid'
p8
L1422L
sS'oid'
p9
L819856L
sS'number'
p10
g2
sS'person_oid'
p11
L77L
sS'contact'
p12
L63L
sS'starttime'
p13
cdatetime
datetime
p14
(S'\x07\xd5\x03\x0f\x0f\x01\x1c\x00\x00\x00'
p15
tp16
Rp17
sS'duration'
p18
L0L
sS'endtime'
p19
g14
(S'\x07\xd5\x03\x0f\x0f\x01\x1c\x00\x00\x00'
p20
tp21
Rp22
sS'phonenumber_oid'
p23
L3474L
s.(dp0
S'status'
p1
S''
p2
sS'direction'
p3
S'Missed Call'
p4
sS'remote'
p5
g2
sS'description'
p6
S'Voice Call'
p7
sS'callid'
p8
L1423L
sS'oid'
p9
L819849L
sS'number'
p10
g2
sS'person_oid'
p11
L77L
sS'contact'
p12
L63L
sS'starttime'
p13
cdatetime
datetime
p14
(S'\x07\xd5\x03\x0f\x0f\x03\x0b\x00\x00\x00'
p15
tp16
Rp17
sS'duration'
p18
L0L
sS'endtime'
p19
g14
(S'\x07\xd5\x03\x0f\x0f\x03\x0b\x00\x00\x00'
p20
tp21
Rp22
sS'phonenumber_oid'
p23
L3474L
s.(dp0
S'status'
p1
S''
p2
sS'direction'
p3
S'Missed Call'
p4
sS'remote'
p5
g2
sS'description'
p6
S'Voice Call'
p7
sS'callid'
p8
L1423L
sS'oid'
p9
L819857L
sS'number'
p10
g2
sS'person_oid'
p11
L77L
sS'contact'
p12
L63L
sS'starttime'
p13
cdatetime
datetime
p14
(S'\x07\xd5\x03\x0f\x0f\x03\x0b\x00\x00\x00'
p15
tp16
Rp17
sS'duration'
p18
L0L
sS'endtime'
p19
g14
(S'\x07\xd5\x03\x0f\x0f\x03\x0b\x00\x00\x00'
p20
tp21
Rp22
sS'phonenumber_oid'
p23
L3474L
s.(dp0
S'status'
p1
S''
p2
sS'direction'
p3
S'Incoming'
p4
sS'remote'
p5
g2
sS'description'
p6
S'Voice Call'
p7
sS'callid'
p8
L1426L
sS'oid'
p9
L819850L
sS'number'
p10
g2
sS'person_oid'
p11
L77L
sS'contact'
p12
L63L
sS'starttime'
p13
cdatetime
datetime
p14
(S'\x07\xd5\x03\x0f\x0f\x062\x00\x00\x00'
p15
tp16
Rp17
sS'duration'
p18
L148L
sS'endtime'
p19
g14
(S'\x07\xd5\x03\x0f\x0f\t\x12\x00\x00\x00'
p20
tp21
Rp22
sS'phonenumber_oid'
p23
L3474L
s.(dp0
S'status'
p1
S''
p2
sS'direction'
p3
S'Incoming'
p4
sS'remote'
p5
g2
sS'description'
p6
S'Voice Call'
p7
sS'callid'
p8
L1426L
sS'oid'
p9
L819858L
sS'number'
p10
g2
sS'person_oid'
p11
L77L
sS'contact'
p12
L63L
sS'starttime'
p13
cdatetime
datetime
p14
(S'\x07\xd5\x03\x0f\x0f\x062\x00\x00\x00'
p15
tp16
Rp17
sS'duration'
p18
L148L
sS'endtime'
p19
g14
(S'\x07\xd5\x03\x0f\x0f\t\x12\x00\x00\x00'
p20
tp21
Rp22
sS'phonenumber_oid'
p23
L3474L
s.(dp0
S'status'
p1
S''
p2
sS'direction'
p3
S'Outgoing'
p4
sS'remote'
p5
g2
sS'description'
p6
S'Voice Call'
p7
sS'callid'
p8
L1427L
sS'oid'
p9
L819851L
sS'number'
p10
g2
sS'person_oid'
p11
L77L
sS'contact'
p12
L10L
sS'starttime'
p13
cdatetime
datetime
p14
(S'\x07\xd5\x03\x0f\x0f\t4\x00\x00\x00'
p15
tp16
Rp17
sS'duration'
p18
L54L
sS'endtime'
p19
g14
(S'\x07\xd5\x03\x0f\x0f\n.\x00\x00\x00'
p20
tp21
Rp22
sS'phonenumber_oid'
p23
L3476L
s.(dp0
S'status'
p1
S''
p2
sS'direction'
p3
S'Outgoing'
p4
sS'remote'
p5
g2
sS'description'
p6
S'Voice Call'
p7
sS'callid'
p8
L1427L
sS'oid'
p9
L819859L
sS'number'
p10
g2
sS'person_oid'
p11
L77L
sS'contact'
p12
L10L
sS'starttime'
p13
cdatetime
datetime
p14
(S'\x07\xd5\x03\x0f\x0f\t4\x00\x00\x00'
p15
tp16
Rp17
sS'duration'
p18
L54L
sS'endtime'
p19
g14
(S'\x07\xd5\x03\x0f\x0f\n.\x00\x00\x00'
p20
tp21
Rp22
sS'phonenumber_oid'
p23
L3476L
s.(dp0
S'status'
p1
S''
p2
sS'direction'
p3
S'Outgoing'
p4
sS'remote'
p5
g2
sS'description'
p6
S'Voice Call'
p7
sS'callid'
p8
L1429L
sS'oid'
p9
L819852L
sS'number'
p10
g2
sS'person_oid'
p11
L77L
sS'contact'
p12
L105L
sS'starttime'
p13
cdatetime
datetime
p14
(S'\x07\xd5\x03\x0f\x13\x0e\x1f\x00\x00\x00'
p15
tp16
Rp17
sS'duration'
p18
L47L
sS'endtime'
p19
g14
(S'\x07\xd5\x03\x0f\x13\x0f\x12\x00\x00\x00'
p20
tp21
Rp22
sS'phonenumber_oid'
p23
L3496L
s.(dp0
S'status'
p1
S''
p2
sS'direction'
p3
S'Outgoing'
p4
sS'remote'
p5
g2
sS'description'
p6
S'Voice Call'
p7
sS'callid'
p8
L1429L
sS'oid'
p9
L819860L
sS'number'
p10
g2
sS'person_oid'
p11
L77L
sS'contact'
p12
L105L
sS'starttime'
p13
cdatetime
datetime
p14
(S'\x07\xd5\x03\x0f\x13\x0e\x1f\x00\x00\x00'
p15
tp16
Rp17
sS'duration'
p18
L47L
sS'endtime'
p19
g14
(S'\x07\xd5\x03\x0f\x13\x0f\x12\x00\x00\x00'
p20
tp21
Rp22
sS'phonenumber_oid'
p23
L3496L
s.(dp0
S'status'
p1
S''
p2
sS'direction'
p3
S'Incoming'
p4
sS'remote'
p5
g2
sS'description'
p6
S'Voice Call'
p7
sS'callid'
p8
L1431L
sS'oid'
p9
L819853L
sS'number'
p10
g2
sS'person_oid'
p11
L77L
sS'contact'
p12
L105L
sS'starttime'
p13
cdatetime
datetime
p14
(S'\x07\xd5\x03\x0f\x1485\x00\x00\x00'
p15
tp16
Rp17
sS'duration'
p18
L752L
sS'endtime'
p19
g14
(S'\x07\xd5\x03\x0f\x15\t\x19\x00\x00\x00'
p20
tp21
Rp22
sS'phonenumber_oid'
p23
L3496L
s.(dp0
S'status'
p1
S''
p2
sS'direction'
p3
S'Incoming'
p4
sS'remote'
p5
g2
sS'description'
p6
S'Voice Call'
p7
sS'callid'
p8
L1431L
sS'oid'
p9
L819861L
sS'number'
p10
g2
sS'person_oid'
p11
L77L
sS'contact'
p12
L105L
sS'starttime'
p13
cdatetime
datetime
p14
(S'\x07\xd5\x03\x0f\x1485\x00\x00\x00'
p15
tp16
Rp17
sS'duration'
p18
L752L
sS'endtime'
p19
g14
(S'\x07\xd5\x03\x0f\x15\t\x19\x00\x00\x00'
p20
tp21
Rp22
sS'phonenumber_oid'
p23
L3496L
s.(dp0
S'status'
p1
S''
p2
sS'direction'
p3
S'Incoming'
p4
sS'remote'
p5
g2
sS'description'
p6
S'Voice Call'
p7
sS'callid'
p8
L1433L
sS'oid'
p9
L819862L
sS'number'
p10
g2
sS'person_oid'
p11
L77L
sS'contact'
p12
L60L
sS'starttime'
p13
cdatetime
datetime
p14
(S'\x07\xd5\x03\x10\x0f,3\x00\x00\x00'
p15
tp16
Rp17
sS'duration'
p18
L95L
sS'endtime'
p19
g14
(S'\x07\xd5\x03\x10\x0f.\x1a\x00\x00\x00'
p20
tp21
Rp22
sS'phonenumber_oid'
p23
L3485L
s.(dp0
S'status'
p1
S''
p2
sS'direction'
p3
S'Incoming'
p4
sS'remote'
p5
g2
sS'description'
p6
S'Voice Call'
p7
sS'callid'
p8
L1433L
sS'oid'
p9
L819866L
sS'number'
p10
g2
sS'person_oid'
p11
L77L
sS'contact'
p12
L60L
sS'starttime'
p13
cdatetime
datetime
p14
(S'\x07\xd5\x03\x10\x0f,3\x00\x00\x00'
p15
tp16
Rp17
sS'duration'
p18
L95L
sS'endtime'
p19
g14
(S'\x07\xd5\x03\x10\x0f.\x1a\x00\x00\x00'
p20
tp21
Rp22
sS'phonenumber_oid'
p23
L3485L
s.(dp0
S'status'
p1
S''
p2
sS'direction'
p3
S'Outgoing'
p4
sS'remote'
p5
g2
sS'description'
p6
S'Voice Call'
p7
sS'callid'
p8
L1434L
sS'oid'
p9
L819863L
sS'number'
p10
g2
sS'person_oid'
p11
L77L
sS'contact'
p12
L60L
sS'starttime'
p13
cdatetime
datetime
p14
(S"\x07\xd5\x03\x10\x11\x15'\x00\x00\x00"
p15
tp16
Rp17
sS'duration'
p18
L40L
sS'endtime'
p19
g14
(S'\x07\xd5\x03\x10\x11\x16\x13\x00\x00\x00'
p20
tp21
Rp22
sS'phonenumber_oid'
p23
L3485L
s.(dp0
S'status'
p1
S''
p2
sS'direction'
p3
S'Outgoing'
p4
sS'remote'
p5
g2
sS'description'
p6
S'Voice Call'
p7
sS'callid'
p8
L1434L
sS'oid'
p9
L819867L
sS'number'
p10
g2
sS'person_oid'
p11
L77L
sS'contact'
p12
L60L
sS'starttime'
p13
cdatetime
datetime
p14
(S"\x07\xd5\x03\x10\x11\x15'\x00\x00\x00"
p15
tp16
Rp17
sS'duration'
p18
L40L
sS'endtime'
p19
g14
(S'\x07\xd5\x03\x10\x11\x16\x13\x00\x00\x00'
p20
tp21
Rp22
sS'phonenumber_oid'
p23
L3485L
s.(dp0
S'status'
p1
S''
p2
sS'direction'
p3
S'Outgoing'
p4
sS'remote'
p5
g2
sS'description'
p6
S'Voice Call'
p7
sS'callid'
p8
L1435L
sS'oid'
p9
L819864L
sS'number'
p10
g2
sS'person_oid'
p11
L77L
sS'contact'
p12
L60L
sS'starttime'
p13
cdatetime
datetime
p14
(S'\x07\xd5\x03\x10\x12\x04\x04\x00\x00\x00'
p15
tp16
Rp17
sS'duration'
p18
L43L
sS'endtime'
p19
g14
(S'\x07\xd5\x03\x10\x12\x04/\x00\x00\x00'
p20
tp21
Rp22
sS'phonenumber_oid'
p23
L3485L
s.(dp0
S'status'
p1
S''
p2
sS'direction'
p3
S'Outgoing'
p4
sS'remote'
p5
g2
sS'description'
p6
S'Voice Call'
p7
sS'callid'
p8
L1435L
sS'oid'
p9
L819868L
sS'number'
p10
g2
sS'person_oid'
p11
L77L
sS'contact'
p12
L60L
sS'starttime'
p13
cdatetime
datetime
p14
(S'\x07\xd5\x03\x10\x12\x04\x04\x00\x00\x00'
p15
tp16
Rp17
sS'duration'
p18
L43L
sS'endtime'
p19
g14
(S'\x07\xd5\x03\x10\x12\x04/\x00\x00\x00'
p20
tp21
Rp22
sS'phonenumber_oid'
p23
L3485L
s.(dp0
S'status'
p1
S''
p2
sS'direction'
p3
S'Missed Call'
p4
sS'remote'
p5
g2
sS'description'
p6
S'Voice Call'
p7
sS'callid'
p8
L1436L
sS'oid'
p9
L819865L
sS'number'
p10
g2
sS'person_oid'
p11
L77L
sS'contact'
p12
L60L
sS'starttime'
p13
cdatetime
datetime
p14
(S'\x07\xd5\x03\x10\x12.0\x00\x00\x00'
p15
tp16
Rp17
sS'duration'
p18
L0L
sS'endtime'
p19
g14
(S'\x07\xd5\x03\x10\x12.0\x00\x00\x00'
p20
tp21
Rp22
sS'phonenumber_oid'
p23
L3485L
s.(dp0
S'status'
p1
S''
p2
sS'direction'
p3
S'Missed Call'
p4
sS'remote'
p5
g2
sS'description'
p6
S'Voice Call'
p7
sS'callid'
p8
L1436L
sS'oid'
p9
L819869L
sS'number'
p10
g2
sS'person_oid'
p11
L77L
sS'contact'
p12
L60L
sS'starttime'
p13
cdatetime
datetime
p14
(S'\x07\xd5\x03\x10\x12.0\x00\x00\x00'
p15
tp16
Rp17
sS'duration'
p18
L0L
sS'endtime'
p19
g14
(S'\x07\xd5\x03\x10\x12.0\x00\x00\x00'
p20
tp21
Rp22
sS'phonenumber_oid'
p23
L3485L
s.(dp0
S'status'
p1
S''
p2
sS'direction'
p3
S'Missed Call'
p4
sS'remote'
p5
g2
sS'description'
p6
S'Voice Call'
p7
sS'callid'
p8
L1438L
sS'oid'
p9
L819870L
sS'number'
p10
g2
sS'person_oid'
p11
L77L
sS'contact'
p12
L143L
sS'starttime'
p13
cdatetime
datetime
p14
(S'\x07\xd5\x03\x11\n/0\x00\x00\x00'
p15
tp16
Rp17
sS'duration'
p18
L0L
sS'endtime'
p19
g14
(S'\x07\xd5\x03\x11\n/0\x00\x00\x00'
p20
tp21
Rp22
sS'phonenumber_oid'
p23
L3481L
s.(dp0
S'status'
p1
S''
p2
sS'direction'
p3
S'Missed Call'
p4
sS'remote'
p5
g2
sS'description'
p6
S'Voice Call'
p7
sS'callid'
p8
L1438L
sS'oid'
p9
L819881L
sS'number'
p10
g2
sS'person_oid'
p11
L77L
sS'contact'
p12
L143L
sS'starttime'
p13
cdatetime
datetime
p14
(S'\x07\xd5\x03\x11\n/0\x00\x00\x00'
p15
tp16
Rp17
sS'duration'
p18
L0L
sS'endtime'
p19
g14
(S'\x07\xd5\x03\x11\n/0\x00\x00\x00'
p20
tp21
Rp22
sS'phonenumber_oid'
p23
L3481L
s.(dp0
S'status'
p1
S''
p2
sS'direction'
p3
S'Outgoing'
p4
sS'remote'
p5
g2
sS'description'
p6
S'Voice Call'
p7
sS'callid'
p8
L1440L
sS'oid'
p9
L819871L
sS'number'
p10
g2
sS'person_oid'
p11
L77L
sS'contact'
p12
L10L
sS'starttime'
p13
cdatetime
datetime
p14
(S'\x07\xd5\x03\x11\x0b\x1b;\x00\x00\x00'
p15
tp16
Rp17
sS'duration'
p18
L61L
sS'endtime'
p19
g14
(S'\x07\xd5\x03\x11\x0b\x1d\x00\x00\x00\x00'
p20
tp21
Rp22
sS'phonenumber_oid'
p23
L3476L
s.(dp0
S'status'
p1
S''
p2
sS'direction'
p3
S'Outgoing'
p4
sS'remote'
p5
g2
sS'description'
p6
S'Voice Call'
p7
sS'callid'
p8
L1440L
sS'oid'
p9
L819882L
sS'number'
p10
g2
sS'person_oid'
p11
L77L
sS'contact'
p12
L10L
sS'starttime'
p13
cdatetime
datetime
p14
(S'\x07\xd5\x03\x11\x0b\x1b;\x00\x00\x00'
p15
tp16
Rp17
sS'duration'
p18
L61L
sS'endtime'
p19
g14
(S'\x07\xd5\x03\x11\x0b\x1d\x00\x00\x00\x00'
p20
tp21
Rp22
sS'phonenumber_oid'
p23
L3476L
s.(dp0
S'status'
p1
S''
p2
sS'direction'
p3
S'Outgoing'
p4
sS'remote'
p5
g2
sS'description'
p6
S'Voice Call'
p7
sS'callid'
p8
L1442L
sS'oid'
p9
L819872L
sS'number'
p10
g2
sS'person_oid'
p11
L77L
sS'contact'
p12
L10L
sS'starttime'
p13
cdatetime
datetime
p14
(S'\x07\xd5\x03\x11\x0b\x1d\x15\x00\x00\x00'
p15
tp16
Rp17
sS'duration'
p18
L49L
sS'endtime'
p19
g14
(S'\x07\xd5\x03\x11\x0b\x1e\n\x00\x00\x00'
p20
tp21
Rp22
sS'phonenumber_oid'
p23
L3476L
s.(dp0
S'status'
p1
S''
p2
sS'direction'
p3
S'Outgoing'
p4
sS'remote'
p5
g2
sS'description'
p6
S'Voice Call'
p7
sS'callid'
p8
L1442L
sS'oid'
p9
L819883L
sS'number'
p10
g2
sS'person_oid'
p11
L77L
sS'contact'
p12
L10L
sS'starttime'
p13
cdatetime
datetime
p14
(S'\x07\xd5\x03\x11\x0b\x1d\x15\x00\x00\x00'
p15
tp16
Rp17
sS'duration'
p18
L49L
sS'endtime'
p19
g14
(S'\x07\xd5\x03\x11\x0b\x1e\n\x00\x00\x00'
p20
tp21
Rp22
sS'phonenumber_oid'
p23
L3476L
s.(dp0
S'status'
p1
S''
p2
sS'direction'
p3
S'Outgoing'
p4
sS'remote'
p5
g2
sS'description'
p6
S'Voice Call'
p7
sS'callid'
p8
L1444L
sS'oid'
p9
L819873L
sS'number'
p10
g2
sS'person_oid'
p11
L77L
sS'contact'
p12
L60L
sS'starttime'
p13
cdatetime
datetime
p14
(S'\x07\xd5\x03\x11\x0c\x14\x0c\x00\x00\x00'
p15
tp16
Rp17
sS'duration'
p18
L14L
sS'endtime'
p19
g14
(S'\x07\xd5\x03\x11\x0c\x14\x1a\x00\x00\x00'
p20
tp21
Rp22
sS'phonenumber_oid'
p23
L3485L
s.(dp0
S'status'
p1
S''
p2
sS'direction'
p3
S'Outgoing'
p4
sS'remote'
p5
g2
sS'description'
p6
S'Voice Call'
p7
sS'callid'
p8
L1444L
sS'oid'
p9
L819884L
sS'number'
p10
g2
sS'person_oid'
p11
L77L
sS'contact'
p12
L60L
sS'starttime'
p13
cdatetime
datetime
p14
(S'\x07\xd5\x03\x11\x0c\x14\x0c\x00\x00\x00'
p15
tp16
Rp17
sS'duration'
p18
L14L
sS'endtime'
p19
g14
(S'\x07\xd5\x03\x11\x0c\x14\x1a\x00\x00\x00'
p20
tp21
Rp22
sS'phonenumber_oid'
p23
L3485L
s.(dp0
S'status'
p1
S''
p2
sS'direction'
p3
S'Outgoing'
p4
sS'remote'
p5
g2
sS'description'
p6
S'Voice Call'
p7
sS'callid'
p8
L1445L
sS'oid'
p9
L819874L
sS'number'
p10
g2
sS'person_oid'
p11
L77L
sS'contact'
p12
L60L
sS'starttime'
p13
cdatetime
datetime
p14
(S'\x07\xd5\x03\x11\x0c\x144\x00\x00\x00'
p15
tp16
Rp17
sS'duration'
p18
L75L
sS'endtime'
p19
g14
(S'\x07\xd5\x03\x11\x0c\x16\x07\x00\x00\x00'
p20
tp21
Rp22
sS'phonenumber_oid'
p23
L3485L
s.(dp0
S'status'
p1
S''
p2
sS'direction'
p3
S'Outgoing'
p4
sS'remote'
p5
g2
sS'description'
p6
S'Voice Call'
p7
sS'callid'
p8
L1445L
sS'oid'
p9
L819885L
sS'number'
p10
g2
sS'person_oid'
p11
L77L
sS'contact'
p12
L60L
sS'starttime'
p13
cdatetime
datetime
p14
(S'\x07\xd5\x03\x11\x0c\x144\x00\x00\x00'
p15
tp16
Rp17
sS'duration'
p18
L75L
sS'endtime'
p19
g14
(S'\x07\xd5\x03\x11\x0c\x16\x07\x00\x00\x00'
p20
tp21
Rp22
sS'phonenumber_oid'
p23
L3485L
s.(dp0
S'status'
p1
S''
p2
sS'direction'
p3
S'Incoming'
p4
sS'remote'
p5
g2
sS'description'
p6
S'Voice Call'
p7
sS'callid'
p8
L1447L
sS'oid'
p9
L819875L
sS'number'
p10
g2
sS'person_oid'
p11
L77L
sS'contact'
p12
L60L
sS'starttime'
p13
cdatetime
datetime
p14
(S'\x07\xd5\x03\x11\x0c\x15\x03\x00\x00\x00'
p15
tp16
Rp17
sS'duration'
p18
L75L
sS'endtime'
p19
g14
(S'\x07\xd5\x03\x11\x0c\x16\x12\x00\x00\x00'
p20
tp21
Rp22
sS'phonenumber_oid'
p23
L3485L
s.(dp0
S'status'
p1
S''
p2
sS'direction'
p3
S'Incoming'
p4
sS'remote'
p5
g2
sS'description'
p6
S'Voice Call'
p7
sS'callid'
p8
L1447L
sS'oid'
p9
L819886L
sS'number'
p10
g2
sS'person_oid'
p11
L77L
sS'contact'
p12
L60L
sS'starttime'
p13
cdatetime
datetime
p14
(S'\x07\xd5\x03\x11\x0c\x15\x03\x00\x00\x00'
p15
tp16
Rp17
sS'duration'
p18
L75L
sS'endtime'
p19
g14
(S'\x07\xd5\x03\x11\x0c\x16\x12\x00\x00\x00'
p20
tp21
Rp22
sS'phonenumber_oid'
p23
L3485L
s.(dp0
S'status'
p1
S''
p2
sS'direction'
p3
S'Outgoing'
p4
sS'remote'
p5
g2
sS'description'
p6
S'Voice Call'
p7
sS'callid'
p8
L1448L
sS'oid'
p9
L819876L
sS'number'
p10
g2
sS'person_oid'
p11
L77L
sS'contact'
p12
L7L
sS'starttime'
p13
cdatetime
datetime
p14
(S'\x07\xd5\x03\x11\x0c\x169\x00\x00\x00'
p15
tp16
Rp17
sS'duration'
p18
L82L
sS'endtime'
p19
g14
(S'\x07\xd5\x03\x11\x0c\x18\x13\x00\x00\x00'
p20
tp21
Rp22
sS'phonenumber_oid'
p23
L3499L
s.(dp0
S'status'
p1
S''
p2
sS'direction'
p3
S'Outgoing'
p4
sS'remote'
p5
g2
sS'description'
p6
S'Voice Call'
p7
sS'callid'
p8
L1448L
sS'oid'
p9
L819887L
sS'number'
p10
g2
sS'person_oid'
p11
L77L
sS'contact'
p12
L7L
sS'starttime'
p13
cdatetime
datetime
p14
(S'\x07\xd5\x03\x11\x0c\x169\x00\x00\x00'
p15
tp16
Rp17
sS'duration'
p18
L82L
sS'endtime'
p19
g14
(S'\x07\xd5\x03\x11\x0c\x18\x13\x00\x00\x00'
p20
tp21
Rp22
sS'phonenumber_oid'
p23
L3499L
s.(dp0
S'status'
p1
S''
p2
sS'direction'
p3
S'Outgoing'
p4
sS'remote'
p5
g2
sS'description'
p6
S'Voice Call'
p7
sS'callid'
p8
L1449L
sS'oid'
p9
L819877L
sS'number'
p10
g2
sS'person_oid'
p11
L77L
sS'contact'
p12
L14L
sS'starttime'
p13
cdatetime
datetime
p14
(S'\x07\xd5\x03\x11\x0c\x19\x05\x00\x00\x00'
p15
tp16
Rp17
sS'duration'
p18
L61L
sS'endtime'
p19
g14
(S'\x07\xd5\x03\x11\x0c\x1a\x06\x00\x00\x00'
p20
tp21
Rp22
sS'phonenumber_oid'
p23
L3495L
s.(dp0
S'status'
p1
S''
p2
sS'direction'
p3
S'Outgoing'
p4
sS'remote'
p5
g2
sS'description'
p6
S'Voice Call'
p7
sS'callid'
p8
L1449L
sS'oid'
p9
L819888L
sS'number'
p10
g2
sS'person_oid'
p11
L77L
sS'contact'
p12
L14L
sS'starttime'
p13
cdatetime
datetime
p14
(S'\x07\xd5\x03\x11\x0c\x19\x05\x00\x00\x00'
p15
tp16
Rp17
sS'duration'
p18
L61L
sS'endtime'
p19
g14
(S'\x07\xd5\x03\x11\x0c\x1a\x06\x00\x00\x00'
p20
tp21
Rp22
sS'phonenumber_oid'
p23
L3495L
s.(dp0
S'status'
p1
S''
p2
sS'direction'
p3
S'Outgoing'
p4
sS'remote'
p5
g2
sS'description'
p6
S'Voice Call'
p7
sS'callid'
p8
L1450L
sS'oid'
p9
L819878L
sS'number'
p10
g2
sS'person_oid'
p11
L77L
sS'contact'
p12
L14L
sS'starttime'
p13
cdatetime
datetime
p14
(S'\x07\xd5\x03\x11\x0c\x1f\x0b\x00\x00\x00'
p15
tp16
Rp17
sS'duration'
p18
L143L
sS'endtime'
p19
g14
(S'\x07\xd5\x03\x11\x0c!"\x00\x00\x00'
p20
tp21
Rp22
sS'phonenumber_oid'
p23
L3495L
s.(dp0
S'status'
p1
S''
p2
sS'direction'
p3
S'Outgoing'
p4
sS'remote'
p5
g2
sS'description'
p6
S'Voice Call'
p7
sS'callid'
p8
L1450L
sS'oid'
p9
L819889L
sS'number'
p10
g2
sS'person_oid'
p11
L77L
sS'contact'
p12
L14L
sS'starttime'
p13
cdatetime
datetime
p14
(S'\x07\xd5\x03\x11\x0c\x1f\x0b\x00\x00\x00'
p15
tp16
Rp17
sS'duration'
p18
L143L
sS'endtime'
p19
g14
(S'\x07\xd5\x03\x11\x0c!"\x00\x00\x00'
p20
tp21
Rp22
sS'phonenumber_oid'
p23
L3495L
s.(dp0
S'status'
p1
S''
p2
sS'direction'
p3
S'Outgoing'
p4
sS'remote'
p5
g2
sS'description'
p6
S'Voice Call'
p7
sS'callid'
p8
L1451L
sS'oid'
p9
L819879L
sS'number'
p10
g2
sS'person_oid'
p11
L77L
sS'contact'
p12
L7L
sS'starttime'
p13
cdatetime
datetime
p14
(S'\x07\xd5\x03\x11\x0c"\x02\x00\x00\x00'
p15
tp16
Rp17
sS'duration'
p18
L140L
sS'endtime'
p19
g14
(S'\x07\xd5\x03\x11\x0c$\x16\x00\x00\x00'
p20
tp21
Rp22
sS'phonenumber_oid'
p23
L3499L
s.(dp0
S'status'
p1
S''
p2
sS'direction'
p3
S'Outgoing'
p4
sS'remote'
p5
g2
sS'description'
p6
S'Voice Call'
p7
sS'callid'
p8
L1451L
sS'oid'
p9
L819890L
sS'number'
p10
g2
sS'person_oid'
p11
L77L
sS'contact'
p12
L7L
sS'starttime'
p13
cdatetime
datetime
p14
(S'\x07\xd5\x03\x11\x0c"\x02\x00\x00\x00'
p15
tp16
Rp17
sS'duration'
p18
L140L
sS'endtime'
p19
g14
(S'\x07\xd5\x03\x11\x0c$\x16\x00\x00\x00'
p20
tp21
Rp22
sS'phonenumber_oid'
p23
L3499L
s.(dp0
S'status'
p1
S''
p2
sS'direction'
p3
S'Incoming'
p4
sS'remote'
p5
g2
sS'description'
p6
S'Voice Call'
p7
sS'callid'
p8
L1456L
sS'oid'
p9
L819880L
sS'number'
p10
g2
sS'person_oid'
p11
L77L
sS'contact'
p12
L-1L
sS'starttime'
p13
cdatetime
datetime
p14
(S'\x07\xd5\x03\x11\x14\x0e/\x00\x00\x00'
p15
tp16
Rp17
sS'duration'
p18
L226L
sS'endtime'
p19
g14
(S'\x07\xd5\x03\x11\x14\x12!\x00\x00\x00'
p20
tp21
Rp22
sS'phonenumber_oid'
p23
L3L
s.(dp0
S'status'
p1
S''
p2
sS'direction'
p3
S'Incoming'
p4
sS'remote'
p5
g2
sS'description'
p6
S'Voice Call'
p7
sS'callid'
p8
L1456L
sS'oid'
p9
L819891L
sS'number'
p10
g2
sS'person_oid'
p11
L77L
sS'contact'
p12
L-1L
sS'starttime'
p13
cdatetime
datetime
p14
(S'\x07\xd5\x03\x11\x14\x0e/\x00\x00\x00'
p15
tp16
Rp17
sS'duration'
p18
L226L
sS'endtime'
p19
g14
(S'\x07\xd5\x03\x11\x14\x12!\x00\x00\x00'
p20
tp21
Rp22
sS'phonenumber_oid'
p23
L3L
s.(dp0
S'status'
p1
S''
p2
sS'direction'
p3
S'Outgoing'
p4
sS'remote'
p5
g2
sS'description'
p6
S'Voice Call'
p7
sS'callid'
p8
L1457L
sS'oid'
p9
L819892L
sS'number'
p10
g2
sS'person_oid'
p11
L77L
sS'contact'
p12
L36L
sS'starttime'
p13
cdatetime
datetime
p14
(S'\x07\xd5\x03\x12\x0b\x10\x1a\x00\x00\x00'
p15
tp16
Rp17
sS'duration'
p18
L455L
sS'endtime'
p19
g14
(S'\x07\xd5\x03\x12\x0b\x18\x01\x00\x00\x00'
p20
tp21
Rp22
sS'phonenumber_oid'
p23
L3484L
s.(dp0
S'status'
p1
S''
p2
sS'direction'
p3
S'Outgoing'
p4
sS'remote'
p5
g2
sS'description'
p6
S'Voice Call'
p7
sS'callid'
p8
L1457L
sS'oid'
p9
L819898L
sS'number'
p10
g2
sS'person_oid'
p11
L77L
sS'contact'
p12
L36L
sS'starttime'
p13
cdatetime
datetime
p14
(S'\x07\xd5\x03\x12\x0b\x10\x1a\x00\x00\x00'
p15
tp16
Rp17
sS'duration'
p18
L455L
sS'endtime'
p19
g14
(S'\x07\xd5\x03\x12\x0b\x18\x01\x00\x00\x00'
p20
tp21
Rp22
sS'phonenumber_oid'
p23
L3484L
s.(dp0
S'status'
p1
S''
p2
sS'direction'
p3
S'Incoming'
p4
sS'remote'
p5
g2
sS'description'
p6
S'Voice Call'
p7
sS'callid'
p8
L1459L
sS'oid'
p9
L819893L
sS'number'
p10
g2
sS'person_oid'
p11
L77L
sS'contact'
p12
L36L
sS'starttime'
p13
cdatetime
datetime
p14
(S'\x07\xd5\x03\x12\x0b\x18\x14\x00\x00\x00'
p15
tp16
Rp17
sS'duration'
p18
L197L
sS'endtime'
p19
g14
(S'\x07\xd5\x03\x12\x0b\x1b%\x00\x00\x00'
p20
tp21
Rp22
sS'phonenumber_oid'
p23
L3484L
s.(dp0
S'status'
p1
S''
p2
sS'direction'
p3
S'Incoming'
p4
sS'remote'
p5
g2
sS'description'
p6
S'Voice Call'
p7
sS'callid'
p8
L1459L
sS'oid'
p9
L819899L
sS'number'
p10
g2
sS'person_oid'
p11
L77L
sS'contact'
p12
L36L
sS'starttime'
p13
cdatetime
datetime
p14
(S'\x07\xd5\x03\x12\x0b\x18\x14\x00\x00\x00'
p15
tp16
Rp17
sS'duration'
p18
L197L
sS'endtime'
p19
g14
(S'\x07\xd5\x03\x12\x0b\x1b%\x00\x00\x00'
p20
tp21
Rp22
sS'phonenumber_oid'
p23
L3484L
s.(dp0
S'status'
p1
S''
p2
sS'direction'
p3
S'Missed Call'
p4
sS'remote'
p5
g2
sS'description'
p6
S'Voice Call'
p7
sS'callid'
p8
L1460L
sS'oid'
p9
L819894L
sS'number'
p10
g2
sS'person_oid'
p11
L77L
sS'contact'
p12
L143L
sS'starttime'
p13
cdatetime
datetime
p14
(S'\x07\xd5\x03\x12\x0c\x08\x05\x00\x00\x00'
p15
tp16
Rp17
sS'duration'
p18
L0L
sS'endtime'
p19
g14
(S'\x07\xd5\x03\x12\x0c\x08\x05\x00\x00\x00'
p20
tp21
Rp22
sS'phonenumber_oid'
p23
L3481L
s.(dp0
S'status'
p1
S''
p2
sS'direction'
p3
S'Missed Call'
p4
sS'remote'
p5
g2
sS'description'
p6
S'Voice Call'
p7
sS'callid'
p8
L1460L
sS'oid'
p9
L819900L
sS'number'
p10
g2
sS'person_oid'
p11
L77L
sS'contact'
p12
L143L
sS'starttime'
p13
cdatetime
datetime
p14
(S'\x07\xd5\x03\x12\x0c\x08\x05\x00\x00\x00'
p15
tp16
Rp17
sS'duration'
p18
L0L
sS'endtime'
p19
g14
(S'\x07\xd5\x03\x12\x0c\x08\x05\x00\x00\x00'
p20
tp21
Rp22
sS'phonenumber_oid'
p23
L3481L
s.(dp0
S'status'
p1
S''
p2
sS'direction'
p3
S'Missed Call'
p4
sS'remote'
p5
g2
sS'description'
p6
S'Voice Call'
p7
sS'callid'
p8
L1461L
sS'oid'
p9
L819895L
sS'number'
p10
g2
sS'person_oid'
p11
L77L
sS'contact'
p12
L143L
sS'starttime'
p13
cdatetime
datetime
p14
(S'\x07\xd5\x03\x12\x10\x12(\x00\x00\x00'
p15
tp16
Rp17
sS'duration'
p18
L0L
sS'endtime'
p19
g14
(S'\x07\xd5\x03\x12\x10\x12(\x00\x00\x00'
p20
tp21
Rp22
sS'phonenumber_oid'
p23
L3481L
s.(dp0
S'status'
p1
S''
p2
sS'direction'
p3
S'Missed Call'
p4
sS'remote'
p5
g2
sS'description'
p6
S'Voice Call'
p7
sS'callid'
p8
L1461L
sS'oid'
p9
L819901L
sS'number'
p10
g2
sS'person_oid'
p11
L77L
sS'contact'
p12
L143L
sS'starttime'
p13
cdatetime
datetime
p14
(S'\x07\xd5\x03\x12\x10\x12(\x00\x00\x00'
p15
tp16
Rp17
sS'duration'
p18
L0L
sS'endtime'
p19
g14
(S'\x07\xd5\x03\x12\x10\x12(\x00\x00\x00'
p20
tp21
Rp22
sS'phonenumber_oid'
p23
L3481L
s.(dp0
S'status'
p1
S''
p2
sS'direction'
p3
S'Outgoing'
p4
sS'remote'
p5
g2
sS'description'
p6
S'Voice Call'
p7
sS'callid'
p8
L1462L
sS'oid'
p9
L819896L
sS'number'
p10
g2
sS'person_oid'
p11
L77L
sS'contact'
p12
L43L
sS'starttime'
p13
cdatetime
datetime
p14
(S'\x07\xd5\x03\x12\x11,7\x00\x00\x00'
p15
tp16
Rp17
sS'duration'
p18
L472L
sS'endtime'
p19
g14
(S'\x07\xd5\x03\x12\x114/\x00\x00\x00'
p20
tp21
Rp22
sS'phonenumber_oid'
p23
L3497L
s.(dp0
S'status'
p1
S''
p2
sS'direction'
p3
S'Outgoing'
p4
sS'remote'
p5
g2
sS'description'
p6
S'Voice Call'
p7
sS'callid'
p8
L1462L
sS'oid'
p9
L819902L
sS'number'
p10
g2
sS'person_oid'
p11
L77L
sS'contact'
p12
L43L
sS'starttime'
p13
cdatetime
datetime
p14
(S'\x07\xd5\x03\x12\x11,7\x00\x00\x00'
p15
tp16
Rp17
sS'duration'
p18
L472L
sS'endtime'
p19
g14
(S'\x07\xd5\x03\x12\x114/\x00\x00\x00'
p20
tp21
Rp22
sS'phonenumber_oid'
p23
L3497L
s.(dp0
S'status'
p1
S''
p2
sS'direction'
p3
S'Outgoing'
p4
sS'remote'
p5
g2
sS'description'
p6
S'Voice Call'
p7
sS'callid'
p8
L1463L
sS'oid'
p9
L819897L
sS'number'
p10
g2
sS'person_oid'
p11
L77L
sS'contact'
p12
L143L
sS'starttime'
p13
cdatetime
datetime
p14
(S'\x07\xd5\x03\x12\x13\x19\x1e\x00\x00\x00'
p15
tp16
Rp17
sS'duration'
p18
L95L
sS'endtime'
p19
g14
(S'\x07\xd5\x03\x12\x13\x1b\x05\x00\x00\x00'
p20
tp21
Rp22
sS'phonenumber_oid'
p23
L3481L
s.(dp0
S'status'
p1
S''
p2
sS'direction'
p3
S'Outgoing'
p4
sS'remote'
p5
g2
sS'description'
p6
S'Voice Call'
p7
sS'callid'
p8
L1463L
sS'oid'
p9
L819903L
sS'number'
p10
g2
sS'person_oid'
p11
L77L
sS'contact'
p12
L143L
sS'starttime'
p13
cdatetime
datetime
p14
(S'\x07\xd5\x03\x12\x13\x19\x1e\x00\x00\x00'
p15
tp16
Rp17
sS'duration'
p18
L95L
sS'endtime'
p19
g14
(S'\x07\xd5\x03\x12\x13\x1b\x05\x00\x00\x00'
p20
tp21
Rp22
sS'phonenumber_oid'
p23
L3481L
s.(dp0
S'status'
p1
S''
p2
sS'direction'
p3
S'Outgoing'
p4
sS'remote'
p5
g2
sS'description'
p6
S'Voice Call'
p7
sS'callid'
p8
L1465L
sS'oid'
p9
L819904L
sS'number'
p10
g2
sS'person_oid'
p11
L77L
sS'contact'
p12
L63L
sS'starttime'
p13
cdatetime
datetime
p14
(S'\x07\xd5\x03\x14\x1393\x00\x00\x00'
p15
tp16
Rp17
sS'duration'
p18
L0L
sS'endtime'
p19
g14
(S'\x07\xd5\x03\x14\x1393\x00\x00\x00'
p20
tp21
Rp22
sS'phonenumber_oid'
p23
L3474L
s.(dp0
S'status'
p1
S''
p2
sS'direction'
p3
S'Outgoing'
p4
sS'remote'
p5
g2
sS'description'
p6
S'Voice Call'
p7
sS'callid'
p8
L1465L
sS'oid'
p9
L819905L
sS'number'
p10
g2
sS'person_oid'
p11
L77L
sS'contact'
p12
L63L
sS'starttime'
p13
cdatetime
datetime
p14
(S'\x07\xd5\x03\x14\x1393\x00\x00\x00'
p15
tp16
Rp17
sS'duration'
p18
L0L
sS'endtime'
p19
g14
(S'\x07\xd5\x03\x14\x1393\x00\x00\x00'
p20
tp21
Rp22
sS'phonenumber_oid'
p23
L3474L
s.(dp0
S'status'
p1
S''
p2
sS'direction'
p3
S'Outgoing'
p4
sS'remote'
p5
g2
sS'description'
p6
S'Voice Call'
p7
sS'callid'
p8
L1469L
sS'oid'
p9
L819906L
sS'number'
p10
g2
sS'person_oid'
p11
L77L
sS'contact'
p12
L10L
sS'starttime'
p13
cdatetime
datetime
p14
(S'\x07\xd5\x03\x15\r\x0f \x00\x00\x00'
p15
tp16
Rp17
sS'duration'
p18
L89L
sS'endtime'
p19
g14
(S'\x07\xd5\x03\x15\r\x11\x01\x00\x00\x00'
p20
tp21
Rp22
sS'phonenumber_oid'
p23
L3476L
s.(dp0
S'status'
p1
S''
p2
sS'direction'
p3
S'Outgoing'
p4
sS'remote'
p5
g2
sS'description'
p6
S'Voice Call'
p7
sS'callid'
p8
L1469L
sS'oid'
p9
L819915L
sS'number'
p10
g2
sS'person_oid'
p11
L77L
sS'contact'
p12
L10L
sS'starttime'
p13
cdatetime
datetime
p14
(S'\x07\xd5\x03\x15\r\x0f \x00\x00\x00'
p15
tp16
Rp17
sS'duration'
p18
L89L
sS'endtime'
p19
g14
(S'\x07\xd5\x03\x15\r\x11\x01\x00\x00\x00'
p20
tp21
Rp22
sS'phonenumber_oid'
p23
L3476L
s.(dp0
S'status'
p1
S''
p2
sS'direction'
p3
S'Incoming'
p4
sS'remote'
p5
g2
sS'description'
p6
S'Voice Call'
p7
sS'callid'
p8
L1474L
sS'oid'
p9
L819907L
sS'number'
p10
g2
sS'person_oid'
p11
L77L
sS'contact'
p12
L14L
sS'starttime'
p13
cdatetime
datetime
p14
(S'\x07\xd5\x03\x15\x0f60\x00\x00\x00'
p15
tp16
Rp17
sS'duration'
p18
L1L
sS'endtime'
p19
g14
(S'\x07\xd5\x03\x15\x0f61\x00\x00\x00'
p20
tp21
Rp22
sS'phonenumber_oid'
p23
L3495L
s.(dp0
S'status'
p1
S''
p2
sS'direction'
p3
S'Incoming'
p4
sS'remote'
p5
g2
sS'description'
p6
S'Voice Call'
p7
sS'callid'
p8
L1474L
sS'oid'
p9
L819916L
sS'number'
p10
g2
sS'person_oid'
p11
L77L
sS'contact'
p12
L14L
sS'starttime'
p13
cdatetime
datetime
p14
(S'\x07\xd5\x03\x15\x0f60\x00\x00\x00'
p15
tp16
Rp17
sS'duration'
p18
L1L
sS'endtime'
p19
g14
(S'\x07\xd5\x03\x15\x0f61\x00\x00\x00'
p20
tp21
Rp22
sS'phonenumber_oid'
p23
L3495L
s.(dp0
S'status'
p1
S''
p2
sS'direction'
p3
S'Incoming'
p4
sS'remote'
p5
g2
sS'description'
p6
S'Voice Call'
p7
sS'callid'
p8
L1476L
sS'oid'
p9
L819908L
sS'number'
p10
g2
sS'person_oid'
p11
L77L
sS'contact'
p12
L14L
sS'starttime'
p13
cdatetime
datetime
p14
(S'\x07\xd5\x03\x15\x0f8#\x00\x00\x00'
p15
tp16
Rp17
sS'duration'
p18
L6L
sS'endtime'
p19
g14
(S'\x07\xd5\x03\x15\x0f8)\x00\x00\x00'
p20
tp21
Rp22
sS'phonenumber_oid'
p23
L3495L
s.(dp0
S'status'
p1
S''
p2
sS'direction'
p3
S'Incoming'
p4
sS'remote'
p5
g2
sS'description'
p6
S'Voice Call'
p7
sS'callid'
p8
L1476L
sS'oid'
p9
L819917L
sS'number'
p10
g2
sS'person_oid'
p11
L77L
sS'contact'
p12
L14L
sS'starttime'
p13
cdatetime
datetime
p14
(S'\x07\xd5\x03\x15\x0f8#\x00\x00\x00'
p15
tp16
Rp17
sS'duration'
p18
L6L
sS'endtime'
p19
g14
(S'\x07\xd5\x03\x15\x0f8)\x00\x00\x00'
p20
tp21
Rp22
sS'phonenumber_oid'
p23
L3495L
s.(dp0
S'status'
p1
S''
p2
sS'direction'
p3
S'Outgoing'
p4
sS'remote'
p5
g2
sS'description'
p6
S'Voice Call'
p7
sS'callid'
p8
L1477L
sS'oid'
p9
L819909L
sS'number'
p10
g2
sS'person_oid'
p11
L77L
sS'contact'
p12
L12L
sS'starttime'
p13
cdatetime
datetime
p14
(S'\x07\xd5\x03\x15\x10\x06\x1a\x00\x00\x00'
p15
tp16
Rp17
sS'duration'
p18
L0L
sS'endtime'
p19
g14
(S'\x07\xd5\x03\x15\x10\x06\x1a\x00\x00\x00'
p20
tp21
Rp22
sS'phonenumber_oid'
p23
L3512L
s.(dp0
S'status'
p1
S''
p2
sS'direction'
p3
S'Outgoing'
p4
sS'remote'
p5
g2
sS'description'
p6
S'Voice Call'
p7
sS'callid'
p8
L1477L
sS'oid'
p9
L819918L
sS'number'
p10
g2
sS'person_oid'
p11
L77L
sS'contact'
p12
L12L
sS'starttime'
p13
cdatetime
datetime
p14
(S'\x07\xd5\x03\x15\x10\x06\x1a\x00\x00\x00'
p15
tp16
Rp17
sS'duration'
p18
L0L
sS'endtime'
p19
g14
(S'\x07\xd5\x03\x15\x10\x06\x1a\x00\x00\x00'
p20
tp21
Rp22
sS'phonenumber_oid'
p23
L3512L
s.(dp0
S'status'
p1
S''
p2
sS'direction'
p3
S'Outgoing'
p4
sS'remote'
p5
g2
sS'description'
p6
S'Voice Call'
p7
sS'callid'
p8
L1478L
sS'oid'
p9
L819910L
sS'number'
p10
g2
sS'person_oid'
p11
L77L
sS'contact'
p12
L12L
sS'starttime'
p13
cdatetime
datetime
p14
(S'\x07\xd5\x03\x15\x10\x07\x1a\x00\x00\x00'
p15
tp16
Rp17
sS'duration'
p18
L18L
sS'endtime'
p19
g14
(S'\x07\xd5\x03\x15\x10\x07,\x00\x00\x00'
p20
tp21
Rp22
sS'phonenumber_oid'
p23
L3512L
s.(dp0
S'status'
p1
S''
p2
sS'direction'
p3
S'Outgoing'
p4
sS'remote'
p5
g2
sS'description'
p6
S'Voice Call'
p7
sS'callid'
p8
L1478L
sS'oid'
p9
L819919L
sS'number'
p10
g2
sS'person_oid'
p11
L77L
sS'contact'
p12
L12L
sS'starttime'
p13
cdatetime
datetime
p14
(S'\x07\xd5\x03\x15\x10\x07\x1a\x00\x00\x00'
p15
tp16
Rp17
sS'duration'
p18
L18L
sS'endtime'
p19
g14
(S'\x07\xd5\x03\x15\x10\x07,\x00\x00\x00'
p20
tp21
Rp22
sS'phonenumber_oid'
p23
L3512L
s.(dp0
S'status'
p1
S''
p2
sS'direction'
p3
S'Outgoing'
p4
sS'remote'
p5
g2
sS'description'
p6
S'Voice Call'
p7
sS'callid'
p8
L1479L
sS'oid'
p9
L819911L
sS'number'
p10
g2
sS'person_oid'
p11
L77L
sS'contact'
p12
L14L
sS'starttime'
p13
cdatetime
datetime
p14
(S'\x07\xd5\x03\x15\x10\x08\x01\x00\x00\x00'
p15
tp16
Rp17
sS'duration'
p18
L319L
sS'endtime'
p19
g14
(S'\x07\xd5\x03\x15\x10\r\x14\x00\x00\x00'
p20
tp21
Rp22
sS'phonenumber_oid'
p23
L3495L
s.(dp0
S'status'
p1
S''
p2
sS'direction'
p3
S'Outgoing'
p4
sS'remote'
p5
g2
sS'description'
p6
S'Voice Call'
p7
sS'callid'
p8
L1479L
sS'oid'
p9
L819920L
sS'number'
p10
g2
sS'person_oid'
p11
L77L
sS'contact'
p12
L14L
sS'starttime'
p13
cdatetime
datetime
p14
(S'\x07\xd5\x03\x15\x10\x08\x01\x00\x00\x00'
p15
tp16
Rp17
sS'duration'
p18
L319L
sS'endtime'
p19
g14
(S'\x07\xd5\x03\x15\x10\r\x14\x00\x00\x00'
p20
tp21
Rp22
sS'phonenumber_oid'
p23
L3495L
s.(dp0
S'status'
p1
S''
p2
sS'direction'
p3
S'Outgoing'
p4
sS'remote'
p5
g2
sS'description'
p6
S'Voice Call'
p7
sS'callid'
p8
L1480L
sS'oid'
p9
L819912L
sS'number'
p10
g2
sS'person_oid'
p11
L77L
sS'contact'
p12
L63L
sS'starttime'
p13
cdatetime
datetime
p14
(S'\x07\xd5\x03\x15\x10\x0e6\x00\x00\x00'
p15
tp16
Rp17
sS'duration'
p18
L0L
sS'endtime'
p19
g14
(S'\x07\xd5\x03\x15\x10\x0e6\x00\x00\x00'
p20
tp21
Rp22
sS'phonenumber_oid'
p23
L3474L
s.(dp0
S'status'
p1
S''
p2
sS'direction'
p3
S'Outgoing'
p4
sS'remote'
p5
g2
sS'description'
p6
S'Voice Call'
p7
sS'callid'
p8
L1480L
sS'oid'
p9
L819921L
sS'number'
p10
g2
sS'person_oid'
p11
L77L
sS'contact'
p12
L63L
sS'starttime'
p13
cdatetime
datetime
p14
(S'\x07\xd5\x03\x15\x10\x0e6\x00\x00\x00'
p15
tp16
Rp17
sS'duration'
p18
L0L
sS'endtime'
p19
g14
(S'\x07\xd5\x03\x15\x10\x0e6\x00\x00\x00'
p20
tp21
Rp22
sS'phonenumber_oid'
p23
L3474L
s.(dp0
S'status'
p1
S''
p2
sS'direction'
p3
S'Incoming'
p4
sS'remote'
p5
g2
sS'description'
p6
S'Voice Call'
p7
sS'callid'
p8
L1482L
sS'oid'
p9
L819913L
sS'number'
p10
g2
sS'person_oid'
p11
L77L
sS'contact'
p12
L63L
sS'starttime'
p13
cdatetime
datetime
p14
(S'\x07\xd5\x03\x15\x10(\x1b\x00\x00\x00'
p15
tp16
Rp17
sS'duration'
p18
L292L
sS'endtime'
p19
g14
(S'\x07\xd5\x03\x15\x10-\x13\x00\x00\x00'
p20
tp21
Rp22
sS'phonenumber_oid'
p23
L3474L
s.(dp0
S'status'
p1
S''
p2
sS'direction'
p3
S'Incoming'
p4
sS'remote'
p5
g2
sS'description'
p6
S'Voice Call'
p7
sS'callid'
p8
L1482L
sS'oid'
p9
L819922L
sS'number'
p10
g2
sS'person_oid'
p11
L77L
sS'contact'
p12
L63L
sS'starttime'
p13
cdatetime
datetime
p14
(S'\x07\xd5\x03\x15\x10(\x1b\x00\x00\x00'
p15
tp16
Rp17
sS'duration'
p18
L292L
sS'endtime'
p19
g14
(S'\x07\xd5\x03\x15\x10-\x13\x00\x00\x00'
p20
tp21
Rp22
sS'phonenumber_oid'
p23
L3474L
s.(dp0
S'status'
p1
S''
p2
sS'direction'
p3
S'Outgoing'
p4
sS'remote'
p5
g2
sS'description'
p6
S'Voice Call'
p7
sS'callid'
p8
L1486L
sS'oid'
p9
L819914L
sS'number'
p10
g2
sS'person_oid'
p11
L77L
sS'contact'
p12
L76L
sS'starttime'
p13
cdatetime
datetime
p14
(S'\x07\xd5\x03\x15\x15\x080\x00\x00\x00'
p15
tp16
Rp17
sS'duration'
p18
L49L
sS'endtime'
p19
g14
(S'\x07\xd5\x03\x15\x15\t%\x00\x00\x00'
p20
tp21
Rp22
sS'phonenumber_oid'
p23
L3488L
s.(dp0
S'status'
p1
S''
p2
sS'direction'
p3
S'Outgoing'
p4
sS'remote'
p5
g2
sS'description'
p6
S'Voice Call'
p7
sS'callid'
p8
L1486L
sS'oid'
p9
L819923L
sS'number'
p10
g2
sS'person_oid'
p11
L77L
sS'contact'
p12
L76L
sS'starttime'
p13
cdatetime
datetime
p14
(S'\x07\xd5\x03\x15\x15\x080\x00\x00\x00'
p15
tp16
Rp17
sS'duration'
p18
L49L
sS'endtime'
p19
g14
(S'\x07\xd5\x03\x15\x15\t%\x00\x00\x00'
p20
tp21
Rp22
sS'phonenumber_oid'
p23
L3488L
s.(dp0
S'status'
p1
S''
p2
sS'direction'
p3
S'Outgoing'
p4
sS'remote'
p5
g2
sS'description'
p6
S'Voice Call'
p7
sS'callid'
p8
L1490L
sS'oid'
p9
L819924L
sS'number'
p10
g2
sS'person_oid'
p11
L77L
sS'contact'
p12
L10L
sS'starttime'
p13
cdatetime
datetime
p14
(S"\x07\xd5\x03\x17\n;'\x00\x00\x00"
p15
tp16
Rp17
sS'duration'
p18
L165L
sS'endtime'
p19
g14
(S'\x07\xd5\x03\x17\x0b\x02\x18\x00\x00\x00'
p20
tp21
Rp22
sS'phonenumber_oid'
p23
L3476L
s.(dp0
S'status'
p1
S''
p2
sS'direction'
p3
S'Outgoing'
p4
sS'remote'
p5
g2
sS'description'
p6
S'Voice Call'
p7
sS'callid'
p8
L1490L
sS'oid'
p9
L819926L
sS'number'
p10
g2
sS'person_oid'
p11
L77L
sS'contact'
p12
L10L
sS'starttime'
p13
cdatetime
datetime
p14
(S"\x07\xd5\x03\x17\n;'\x00\x00\x00"
p15
tp16
Rp17
sS'duration'
p18
L165L
sS'endtime'
p19
g14
(S'\x07\xd5\x03\x17\x0b\x02\x18\x00\x00\x00'
p20
tp21
Rp22
sS'phonenumber_oid'
p23
L3476L
s.(dp0
S'status'
p1
S''
p2
sS'direction'
p3
S'Outgoing'
p4
sS'remote'
p5
g2
sS'description'
p6
S'Voice Call'
p7
sS'callid'
p8
L1492L
sS'oid'
p9
L819925L
sS'number'
p10
g2
sS'person_oid'
p11
L77L
sS'contact'
p12
L10L
sS'starttime'
p13
cdatetime
datetime
p14
(S'\x07\xd5\x03\x17\x10,&\x00\x00\x00'
p15
tp16
Rp17
sS'duration'
p18
L134L
sS'endtime'
p19
g14
(S'\x07\xd5\x03\x17\x10.4\x00\x00\x00'
p20
tp21
Rp22
sS'phonenumber_oid'
p23
L3476L
s.(dp0
S'status'
p1
S''
p2
sS'direction'
p3
S'Outgoing'
p4
sS'remote'
p5
g2
sS'description'
p6
S'Voice Call'
p7
sS'callid'
p8
L1492L
sS'oid'
p9
L819927L
sS'number'
p10
g2
sS'person_oid'
p11
L77L
sS'contact'
p12
L10L
sS'starttime'
p13
cdatetime
datetime
p14
(S'\x07\xd5\x03\x17\x10,&\x00\x00\x00'
p15
tp16
Rp17
sS'duration'
p18
L134L
sS'endtime'
p19
g14
(S'\x07\xd5\x03\x17\x10.4\x00\x00\x00'
p20
tp21
Rp22
sS'phonenumber_oid'
p23
L3476L
s.(dp0
S'status'
p1
S''
p2
sS'direction'
p3
S'Outgoing'
p4
sS'remote'
p5
g2
sS'description'
p6
S'Voice Call'
p7
sS'callid'
p8
L1495L
sS'oid'
p9
L819928L
sS'number'
p10
g2
sS'person_oid'
p11
L77L
sS'contact'
p12
L143L
sS'starttime'
p13
cdatetime
datetime
p14
(S'\x07\xd5\x03\x18\t9\x17\x00\x00\x00'
p15
tp16
Rp17
sS'duration'
p18
L17L
sS'endtime'
p19
g14
(S'\x07\xd5\x03\x18\t9(\x00\x00\x00'
p20
tp21
Rp22
sS'phonenumber_oid'
p23
L3481L
s.(dp0
S'status'
p1
S''
p2
sS'direction'
p3
S'Outgoing'
p4
sS'remote'
p5
g2
sS'description'
p6
S'Voice Call'
p7
sS'callid'
p8
L1495L
sS'oid'
p9
L819933L
sS'number'
p10
g2
sS'person_oid'
p11
L77L
sS'contact'
p12
L143L
sS'starttime'
p13
cdatetime
datetime
p14
(S'\x07\xd5\x03\x18\t9\x17\x00\x00\x00'
p15
tp16
Rp17
sS'duration'
p18
L17L
sS'endtime'
p19
g14
(S'\x07\xd5\x03\x18\t9(\x00\x00\x00'
p20
tp21
Rp22
sS'phonenumber_oid'
p23
L3481L
s.(dp0
S'status'
p1
S''
p2
sS'direction'
p3
S'Incoming'
p4
sS'remote'
p5
g2
sS'description'
p6
S'Voice Call'
p7
sS'callid'
p8
L1497L
sS'oid'
p9
L819929L
sS'number'
p10
g2
sS'person_oid'
p11
L77L
sS'contact'
p12
L36L
sS'starttime'
p13
cdatetime
datetime
p14
(S'\x07\xd5\x03\x18\x0c\x04\x14\x00\x00\x00'
p15
tp16
Rp17
sS'duration'
p18
L72L
sS'endtime'
p19
g14
(S'\x07\xd5\x03\x18\x0c\x05 \x00\x00\x00'
p20
tp21
Rp22
sS'phonenumber_oid'
p23
L3484L
s.(dp0
S'status'
p1
S''
p2
sS'direction'
p3
S'Incoming'
p4
sS'remote'
p5
g2
sS'description'
p6
S'Voice Call'
p7
sS'callid'
p8
L1497L
sS'oid'
p9
L819934L
sS'number'
p10
g2
sS'person_oid'
p11
L77L
sS'contact'
p12
L36L
sS'starttime'
p13
cdatetime
datetime
p14
(S'\x07\xd5\x03\x18\x0c\x04\x14\x00\x00\x00'
p15
tp16
Rp17
sS'duration'
p18
L72L
sS'endtime'
p19
g14
(S'\x07\xd5\x03\x18\x0c\x05 \x00\x00\x00'
p20
tp21
Rp22
sS'phonenumber_oid'
p23
L3484L
s.(dp0
S'status'
p1
S''
p2
sS'direction'
p3
S'Outgoing'
p4
sS'remote'
p5
g2
sS'description'
p6
S'Voice Call'
p7
sS'callid'
p8
L1498L
sS'oid'
p9
L819930L
sS'number'
p10
g2
sS'person_oid'
p11
L77L
sS'contact'
p12
L63L
sS'starttime'
p13
cdatetime
datetime
p14
(S'\x07\xd5\x03\x18\x0f. \x00\x00\x00'
p15
tp16
Rp17
sS'duration'
p18
L17L
sS'endtime'
p19
g14
(S'\x07\xd5\x03\x18\x0f.1\x00\x00\x00'
p20
tp21
Rp22
sS'phonenumber_oid'
p23
L3474L
s.(dp0
S'status'
p1
S''
p2
sS'direction'
p3
S'Outgoing'
p4
sS'remote'
p5
g2
sS'description'
p6
S'Voice Call'
p7
sS'callid'
p8
L1498L
sS'oid'
p9
L819935L
sS'number'
p10
g2
sS'person_oid'
p11
L77L
sS'contact'
p12
L63L
sS'starttime'
p13
cdatetime
datetime
p14
(S'\x07\xd5\x03\x18\x0f. \x00\x00\x00'
p15
tp16
Rp17
sS'duration'
p18
L17L
sS'endtime'
p19
g14
(S'\x07\xd5\x03\x18\x0f.1\x00\x00\x00'
p20
tp21
Rp22
sS'phonenumber_oid'
p23
L3474L
s.(dp0
S'status'
p1
S''
p2
sS'direction'
p3
S'Outgoing'
p4
sS'remote'
p5
g2
sS'description'
p6
S'Voice Call'
p7
sS'callid'
p8
L1499L
sS'oid'
p9
L819931L
sS'number'
p10
g2
sS'person_oid'
p11
L77L
sS'contact'
p12
L62L
sS'starttime'
p13
cdatetime
datetime
p14
(S'\x07\xd5\x03\x18\x0f/\x10\x00\x00\x00'
p15
tp16
Rp17
sS'duration'
p18
L14L
sS'endtime'
p19
g14
(S'\x07\xd5\x03\x18\x0f/\x1e\x00\x00\x00'
p20
tp21
Rp22
sS'phonenumber_oid'
p23
L3483L
s.(dp0
S'status'
p1
S''
p2
sS'direction'
p3
S'Outgoing'
p4
sS'remote'
p5
g2
sS'description'
p6
S'Voice Call'
p7
sS'callid'
p8
L1499L
sS'oid'
p9
L819936L
sS'number'
p10
g2
sS'person_oid'
p11
L77L
sS'contact'
p12
L62L
sS'starttime'
p13
cdatetime
datetime
p14
(S'\x07\xd5\x03\x18\x0f/\x10\x00\x00\x00'
p15
tp16
Rp17
sS'duration'
p18
L14L
sS'endtime'
p19
g14
(S'\x07\xd5\x03\x18\x0f/\x1e\x00\x00\x00'
p20
tp21
Rp22
sS'phonenumber_oid'
p23
L3483L
s.(dp0
S'status'
p1
S''
p2
sS'direction'
p3
S'Outgoing'
p4
sS'remote'
p5
g2
sS'description'
p6
S'Voice Call'
p7
sS'callid'
p8
L1505L
sS'oid'
p9
L819932L
sS'number'
p10
g2
sS'person_oid'
p11
L77L
sS'contact'
p12
L10L
sS'starttime'
p13
cdatetime
datetime
p14
(S'\x07\xd5\x03\x18\x16.-\x00\x00\x00'
p15
tp16
Rp17
sS'duration'
p18
L35L
sS'endtime'
p19
g14
(S'\x07\xd5\x03\x18\x16/\x14\x00\x00\x00'
p20
tp21
Rp22
sS'phonenumber_oid'
p23
L3476L
s.(dp0
S'status'
p1
S''
p2
sS'direction'
p3
S'Outgoing'
p4
sS'remote'
p5
g2
sS'description'
p6
S'Voice Call'
p7
sS'callid'
p8
L1505L
sS'oid'
p9
L819937L
sS'number'
p10
g2
sS'person_oid'
p11
L77L
sS'contact'
p12
L10L
sS'starttime'
p13
cdatetime
datetime
p14
(S'\x07\xd5\x03\x18\x16.-\x00\x00\x00'
p15
tp16
Rp17
sS'duration'
p18
L35L
sS'endtime'
p19
g14
(S'\x07\xd5\x03\x18\x16/\x14\x00\x00\x00'
p20
tp21
Rp22
sS'phonenumber_oid'
p23
L3476L
s.(dp0
S'status'
p1
S''
p2
sS'direction'
p3
S'Incoming'
p4
sS'remote'
p5
g2
sS'description'
p6
S'Voice Call'
p7
sS'callid'
p8
L1508L
sS'oid'
p9
L819938L
sS'number'
p10
g2
sS'person_oid'
p11
L77L
sS'contact'
p12
L7L
sS'starttime'
p13
cdatetime
datetime
p14
(S'\x07\xd5\x03\x1b\x14\x10\x05\x00\x00\x00'
p15
tp16
Rp17
sS'duration'
p18
L31L
sS'endtime'
p19
g14
(S'\x07\xd5\x03\x1b\x14\x10$\x00\x00\x00'
p20
tp21
Rp22
sS'phonenumber_oid'
p23
L3499L
s.(dp0
S'status'
p1
S''
p2
sS'direction'
p3
S'Incoming'
p4
sS'remote'
p5
g2
sS'description'
p6
S'Voice Call'
p7
sS'callid'
p8
L1508L
sS'oid'
p9
L819939L
sS'number'
p10
g2
sS'person_oid'
p11
L77L
sS'contact'
p12
L7L
sS'starttime'
p13
cdatetime
datetime
p14
(S'\x07\xd5\x03\x1b\x14\x10\x05\x00\x00\x00'
p15
tp16
Rp17
sS'duration'
p18
L31L
sS'endtime'
p19
g14
(S'\x07\xd5\x03\x1b\x14\x10$\x00\x00\x00'
p20
tp21
Rp22
sS'phonenumber_oid'
p23
L3499L
s.(dp0
S'status'
p1
S''
p2
sS'direction'
p3
S'Outgoing'
p4
sS'remote'
p5
g2
sS'description'
p6
S'Voice Call'
p7
sS'callid'
p8
L1509L
sS'oid'
p9
L819940L
sS'number'
p10
g2
sS'person_oid'
p11
L77L
sS'contact'
p12
L63L
sS'starttime'
p13
cdatetime
datetime
p14
(S'\x07\xd5\x03\x1c\x0f;\x1b\x00\x00\x00'
p15
tp16
Rp17
sS'duration'
p18
L15L
sS'endtime'
p19
g14
(S'\x07\xd5\x03\x1c\x0f;*\x00\x00\x00'
p20
tp21
Rp22
sS'phonenumber_oid'
p23
L3474L
s.(dp0
S'status'
p1
S''
p2
sS'direction'
p3
S'Outgoing'
p4
sS'remote'
p5
g2
sS'description'
p6
S'Voice Call'
p7
sS'callid'
p8
L1510L
sS'oid'
p9
L819941L
sS'number'
p10
g2
sS'person_oid'
p11
L77L
sS'contact'
p12
L62L
sS'starttime'
p13
cdatetime
datetime
p14
(S'\x07\xd5\x03\x1c\x10\x00\x00\x00\x00\x00'
p15
tp16
Rp17
sS'duration'
p18
L9L
sS'endtime'
p19
g14
(S'\x07\xd5\x03\x1c\x10\x00\t\x00\x00\x00'
p20
tp21
Rp22
sS'phonenumber_oid'
p23
L3483L
s.(dp0
S'status'
p1
S''
p2
sS'direction'
p3
S'Incoming'
p4
sS'remote'
p5
g2
sS'description'
p6
S'Voice Call'
p7
sS'callid'
p8
L1515L
sS'oid'
p9
L819942L
sS'number'
p10
g2
sS'person_oid'
p11
L77L
sS'contact'
p12
L63L
sS'starttime'
p13
cdatetime
datetime
p14
(S'\x07\xd5\x03\x1c\x11\x17:\x00\x00\x00'
p15
tp16
Rp17
sS'duration'
p18
L56L
sS'endtime'
p19
g14
(S'\x07\xd5\x03\x1c\x11\x186\x00\x00\x00'
p20
tp21
Rp22
sS'phonenumber_oid'
p23
L3474L
s.(dp0
S'status'
p1
S''
p2
sS'direction'
p3
S'Outgoing'
p4
sS'remote'
p5
g2
sS'description'
p6
S'Voice Call'
p7
sS'callid'
p8
L1516L
sS'oid'
p9
L819943L
sS'number'
p10
g2
sS'person_oid'
p11
L77L
sS'contact'
p12
L10L
sS'starttime'
p13
cdatetime
datetime
p14
(S'\x07\xd5\x03\x1c\x11!;\x00\x00\x00'
p15
tp16
Rp17
sS'duration'
p18
L38L
sS'endtime'
p19
g14
(S'\x07\xd5\x03\x1c\x11"%\x00\x00\x00'
p20
tp21
Rp22
sS'phonenumber_oid'
p23
L3476L
s.(dp0
S'status'
p1
S''
p2
sS'direction'
p3
S'Missed Call'
p4
sS'remote'
p5
g2
sS'description'
p6
S'Voice Call'
p7
sS'callid'
p8
L1519L
sS'oid'
p9
L819944L
sS'number'
p10
g2
sS'person_oid'
p11
L77L
sS'contact'
p12
L63L
sS'starttime'
p13
cdatetime
datetime
p14
(S'\x07\xd5\x03\x1c\x13\x1e\x1e\x00\x00\x00'
p15
tp16
Rp17
sS'duration'
p18
L0L
sS'endtime'
p19
g14
(S'\x07\xd5\x03\x1c\x13\x1e\x1e\x00\x00\x00'
p20
tp21
Rp22
sS'phonenumber_oid'
p23
L3474L
s.(dp0
S'status'
p1
S''
p2
sS'direction'
p3
S'Outgoing'
p4
sS'remote'
p5
g2
sS'description'
p6
S'Voice Call'
p7
sS'callid'
p8
L1520L
sS'oid'
p9
L819945L
sS'number'
p10
g2
sS'person_oid'
p11
L77L
sS'contact'
p12
L14L
sS'starttime'
p13
cdatetime
datetime
p14
(S'\x07\xd5\x03\x1c\x16\x1c\x05\x00\x00\x00'
p15
tp16
Rp17
sS'duration'
p18
L839L
sS'endtime'
p19
g14
(S'\x07\xd5\x03\x1c\x16*\x04\x00\x00\x00'
p20
tp21
Rp22
sS'phonenumber_oid'
p23
L3495L
s.