(dp0
S'status'
p1
S''
p2
sS'direction'
p3
S'Incoming'
p4
sS'remote'
p5
g2
sS'description'
p6
S'Voice Call'
p7
sS'callid'
p8
L1064L
sS'oid'
p9
L799229L
sS'number'
p10
g2
sS'person_oid'
p11
L82L
sS'contact'
p12
L185L
sS'starttime'
p13
cdatetime
datetime
p14
(S'\x07\xd5\x02\x02\x10\x1a\x16\x00\x00\x00'
p15
tp16
Rp17
sS'duration'
p18
L9L
sS'endtime'
p19
g14
(S'\x07\xd5\x02\x02\x10\x1a\x1f\x00\x00\x00'
p20
tp21
Rp22
sS'phonenumber_oid'
p23
L3188L
s.(dp0
S'status'
p1
S''
p2
sS'direction'
p3
S'Incoming'
p4
sS'remote'
p5
g2
sS'description'
p6
S'Voice Call'
p7
sS'callid'
p8
L1064L
sS'oid'
p9
L799241L
sS'number'
p10
g2
sS'person_oid'
p11
L82L
sS'contact'
p12
L185L
sS'starttime'
p13
cdatetime
datetime
p14
(S'\x07\xd5\x02\x02\x10\x1a\x16\x00\x00\x00'
p15
tp16
Rp17
sS'duration'
p18
L9L
sS'endtime'
p19
g14
(S'\x07\xd5\x02\x02\x10\x1a\x1f\x00\x00\x00'
p20
tp21
Rp22
sS'phonenumber_oid'
p23
L3188L
s.(dp0
S'status'
p1
S''
p2
sS'direction'
p3
S'Outgoing'
p4
sS'remote'
p5
g2
sS'description'
p6
S'Voice Call'
p7
sS'callid'
p8
L1065L
sS'oid'
p9
L799230L
sS'number'
p10
g2
sS'person_oid'
p11
L82L
sS'contact'
p12
L185L
sS'starttime'
p13
cdatetime
datetime
p14
(S'\x07\xd5\x02\x02\x10\x1a;\x00\x00\x00'
p15
tp16
Rp17
sS'duration'
p18
L0L
sS'endtime'
p19
g14
(S'\x07\xd5\x02\x02\x10\x1a;\x00\x00\x00'
p20
tp21
Rp22
sS'phonenumber_oid'
p23
L3188L
s.(dp0
S'status'
p1
S''
p2
sS'direction'
p3
S'Outgoing'
p4
sS'remote'
p5
g2
sS'description'
p6
S'Voice Call'
p7
sS'callid'
p8
L1065L
sS'oid'
p9
L799242L
sS'number'
p10
g2
sS'person_oid'
p11
L82L
sS'contact'
p12
L185L
sS'starttime'
p13
cdatetime
datetime
p14
(S'\x07\xd5\x02\x02\x10\x1a;\x00\x00\x00'
p15
tp16
Rp17
sS'duration'
p18
L0L
sS'endtime'
p19
g14
(S'\x07\xd5\x02\x02\x10\x1a;\x00\x00\x00'
p20
tp21
Rp22
sS'phonenumber_oid'
p23
L3188L
s.(dp0
S'status'
p1
S''
p2
sS'direction'
p3
S'Outgoing'
p4
sS'remote'
p5
g2
sS'description'
p6
S'Voice Call'
p7
sS'callid'
p8
L1066L
sS'oid'
p9
L799231L
sS'number'
p10
g2
sS'person_oid'
p11
L82L
sS'contact'
p12
L185L
sS'starttime'
p13
cdatetime
datetime
p14
(S'\x07\xd5\x02\x02\x10\x1c2\x00\x00\x00'
p15
tp16
Rp17
sS'duration'
p18
L2L
sS'endtime'
p19
g14
(S'\x07\xd5\x02\x02\x10\x1c4\x00\x00\x00'
p20
tp21
Rp22
sS'phonenumber_oid'
p23
L3188L
s.(dp0
S'status'
p1
S''
p2
sS'direction'
p3
S'Outgoing'
p4
sS'remote'
p5
g2
sS'description'
p6
S'Voice Call'
p7
sS'callid'
p8
L1066L
sS'oid'
p9
L799243L
sS'number'
p10
g2
sS'person_oid'
p11
L82L
sS'contact'
p12
L185L
sS'starttime'
p13
cdatetime
datetime
p14
(S'\x07\xd5\x02\x02\x10\x1c2\x00\x00\x00'
p15
tp16
Rp17
sS'duration'
p18
L2L
sS'endtime'
p19
g14
(S'\x07\xd5\x02\x02\x10\x1c4\x00\x00\x00'
p20
tp21
Rp22
sS'phonenumber_oid'
p23
L3188L
s.(dp0
S'status'
p1
S''
p2
sS'direction'
p3
S'Outgoing'
p4
sS'remote'
p5
g2
sS'description'
p6
S'Voice Call'
p7
sS'callid'
p8
L1067L
sS'oid'
p9
L799232L
sS'number'
p10
g2
sS'person_oid'
p11
L82L
sS'contact'
p12
L185L
sS'starttime'
p13
cdatetime
datetime
p14
(S'\x07\xd5\x02\x02\x10\x1f\x1a\x00\x00\x00'
p15
tp16
Rp17
sS'duration'
p18
L32L
sS'endtime'
p19
g14
(S'\x07\xd5\x02\x02\x10\x1f:\x00\x00\x00'
p20
tp21
Rp22
sS'phonenumber_oid'
p23
L3188L
s.(dp0
S'status'
p1
S''
p2
sS'direction'
p3
S'Outgoing'
p4
sS'remote'
p5
g2
sS'description'
p6
S'Voice Call'
p7
sS'callid'
p8
L1067L
sS'oid'
p9
L799244L
sS'number'
p10
g2
sS'person_oid'
p11
L82L
sS'contact'
p12
L185L
sS'starttime'
p13
cdatetime
datetime
p14
(S'\x07\xd5\x02\x02\x10\x1f\x1a\x00\x00\x00'
p15
tp16
Rp17
sS'duration'
p18
L32L
sS'endtime'
p19
g14
(S'\x07\xd5\x02\x02\x10\x1f:\x00\x00\x00'
p20
tp21
Rp22
sS'phonenumber_oid'
p23
L3188L
s.(dp0
S'status'
p1
S''
p2
sS'direction'
p3
S'Outgoing'
p4
sS'remote'
p5
g2
sS'description'
p6
S'Voice Call'
p7
sS'callid'
p8
L1068L
sS'oid'
p9
L799233L
sS'number'
p10
g2
sS'person_oid'
p11
L82L
sS'contact'
p12
L185L
sS'starttime'
p13
cdatetime
datetime
p14
(S'\x07\xd5\x02\x02\x12&\x03\x00\x00\x00'
p15
tp16
Rp17
sS'duration'
p18
L3L
sS'endtime'
p19
g14
(S'\x07\xd5\x02\x02\x12&\x06\x00\x00\x00'
p20
tp21
Rp22
sS'phonenumber_oid'
p23
L3188L
s.(dp0
S'status'
p1
S''
p2
sS'direction'
p3
S'Outgoing'
p4
sS'remote'
p5
g2
sS'description'
p6
S'Voice Call'
p7
sS'callid'
p8
L1068L
sS'oid'
p9
L799245L
sS'number'
p10
g2
sS'person_oid'
p11
L82L
sS'contact'
p12
L185L
sS'starttime'
p13
cdatetime
datetime
p14
(S'\x07\xd5\x02\x02\x12&\x03\x00\x00\x00'
p15
tp16
Rp17
sS'duration'
p18
L3L
sS'endtime'
p19
g14
(S'\x07\xd5\x02\x02\x12&\x06\x00\x00\x00'
p20
tp21
Rp22
sS'phonenumber_oid'
p23
L3188L
s.(dp0
S'status'
p1
S''
p2
sS'direction'
p3
S'Outgoing'
p4
sS'remote'
p5
g2
sS'description'
p6
S'Voice Call'
p7
sS'callid'
p8
L1069L
sS'oid'
p9
L799234L
sS'number'
p10
g2
sS'person_oid'
p11
L82L
sS'contact'
p12
L185L
sS'starttime'
p13
cdatetime
datetime
p14
(S'\x07\xd5\x02\x02\x12(\x1a\x00\x00\x00'
p15
tp16
Rp17
sS'duration'
p18
L27L
sS'endtime'
p19
g14
(S'\x07\xd5\x02\x02\x12(5\x00\x00\x00'
p20
tp21
Rp22
sS'phonenumber_oid'
p23
L3188L
s.(dp0
S'status'
p1
S''
p2
sS'direction'
p3
S'Outgoing'
p4
sS'remote'
p5
g2
sS'description'
p6
S'Voice Call'
p7
sS'callid'
p8
L1069L
sS'oid'
p9
L799246L
sS'number'
p10
g2
sS'person_oid'
p11
L82L
sS'contact'
p12
L185L
sS'starttime'
p13
cdatetime
datetime
p14
(S'\x07\xd5\x02\x02\x12(\x1a\x00\x00\x00'
p15
tp16
Rp17
sS'duration'
p18
L27L
sS'endtime'
p19
g14
(S'\x07\xd5\x02\x02\x12(5\x00\x00\x00'
p20
tp21
Rp22
sS'phonenumber_oid'
p23
L3188L
s.(dp0
S'status'
p1
S''
p2
sS'direction'
p3
S'Outgoing'
p4
sS'remote'
p5
g2
sS'description'
p6
S'Voice Call'
p7
sS'callid'
p8
L1070L
sS'oid'
p9
L799235L
sS'number'
p10
g2
sS'person_oid'
p11
L82L
sS'contact'
p12
L185L
sS'starttime'
p13
cdatetime
datetime
p14
(S'\x07\xd5\x02\x02\x13\x05\x0b\x00\x00\x00'
p15
tp16
Rp17
sS'duration'
p18
L0L
sS'endtime'
p19
g14
(S'\x07\xd5\x02\x02\x13\x05\x0b\x00\x00\x00'
p20
tp21
Rp22
sS'phonenumber_oid'
p23
L3188L
s.(dp0
S'status'
p1
S''
p2
sS'direction'
p3
S'Outgoing'
p4
sS'remote'
p5
g2
sS'description'
p6
S'Voice Call'
p7
sS'callid'
p8
L1070L
sS'oid'
p9
L799247L
sS'number'
p10
g2
sS'person_oid'
p11
L82L
sS'contact'
p12
L185L
sS'starttime'
p13
cdatetime
datetime
p14
(S'\x07\xd5\x02\x02\x13\x05\x0b\x00\x00\x00'
p15
tp16
Rp17
sS'duration'
p18
L0L
sS'endtime'
p19
g14
(S'\x07\xd5\x02\x02\x13\x05\x0b\x00\x00\x00'
p20
tp21
Rp22
sS'phonenumber_oid'
p23
L3188L
s.(dp0
S'status'
p1
S''
p2
sS'direction'
p3
S'Incoming'
p4
sS'remote'
p5
g2
sS'description'
p6
S'Voice Call'
p7
sS'callid'
p8
L1072L
sS'oid'
p9
L799236L
sS'number'
p10
g2
sS'person_oid'
p11
L82L
sS'contact'
p12
L185L
sS'starttime'
p13
cdatetime
datetime
p14
(S'\x07\xd5\x02\x02\x13\x06#\x00\x00\x00'
p15
tp16
Rp17
sS'duration'
p18
L10L
sS'endtime'
p19
g14
(S'\x07\xd5\x02\x02\x13\x06-\x00\x00\x00'
p20
tp21
Rp22
sS'phonenumber_oid'
p23
L3188L
s.(dp0
S'status'
p1
S''
p2
sS'direction'
p3
S'Incoming'
p4
sS'remote'
p5
g2
sS'description'
p6
S'Voice Call'
p7
sS'callid'
p8
L1072L
sS'oid'
p9
L799248L
sS'number'
p10
g2
sS'person_oid'
p11
L82L
sS'contact'
p12
L185L
sS'starttime'
p13
cdatetime
datetime
p14
(S'\x07\xd5\x02\x02\x13\x06#\x00\x00\x00'
p15
tp16
Rp17
sS'duration'
p18
L10L
sS'endtime'
p19
g14
(S'\x07\xd5\x02\x02\x13\x06-\x00\x00\x00'
p20
tp21
Rp22
sS'phonenumber_oid'
p23
L3188L
s.(dp0
S'status'
p1
S''
p2
sS'direction'
p3
S'Outgoing'
p4
sS'remote'
p5
g2
sS'description'
p6
S'Voice Call'
p7
sS'callid'
p8
L1073L
sS'oid'
p9
L799237L
sS'number'
p10
g2
sS'person_oid'
p11
L82L
sS'contact'
p12
L162L
sS'starttime'
p13
cdatetime
datetime
p14
(S'\x07\xd5\x02\x02\x14/\x0c\x00\x00\x00'
p15
tp16
Rp17
sS'duration'
p18
L23L
sS'endtime'
p19
g14
(S'\x07\xd5\x02\x02\x14/#\x00\x00\x00'
p20
tp21
Rp22
sS'phonenumber_oid'
p23
L3170L
s.(dp0
S'status'
p1
S''
p2
sS'direction'
p3
S'Outgoing'
p4
sS'remote'
p5
g2
sS'description'
p6
S'Voice Call'
p7
sS'callid'
p8
L1073L
sS'oid'
p9
L799249L
sS'number'
p10
g2
sS'person_oid'
p11
L82L
sS'contact'
p12
L162L
sS'starttime'
p13
cdatetime
datetime
p14
(S'\x07\xd5\x02\x02\x14/\x0c\x00\x00\x00'
p15
tp16
Rp17
sS'duration'
p18
L23L
sS'endtime'
p19
g14
(S'\x07\xd5\x02\x02\x14/#\x00\x00\x00'
p20
tp21
Rp22
sS'phonenumber_oid'
p23
L3170L
s.(dp0
S'status'
p1
S''
p2
sS'direction'
p3
S'Outgoing'
p4
sS'remote'
p5
g2
sS'description'
p6
S'Voice Call'
p7
sS'callid'
p8
L1074L
sS'oid'
p9
L799238L
sS'number'
p10
g2
sS'person_oid'
p11
L82L
sS'contact'
p12
L162L
sS'starttime'
p13
cdatetime
datetime
p14
(S'\x07\xd5\x02\x02\x1412\x00\x00\x00'
p15
tp16
Rp17
sS'duration'
p18
L45L
sS'endtime'
p19
g14
(S'\x07\xd5\x02\x02\x142#\x00\x00\x00'
p20
tp21
Rp22
sS'phonenumber_oid'
p23
L3170L
s.(dp0
S'status'
p1
S''
p2
sS'direction'
p3
S'Outgoing'
p4
sS'remote'
p5
g2
sS'description'
p6
S'Voice Call'
p7
sS'callid'
p8
L1074L
sS'oid'
p9
L799250L
sS'number'
p10
g2
sS'person_oid'
p11
L82L
sS'contact'
p12
L162L
sS'starttime'
p13
cdatetime
datetime
p14
(S'\x07\xd5\x02\x02\x1412\x00\x00\x00'
p15
tp16
Rp17
sS'duration'
p18
L45L
sS'endtime'
p19
g14
(S'\x07\xd5\x02\x02\x142#\x00\x00\x00'
p20
tp21
Rp22
sS'phonenumber_oid'
p23
L3170L
s.(dp0
S'status'
p1
S''
p2
sS'direction'
p3
S'Outgoing'
p4
sS'remote'
p5
g2
sS'description'
p6
S'Voice Call'
p7
sS'callid'
p8
L1075L
sS'oid'
p9
L799239L
sS'number'
p10
g2
sS'person_oid'
p11
L82L
sS'contact'
p12
L162L
sS'starttime'
p13
cdatetime
datetime
p14
(S'\x07\xd5\x02\x02\x15\x07\x1d\x00\x00\x00'
p15
tp16
Rp17
sS'duration'
p18
L9L
sS'endtime'
p19
g14
(S'\x07\xd5\x02\x02\x15\x07&\x00\x00\x00'
p20
tp21
Rp22
sS'phonenumber_oid'
p23
L3170L
s.(dp0
S'status'
p1
S''
p2
sS'direction'
p3
S'Outgoing'
p4
sS'remote'
p5
g2
sS'description'
p6
S'Voice Call'
p7
sS'callid'
p8
L1075L
sS'oid'
p9
L799251L
sS'number'
p10
g2
sS'person_oid'
p11
L82L
sS'contact'
p12
L162L
sS'starttime'
p13
cdatetime
datetime
p14
(S'\x07\xd5\x02\x02\x15\x07\x1d\x00\x00\x00'
p15
tp16
Rp17
sS'duration'
p18
L9L
sS'endtime'
p19
g14
(S'\x07\xd5\x02\x02\x15\x07&\x00\x00\x00'
p20
tp21
Rp22
sS'phonenumber_oid'
p23
L3170L
s.(dp0
S'status'
p1
S''
p2
sS'direction'
p3
S'Outgoing'
p4
sS'remote'
p5
g2
sS'description'
p6
S'Voice Call'
p7
sS'callid'
p8
L1076L
sS'oid'
p9
L799240L
sS'number'
p10
g2
sS'person_oid'
p11
L82L
sS'contact'
p12
L162L
sS'starttime'
p13
cdatetime
datetime
p14
(S'\x07\xd5\x02\x02\x15\x0c\x11\x00\x00\x00'
p15
tp16
Rp17
sS'duration'
p18
L0L
sS'endtime'
p19
g14
(S'\x07\xd5\x02\x02\x15\x0c\x11\x00\x00\x00'
p20
tp21
Rp22
sS'phonenumber_oid'
p23
L3170L
s.(dp0
S'status'
p1
S''
p2
sS'direction'
p3
S'Outgoing'
p4
sS'remote'
p5
g2
sS'description'
p6
S'Voice Call'
p7
sS'callid'
p8
L1076L
sS'oid'
p9
L799252L
sS'number'
p10
g2
sS'person_oid'
p11
L82L
sS'contact'
p12
L162L
sS'starttime'
p13
cdatetime
datetime
p14
(S'\x07\xd5\x02\x02\x15\x0c\x11\x00\x00\x00'
p15
tp16
Rp17
sS'duration'
p18
L0L
sS'endtime'
p19
g14
(S'\x07\xd5\x02\x02\x15\x0c\x11\x00\x00\x00'
p20
tp21
Rp22
sS'phonenumber_oid'
p23
L3170L
s.(dp0
S'status'
p1
S''
p2
sS'direction'
p3
S'Outgoing'
p4
sS'remote'
p5
g2
sS'description'
p6
S'Voice Call'
p7
sS'callid'
p8
L1078L
sS'oid'
p9
L799253L
sS'number'
p10
g2
sS'person_oid'
p11
L82L
sS'contact'
p12
L177L
sS'starttime'
p13
cdatetime
datetime
p14
(S'\x07\xd5\x02\x03\x16\x1a0\x00\x00\x00'
p15
tp16
Rp17
sS'duration'
p18
L403L
sS'endtime'
p19
g14
(S'\x07\xd5\x02\x03\x16!\x1f\x00\x00\x00'
p20
tp21
Rp22
sS'phonenumber_oid'
p23
L3181L
s.(dp0
S'status'
p1
S''
p2
sS'direction'
p3
S'Outgoing'
p4
sS'remote'
p5
g2
sS'description'
p6
S'Voice Call'
p7
sS'callid'
p8
L1078L
sS'oid'
p9
L799254L
sS'number'
p10
g2
sS'person_oid'
p11
L82L
sS'contact'
p12
L177L
sS'starttime'
p13
cdatetime
datetime
p14
(S'\x07\xd5\x02\x03\x16\x1a0\x00\x00\x00'
p15
tp16
Rp17
sS'duration'
p18
L403L
sS'endtime'
p19
g14
(S'\x07\xd5\x02\x03\x16!\x1f\x00\x00\x00'
p20
tp21
Rp22
sS'phonenumber_oid'
p23
L3181L
s.(dp0
S'status'
p1
S''
p2
sS'direction'
p3
S'Outgoing'
p4
sS'remote'
p5
g2
sS'description'
p6
S'Voice Call'
p7
sS'callid'
p8
L1083L
sS'oid'
p9
L799255L
sS'number'
p10
g2
sS'person_oid'
p11
L82L
sS'contact'
p12
L163L
sS'starttime'
p13
cdatetime
datetime
p14
(S'\x07\xd5\x02\x04\x12\x1f\x04\x00\x00\x00'
p15
tp16
Rp17
sS'duration'
p18
L146L
sS'endtime'
p19
g14
(S'\x07\xd5\x02\x04\x12!\x1e\x00\x00\x00'
p20
tp21
Rp22
sS'phonenumber_oid'
p23
L2394L
s.(dp0
S'status'
p1
S''
p2
sS'direction'
p3
S'Outgoing'
p4
sS'remote'
p5
g2
sS'description'
p6
S'Voice Call'
p7
sS'callid'
p8
L1083L
sS'oid'
p9
L799258L
sS'number'
p10
g2
sS'person_oid'
p11
L82L
sS'contact'
p12
L163L
sS'starttime'
p13
cdatetime
datetime
p14
(S'\x07\xd5\x02\x04\x12\x1f\x04\x00\x00\x00'
p15
tp16
Rp17
sS'duration'
p18
L146L
sS'endtime'
p19
g14
(S'\x07\xd5\x02\x04\x12!\x1e\x00\x00\x00'
p20
tp21
Rp22
sS'phonenumber_oid'
p23
L2394L
s.(dp0
S'status'
p1
S''
p2
sS'direction'
p3
S'Incoming'
p4
sS'remote'
p5
g2
sS'description'
p6
S'Voice Call'
p7
sS'callid'
p8
L1089L
sS'oid'
p9
L799256L
sS'number'
p10
g2
sS'person_oid'
p11
L82L
sS'contact'
p12
L185L
sS'starttime'
p13
cdatetime
datetime
p14
(S'\x07\xd5\x02\x04\x15\x0b\n\x00\x00\x00'
p15
tp16
Rp17
sS'duration'
p18
L13L
sS'endtime'
p19
g14
(S'\x07\xd5\x02\x04\x15\x0b\x17\x00\x00\x00'
p20
tp21
Rp22
sS'phonenumber_oid'
p23
L3188L
s.(dp0
S'status'
p1
S''
p2
sS'direction'
p3
S'Incoming'
p4
sS'remote'
p5
g2
sS'description'
p6
S'Voice Call'
p7
sS'callid'
p8
L1089L
sS'oid'
p9
L799259L
sS'number'
p10
g2
sS'person_oid'
p11
L82L
sS'contact'
p12
L185L
sS'starttime'
p13
cdatetime
datetime
p14
(S'\x07\xd5\x02\x04\x15\x0b\n\x00\x00\x00'
p15
tp16
Rp17
sS'duration'
p18
L13L
sS'endtime'
p19
g14
(S'\x07\xd5\x02\x04\x15\x0b\x17\x00\x00\x00'
p20
tp21
Rp22
sS'phonenumber_oid'
p23
L3188L
s.(dp0
S'status'
p1
S''
p2
sS'direction'
p3
S'Outgoing'
p4
sS'remote'
p5
g2
sS'description'
p6
S'Voice Call'
p7
sS'callid'
p8
L1090L
sS'oid'
p9
L799257L
sS'number'
p10
g2
sS'person_oid'
p11
L82L
sS'contact'
p12
L169L
sS'starttime'
p13
cdatetime
datetime
p14
(S'\x07\xd5\x02\x04\x15\x1d8\x00\x00\x00'
p15
tp16
Rp17
sS'duration'
p18
L35L
sS'endtime'
p19
g14
(S'\x07\xd5\x02\x04\x15\x1e\x1f\x00\x00\x00'
p20
tp21
Rp22
sS'phonenumber_oid'
p23
L3175L
s.(dp0
S'status'
p1
S''
p2
sS'direction'
p3
S'Outgoing'
p4
sS'remote'
p5
g2
sS'description'
p6
S'Voice Call'
p7
sS'callid'
p8
L1090L
sS'oid'
p9
L799260L
sS'number'
p10
g2
sS'person_oid'
p11
L82L
sS'contact'
p12
L169L
sS'starttime'
p13
cdatetime
datetime
p14
(S'\x07\xd5\x02\x04\x15\x1d8\x00\x00\x00'
p15
tp16
Rp17
sS'duration'
p18
L35L
sS'endtime'
p19
g14
(S'\x07\xd5\x02\x04\x15\x1e\x1f\x00\x00\x00'
p20
tp21
Rp22
sS'phonenumber_oid'
p23
L3175L
s.(dp0
S'status'
p1
S''
p2
sS'direction'
p3
S'Missed Call'
p4
sS'remote'
p5
g2
sS'description'
p6
S'Voice Call'
p7
sS'callid'
p8
L1095L
sS'oid'
p9
L799261L
sS'number'
p10
g2
sS'person_oid'
p11
L82L
sS'contact'
p12
L178L
sS'starttime'
p13
cdatetime
datetime
p14
(S'\x07\xd5\x02\x05\x0c88\x00\x00\x00'
p15
tp16
Rp17
sS'duration'
p18
L0L
sS'endtime'
p19
g14
(S'\x07\xd5\x02\x05\x0c88\x00\x00\x00'
p20
tp21
Rp22
sS'phonenumber_oid'
p23
L3180L
s.(dp0
S'status'
p1
S''
p2
sS'direction'
p3
S'Missed Call'
p4
sS'remote'
p5
g2
sS'description'
p6
S'Voice Call'
p7
sS'callid'
p8
L1095L
sS'oid'
p9
L799279L
sS'number'
p10
g2
sS'person_oid'
p11
L82L
sS'contact'
p12
L178L
sS'starttime'
p13
cdatetime
datetime
p14
(S'\x07\xd5\x02\x05\x0c88\x00\x00\x00'
p15
tp16
Rp17
sS'duration'
p18
L0L
sS'endtime'
p19
g14
(S'\x07\xd5\x02\x05\x0c88\x00\x00\x00'
p20
tp21
Rp22
sS'phonenumber_oid'
p23
L3180L
s.(dp0
S'status'
p1
S''
p2
sS'direction'
p3
S'Missed Call'
p4
sS'remote'
p5
g2
sS'description'
p6
S'Voice Call'
p7
sS'callid'
p8
L1096L
sS'oid'
p9
L799262L
sS'number'
p10
g2
sS'person_oid'
p11
L82L
sS'contact'
p12
L178L
sS'starttime'
p13
cdatetime
datetime
p14
(S'\x07\xd5\x02\x05\x0c9)\x00\x00\x00'
p15
tp16
Rp17
sS'duration'
p18
L0L
sS'endtime'
p19
g14
(S'\x07\xd5\x02\x05\x0c9)\x00\x00\x00'
p20
tp21
Rp22
sS'phonenumber_oid'
p23
L3180L
s.(dp0
S'status'
p1
S''
p2
sS'direction'
p3
S'Missed Call'
p4
sS'remote'
p5
g2
sS'description'
p6
S'Voice Call'
p7
sS'callid'
p8
L1096L
sS'oid'
p9
L799280L
sS'number'
p10
g2
sS'person_oid'
p11
L82L
sS'contact'
p12
L178L
sS'starttime'
p13
cdatetime
datetime
p14
(S'\x07\xd5\x02\x05\x0c9)\x00\x00\x00'
p15
tp16
Rp17
sS'duration'
p18
L0L
sS'endtime'
p19
g14
(S'\x07\xd5\x02\x05\x0c9)\x00\x00\x00'
p20
tp21
Rp22
sS'phonenumber_oid'
p23
L3180L
s.(dp0
S'status'
p1
S''
p2
sS'direction'
p3
S'Outgoing'
p4
sS'remote'
p5
g2
sS'description'
p6
S'Voice Call'
p7
sS'callid'
p8
L1099L
sS'oid'
p9
L799263L
sS'number'
p10
g2
sS'person_oid'
p11
L82L
sS'contact'
p12
L178L
sS'starttime'
p13
cdatetime
datetime
p14
(S'\x07\xd5\x02\x05\r\x1d3\x00\x00\x00'
p15
tp16
Rp17
sS'duration'
p18
L73L
sS'endtime'
p19
g14
(S'\x07\xd5\x02\x05\r\x1f\x04\x00\x00\x00'
p20
tp21
Rp22
sS'phonenumber_oid'
p23
L3180L
s.(dp0
S'status'
p1
S''
p2
sS'direction'
p3
S'Outgoing'
p4
sS'remote'
p5
g2
sS'description'
p6
S'Voice Call'
p7
sS'callid'
p8
L1099L
sS'oid'
p9
L799281L
sS'number'
p10
g2
sS'person_oid'
p11
L82L
sS'contact'
p12
L178L
sS'starttime'
p13
cdatetime
datetime
p14
(S'\x07\xd5\x02\x05\r\x1d3\x00\x00\x00'
p15
tp16
Rp17
sS'duration'
p18
L73L
sS'endtime'
p19
g14
(S'\x07\xd5\x02\x05\r\x1f\x04\x00\x00\x00'
p20
tp21
Rp22
sS'phonenumber_oid'
p23
L3180L
s.(dp0
S'status'
p1
S''
p2
sS'direction'
p3
S'Incoming'
p4
sS'remote'
p5
g2
sS'description'
p6
S'Voice Call'
p7
sS'callid'
p8
L1104L
sS'oid'
p9
L799264L
sS'number'
p10
g2
sS'person_oid'
p11
L82L
sS'contact'
p12
L163L
sS'starttime'
p13
cdatetime
datetime
p14
(S'\x07\xd5\x02\x05\r6\x12\x00\x00\x00'
p15
tp16
Rp17
sS'duration'
p18
L47L
sS'endtime'
p19
g14
(S'\x07\xd5\x02\x05\r7\x05\x00\x00\x00'
p20
tp21
Rp22
sS'phonenumber_oid'
p23
L2394L
s.(dp0
S'status'
p1
S''
p2
sS'direction'
p3
S'Incoming'
p4
sS'remote'
p5
g2
sS'description'
p6
S'Voice Call'
p7
sS'callid'
p8
L1104L
sS'oid'
p9
L799282L
sS'number'
p10
g2
sS'person_oid'
p11
L82L
sS'contact'
p12
L163L
sS'starttime'
p13
cdatetime
datetime
p14
(S'\x07\xd5\x02\x05\r6\x12\x00\x00\x00'
p15
tp16
Rp17
sS'duration'
p18
L47L
sS'endtime'
p19
g14
(S'\x07\xd5\x02\x05\r7\x05\x00\x00\x00'
p20
tp21
Rp22
sS'phonenumber_oid'
p23
L2394L
s.(dp0
S'status'
p1
S''
p2
sS'direction'
p3
S'Outgoing'
p4
sS'remote'
p5
g2
sS'description'
p6
S'Voice Call'
p7
sS'callid'
p8
L1107L
sS'oid'
p9
L799265L
sS'number'
p10
g2
sS'person_oid'
p11
L82L
sS'contact'
p12
L163L
sS'starttime'
p13
cdatetime
datetime
p14
(S'\x07\xd5\x02\x05\x0e\x01\x17\x00\x00\x00'
p15
tp16
Rp17
sS'duration'
p18
L6L
sS'endtime'
p19
g14
(S'\x07\xd5\x02\x05\x0e\x01\x1d\x00\x00\x00'
p20
tp21
Rp22
sS'phonenumber_oid'
p23
L2394L
s.(dp0
S'status'
p1
S''
p2
sS'direction'
p3
S'Outgoing'
p4
sS'remote'
p5
g2
sS'description'
p6
S'Voice Call'
p7
sS'callid'
p8
L1107L
sS'oid'
p9
L799283L
sS'number'
p10
g2
sS'person_oid'
p11
L82L
sS'contact'
p12
L163L
sS'starttime'
p13
cdatetime
datetime
p14
(S'\x07\xd5\x02\x05\x0e\x01\x17\x00\x00\x00'
p15
tp16
Rp17
sS'duration'
p18
L6L
sS'endtime'
p19
g14
(S'\x07\xd5\x02\x05\x0e\x01\x1d\x00\x00\x00'
p20
tp21
Rp22
sS'phonenumber_oid'
p23
L2394L
s.(dp0
S'status'
p1
S''
p2
sS'direction'
p3
S'Incoming'
p4
sS'remote'
p5
g2
sS'description'
p6
S'Voice Call'
p7
sS'callid'
p8
L1109L
sS'oid'
p9
L799266L
sS'number'
p10
g2
sS'person_oid'
p11
L82L
sS'contact'
p12
L163L
sS'starttime'
p13
cdatetime
datetime
p14
(S'\x07\xd5\x02\x05\x0e\x04;\x00\x00\x00'
p15
tp16
Rp17
sS'duration'
p18
L15L
sS'endtime'
p19
g14
(S'\x07\xd5\x02\x05\x0e\x05\x0e\x00\x00\x00'
p20
tp21
Rp22
sS'phonenumber_oid'
p23
L2394L
s.(dp0
S'status'
p1
S''
p2
sS'direction'
p3
S'Incoming'
p4
sS'remote'
p5
g2
sS'description'
p6
S'Voice Call'
p7
sS'callid'
p8
L1109L
sS'oid'
p9
L799284L
sS'number'
p10
g2
sS'person_oid'
p11
L82L
sS'contact'
p12
L163L
sS'starttime'
p13
cdatetime
datetime
p14
(S'\x07\xd5\x02\x05\x0e\x04;\x00\x00\x00'
p15
tp16
Rp17
sS'duration'
p18
L15L
sS'endtime'
p19
g14
(S'\x07\xd5\x02\x05\x0e\x05\x0e\x00\x00\x00'
p20
tp21
Rp22
sS'phonenumber_oid'
p23
L2394L
s.(dp0
S'status'
p1
S''
p2
sS'direction'
p3
S'Incoming'
p4
sS'remote'
p5
g2
sS'description'
p6
S'Voice Call'
p7
sS'callid'
p8
L1115L
sS'oid'
p9
L799267L
sS'number'
p10
g2
sS'person_oid'
p11
L82L
sS'contact'
p12
L-1L
sS'starttime'
p13
cdatetime
datetime
p14
(S'\x07\xd5\x02\x05\x11,1\x00\x00\x00'
p15
tp16
Rp17
sS'duration'
p18
L439L
sS'endtime'
p19
g14
(S'\x07\xd5\x02\x05\x114\x08\x00\x00\x00'
p20
tp21
Rp22
sS'phonenumber_oid'
p23
L3L
s.(dp0
S'status'
p1
S''
p2
sS'direction'
p3
S'Incoming'
p4
sS'remote'
p5
g2
sS'description'
p6
S'Voice Call'
p7
sS'callid'
p8
L1115L
sS'oid'
p9
L799285L
sS'number'
p10
g2
sS'person_oid'
p11
L82L
sS'contact'
p12
L-1L
sS'starttime'
p13
cdatetime
datetime
p14
(S'\x07\xd5\x02\x05\x11,1\x00\x00\x00'
p15
tp16
Rp17
sS'duration'
p18
L439L
sS'endtime'
p19
g14
(S'\x07\xd5\x02\x05\x114\x08\x00\x00\x00'
p20
tp21
Rp22
sS'phonenumber_oid'
p23
L3L
s.(dp0
S'status'
p1
S''
p2
sS'direction'
p3
S'Outgoing'
p4
sS'remote'
p5
g2
sS'description'
p6
S'Voice Call'
p7
sS'callid'
p8
L1116L
sS'oid'
p9
L799268L
sS'number'
p10
g2
sS'person_oid'
p11
L82L
sS'contact'
p12
L193L
sS'starttime'
p13
cdatetime
datetime
p14
(S'\x07\xd5\x02\x05\x12\r\x04\x00\x00\x00'
p15
tp16
Rp17
sS'duration'
p18
L30L
sS'endtime'
p19
g14
(S'\x07\xd5\x02\x05\x12\r"\x00\x00\x00'
p20
tp21
Rp22
sS'phonenumber_oid'
p23
L3193L
s.(dp0
S'status'
p1
S''
p2
sS'direction'
p3
S'Outgoing'
p4
sS'remote'
p5
g2
sS'description'
p6
S'Voice Call'
p7
sS'callid'
p8
L1116L
sS'oid'
p9
L799286L
sS'number'
p10
g2
sS'person_oid'
p11
L82L
sS'contact'
p12
L193L
sS'starttime'
p13
cdatetime
datetime
p14
(S'\x07\xd5\x02\x05\x12\r\x04\x00\x00\x00'
p15
tp16
Rp17
sS'duration'
p18
L30L
sS'endtime'
p19
g14
(S'\x07\xd5\x02\x05\x12\r"\x00\x00\x00'
p20
tp21
Rp22
sS'phonenumber_oid'
p23
L3193L
s.(dp0
S'status'
p1
S''
p2
sS'direction'
p3
S'Outgoing'
p4
sS'remote'
p5
g2
sS'description'
p6
S'Voice Call'
p7
sS'callid'
p8
L1119L
sS'oid'
p9
L799269L
sS'number'
p10
g2
sS'person_oid'
p11
L82L
sS'contact'
p12
L162L
sS'starttime'
p13
cdatetime
datetime
p14
(S'\x07\xd5\x02\x05\x12\x16/\x00\x00\x00'
p15
tp16
Rp17
sS'duration'
p18
L21L
sS'endtime'
p19
g14
(S'\x07\xd5\x02\x05\x12\x17\x08\x00\x00\x00'
p20
tp21
Rp22
sS'phonenumber_oid'
p23
L3170L
s.(dp0
S'status'
p1
S''
p2
sS'direction'
p3
S'Outgoing'
p4
sS'remote'
p5
g2
sS'description'
p6
S'Voice Call'
p7
sS'callid'
p8
L1119L
sS'oid'
p9
L799287L
sS'number'
p10
g2
sS'person_oid'
p11
L82L
sS'contact'
p12
L162L
sS'starttime'
p13
cdatetime
datetime
p14
(S'\x07\xd5\x02\x05\x12\x16/\x00\x00\x00'
p15
tp16
Rp17
sS'duration'
p18
L21L
sS'endtime'
p19
g14
(S'\x07\xd5\x02\x05\x12\x17\x08\x00\x00\x00'
p20
tp21
Rp22
sS'phonenumber_oid'
p23
L3170L
s.(dp0
S'status'
p1
S''
p2
sS'direction'
p3
S'Incoming'
p4
sS'remote'
p5
g2
sS'description'
p6
S'Voice Call'
p7
sS'callid'
p8
L1121L
sS'oid'
p9
L799270L
sS'number'
p10
g2
sS'person_oid'
p11
L82L
sS'contact'
p12
L162L
sS'starttime'
p13
cdatetime
datetime
p14
(S'\x07\xd5\x02\x05\x13\x04%\x00\x00\x00'
p15
tp16
Rp17
sS'duration'
p18
L83L
sS'endtime'
p19
g14
(S'\x07\xd5\x02\x05\x13\x06\x00\x00\x00\x00'
p20
tp21
Rp22
sS'phonenumber_oid'
p23
L3170L
s.(dp0
S'status'
p1
S''
p2
sS'direction'
p3
S'Incoming'
p4
sS'remote'
p5
g2
sS'description'
p6
S'Voice Call'
p7
sS'callid'
p8
L1121L
sS'oid'
p9
L799288L
sS'number'
p10
g2
sS'person_oid'
p11
L82L
sS'contact'
p12
L162L
sS'starttime'
p13
cdatetime
datetime
p14
(S'\x07\xd5\x02\x05\x13\x04%\x00\x00\x00'
p15
tp16
Rp17
sS'duration'
p18
L83L
sS'endtime'
p19
g14
(S'\x07\xd5\x02\x05\x13\x06\x00\x00\x00\x00'
p20
tp21
Rp22
sS'phonenumber_oid'
p23
L3170L
s.(dp0
S'status'
p1
S''
p2
sS'direction'
p3
S'Outgoing'
p4
sS'remote'
p5
g2
sS'description'
p6
S'Voice Call'
p7
sS'callid'
p8
L1122L
sS'oid'
p9
L799271L
sS'number'
p10
g2
sS'person_oid'
p11
L82L
sS'contact'
p12
L162L
sS'starttime'
p13
cdatetime
datetime
p14
(S'\x07\xd5\x02\x05\x13\x1c5\x00\x00\x00'
p15
tp16
Rp17
sS'duration'
p18
L0L
sS'endtime'
p19
g14
(S'\x07\xd5\x02\x05\x13\x1c5\x00\x00\x00'
p20
tp21
Rp22
sS'phonenumber_oid'
p23
L3170L
s.(dp0
S'status'
p1
S''
p2
sS'direction'
p3
S'Outgoing'
p4
sS'remote'
p5
g2
sS'description'
p6
S'Voice Call'
p7
sS'callid'
p8
L1122L
sS'oid'
p9
L799289L
sS'number'
p10
g2
sS'person_oid'
p11
L82L
sS'contact'
p12
L162L
sS'starttime'
p13
cdatetime
datetime
p14
(S'\x07\xd5\x02\x05\x13\x1c5\x00\x00\x00'
p15
tp16
Rp17
sS'duration'
p18
L0L
sS'endtime'
p19
g14
(S'\x07\xd5\x02\x05\x13\x1c5\x00\x00\x00'
p20
tp21
Rp22
sS'phonenumber_oid'
p23
L3170L
s.(dp0
S'status'
p1
S''
p2
sS'direction'
p3
S'Outgoing'
p4
sS'remote'
p5
g2
sS'description'
p6
S'Voice Call'
p7
sS'callid'
p8
L1123L
sS'oid'
p9
L799272L
sS'number'
p10
g2
sS'person_oid'
p11
L82L
sS'contact'
p12
L162L
sS'starttime'
p13
cdatetime
datetime
p14
(S'\x07\xd5\x02\x05\x13\x1f9\x00\x00\x00'
p15
tp16
Rp17
sS'duration'
p18
L20L
sS'endtime'
p19
g14
(S'\x07\xd5\x02\x05\x13 \x11\x00\x00\x00'
p20
tp21
Rp22
sS'phonenumber_oid'
p23
L3170L
s.(dp0
S'status'
p1
S''
p2
sS'direction'
p3
S'Outgoing'
p4
sS'remote'
p5
g2
sS'description'
p6
S'Voice Call'
p7
sS'callid'
p8
L1123L
sS'oid'
p9
L799290L
sS'number'
p10
g2
sS'person_oid'
p11
L82L
sS'contact'
p12
L162L
sS'starttime'
p13
cdatetime
datetime
p14
(S'\x07\xd5\x02\x05\x13\x1f9\x00\x00\x00'
p15
tp16
Rp17
sS'duration'
p18
L20L
sS'endtime'
p19
g14
(S'\x07\xd5\x02\x05\x13 \x11\x00\x00\x00'
p20
tp21
Rp22
sS'phonenumber_oid'
p23
L3170L
s.(dp0
S'status'
p1
S''
p2
sS'direction'
p3
S'Outgoing'
p4
sS'remote'
p5
g2
sS'description'
p6
S'Voice Call'
p7
sS'callid'
p8
L1124L
sS'oid'
p9
L799273L
sS'number'
p10
g2
sS'person_oid'
p11
L82L
sS'contact'
p12
L162L
sS'starttime'
p13
cdatetime
datetime
p14
(S'\x07\xd5\x02\x05\x13#\x1f\x00\x00\x00'
p15
tp16
Rp17
sS'duration'
p18
L15L
sS'endtime'
p19
g14
(S'\x07\xd5\x02\x05\x13#.\x00\x00\x00'
p20
tp21
Rp22
sS'phonenumber_oid'
p23
L3170L
s.(dp0
S'status'
p1
S''
p2
sS'direction'
p3
S'Outgoing'
p4
sS'remote'
p5
g2
sS'description'
p6
S'Voice Call'
p7
sS'callid'
p8
L1124L
sS'oid'
p9
L799291L
sS'number'
p10
g2
sS'person_oid'
p11
L82L
sS'contact'
p12
L162L
sS'starttime'
p13
cdatetime
datetime
p14
(S'\x07\xd5\x02\x05\x13#\x1f\x00\x00\x00'
p15
tp16
Rp17
sS'duration'
p18
L15L
sS'endtime'
p19
g14
(S'\x07\xd5\x02\x05\x13#.\x00\x00\x00'
p20
tp21
Rp22
sS'phonenumber_oid'
p23
L3170L
s.(dp0
S'status'
p1
S''
p2
sS'direction'
p3
S'Outgoing'
p4
sS'remote'
p5
g2
sS'description'
p6
S'Voice Call'
p7
sS'callid'
p8
L1125L
sS'oid'
p9
L799274L
sS'number'
p10
g2
sS'person_oid'
p11
L82L
sS'contact'
p12
L162L
sS'starttime'
p13
cdatetime
datetime
p14
(S'\x07\xd5\x02\x05\x144(\x00\x00\x00'
p15
tp16
Rp17
sS'duration'
p18
L38L
sS'endtime'
p19
g14
(S'\x07\xd5\x02\x05\x145\x12\x00\x00\x00'
p20
tp21
Rp22
sS'phonenumber_oid'
p23
L3170L
s.(dp0
S'status'
p1
S''
p2
sS'direction'
p3
S'Outgoing'
p4
sS'remote'
p5
g2
sS'description'
p6
S'Voice Call'
p7
sS'callid'
p8
L1125L
sS'oid'
p9
L799292L
sS'number'
p10
g2
sS'person_oid'
p11
L82L
sS'contact'
p12
L162L
sS'starttime'
p13
cdatetime
datetime
p14
(S'\x07\xd5\x02\x05\x144(\x00\x00\x00'
p15
tp16
Rp17
sS'duration'
p18
L38L
sS'endtime'
p19
g14
(S'\x07\xd5\x02\x05\x145\x12\x00\x00\x00'
p20
tp21
Rp22
sS'phonenumber_oid'
p23
L3170L
s.(dp0
S'status'
p1
S''
p2
sS'direction'
p3
S'Incoming'
p4
sS'remote'
p5
g2
sS'description'
p6
S'Voice Call'
p7
sS'callid'
p8
L1127L
sS'oid'
p9
L799275L
sS'number'
p10
g2
sS'person_oid'
p11
L82L
sS'contact'
p12
L168L
sS'starttime'
p13
cdatetime
datetime
p14
(S'\x07\xd5\x02\x05\x15\x19\x10\x00\x00\x00'
p15
tp16
Rp17
sS'duration'
p18
L141L
sS'endtime'
p19
g14
(S'\x07\xd5\x02\x05\x15\x1b%\x00\x00\x00'
p20
tp21
Rp22
sS'phonenumber_oid'
p23
L2401L
s.(dp0
S'status'
p1
S''
p2
sS'direction'
p3
S'Incoming'
p4
sS'remote'
p5
g2
sS'description'
p6
S'Voice Call'
p7
sS'callid'
p8
L1127L
sS'oid'
p9
L799293L
sS'number'
p10
g2
sS'person_oid'
p11
L82L
sS'contact'
p12
L168L
sS'starttime'
p13
cdatetime
datetime
p14
(S'\x07\xd5\x02\x05\x15\x19\x10\x00\x00\x00'
p15
tp16
Rp17
sS'duration'
p18
L141L
sS'endtime'
p19
g14
(S'\x07\xd5\x02\x05\x15\x1b%\x00\x00\x00'
p20
tp21
Rp22
sS'phonenumber_oid'
p23
L2401L
s.(dp0
S'status'
p1
S''
p2
sS'direction'
p3
S'Incoming'
p4
sS'remote'
p5
g2
sS'description'
p6
S'Voice Call'
p7
sS'callid'
p8
L1129L
sS'oid'
p9
L799276L
sS'number'
p10
g2
sS'person_oid'
p11
L82L
sS'contact'
p12
L162L
sS'starttime'
p13
cdatetime
datetime
p14
(S'\x07\xd5\x02\x05\x15(1\x00\x00\x00'
p15
tp16
Rp17
sS'duration'
p18
L5L
sS'endtime'
p19
g14
(S'\x07\xd5\x02\x05\x15(6\x00\x00\x00'
p20
tp21
Rp22
sS'phonenumber_oid'
p23
L3170L
s.(dp0
S'status'
p1
S''
p2
sS'direction'
p3
S'Incoming'
p4
sS'remote'
p5
g2
sS'description'
p6
S'Voice Call'
p7
sS'callid'
p8
L1129L
sS'oid'
p9
L799294L
sS'number'
p10
g2
sS'person_oid'
p11
L82L
sS'contact'
p12
L162L
sS'starttime'
p13
cdatetime
datetime
p14
(S'\x07\xd5\x02\x05\x15(1\x00\x00\x00'
p15
tp16
Rp17
sS'duration'
p18
L5L
sS'endtime'
p19
g14
(S'\x07\xd5\x02\x05\x15(6\x00\x00\x00'
p20
tp21
Rp22
sS'phonenumber_oid'
p23
L3170L
s.(dp0
S'status'
p1
S''
p2
sS'direction'
p3
S'Outgoing'
p4
sS'remote'
p5
g2
sS'description'
p6
S'Voice Call'
p7
sS'callid'
p8
L1130L
sS'oid'
p9
L799277L
sS'number'
p10
g2
sS'person_oid'
p11
L82L
sS'contact'
p12
L168L
sS'starttime'
p13
cdatetime
datetime
p14
(S'\x07\xd5\x02\x05\x15);\x00\x00\x00'
p15
tp16
Rp17
sS'duration'
p18
L21L
sS'endtime'
p19
g14
(S'\x07\xd5\x02\x05\x15*\x14\x00\x00\x00'
p20
tp21
Rp22
sS'phonenumber_oid'
p23
L2401L
s.(dp0
S'status'
p1
S''
p2
sS'direction'
p3
S'Outgoing'
p4
sS'remote'
p5
g2
sS'description'
p6
S'Voice Call'
p7
sS'callid'
p8
L1130L
sS'oid'
p9
L799295L
sS'number'
p10
g2
sS'person_oid'
p11
L82L
sS'contact'
p12
L168L
sS'starttime'
p13
cdatetime
datetime
p14
(S'\x07\xd5\x02\x05\x15);\x00\x00\x00'
p15
tp16
Rp17
sS'duration'
p18
L21L
sS'endtime'
p19
g14
(S'\x07\xd5\x02\x05\x15*\x14\x00\x00\x00'
p20
tp21
Rp22
sS'phonenumber_oid'
p23
L2401L
s.(dp0
S'status'
p1
S''
p2
sS'direction'
p3
S'Outgoing'
p4
sS'remote'
p5
g2
sS'description'
p6
S'Voice Call'
p7
sS'callid'
p8
L1131L
sS'oid'
p9
L799278L
sS'number'
p10
g2
sS'person_oid'
p11
L82L
sS'contact'
p12
L162L
sS'starttime'
p13
cdatetime
datetime
p14
(S'\x07\xd5\x02\x05\x15*+\x00\x00\x00'
p15
tp16
Rp17
sS'duration'
p18
L10L
sS'endtime'
p19
g14
(S'\x07\xd5\x02\x05\x15*5\x00\x00\x00'
p20
tp21
Rp22
sS'phonenumber_oid'
p23
L3170L
s.(dp0
S'status'
p1
S''
p2
sS'direction'
p3
S'Outgoing'
p4
sS'remote'
p5
g2
sS'description'
p6
S'Voice Call'
p7
sS'callid'
p8
L1131L
sS'oid'
p9
L799296L
sS'number'
p10
g2
sS'person_oid'
p11
L82L
sS'contact'
p12
L162L
sS'starttime'
p13
cdatetime
datetime
p14
(S'\x07\xd5\x02\x05\x15*+\x00\x00\x00'
p15
tp16
Rp17
sS'duration'
p18
L10L
sS'endtime'
p19
g14
(S'\x07\xd5\x02\x05\x15*5\x00\x00\x00'
p20
tp21
Rp22
sS'phonenumber_oid'
p23
L3170L
s.(dp0
S'status'
p1
S''
p2
sS'direction'
p3
S'Incoming'
p4
sS'remote'
p5
g2
sS'description'
p6
S'Voice Call'
p7
sS'callid'
p8
L1142L
sS'oid'
p9
L799297L
sS'number'
p10
g2
sS'person_oid'
p11
L82L
sS'contact'
p12
L-1L
sS'starttime'
p13
cdatetime
datetime
p14
(S'\x07\xd5\x02\x06\t\x13\x0e\x00\x00\x00'
p15
tp16
Rp17
sS'duration'
p18
L157L
sS'endtime'
p19
g14
(S'\x07\xd5\x02\x06\t\x153\x00\x00\x00'
p20
tp21
Rp22
sS'phonenumber_oid'
p23
L3L
s.(dp0
S'status'
p1
S''
p2
sS'direction'
p3
S'Incoming'
p4
sS'remote'
p5
g2
sS'description'
p6
S'Voice Call'
p7
sS'callid'
p8
L1142L
sS'oid'
p9
L799298L
sS'number'
p10
g2
sS'person_oid'
p11
L82L
sS'contact'
p12
L-1L
sS'starttime'
p13
cdatetime
datetime
p14
(S'\x07\xd5\x02\x06\t\x13\x0e\x00\x00\x00'
p15
tp16
Rp17
sS'duration'
p18
L157L
sS'endtime'
p19
g14
(S'\x07\xd5\x02\x06\t\x153\x00\x00\x00'
p20
tp21
Rp22
sS'phonenumber_oid'
p23
L3L
s.(dp0
S'status'
p1
S''
p2
sS'direction'
p3
S'Outgoing'
p4
sS'remote'
p5
g2
sS'description'
p6
S'Voice Call'
p7
sS'callid'
p8
L1157L
sS'oid'
p9
L799299L
sS'number'
p10
g2
sS'person_oid'
p11
L82L
sS'contact'
p12
L162L
sS'starttime'
p13
cdatetime
datetime
p14
(S'\x07\xd5\x02\x07\x15\x04\x0e\x00\x00\x00'
p15
tp16
Rp17
sS'duration'
p18
L20L
sS'endtime'
p19
g14
(S'\x07\xd5\x02\x07\x15\x04"\x00\x00\x00'
p20
tp21
Rp22
sS'phonenumber_oid'
p23
L3170L
s.(dp0
S'status'
p1
S''
p2
sS'direction'
p3
S'Outgoing'
p4
sS'remote'
p5
g2
sS'description'
p6
S'Voice Call'
p7
sS'callid'
p8
L1158L
sS'oid'
p9
L799300L
sS'number'
p10
g2
sS'person_oid'
p11
L82L
sS'contact'
p12
L162L
sS'starttime'
p13
cdatetime
datetime
p14
(S'\x07\xd5\x02\x07\x15\x1b\x10\x00\x00\x00'
p15
tp16
Rp17
sS'duration'
p18
L7L
sS'endtime'
p19
g14
(S'\x07\xd5\x02\x07\x15\x1b\x17\x00\x00\x00'
p20
tp21
Rp22
sS'phonenumber_oid'
p23
L3170L
s.(dp0
S'status'
p1
S''
p2
sS'direction'
p3
S'Incoming'
p4
sS'remote'
p5
g2
sS'description'
p6
S'Voice Call'
p7
sS'callid'
p8
L1160L
sS'oid'
p9
L799301L
sS'number'
p10
g2
sS'person_oid'
p11
L82L
sS'contact'
p12
L162L
sS'starttime'
p13
cdatetime
datetime
p14
(S'\x07\xd5\x02\x07\x15)\x04\x00\x00\x00'
p15
tp16
Rp17
sS'duration'
p18
L32L
sS'endtime'
p19
g14
(S'\x07\xd5\x02\x07\x15)$\x00\x00\x00'
p20
tp21
Rp22
sS'phonenumber_oid'
p23
L3170L
s.(dp0
S'status'
p1
S''
p2
sS'direction'
p3
S'Outgoing'
p4
sS'remote'
p5
g2
sS'description'
p6
S'Voice Call'
p7
sS'callid'
p8
L1161L
sS'oid'
p9
L799302L
sS'number'
p10
g2
sS'person_oid'
p11
L82L
sS'contact'
p12
L162L
sS'starttime'
p13
cdatetime
datetime
p14
(S'\x07\xd5\x02\x07\x15+\x13\x00\x00\x00'
p15
tp16
Rp17
sS'duration'
p18
L8L
sS'endtime'
p19
g14
(S'\x07\xd5\x02\x07\x15+\x1b\x00\x00\x00'
p20
tp21
Rp22
sS'phonenumber_oid'
p23
L3170L
s.(dp0
S'status'
p1
S''
p2
sS'direction'
p3
S'Outgoing'
p4
sS'remote'
p5
g2
sS'description'
p6
S'Voice Call'
p7
sS'callid'
p8
L1162L
sS'oid'
p9
L799303L
sS'number'
p10
g2
sS'person_oid'
p11
L82L
sS'contact'
p12
L165L
sS'starttime'
p13
cdatetime
datetime
p14
(S'\x07\xd5\x02\x07\x15-&\x00\x00\x00'
p15
tp16
Rp17
sS'duration'
p18
L34L
sS'endtime'
p19
g14
(S'\x07\xd5\x02\x07\x15.\x0c\x00\x00\x00'
p20
tp21
Rp22
sS'phonenumber_oid'
p23
L3172L
s.(dp0
S'status'
p1
S''
p2
sS'direction'
p3
S'Missed Call'
p4
sS'remote'
p5
g2
sS'description'
p6
S'Voice Call'
p7
sS'callid'
p8
L1163L
sS'oid'
p9
L799304L
sS'number'
p10
g2
sS'person_oid'
p11
L82L
sS'contact'
p12
L162L
sS'starttime'
p13
cdatetime
datetime
p14
(S'\x07\xd5\x02\x08\x13\x11+\x00\x00\x00'
p15
tp16
Rp17
sS'duration'
p18
L0L
sS'endtime'
p19
g14
(S'\x07\xd5\x02\x08\x13\x11+\x00\x00\x00'
p20
tp21
Rp22
sS'phonenumber_oid'
p23
L3170L
s.(dp0
S'status'
p1
S''
p2
sS'direction'
p3
S'Outgoing'
p4
sS'remote'
p5
g2
sS'description'
p6
S'Voice Call'
p7
sS'callid'
p8
L1166L
sS'oid'
p9
L799305L
sS'number'
p10
g2
sS'person_oid'
p11
L82L
sS'contact'
p12
L162L
sS'starttime'
p13
cdatetime
datetime
p14
(S'\x07\xd5\x02\x08\x13,\x1c\x00\x00\x00'
p15
tp16
Rp17
sS'duration'
p18
L6L
sS'endtime'
p19
g14
(S'\x07\xd5\x02\x08\x13,"\x00\x00\x00'
p20
tp21
Rp22
sS'phonenumber_oid'
p23
L3170L
s.(dp0
S'status'
p1
S''
p2
sS'direction'
p3
S'Outgoing'
p4
sS'remote'
p5
g2
sS'description'
p6
S'Voice Call'
p7
sS'callid'
p8
L1169L
sS'oid'
p9
L799306L
sS'number'
p10
g2
sS'person_oid'
p11
L82L
sS'contact'
p12
L163L
sS'starttime'
p13
cdatetime
datetime
p14
(S'\x07\xd5\x02\t\x16\x17)\x00\x00\x00'
p15
tp16
Rp17
sS'duration'
p18
L29L
sS'endtime'
p19
g14
(S'\x07\xd5\x02\t\x16\x18\n\x00\x00\x00'
p20
tp21
Rp22
sS'phonenumber_oid'
p23
L2394L
s.(dp0
S'status'
p1
S''
p2
sS'direction'
p3
S'Outgoing'
p4
sS'remote'
p5
g2
sS'description'
p6
S'Voice Call'
p7
sS'callid'
p8
L1169L
sS'oid'
p9
L799309L
sS'number'
p10
g2
sS'person_oid'
p11
L82L
sS'contact'
p12
L163L
sS'starttime'
p13
cdatetime
datetime
p14
(S'\x07\xd5\x02\t\x16\x17)\x00\x00\x00'
p15
tp16
Rp17
sS'duration'
p18
L29L
sS'endtime'
p19
g14
(S'\x07\xd5\x02\t\x16\x18\n\x00\x00\x00'
p20
tp21
Rp22
sS'phonenumber_oid'
p23
L2394L
s.(dp0
S'status'
p1
S''
p2
sS'direction'
p3
S'Outgoing'
p4
sS'remote'
p5
g2
sS'description'
p6
S'Voice Call'
p7
sS'callid'
p8
L1170L
sS'oid'
p9
L799307L
sS'number'
p10
g2
sS'person_oid'
p11
L82L
sS'contact'
p12
L169L
sS'starttime'
p13
cdatetime
datetime
p14
(S'\x07\xd5\x02\t\x16\x1a\x00\x00\x00\x00'
p15
tp16
Rp17
sS'duration'
p18
L1L
sS'endtime'
p19
g14
(S'\x07\xd5\x02\t\x16\x1a\x01\x00\x00\x00'
p20
tp21
Rp22
sS'phonenumber_oid'
p23
L3175L
s.(dp0
S'status'
p1
S''
p2
sS'direction'
p3
S'Outgoing'
p4
sS'remote'
p5
g2
sS'description'
p6
S'Voice Call'
p7
sS'callid'
p8
L1170L
sS'oid'
p9
L799310L
sS'number'
p10
g2
sS'person_oid'
p11
L82L
sS'contact'
p12
L169L
sS'starttime'
p13
cdatetime
datetime
p14
(S'\x07\xd5\x02\t\x16\x1a\x00\x00\x00\x00'
p15
tp16
Rp17
sS'duration'
p18
L1L
sS'endtime'
p19
g14
(S'\x07\xd5\x02\t\x16\x1a\x01\x00\x00\x00'
p20
tp21
Rp22
sS'phonenumber_oid'
p23
L3175L
s.(dp0
S'status'
p1
S''
p2
sS'direction'
p3
S'Incoming'
p4
sS'remote'
p5
g2
sS'description'
p6
S'Voice Call'
p7
sS'callid'
p8
L1172L
sS'oid'
p9
L799308L
sS'number'
p10
g2
sS'person_oid'
p11
L82L
sS'contact'
p12
L163L
sS'starttime'
p13
cdatetime
datetime
p14
(S'\x07\xd5\x02\t\x17\x08\x0c\x00\x00\x00'
p15
tp16
Rp17
sS'duration'
p18
L335L
sS'endtime'
p19
g14
(S'\x07\xd5\x02\t\x17\r/\x00\x00\x00'
p20
tp21
Rp22
sS'phonenumber_oid'
p23
L2394L
s.(dp0
S'status'
p1
S''
p2
sS'direction'
p3
S'Incoming'
p4
sS'remote'
p5
g2
sS'description'
p6
S'Voice Call'
p7
sS'callid'
p8
L1172L
sS'oid'
p9
L799311L
sS'number'
p10
g2
sS'person_oid'
p11
L82L
sS'contact'
p12
L163L
sS'starttime'
p13
cdatetime
datetime
p14
(S'\x07\xd5\x02\t\x17\x08\x0c\x00\x00\x00'
p15
tp16
Rp17
sS'duration'
p18
L335L
sS'endtime'
p19
g14
(S'\x07\xd5\x02\t\x17\r/\x00\x00\x00'
p20
tp21
Rp22
sS'phonenumber_oid'
p23
L2394L
s.(dp0
S'status'
p1
S''
p2
sS'direction'
p3
S'Incoming'
p4
sS'remote'
p5
g2
sS'description'
p6
S'Voice Call'
p7
sS'callid'
p8
L1174L
sS'oid'
p9
L799312L
sS'number'
p10
g2
sS'person_oid'
p11
L82L
sS'contact'
p12
L187L
sS'starttime'
p13
cdatetime
datetime
p14
(S'\x07\xd5\x02\x0b\x12\x12\x1e\x00\x00\x00'
p15
tp16
Rp17
sS'duration'
p18
L114L
sS'endtime'
p19
g14
(S'\x07\xd5\x02\x0b\x12\x14\x18\x00\x00\x00'
p20
tp21
Rp22
sS'phonenumber_oid'
p23
L3189L
s.(dp0
S'status'
p1
S''
p2
sS'direction'
p3
S'Incoming'
p4
sS'remote'
p5
g2
sS'description'
p6
S'Voice Call'
p7
sS'callid'
p8
L1174L
sS'oid'
p9
L799327L
sS'number'
p10
g2
sS'person_oid'
p11
L82L
sS'contact'
p12
L187L
sS'starttime'
p13
cdatetime
datetime
p14
(S'\x07\xd5\x02\x0b\x12\x12\x1e\x00\x00\x00'
p15
tp16
Rp17
sS'duration'
p18
L114L
sS'endtime'
p19
g14
(S'\x07\xd5\x02\x0b\x12\x14\x18\x00\x00\x00'
p20
tp21
Rp22
sS'phonenumber_oid'
p23
L3189L
s.(dp0
S'status'
p1
S''
p2
sS'direction'
p3
S'Outgoing'
p4
sS'remote'
p5
g2
sS'description'
p6
S'Voice Call'
p7
sS'callid'
p8
L1175L
sS'oid'
p9
L799313L
sS'number'
p10
g2
sS'person_oid'
p11
L82L
sS'contact'
p12
L187L
sS'starttime'
p13
cdatetime
datetime
p14
(S'\x07\xd5\x02\x0b\x12\x1a\x1e\x00\x00\x00'
p15
tp16
Rp17
sS'duration'
p18
L182L
sS'endtime'
p19
g14
(S'\x07\xd5\x02\x0b\x12\x1d \x00\x00\x00'
p20
tp21
Rp22
sS'phonenumber_oid'
p23
L3189L
s.(dp0
S'status'
p1
S''
p2
sS'direction'
p3
S'Outgoing'
p4
sS'remote'
p5
g2
sS'description'
p6
S'Voice Call'
p7
sS'callid'
p8
L1175L
sS'oid'
p9
L799328L
sS'number'
p10
g2
sS'person_oid'
p11
L82L
sS'contact'
p12
L187L
sS'starttime'
p13
cdatetime
datetime
p14
(S'\x07\xd5\x02\x0b\x12\x1a\x1e\x00\x00\x00'
p15
tp16
Rp17
sS'duration'
p18
L182L
sS'endtime'
p19
g14
(S'\x07\xd5\x02\x0b\x12\x1d \x00\x00\x00'
p20
tp21
Rp22
sS'phonenumber_oid'
p23
L3189L
s.(dp0
S'status'
p1
S''
p2
sS'direction'
p3
S'Outgoing'
p4
sS'remote'
p5
g2
sS'description'
p6
S'Voice Call'
p7
sS'callid'
p8
L1176L
sS'oid'
p9
L799314L
sS'number'
p10
g2
sS'person_oid'
p11
L82L
sS'contact'
p12
L162L
sS'starttime'
p13
cdatetime
datetime
p14
(S'\x07\xd5\x02\x0b\x12\x1e\x16\x00\x00\x00'
p15
tp16
Rp17
sS'duration'
p18
L46L
sS'endtime'
p19
g14
(S'\x07\xd5\x02\x0b\x12\x1f\x08\x00\x00\x00'
p20
tp21
Rp22
sS'phonenumber_oid'
p23
L3170L
s.(dp0
S'status'
p1
S''
p2
sS'direction'
p3
S'Outgoing'
p4
sS'remote'
p5
g2
sS'description'
p6
S'Voice Call'
p7
sS'callid'
p8
L1176L
sS'oid'
p9
L799329L
sS'number'
p10
g2
sS'person_oid'
p11
L82L
sS'contact'
p12
L162L
sS'starttime'
p13
cdatetime
datetime
p14
(S'\x07\xd5\x02\x0b\x12\x1e\x16\x00\x00\x00'
p15
tp16
Rp17
sS'duration'
p18
L46L
sS'endtime'
p19
g14
(S'\x07\xd5\x02\x0b\x12\x1f\x08\x00\x00\x00'
p20
tp21
Rp22
sS'phonenumber_oid'
p23
L3170L
s.(dp0
S'status'
p1
S''
p2
sS'direction'
p3
S'Incoming'
p4
sS'remote'
p5
g2
sS'description'
p6
S'Voice Call'
p7
sS'callid'
p8
L1178L
sS'oid'
p9
L799315L
sS'number'
p10
g2
sS'person_oid'
p11
L82L
sS'contact'
p12
L162L
sS'starttime'
p13
cdatetime
datetime
p14
(S'\x07\xd5\x02\x0b\x13\n\x06\x00\x00\x00'
p15
tp16
Rp17
sS'duration'
p18
L25L
sS'endtime'
p19
g14
(S'\x07\xd5\x02\x0b\x13\n\x1f\x00\x00\x00'
p20
tp21
Rp22
sS'phonenumber_oid'
p23
L3170L
s.(dp0
S'status'
p1
S''
p2
sS'direction'
p3
S'Incoming'
p4
sS'remote'
p5
g2
sS'description'
p6
S'Voice Call'
p7
sS'callid'
p8
L1178L
sS'oid'
p9
L799330L
sS'number'
p10
g2
sS'person_oid'
p11
L82L
sS'contact'
p12
L162L
sS'starttime'
p13
cdatetime
datetime
p14
(S'\x07\xd5\x02\x0b\x13\n\x06\x00\x00\x00'
p15
tp16
Rp17
sS'duration'
p18
L25L
sS'endtime'
p19
g14
(S'\x07\xd5\x02\x0b\x13\n\x1f\x00\x00\x00'
p20
tp21
Rp22
sS'phonenumber_oid'
p23
L3170L
s.(dp0
S'status'
p1
S''
p2
sS'direction'
p3
S'Outgoing'
p4
sS'remote'
p5
g2
sS'description'
p6
S'Voice Call'
p7
sS'callid'
p8
L1179L
sS'oid'
p9
L799316L
sS'number'
p10
g2
sS'person_oid'
p11
L82L
sS'contact'
p12
L162L
sS'starttime'
p13
cdatetime
datetime
p14
(S'\x07\xd5\x02\x0b\x14\x10+\x00\x00\x00'
p15
tp16
Rp17
sS'duration'
p18
L35L
sS'endtime'
p19
g14
(S'\x07\xd5\x02\x0b\x14\x11\x12\x00\x00\x00'
p20
tp21
Rp22
sS'phonenumber_oid'
p23
L3170L
s.(dp0
S'status'
p1
S''
p2
sS'direction'
p3
S'Outgoing'
p4
sS'remote'
p5
g2
sS'description'
p6
S'Voice Call'
p7
sS'callid'
p8
L1179L
sS'oid'
p9
L799331L
sS'number'
p10
g2
sS'person_oid'
p11
L82L
sS'contact'
p12
L162L
sS'starttime'
p13
cdatetime
datetime
p14
(S'\x07\xd5\x02\x0b\x14\x10+\x00\x00\x00'
p15
tp16
Rp17
sS'duration'
p18
L35L
sS'endtime'
p19
g14
(S'\x07\xd5\x02\x0b\x14\x11\x12\x00\x00\x00'
p20
tp21
Rp22
sS'phonenumber_oid'
p23
L3170L
s.(dp0
S'status'
p1
S''
p2
sS'direction'
p3
S'Outgoing'
p4
sS'remote'
p5
g2
sS'description'
p6
S'Voice Call'
p7
sS'callid'
p8
L1180L
sS'oid'
p9
L799317L
sS'number'
p10
g2
sS'person_oid'
p11
L82L
sS'contact'
p12
L166L
sS'starttime'
p13
cdatetime
datetime
p14
(S'\x07\xd5\x02\x0b\x14\x12\x11\x00\x00\x00'
p15
tp16
Rp17
sS'duration'
p18
L10L
sS'endtime'
p19
g14
(S'\x07\xd5\x02\x0b\x14\x12\x1b\x00\x00\x00'
p20
tp21
Rp22
sS'phonenumber_oid'
p23
L3173L
s.(dp0
S'status'
p1
S''
p2
sS'direction'
p3
S'Outgoing'
p4
sS'remote'
p5
g2
sS'description'
p6
S'Voice Call'
p7
sS'callid'
p8
L1180L
sS'oid'
p9
L799332L
sS'number'
p10
g2
sS'person_oid'
p11
L82L
sS'contact'
p12
L166L
sS'starttime'
p13
cdatetime
datetime
p14
(S'\x07\xd5\x02\x0b\x14\x12\x11\x00\x00\x00'
p15
tp16
Rp17
sS'duration'
p18
L10L
sS'endtime'
p19
g14
(S'\x07\xd5\x02\x0b\x14\x12\x1b\x00\x00\x00'
p20
tp21
Rp22
sS'phonenumber_oid'
p23
L3173L
s.(dp0
S'status'
p1
S''
p2
sS'direction'
p3
S'Incoming'
p4
sS'remote'
p5
g2
sS'description'
p6
S'Voice Call'
p7
sS'callid'
p8
L1182L
sS'oid'
p9
L799318L
sS'number'
p10
g2
sS'person_oid'
p11
L82L
sS'contact'
p12
L166L
sS'starttime'
p13
cdatetime
datetime
p14
(S'\x07\xd5\x02\x0b\x14\x1c\x13\x00\x00\x00'
p15
tp16
Rp17
sS'duration'
p18
L74L
sS'endtime'
p19
g14
(S'\x07\xd5\x02\x0b\x14\x1d!\x00\x00\x00'
p20
tp21
Rp22
sS'phonenumber_oid'
p23
L3173L
s.(dp0
S'status'
p1
S''
p2
sS'direction'
p3
S'Incoming'
p4
sS'remote'
p5
g2
sS'description'
p6
S'Voice Call'
p7
sS'callid'
p8
L1182L
sS'oid'
p9
L799333L
sS'number'
p10
g2
sS'person_oid'
p11
L82L
sS'contact'
p12
L166L
sS'starttime'
p13
cdatetime
datetime
p14
(S'\x07\xd5\x02\x0b\x14\x1c\x13\x00\x00\x00'
p15
tp16
Rp17
sS'duration'
p18
L74L
sS'endtime'
p19
g14
(S'\x07\xd5\x02\x0b\x14\x1d!\x00\x00\x00'
p20
tp21
Rp22
sS'phonenumber_oid'
p23
L3173L
s.(dp0
S'status'
p1
S''
p2
sS'direction'
p3
S'Outgoing'
p4
sS'remote'
p5
g2
sS'description'
p6
S'Voice Call'
p7
sS'callid'
p8
L1183L
sS'oid'
p9
L799319L
sS'number'
p10
g2
sS'person_oid'
p11
L82L
sS'contact'
p12
L187L
sS'starttime'
p13
cdatetime
datetime
p14
(S'\x07\xd5\x02\x0b\x14\x1e\x00\x00\x00\x00'
p15
tp16
Rp17
sS'duration'
p18
L49L
sS'endtime'
p19
g14
(S'\x07\xd5\x02\x0b\x14\x1e1\x00\x00\x00'
p20
tp21
Rp22
sS'phonenumber_oid'
p23
L3189L
s.(dp0
S'status'
p1
S''
p2
sS'direction'
p3
S'Outgoing'
p4
sS'remote'
p5
g2
sS'description'
p6
S'Voice Call'
p7
sS'callid'
p8
L1183L
sS'oid'
p9
L799334L
sS'number'
p10
g2
sS'person_oid'
p11
L82L
sS'contact'
p12
L187L
sS'starttime'
p13
cdatetime
datetime
p14
(S'\x07\xd5\x02\x0b\x14\x1e\x00\x00\x00\x00'
p15
tp16
Rp17
sS'duration'
p18
L49L
sS'endtime'
p19
g14
(S'\x07\xd5\x02\x0b\x14\x1e1\x00\x00\x00'
p20
tp21
Rp22
sS'phonenumber_oid'
p23
L3189L
s.(dp0
S'status'
p1
S''
p2
sS'direction'
p3
S'Outgoing'
p4
sS'remote'
p5
g2
sS'description'
p6
S'Voice Call'
p7
sS'callid'
p8
L1184L
sS'oid'
p9
L799320L
sS'number'
p10
g2
sS'person_oid'
p11
L82L
sS'contact'
p12
L162L
sS'starttime'
p13
cdatetime
datetime
p14
(S'\x07\xd5\x02\x0b\x141/\x00\x00\x00'
p15
tp16
Rp17
sS'duration'
p18
L14L
sS'endtime'
p19
g14
(S'\x07\xd5\x02\x0b\x142\x01\x00\x00\x00'
p20
tp21
Rp22
sS'phonenumber_oid'
p23
L3170L
s.(dp0
S'status'
p1
S''
p2
sS'direction'
p3
S'Outgoing'
p4
sS'remote'
p5
g2
sS'description'
p6
S'Voice Call'
p7
sS'callid'
p8
L1184L
sS'oid'
p9
L799335L
sS'number'
p10
g2
sS'person_oid'
p11
L82L
sS'contact'
p12
L162L
sS'starttime'
p13
cdatetime
datetime
p14
(S'\x07\xd5\x02\x0b\x141/\x00\x00\x00'
p15
tp16
Rp17
sS'duration'
p18
L14L
sS'endtime'
p19
g14
(S'\x07\xd5\x02\x0b\x142\x01\x00\x00\x00'
p20
tp21
Rp22
sS'phonenumber_oid'
p23
L3170L
s.(dp0
S'status'
p1
S''
p2
sS'direction'
p3
S'Incoming'
p4
sS'remote'
p5
g2
sS'description'
p6
S'Voice Call'
p7
sS'callid'
p8
L1186L
sS'oid'
p9
L799321L
sS'number'
p10
g2
sS'person_oid'
p11
L82L
sS'contact'
p12
L162L
sS'starttime'
p13
cdatetime
datetime
p14
(S'\x07\xd5\x02\x0b\x15\x0c\x06\x00\x00\x00'
p15
tp16
Rp17
sS'duration'
p18
L6L
sS'endtime'
p19
g14
(S'\x07\xd5\x02\x0b\x15\x0c\x0c\x00\x00\x00'
p20
tp21
Rp22
sS'phonenumber_oid'
p23
L3170L
s.(dp0
S'status'
p1
S''
p2
sS'direction'
p3
S'Incoming'
p4
sS'remote'
p5
g2
sS'description'
p6
S'Voice Call'
p7
sS'callid'
p8
L1186L
sS'oid'
p9
L799336L
sS'number'
p10
g2
sS'person_oid'
p11
L82L
sS'contact'
p12
L162L
sS'starttime'
p13
cdatetime
datetime
p14
(S'\x07\xd5\x02\x0b\x15\x0c\x06\x00\x00\x00'
p15
tp16
Rp17
sS'duration'
p18
L6L
sS'endtime'
p19
g14
(S'\x07\xd5\x02\x0b\x15\x0c\x0c\x00\x00\x00'
p20
tp21
Rp22
sS'phonenumber_oid'
p23
L3170L
s.(dp0
S'status'
p1
S''
p2
sS'direction'
p3
S'Outgoing'
p4
sS'remote'
p5
g2
sS'description'
p6
S'Voice Call'
p7
sS'callid'
p8
L1187L
sS'oid'
p9
L799322L
sS'number'
p10
g2
sS'person_oid'
p11
L82L
sS'contact'
p12
L168L
sS'starttime'
p13
cdatetime
datetime
p14
(S'\x07\xd5\x02\x0b\x17\x03!\x00\x00\x00'
p15
tp16
Rp17
sS'duration'
p18
L29L
sS'endtime'
p19
g14
(S'\x07\xd5\x02\x0b\x17\x04\x02\x00\x00\x00'
p20
tp21
Rp22
sS'phonenumber_oid'
p23
L2401L
s.(dp0
S'status'
p1
S''
p2
sS'direction'
p3
S'Outgoing'
p4
sS'remote'
p5
g2
sS'description'
p6
S'Voice Call'
p7
sS'callid'
p8
L1187L
sS'oid'
p9
L799337L
sS'number'
p10
g2
sS'person_oid'
p11
L82L
sS'contact'
p12
L168L
sS'starttime'
p13
cdatetime
datetime
p14
(S'\x07\xd5\x02\x0b\x17\x03!\x00\x00\x00'
p15
tp16
Rp17
sS'duration'
p18
L29L
sS'endtime'
p19
g14
(S'\x07\xd5\x02\x0b\x17\x04\x02\x00\x00\x00'
p20
tp21
Rp22
sS'phonenumber_oid'
p23
L2401L
s.(dp0
S'status'
p1
S''
p2
sS'direction'
p3
S'Incoming'
p4
sS'remote'
p5
g2
sS'description'
p6
S'Voice Call'
p7
sS'callid'
p8
L1190L
sS'oid'
p9
L799323L
sS'number'
p10
g2
sS'person_oid'
p11
L82L
sS'contact'
p12
L169L
sS'starttime'
p13
cdatetime
datetime
p14
(S'\x07\xd5\x02\x0b\x17\x05\x14\x00\x00\x00'
p15
tp16
Rp17
sS'duration'
p18
L76L
sS'endtime'
p19
g14
(S'\x07\xd5\x02\x0b\x17\x06$\x00\x00\x00'
p20
tp21
Rp22
sS'phonenumber_oid'
p23
L3175L
s.(dp0
S'status'
p1
S''
p2
sS'direction'
p3
S'Incoming'
p4
sS'remote'
p5
g2
sS'description'
p6
S'Voice Call'
p7
sS'callid'
p8
L1190L
sS'oid'
p9
L799338L
sS'number'
p10
g2
sS'person_oid'
p11
L82L
sS'contact'
p12
L169L
sS'starttime'
p13
cdatetime
datetime
p14
(S'\x07\xd5\x02\x0b\x17\x05\x14\x00\x00\x00'
p15
tp16
Rp17
sS'duration'
p18
L76L
sS'endtime'
p19
g14
(S'\x07\xd5\x02\x0b\x17\x06$\x00\x00\x00'
p20
tp21
Rp22
sS'phonenumber_oid'
p23
L3175L
s.(dp0
S'status'
p1
S''
p2
sS'direction'
p3
S'Outgoing'
p4
sS'remote'
p5
g2
sS'description'
p6
S'Voice Call'
p7
sS'callid'
p8
L1191L
sS'oid'
p9
L799324L
sS'number'
p10
g2
sS'person_oid'
p11
L82L
sS'contact'
p12
L169L
sS'starttime'
p13
cdatetime
datetime
p14
(S'\x07\xd5\x02\x0b\x173!\x00\x00\x00'
p15
tp16
Rp17
sS'duration'
p18
L0L
sS'endtime'
p19
g14
(S'\x07\xd5\x02\x0b\x173!\x00\x00\x00'
p20
tp21
Rp22
sS'phonenumber_oid'
p23
L3175L
s.(dp0
S'status'
p1
S''
p2
sS'direction'
p3
S'Outgoing'
p4
sS'remote'
p5
g2
sS'description'
p6
S'Voice Call'
p7
sS'callid'
p8
L1191L
sS'oid'
p9
L799339L
sS'number'
p10
g2
sS'person_oid'
p11
L82L
sS'contact'
p12
L169L
sS'starttime'
p13
cdatetime
datetime
p14
(S'\x07\xd5\x02\x0b\x173!\x00\x00\x00'
p15
tp16
Rp17
sS'duration'
p18
L0L
sS'endtime'
p19
g14
(S'\x07\xd5\x02\x0b\x173!\x00\x00\x00'
p20
tp21
Rp22
sS'phonenumber_oid'
p23
L3175L
s.(dp0
S'status'
p1
S''
p2
sS'direction'
p3
S'Missed Call'
p4
sS'remote'
p5
g2
sS'description'
p6
S'Voice Call'
p7
sS'callid'
p8
L1192L
sS'oid'
p9
L799325L
sS'number'
p10
g2
sS'person_oid'
p11
L82L
sS'contact'
p12
L169L
sS'starttime'
p13
cdatetime
datetime
p14
(S'\x07\xd5\x02\x0c\x00\x06\n\x00\x00\x00'
p15
tp16
Rp17
sS'duration'
p18
L0L
sS'endtime'
p19
g14
(S'\x07\xd5\x02\x0c\x00\x06\n\x00\x00\x00'
p20
tp21
Rp22
sS'phonenumber_oid'
p23
L3175L
s.(dp0
S'status'
p1
S''
p2
sS'direction'
p3
S'Missed Call'
p4
sS'remote'
p5
g2
sS'description'
p6
S'Voice Call'
p7
sS'callid'
p8
L1192L
sS'oid'
p9
L799340L
sS'number'
p10
g2
sS'person_oid'
p11
L82L
sS'contact'
p12
L169L
sS'starttime'
p13
cdatetime
datetime
p14
(S'\x07\xd5\x02\x0c\x00\x06\n\x00\x00\x00'
p15
tp16
Rp17
sS'duration'
p18
L0L
sS'endtime'
p19
g14
(S'\x07\xd5\x02\x0c\x00\x06\n\x00\x00\x00'
p20
tp21
Rp22
sS'phonenumber_oid'
p23
L3175L
s.(dp0
S'status'
p1
S''
p2
sS'direction'
p3
S'Incoming'
p4
sS'remote'
p5
g2
sS'description'
p6
S'Voice Call'
p7
sS'callid'
p8
L1194L
sS'oid'
p9
L799326L
sS'number'
p10
g2
sS'person_oid'
p11
L82L
sS'contact'
p12
L169L
sS'starttime'
p13
cdatetime
datetime
p14
(S'\x07\xd5\x02\x0c\x00\x07\x1c\x00\x00\x00'
p15
tp16
Rp17
sS'duration'
p18
L404L
sS'endtime'
p19
g14
(S'\x07\xd5\x02\x0c\x00\x0e\x0c\x00\x00\x00'
p20
tp21
Rp22
sS'phonenumber_oid'
p23
L3175L
s.(dp0
S'status'
p1
S''
p2
sS'direction'
p3
S'Incoming'
p4
sS'remote'
p5
g2
sS'description'
p6
S'Voice Call'
p7
sS'callid'
p8
L1194L
sS'oid'
p9
L799341L
sS'number'
p10
g2
sS'person_oid'
p11
L82L
sS'contact'
p12
L169L
sS'starttime'
p13
cdatetime
datetime
p14
(S'\x07\xd5\x02\x0c\x00\x07\x1c\x00\x00\x00'
p15
tp16
Rp17
sS'duration'
p18
L404L
sS'endtime'
p19
g14
(S'\x07\xd5\x02\x0c\x00\x0e\x0c\x00\x00\x00'
p20
tp21
Rp22
sS'phonenumber_oid'
p23
L3175L
s.(dp0
S'status'
p1
S''
p2
sS'direction'
p3
S'Outgoing'
p4
sS'remote'
p5
g2
sS'description'
p6
S'Voice Call'
p7
sS'callid'
p8
L1199L
sS'oid'
p9
L799342L
sS'number'
p10
g2
sS'person_oid'
p11
L82L
sS'contact'
p12
L167L
sS'starttime'
p13
cdatetime
datetime
p14
(S'\x07\xd5\x02\x0c\x0b-\x15\x00\x00\x00'
p15
tp16
Rp17
sS'duration'
p18
L22L
sS'endtime'
p19
g14
(S'\x07\xd5\x02\x0c\x0b-+\x00\x00\x00'
p20
tp21
Rp22
sS'phonenumber_oid'
p23
L3174L
s.(dp0
S'status'
p1
S''
p2
sS'direction'
p3
S'Outgoing'
p4
sS'remote'
p5
g2
sS'description'
p6
S'Voice Call'
p7
sS'callid'
p8
L1199L
sS'oid'
p9
L799353L
sS'number'
p10
g2
sS'person_oid'
p11
L82L
sS'contact'
p12
L167L
sS'starttime'
p13
cdatetime
datetime
p14
(S'\x07\xd5\x02\x0c\x0b-\x15\x00\x00\x00'
p15
tp16
Rp17
sS'duration'
p18
L22L
sS'endtime'
p19
g14
(S'\x07\xd5\x02\x0c\x0b-+\x00\x00\x00'
p20
tp21
Rp22
sS'phonenumber_oid'
p23
L3174L
s.(dp0
S'status'
p1
S''
p2
sS'direction'
p3
S'Outgoing'
p4
sS'remote'
p5
g2
sS'description'
p6
S'Voice Call'
p7
sS'callid'
p8
L1200L
sS'oid'
p9
L799343L
sS'number'
p10
g2
sS'person_oid'
p11
L82L
sS'contact'
p12
L167L
sS'starttime'
p13
cdatetime
datetime
p14
(S'\x07\xd5\x02\x0c\x0e\x0f\n\x00\x00\x00'
p15
tp16
Rp17
sS'duration'
p18
L9L
sS'endtime'
p19
g14
(S'\x07\xd5\x02\x0c\x0e\x0f\x13\x00\x00\x00'
p20
tp21
Rp22
sS'phonenumber_oid'
p23
L3174L
s.(dp0
S'status'
p1
S''
p2
sS'direction'
p3
S'Outgoing'
p4
sS'remote'
p5
g2
sS'description'
p6
S'Voice Call'
p7
sS'callid'
p8
L1200L
sS'oid'
p9
L799354L
sS'number'
p10
g2
sS'person_oid'
p11
L82L
sS'contact'
p12
L167L
sS'starttime'
p13
cdatetime
datetime
p14
(S'\x07\xd5\x02\x0c\x0e\x0f\n\x00\x00\x00'
p15
tp16
Rp17
sS'duration'
p18
L9L
sS'endtime'
p19
g14
(S'\x07\xd5\x02\x0c\x0e\x0f\x13\x00\x00\x00'
p20
tp21
Rp22
sS'phonenumber_oid'
p23
L3174L
s.(dp0
S'status'
p1
S''
p2
sS'direction'
p3
S'Outgoing'
p4
sS'remote'
p5
g2
sS'description'
p6
S'Voice Call'
p7
sS'callid'
p8
L1201L
sS'oid'
p9
L799344L
sS'number'
p10
g2
sS'person_oid'
p11
L82L
sS'contact'
p12
L166L
sS'starttime'
p13
cdatetime
datetime
p14
(S'\x07\xd5\x02\x0c\x0e\x10\x0c\x00\x00\x00'
p15
tp16
Rp17
sS'duration'
p18
L0L
sS'endtime'
p19
g14
(S'\x07\xd5\x02\x0c\x0e\x10\x0c\x00\x00\x00'
p20
tp21
Rp22
sS'phonenumber_oid'
p23
L3173L
s.(dp0
S'status'
p1
S''
p2
sS'direction'
p3
S'Outgoing'
p4
sS'remote'
p5
g2
sS'description'
p6
S'Voice Call'
p7
sS'callid'
p8
L1201L
sS'oid'
p9
L799355L
sS'number'
p10
g2
sS'person_oid'
p11
L82L
sS'contact'
p12
L166L
sS'starttime'
p13
cdatetime
datetime
p14
(S'\x07\xd5\x02\x0c\x0e\x10\x0c\x00\x00\x00'
p15
tp16
Rp17
sS'duration'
p18
L0L
sS'endtime'
p19
g14
(S'\x07\xd5\x02\x0c\x0e\x10\x0c\x00\x00\x00'
p20
tp21
Rp22
sS'phonenumber_oid'
p23
L3173L
s.(dp0
S'status'
p1
S''
p2
sS'direction'
p3
S'Incoming'
p4
sS'remote'
p5
g2
sS'description'
p6
S'Voice Call'
p7
sS'callid'
p8
L1203L
sS'oid'
p9
L799345L
sS'number'
p10
g2
sS'person_oid'
p11
L82L
sS'contact'
p12
L166L
sS'starttime'
p13
cdatetime
datetime
p14
(S"\x07\xd5\x02\x0c\x0e\x10'\x00\x00\x00"
p15
tp16
Rp17
sS'duration'
p18
L15L
sS'endtime'
p19
g14
(S'\x07\xd5\x02\x0c\x0e\x106\x00\x00\x00'
p20
tp21
Rp22
sS'phonenumber_oid'
p23
L3173L
s.(dp0
S'status'
p1
S''
p2
sS'direction'
p3
S'Incoming'
p4
sS'remote'
p5
g2
sS'description'
p6
S'Voice Call'
p7
sS'callid'
p8
L1203L
sS'oid'
p9
L799356L
sS'number'
p10
g2
sS'person_oid'
p11
L82L
sS'contact'
p12
L166L
sS'starttime'
p13
cdatetime
datetime
p14
(S"\x07\xd5\x02\x0c\x0e\x10'\x00\x00\x00"
p15
tp16
Rp17
sS'duration'
p18
L15L
sS'endtime'
p19
g14
(S'\x07\xd5\x02\x0c\x0e\x106\x00\x00\x00'
p20
tp21
Rp22
sS'phonenumber_oid'
p23
L3173L
s.(dp0
S'status'
p1
S''
p2
sS'direction'
p3
S'Incoming'
p4
sS'remote'
p5
g2
sS'description'
p6
S'Voice Call'
p7
sS'callid'
p8
L1205L
sS'oid'
p9
L799346L
sS'number'
p10
g2
sS'person_oid'
p11
L82L
sS'contact'
p12
L166L
sS'starttime'
p13
cdatetime
datetime
p14
(S'\x07\xd5\x02\x0c\x0e\x11\x14\x00\x00\x00'
p15
tp16
Rp17
sS'duration'
p18
L61L
sS'endtime'
p19
g14
(S'\x07\xd5\x02\x0c\x0e\x12\x15\x00\x00\x00'
p20
tp21
Rp22
sS'phonenumber_oid'
p23
L3173L
s.(dp0
S'status'
p1
S''
p2
sS'direction'
p3
S'Incoming'
p4
sS'remote'
p5
g2
sS'description'
p6
S'Voice Call'
p7
sS'callid'
p8
L1205L
sS'oid'
p9
L799357L
sS'number'
p10
g2
sS'person_oid'
p11
L82L
sS'contact'
p12
L166L
sS'starttime'
p13
cdatetime
datetime
p14
(S'\x07\xd5\x02\x0c\x0e\x11\x14\x00\x00\x00'
p15
tp16
Rp17
sS'duration'
p18
L61L
sS'endtime'
p19
g14
(S'\x07\xd5\x02\x0c\x0e\x12\x15\x00\x00\x00'
p20
tp21
Rp22
sS'phonenumber_oid'
p23
L3173L
s.(dp0
S'status'
p1
S''
p2
sS'direction'
p3
S'Outgoing'
p4
sS'remote'
p5
g2
sS'description'
p6
S'Voice Call'
p7
sS'callid'
p8
L1206L
sS'oid'
p9
L799347L
sS'number'
p10
g2
sS'person_oid'
p11
L82L
sS'contact'
p12
L165L
sS'starttime'
p13
cdatetime
datetime
p14
(S'\x07\xd5\x02\x0c\x1124\x00\x00\x00'
p15
tp16
Rp17
sS'duration'
p18
L8L
sS'endtime'
p19
g14
(S'\x07\xd5\x02\x0c\x113\x00\x00\x00\x00'
p20
tp21
Rp22
sS'phonenumber_oid'
p23
L3172L
s.(dp0
S'status'
p1
S''
p2
sS'direction'
p3
S'Outgoing'
p4
sS'remote'
p5
g2
sS'description'
p6
S'Voice Call'
p7
sS'callid'
p8
L1206L
sS'oid'
p9
L799358L
sS'number'
p10
g2
sS'person_oid'
p11
L82L
sS'contact'
p12
L165L
sS'starttime'
p13
cdatetime
datetime
p14
(S'\x07\xd5\x02\x0c\x1124\x00\x00\x00'
p15
tp16
Rp17
sS'duration'
p18
L8L
sS'endtime'
p19
g14
(S'\x07\xd5\x02\x0c\x113\x00\x00\x00\x00'
p20
tp21
Rp22
sS'phonenumber_oid'
p23
L3172L
s.(dp0
S'status'
p1
S''
p2
sS'direction'
p3
S'Outgoing'
p4
sS'remote'
p5
g2
sS'description'
p6
S'Voice Call'
p7
sS'callid'
p8
L1207L
sS'oid'
p9
L799348L
sS'number'
p10
g2
sS'person_oid'
p11
L82L
sS'contact'
p12
L162L
sS'starttime'
p13
cdatetime
datetime
p14
(S'\x07\xd5\x02\x0c\x1134\x00\x00\x00'
p15
tp16
Rp17
sS'duration'
p18
L7L
sS'endtime'
p19
g14
(S'\x07\xd5\x02\x0c\x113;\x00\x00\x00'
p20
tp21
Rp22
sS'phonenumber_oid'
p23
L3170L
s.(dp0
S'status'
p1
S''
p2
sS'direction'
p3
S'Outgoing'
p4
sS'remote'
p5
g2
sS'description'
p6
S'Voice Call'
p7
sS'callid'
p8
L1207L
sS'oid'
p9
L799359L
sS'number'
p10
g2
sS'person_oid'
p11
L82L
sS'contact'
p12
L162L
sS'starttime'
p13
cdatetime
datetime
p14
(S'\x07\xd5\x02\x0c\x1134\x00\x00\x00'
p15
tp16
Rp17
sS'duration'
p18
L7L
sS'endtime'
p19
g14
(S'\x07\xd5\x02\x0c\x113;\x00\x00\x00'
p20
tp21
Rp22
sS'phonenumber_oid'
p23
L3170L
s.(dp0
S'status'
p1
S''
p2
sS'direction'
p3
S'Outgoing'
p4
sS'remote'
p5
g2
sS'description'
p6
S'Voice Call'
p7
sS'callid'
p8
L1208L
sS'oid'
p9
L799349L
sS'number'
p10
g2
sS'person_oid'
p11
L82L
sS'contact'
p12
L162L
sS'starttime'
p13
cdatetime
datetime
p14
(S'\x07\xd5\x02\x0c\x132:\x00\x00\x00'
p15
tp16
Rp17
sS'duration'
p18
L5L
sS'endtime'
p19
g14
(S'\x07\xd5\x02\x0c\x133\x03\x00\x00\x00'
p20
tp21
Rp22
sS'phonenumber_oid'
p23
L3170L
s.(dp0
S'status'
p1
S''
p2
sS'direction'
p3
S'Outgoing'
p4
sS'remote'
p5
g2
sS'description'
p6
S'Voice Call'
p7
sS'callid'
p8
L1208L
sS'oid'
p9
L799360L
sS'number'
p10
g2
sS'person_oid'
p11
L82L
sS'contact'
p12
L162L
sS'starttime'
p13
cdatetime
datetime
p14
(S'\x07\xd5\x02\x0c\x132:\x00\x00\x00'
p15
tp16
Rp17
sS'duration'
p18
L5L
sS'endtime'
p19
g14
(S'\x07\xd5\x02\x0c\x133\x03\x00\x00\x00'
p20
tp21
Rp22
sS'phonenumber_oid'
p23
L3170L
s.(dp0
S'status'
p1
S''
p2
sS'direction'
p3
S'Outgoing'
p4
sS'remote'
p5
g2
sS'description'
p6
S'Voice Call'
p7
sS'callid'
p8
L1209L
sS'oid'
p9
L799350L
sS'number'
p10
g2
sS'person_oid'
p11
L82L
sS'contact'
p12
L177L
sS'starttime'
p13
cdatetime
datetime
p14
(S'\x07\xd5\x02\x0c\x1335\x00\x00\x00'
p15
tp16
Rp17
sS'duration'
p18
L472L
sS'endtime'
p19
g14
(S'\x07\xd5\x02\x0c\x13;-\x00\x00\x00'
p20
tp21
Rp22
sS'phonenumber_oid'
p23
L3181L
s.(dp0
S'status'
p1
S''
p2
sS'direction'
p3
S'Outgoing'
p4
sS'remote'
p5
g2
sS'description'
p6
S'Voice Call'
p7
sS'callid'
p8
L1209L
sS'oid'
p9
L799361L
sS'number'
p10
g2
sS'person_oid'
p11
L82L
sS'contact'
p12
L177L
sS'starttime'
p13
cdatetime
datetime
p14
(S'\x07\xd5\x02\x0c\x1335\x00\x00\x00'
p15
tp16
Rp17
sS'duration'
p18
L472L
sS'endtime'
p19
g14
(S'\x07\xd5\x02\x0c\x13;-\x00\x00\x00'
p20
tp21
Rp22
sS'phonenumber_oid'
p23
L3181L
s.(dp0
S'status'
p1
S''
p2
sS'direction'
p3
S'Outgoing'
p4
sS'remote'
p5
g2
sS'description'
p6
S'Voice Call'
p7
sS'callid'
p8
L1210L
sS'oid'
p9
L799351L
sS'number'
p10
g2
sS'person_oid'
p11
L82L
sS'contact'
p12
L165L
sS'starttime'
p13
cdatetime
datetime
p14
(S'\x07\xd5\x02\x0c\x145/\x00\x00\x00'
p15
tp16
Rp17
sS'duration'
p18
L101L
sS'endtime'
p19
g14
(S'\x07\xd5\x02\x0c\x147\x1c\x00\x00\x00'
p20
tp21
Rp22
sS'phonenumber_oid'
p23
L3172L
s.(dp0
S'status'
p1
S''
p2
sS'direction'
p3
S'Outgoing'
p4
sS'remote'
p5
g2
sS'description'
p6
S'Voice Call'
p7
sS'callid'
p8
L1210L
sS'oid'
p9
L799362L
sS'number'
p10
g2
sS'person_oid'
p11
L82L
sS'contact'
p12
L165L
sS'starttime'
p13
cdatetime
datetime
p14
(S'\x07\xd5\x02\x0c\x145/\x00\x00\x00'
p15
tp16
Rp17
sS'duration'
p18
L101L
sS'endtime'
p19
g14
(S'\x07\xd5\x02\x0c\x147\x1c\x00\x00\x00'
p20
tp21
Rp22
sS'phonenumber_oid'
p23
L3172L
s.(dp0
S'status'
p1
S''
p2
sS'direction'
p3
S'Outgoing'
p4
sS'remote'
p5
g2
sS'description'
p6
S'Voice Call'
p7
sS'callid'
p8
L1211L
sS'oid'
p9
L799352L
sS'number'
p10
g2
sS'person_oid'
p11
L82L
sS'contact'
p12
L163L
sS'starttime'
p13
cdatetime
datetime
p14
(S'\x07\xd5\x02\r\x00\x0c\x15\x00\x00\x00'
p15
tp16
Rp17
sS'duration'
p18
L28L
sS'endtime'
p19
g14
(S'\x07\xd5\x02\r\x00\x0c1\x00\x00\x00'
p20
tp21
Rp22
sS'phonenumber_oid'
p23
L2394L
s.(dp0
S'status'
p1
S''
p2
sS'direction'
p3
S'Outgoing'
p4
sS'remote'
p5
g2
sS'description'
p6
S'Voice Call'
p7
sS'callid'
p8
L1211L
sS'oid'
p9
L799363L
sS'number'
p10
g2
sS'person_oid'
p11
L82L
sS'contact'
p12
L163L
sS'starttime'
p13
cdatetime
datetime
p14
(S'\x07\xd5\x02\r\x00\x0c\x15\x00\x00\x00'
p15
tp16
Rp17
sS'duration'
p18
L28L
sS'endtime'
p19
g14
(S'\x07\xd5\x02\r\x00\x0c1\x00\x00\x00'
p20
tp21
Rp22
sS'phonenumber_oid'
p23
L2394L
s.(dp0
S'status'
p1
S''
p2
sS'direction'
p3
S'Incoming'
p4
sS'remote'
p5
g2
sS'description'
p6
S'Voice Call'
p7
sS'callid'
p8
L1213L
sS'oid'
p9
L799364L
sS'number'
p10
g2
sS'person_oid'
p11
L82L
sS'contact'
p12
L163L
sS'starttime'
p13
cdatetime
datetime
p14
(S'\x07\xd5\x02\r\n\x17(\x00\x00\x00'
p15
tp16
Rp17
sS'duration'
p18
L134L
sS'endtime'
p19
g14
(S'\x07\xd5\x02\r\n\x196\x00\x00\x00'
p20
tp21
Rp22
sS'phonenumber_oid'
p23
L2394L
s.(dp0
S'status'
p1
S''
p2
sS'direction'
p3
S'Incoming'
p4
sS'remote'
p5
g2
sS'description'
p6
S'Voice Call'
p7
sS'callid'
p8
L1215L
sS'oid'
p9
L799365L
sS'number'
p10
g2
sS'person_oid'
p11
L82L
sS'contact'
p12
L162L
sS'starttime'
p13
cdatetime
datetime
p14
(S'\x07\xd5\x02\r\x0c2&\x00\x00\x00'
p15
tp16
Rp17
sS'duration'
p18
L40L
sS'endtime'
p19
g14
(S'\x07\xd5\x02\r\x0c3\x12\x00\x00\x00'
p20
tp21
Rp22
sS'phonenumber_oid'
p23
L3170L
s.(dp0
S'status'
p1
S''
p2
sS'direction'
p3
S'Outgoing'
p4
sS'remote'
p5
g2
sS'description'
p6
S'Voice Call'
p7
sS'callid'
p8
L1216L
sS'oid'
p9
L799366L
sS'number'
p10
g2
sS'person_oid'
p11
L82L
sS'contact'
p12
L162L
sS'starttime'
p13
cdatetime
datetime
p14
(S'\x07\xd5\x02\r\r*)\x00\x00\x00'
p15
tp16
Rp17
sS'duration'
p18
L7L
sS'endtime'
p19
g14
(S'\x07\xd5\x02\r\r*0\x00\x00\x00'
p20
tp21
Rp22
sS'phonenumber_oid'
p23
L3170L
s.(dp0
S'status'
p1
S''
p2
sS'direction'
p3
S'Incoming'
p4
sS'remote'
p5
g2
sS'description'
p6
S'Voice Call'
p7
sS'callid'
p8
L1218L
sS'oid'
p9
L799367L
sS'number'
p10
g2
sS'person_oid'
p11
L82L
sS'contact'
p12
L162L
sS'starttime'
p13
cdatetime
datetime
p14
(S'\x07\xd5\x02\r\r2\x16\x00\x00\x00'
p15
tp16
Rp17
sS'duration'
p18
L9L
sS'endtime'
p19
g14
(S'\x07\xd5\x02\r\r2\x1f\x00\x00\x00'
p20
tp21
Rp22
sS'phonenumber_oid'
p23
L3170L
s.(dp0
S'status'
p1
S''
p2
sS'direction'
p3
S'Incoming'
p4
sS'remote'
p5
g2
sS'description'
p6
S'Voice Call'
p7
sS'callid'
p8
L1220L
sS'oid'
p9
L799368L
sS'number'
p10
g2
sS'person_oid'
p11
L82L
sS'contact'
p12
L162L
sS'starttime'
p13
cdatetime
datetime
p14
(S'\x07\xd5\x02\r\x0e\x01,\x00\x00\x00'
p15
tp16
Rp17
sS'duration'
p18
L4L
sS'endtime'
p19
g14
(S'\x07\xd5\x02\r\x0e\x010\x00\x00\x00'
p20
tp21
Rp22
sS'phonenumber_oid'
p23
L3170L
s.(dp0
S'status'
p1
S''
p2
sS'direction'
p3
S'Outgoing'
p4
sS'remote'
p5
g2
sS'description'
p6
S'Voice Call'
p7
sS'callid'
p8
L1221L
sS'oid'
p9
L799369L
sS'number'
p10
g2
sS'person_oid'
p11
L82L
sS'contact'
p12
L177L
sS'starttime'
p13
cdatetime
datetime
p14
(S'\x07\xd5\x02\r\x10\x104\x00\x00\x00'
p15
tp16
Rp17
sS'duration'
p18
L24L
sS'endtime'
p19
g14
(S'\x07\xd5\x02\r\x10\x11\x10\x00\x00\x00'
p20
tp21
Rp22
sS'phonenumber_oid'
p23
L3181L
s.(dp0
S'status'
p1
S''
p2
sS'direction'
p3
S'Outgoing'
p4
sS'remote'
p5
g2
sS'description'
p6
S'Voice Call'
p7
sS'callid'
p8
L1225L
sS'oid'
p9
L799370L
sS'number'
p10
g2
sS'person_oid'
p11
L82L
sS'contact'
p12
L167L
sS'starttime'
p13
cdatetime
datetime
p14
(S'\x07\xd5\x02\x0e\x13\x15\x00\x00\x00\x00'
p15
tp16
Rp17
sS'duration'
p18
L30L
sS'endtime'
p19
g14
(S'\x07\xd5\x02\x0e\x13\x15\x1e\x00\x00\x00'
p20
tp21
Rp22
sS'phonenumber_oid'
p23
L3174L
s.(dp0
S'status'
p1
S''
p2
sS'direction'
p3
S'Outgoing'
p4
sS'remote'
p5
g2
sS'description'
p6
S'Voice Call'
p7
sS'callid'
p8
L1225L
sS'oid'
p9
L799371L
sS'number'
p10
g2
sS'person_oid'
p11
L82L
sS'contact'
p12
L167L
sS'starttime'
p13
cdatetime
datetime
p14
(S'\x07\xd5\x02\x0e\x13\x15\x00\x00\x00\x00'
p15
tp16
Rp17
sS'duration'
p18
L30L
sS'endtime'
p19
g14
(S'\x07\xd5\x02\x0e\x13\x15\x1e\x00\x00\x00'
p20
tp21
Rp22
sS'phonenumber_oid'
p23
L3174L
s.(dp0
S'status'
p1
S''
p2
sS'direction'
p3
S'Outgoing'
p4
sS'remote'
p5
g2
sS'description'
p6
S'Voice Call'
p7
sS'callid'
p8
L1231L
sS'oid'
p9
L799372L
sS'number'
p10
g2
sS'person_oid'
p11
L82L
sS'contact'
p12
L169L
sS'starttime'
p13
cdatetime
datetime
p14
(S'\x07\xd5\x02\x10\x15\x007\x00\x00\x00'
p15
tp16
Rp17
sS'duration'
p18
L121L
sS'endtime'
p19
g14
(S'\x07\xd5\x02\x10\x15\x028\x00\x00\x00'
p20
tp21
Rp22
sS'phonenumber_oid'
p23
L3175L
s.(dp0
S'status'
p1
S''
p2
sS'direction'
p3
S'Outgoing'
p4
sS'remote'
p5
g2
sS'description'
p6
S'Voice Call'
p7
sS'callid'
p8
L1231L
sS'oid'
p9
L799373L
sS'number'
p10
g2
sS'person_oid'
p11
L82L
sS'contact'
p12
L169L
sS'starttime'
p13
cdatetime
datetime
p14
(S'\x07\xd5\x02\x10\x15\x007\x00\x00\x00'
p15
tp16
Rp17
sS'duration'
p18
L121L
sS'endtime'
p19
g14
(S'\x07\xd5\x02\x10\x15\x028\x00\x00\x00'
p20
tp21
Rp22
sS'phonenumber_oid'
p23
L3175L
s.(dp0
S'status'
p1
S''
p2
sS'direction'
p3
S'Outgoing'
p4
sS'remote'
p5
g2
sS'description'
p6
S'Voice Call'
p7
sS'callid'
p8
L1234L
sS'oid'
p9
L799374L
sS'number'
p10
g2
sS'person_oid'
p11
L82L
sS'contact'
p12
L178L
sS'starttime'
p13
cdatetime
datetime
p14
(S'\x07\xd5\x02\x12\x0f\x0f\x1d\x00\x00\x00'
p15
tp16
Rp17
sS'duration'
p18
L43L
sS'endtime'
p19
g14
(S'\x07\xd5\x02\x12\x0f\x10\x0c\x00\x00\x00'
p20
tp21
Rp22
sS'phonenumber_oid'
p23
L3180L
s.(dp0
S'status'
p1
S''
p2
sS'direction'
p3
S'Outgoing'
p4
sS'remote'
p5
g2
sS'description'
p6
S'Voice Call'
p7
sS'callid'
p8
L1234L
sS'oid'
p9
L799375L
sS'number'
p10
g2
sS'person_oid'
p11
L82L
sS'contact'
p12
L178L
sS'starttime'
p13
cdatetime
datetime
p14
(S'\x07\xd5\x02\x12\x0f\x0f\x1d\x00\x00\x00'
p15
tp16
Rp17
sS'duration'
p18
L43L
sS'endtime'
p19
g14
(S'\x07\xd5\x02\x12\x0f\x10\x0c\x00\x00\x00'
p20
tp21
Rp22
sS'phonenumber_oid'
p23
L3180L
s.(dp0
S'status'
p1
S''
p2
sS'direction'
p3
S'Outgoing'
p4
sS'remote'
p5
g2
sS'description'
p6
S'Voice Call'
p7
sS'callid'
p8
L1240L
sS'oid'
p9
L799376L
sS'number'
p10
g2
sS'person_oid'
p11
L82L
sS'contact'
p12
L162L
sS'starttime'
p13
cdatetime
datetime
p14
(S'\x07\xd5\x02\x13\x13\x0e1\x00\x00\x00'
p15
tp16
Rp17
sS'duration'
p18
L34L
sS'endtime'
p19
g14
(S'\x07\xd5\x02\x13\x13\x0f\x17\x00\x00\x00'
p20
tp21
Rp22
sS'phonenumber_oid'
p23
L3170L
s.(dp0
S'status'
p1
S''
p2
sS'direction'
p3
S'Incoming'
p4
sS'remote'
p5
g2
sS'description'
p6
S'Voice Call'
p7
sS'callid'
p8
L1242L
sS'oid'
p9
L799377L
sS'number'
p10
g2
sS'person_oid'
p11
L82L
sS'contact'
p12
L162L
sS'starttime'
p13
cdatetime
datetime
p14
(S'\x07\xd5\x02\x13\x13;\x0b\x00\x00\x00'
p15
tp16
Rp17
sS'duration'
p18
L32L
sS'endtime'
p19
g14
(S'\x07\xd5\x02\x13\x13;+\x00\x00\x00'
p20
tp21
Rp22
sS'phonenumber_oid'
p23
L3170L
s.(dp0
S'status'
p1
S''
p2
sS'direction'
p3
S'Outgoing'
p4
sS'remote'
p5
g2
sS'description'
p6
S'Voice Call'
p7
sS'callid'
p8
L1243L
sS'oid'
p9
L799378L
sS'number'
p10
g2
sS'person_oid'
p11
L82L
sS'contact'
p12
L168L
sS'starttime'
p13
cdatetime
datetime
p14
(S'\x07\xd5\x02\x13\x14\x00\x11\x00\x00\x00'
p15
tp16
Rp17
sS'duration'
p18
L59L
sS'endtime'
p19
g14
(S'\x07\xd5\x02\x13\x14\x01\x10\x00\x00\x00'
p20
tp21
Rp22
sS'phonenumber_oid'
p23
L2401L
s.(dp0
S'status'
p1
S''
p2
sS'direction'
p3
S'Incoming'
p4
sS'remote'
p5
g2
sS'description'
p6
S'Voice Call'
p7
sS'callid'
p8
L1247L
sS'oid'
p9
L799379L
sS'number'
p10
g2
sS'person_oid'
p11
L82L
sS'contact'
p12
L162L
sS'starttime'
p13
cdatetime
datetime
p14
(S"\x07\xd5\x02\x13\x144'\x00\x00\x00"
p15
tp16
Rp17
sS'duration'
p18
L11L
sS'endtime'
p19
g14
(S'\x07\xd5\x02\x13\x1442\x00\x00\x00'
p20
tp21
Rp22
sS'phonenumber_oid'
p23
L3170L
s.(dp0
S'status'
p1
S''
p2
sS'direction'
p3
S'Incoming'
p4
sS'remote'
p5
g2
sS'description'
p6
S'Voice Call'
p7
sS'callid'
p8
L1249L
sS'oid'
p9
L799380L
sS'number'
p10
g2
sS'person_oid'
p11
L82L
sS'contact'
p12
L162L
sS'starttime'
p13
cdatetime
datetime
p14
(S'\x07\xd5\x02\x13\x14;\x1f\x00\x00\x00'
p15
tp16
Rp17
sS'duration'
p18
L2L
sS'endtime'
p19
g14
(S'\x07\xd5\x02\x13\x14;!\x00\x00\x00'
p20
tp21
Rp22
sS'phonenumber_oid'
p23
L3170L
s.(dp0
S'status'
p1
S''
p2
sS'direction'
p3
S'Incoming'
p4
sS'remote'
p5
g2
sS'description'
p6
S'Voice Call'
p7
sS'callid'
p8
L1251L
sS'oid'
p9
L799381L
sS'number'
p10
g2
sS'person_oid'
p11
L82L
sS'contact'
p12
L162L
sS'starttime'
p13
cdatetime
datetime
p14
(S'\x07\xd5\x02\x13\x15\x02.\x00\x00\x00'
p15
tp16
Rp17
sS'duration'
p18
L4L
sS'endtime'
p19
g14
(S'\x07\xd5\x02\x13\x15\x022\x00\x00\x00'
p20
tp21
Rp22
sS'phonenumber_oid'
p23
L3170L
s.(dp0
S'status'
p1
S''
p2
sS'direction'
p3
S'Incoming'
p4
sS'remote'
p5
g2
sS'description'
p6
S'Voice Call'
p7
sS'callid'
p8
L1253L
sS'oid'
p9
L799382L
sS'number'
p10
g2
sS'person_oid'
p11
L82L
sS'contact'
p12
L169L
sS'starttime'
p13
cdatetime
datetime
p14
(S'\x07\xd5\x02\x13\x17\x102\x00\x00\x00'
p15
tp16
Rp17
sS'duration'
p18
L56L
sS'endtime'
p19
g14
(S'\x07\xd5\x02\x13\x17\x11.\x00\x00\x00'
p20
tp21
Rp22
sS'phonenumber_oid'
p23
L3175L
s.(dp0
S'status'
p1
S''
p2
sS'direction'
p3
S'Incoming'
p4
sS'remote'
p5
g2
sS'description'
p6
S'Voice Call'
p7
sS'callid'
p8
L1256L
sS'oid'
p9
L799383L
sS'number'
p10
g2
sS'person_oid'
p11
L82L
sS'contact'
p12
L187L
sS'starttime'
p13
cdatetime
datetime
p14
(S'\x07\xd5\x02\x14\t6\x02\x00\x00\x00'
p15
tp16
Rp17
sS'duration'
p18
L76L
sS'endtime'
p19
g14
(S'\x07\xd5\x02\x14\t7\x12\x00\x00\x00'
p20
tp21
Rp22
sS'phonenumber_oid'
p23
L3189L
s.(dp0
S'status'
p1
S''
p2
sS'direction'
p3
S'Incoming'
p4
sS'remote'
p5
g2
sS'description'
p6
S'Voice Call'
p7
sS'callid'
p8
L1258L
sS'oid'
p9
L799384L
sS'number'
p10
g2
sS'person_oid'
p11
L82L
sS'contact'
p12
L162L
sS'starttime'
p13
cdatetime
datetime
p14
(S'\x07\xd5\x02\x14\x0c#\x0e\x00\x00\x00'
p15
tp16
Rp17
sS'duration'
p18
L6L
sS'endtime'
p19
g14
(S'\x07\xd5\x02\x14\x0c#\x14\x00\x00\x00'
p20
tp21
Rp22
sS'phonenumber_oid'
p23
L3170L
s.(dp0
S'status'
p1
S''
p2
sS'direction'
p3
S'Incoming'
p4
sS'remote'
p5
g2
sS'description'
p6
S'Voice Call'
p7
sS'callid'
p8
L1266L
sS'oid'
p9
L799385L
sS'number'
p10
g2
sS'person_oid'
p11
L82L
sS'contact'
p12
L187L
sS'starttime'
p13
cdatetime
datetime
p14
(S'\x07\xd5\x02\x14\x10.0\x00\x00\x00'
p15
tp16
Rp17
sS'duration'
p18
L29L
sS'endtime'
p19
g14
(S'\x07\xd5\x02\x14\x10/\x11\x00\x00\x00'
p20
tp21
Rp22
sS'phonenumber_oid'
p23
L3189L
s.(dp0
S'status'
p1
S''
p2
sS'direction'
p3
S'Incoming'
p4
sS'remote'
p5
g2
sS'description'
p6
S'Voice Call'
p7
sS'callid'
p8
L1268L
sS'oid'
p9
L799386L
sS'number'
p10
g2
sS'person_oid'
p11
L82L
sS'contact'
p12
L168L
sS'starttime'
p13
cdatetime
datetime
p14
(S'\x07\xd5\x02\x14\x116\x03\x00\x00\x00'
p15
tp16
Rp17
sS'duration'
p18
L70L
sS'endtime'
p19
g14
(S'\x07\xd5\x02\x14\x117\r\x00\x00\x00'
p20
tp21
Rp22
sS'phonenumber_oid'
p23
L2401L
s.(dp0
S'status'
p1
S''
p2
sS'direction'
p3
S'Outgoing'
p4
sS'remote'
p5
g2
sS'description'
p6
S'Voice Call'
p7
sS'callid'
p8
L1269L
sS'oid'
p9
L799387L
sS'number'
p10
g2
sS'person_oid'
p11
L82L
sS'contact'
p12
L162L
sS'starttime'
p13
cdatetime
datetime
p14
(S'\x07\xd5\x02\x14\x12\x0b\t\x00\x00\x00'
p15
tp16
Rp17
sS'duration'
p18
L18L
sS'endtime'
p19
g14
(S'\x07\xd5\x02\x14\x12\x0b\x1b\x00\x00\x00'
p20
tp21
Rp22
sS'phonenumber_oid'
p23
L3170L
s.(dp0
S'status'
p1
S''
p2
sS'direction'
p3
S'Outgoing'
p4
sS'remote'
p5
g2
sS'description'
p6
S'Voice Call'
p7
sS'callid'
p8
L1270L
sS'oid'
p9
L799388L
sS'number'
p10
g2
sS'person_oid'
p11
L82L
sS'contact'
p12
L162L
sS'starttime'
p13
cdatetime
datetime
p14
(S'\x07\xd5\x02\x14\x13\x06\x17\x00\x00\x00'
p15
tp16
Rp17
sS'duration'
p18
L18L
sS'endtime'
p19
g14
(S'\x07\xd5\x02\x14\x13\x06)\x00\x00\x00'
p20
tp21
Rp22
sS'phonenumber_oid'
p23
L3170L
s.(dp0
S'status'
p1
S''
p2
sS'direction'
p3
S'Incoming'
p4
sS'remote'
p5
g2
sS'description'
p6
S'Voice Call'
p7
sS'callid'
p8
L1272L
sS'oid'
p9
L799389L
sS'number'
p10
g2
sS'person_oid'
p11
L82L
sS'contact'
p12
L162L
sS'starttime'
p13
cdatetime
datetime
p14
(S'\x07\xd5\x02\x14\x13\x0f!\x00\x00\x00'
p15
tp16
Rp17
sS'duration'
p18
L4L
sS'endtime'
p19
g14
(S'\x07\xd5\x02\x14\x13\x0f%\x00\x00\x00'
p20
tp21
Rp22
sS'phonenumber_oid'
p23
L3170L
s.(dp0
S'status'
p1
S''
p2
sS'direction'
p3
S'Incoming'
p4
sS'remote'
p5
g2
sS'description'
p6
S'Voice Call'
p7
sS'callid'
p8
L1277L
sS'oid'
p9
L799390L
sS'number'
p10
g2
sS'person_oid'
p11
L82L
sS'contact'
p12
L168L
sS'starttime'
p13
cdatetime
datetime
p14
(S'\x07\xd5\x02\x15\x0b.\x1f\x00\x00\x00'
p15
tp16
Rp17
sS'duration'
p18
L11L
sS'endtime'
p19
g14
(S'\x07\xd5\x02\x15\x0b.*\x00\x00\x00'
p20
tp21
Rp22
sS'phonenumber_oid'
p23
L2401L
s.(dp0
S'status'
p1
S''
p2
sS'direction'
p3
S'Incoming'
p4
sS'remote'
p5
g2
sS'description'
p6
S'Voice Call'
p7
sS'callid'
p8
L1277L
sS'oid'
p9
L799391L
sS'number'
p10
g2
sS'person_oid'
p11
L82L
sS'contact'
p12
L168L
sS'starttime'
p13
cdatetime
datetime
p14
(S'\x07\xd5\x02\x15\x0b.\x1f\x00\x00\x00'
p15
tp16
Rp17
sS'duration'
p18
L11L
sS'endtime'
p19
g14
(S'\x07\xd5\x02\x15\x0b.*\x00\x00\x00'
p20
tp21
Rp22
sS'phonenumber_oid'
p23
L2401L
s.(dp0
S'status'
p1
S''
p2
sS'direction'
p3
S'Missed Call'
p4
sS'remote'
p5
g2
sS'description'
p6
S'Voice Call'
p7
sS'callid'
p8
L1280L
sS'oid'
p9
L799392L
sS'number'
p10
g2
sS'person_oid'
p11
L82L
sS'contact'
p12
L-1L
sS'starttime'
p13
cdatetime
datetime
p14
(S'\x07\xd5\x02\x17\x13+\x05\x00\x00\x00'
p15
tp16
Rp17
sS'duration'
p18
L0L
sS'endtime'
p19
g14
(S'\x07\xd5\x02\x17\x13+\x05\x00\x00\x00'
p20
tp21
Rp22
sS'phonenumber_oid'
p23
L3L
s.(dp0
S'status'
p1
S''
p2
sS'direction'
p3
S'Missed Call'
p4
sS'remote'
p5
g2
sS'description'
p6
S'Voice Call'
p7
sS'callid'
p8
L1280L
sS'oid'
p9
L799396L
sS'number'
p10
g2
sS'person_oid'
p11
L82L
sS'contact'
p12
L-1L
sS'starttime'
p13
cdatetime
datetime
p14
(S'\x07\xd5\x02\x17\x13+\x05\x00\x00\x00'
p15
tp16
Rp17
sS'duration'
p18
L0L
sS'endtime'
p19
g14
(S'\x07\xd5\x02\x17\x13+\x05\x00\x00\x00'
p20
tp21
Rp22
sS'phonenumber_oid'
p23
L3L
s.(dp0
S'status'
p1
S''
p2
sS'direction'
p3
S'Missed Call'
p4
sS'remote'
p5
g2
sS'description'
p6
S'Voice Call'
p7
sS'callid'
p8
L1281L
sS'oid'
p9
L799393L
sS'number'
p10
g2
sS'person_oid'
p11
L82L
sS'contact'
p12
L162L
sS'starttime'
p13
cdatetime
datetime
p14
(S"\x07\xd5\x02\x17\x15'7\x00\x00\x00"
p15
tp16
Rp17
sS'duration'
p18
L0L
sS'endtime'
p19
g14
(S"\x07\xd5\x02\x17\x15'7\x00\x00\x00"
p20
tp21
Rp22
sS'phonenumber_oid'
p23
L3170L
s.(dp0
S'status'
p1
S''
p2
sS'direction'
p3
S'Missed Call'
p4
sS'remote'
p5
g2
sS'description'
p6
S'Voice Call'
p7
sS'callid'
p8
L1281L
sS'oid'
p9
L799397L
sS'number'
p10
g2
sS'person_oid'
p11
L82L
sS'contact'
p12
L162L
sS'starttime'
p13
cdatetime
datetime
p14
(S"\x07\xd5\x02\x17\x15'7\x00\x00\x00"
p15
tp16
Rp17
sS'duration'
p18
L0L
sS'endtime'
p19
g14
(S"\x07\xd5\x02\x17\x15'7\x00\x00\x00"
p20
tp21
Rp22
sS'phonenumber_oid'
p23
L3170L
s.(dp0
S'status'
p1
S''
p2
sS'direction'
p3
S'Missed Call'
p4
sS'remote'
p5
g2
sS'description'
p6
S'Voice Call'
p7
sS'callid'
p8
L1282L
sS'oid'
p9
L799394L
sS'number'
p10
g2
sS'person_oid'
p11
L82L
sS'contact'
p12
L162L
sS'starttime'
p13
cdatetime
datetime
p14
(S'\x07\xd5\x02\x17\x15-\x16\x00\x00\x00'
p15
tp16
Rp17
sS'duration'
p18
L0L
sS'endtime'
p19
g14
(S'\x07\xd5\x02\x17\x15-\x16\x00\x00\x00'
p20
tp21
Rp22
sS'phonenumber_oid'
p23
L3170L
s.(dp0
S'status'
p1
S''
p2
sS'direction'
p3
S'Missed Call'
p4
sS'remote'
p5
g2
sS'description'
p6
S'Voice Call'
p7
sS'callid'
p8
L1282L
sS'oid'
p9
L799398L
sS'number'
p10
g2
sS'person_oid'
p11
L82L
sS'contact'
p12
L162L
sS'starttime'
p13
cdatetime
datetime
p14
(S'\x07\xd5\x02\x17\x15-\x16\x00\x00\x00'
p15
tp16
Rp17
sS'duration'
p18
L0L
sS'endtime'
p19
g14
(S'\x07\xd5\x02\x17\x15-\x16\x00\x00\x00'
p20
tp21
Rp22
sS'phonenumber_oid'
p23
L3170L
s.(dp0
S'status'
p1
S''
p2
sS'direction'
p3
S'Outgoing'
p4
sS'remote'
p5
g2
sS'description'
p6
S'Voice Call'
p7
sS'callid'
p8
L1283L
sS'oid'
p9
L799395L
sS'number'
p10
g2
sS'person_oid'
p11
L82L
sS'contact'
p12
L162L
sS'starttime'
p13
cdatetime
datetime
p14
(S'\x07\xd5\x02\x17\x15.\x0c\x00\x00\x00'
p15
tp16
Rp17
sS'duration'
p18
L33L
sS'endtime'
p19
g14
(S'\x07\xd5\x02\x17\x15.-\x00\x00\x00'
p20
tp21
Rp22
sS'phonenumber_oid'
p23
L3170L
s.(dp0
S'status'
p1
S''
p2
sS'direction'
p3
S'Outgoing'
p4
sS'remote'
p5
g2
sS'description'
p6
S'Voice Call'
p7
sS'callid'
p8
L1283L
sS'oid'
p9
L799399L
sS'number'
p10
g2
sS'person_oid'
p11
L82L
sS'contact'
p12
L162L
sS'starttime'
p13
cdatetime
datetime
p14
(S'\x07\xd5\x02\x17\x15.\x0c\x00\x00\x00'
p15
tp16
Rp17
sS'duration'
p18
L33L
sS'endtime'
p19
g14
(S'\x07\xd5\x02\x17\x15.-\x00\x00\x00'
p20
tp21
Rp22
sS'phonenumber_oid'
p23
L3170L
s.(dp0
S'status'
p1
S''
p2
sS'direction'
p3
S'Incoming'
p4
sS'remote'
p5
g2
sS'description'
p6
S'Voice Call'
p7
sS'callid'
p8
L1287L
sS'oid'
p9
L799400L
sS'number'
p10
g2
sS'person_oid'
p11
L82L
sS'contact'
p12
L162L
sS'starttime'
p13
cdatetime
datetime
p14
(S'\x07\xd5\x02\x18\x15\t\x1d\x00\x00\x00'
p15
tp16
Rp17
sS'duration'
p18
L117L
sS'endtime'
p19
g14
(S'\x07\xd5\x02\x18\x15\x0b\x1a\x00\x00\x00'
p20
tp21
Rp22
sS'phonenumber_oid'
p23
L3170L
s.(dp0
S'status'
p1
S''
p2
sS'direction'
p3
S'Incoming'
p4
sS'remote'
p5
g2
sS'description'
p6
S'Voice Call'
p7
sS'callid'
p8
L1287L
sS'oid'
p9
L799401L
sS'number'
p10
g2
sS'person_oid'
p11
L82L
sS'contact'
p12
L162L
sS'starttime'
p13
cdatetime
datetime
p14
(S'\x07\xd5\x02\x18\x15\t\x1d\x00\x00\x00'
p15
tp16
Rp17
sS'duration'
p18
L117L
sS'endtime'
p19
g14
(S'\x07\xd5\x02\x18\x15\x0b\x1a\x00\x00\x00'
p20
tp21
Rp22
sS'phonenumber_oid'
p23
L3170L
s.(dp0
S'status'
p1
S''
p2
sS'direction'
p3
S'Incoming'
p4
sS'remote'
p5
g2
sS'description'
p6
S'Voice Call'
p7
sS'callid'
p8
L1289L
sS'oid'
p9
L799402L
sS'number'
p10
g2
sS'person_oid'
p11
L82L
sS'contact'
p12
L162L
sS'starttime'
p13
cdatetime
datetime
p14
(S'\x07\xd5\x02\x19\x13\x0f&\x00\x00\x00'
p15
tp16
Rp17
sS'duration'
p18
L98L
sS'endtime'
p19
g14
(S'\x07\xd5\x02\x19\x13\x11\x10\x00\x00\x00'
p20
tp21
Rp22
sS'phonenumber_oid'
p23
L3170L
s.(dp0
S'status'
p1
S''
p2
sS'direction'
p3
S'Incoming'
p4
sS'remote'
p5
g2
sS'description'
p6
S'Voice Call'
p7
sS'callid'
p8
L1289L
sS'oid'
p9
L799405L
sS'number'
p10
g2
sS'person_oid'
p11
L82L
sS'contact'
p12
L162L
sS'starttime'
p13
cdatetime
datetime
p14
(S'\x07\xd5\x02\x19\x13\x0f&\x00\x00\x00'
p15
tp16
Rp17
sS'duration'
p18
L98L
sS'endtime'
p19
g14
(S'\x07\xd5\x02\x19\x13\x11\x10\x00\x00\x00'
p20
tp21
Rp22
sS'phonenumber_oid'
p23
L3170L
s.(dp0
S'status'
p1
S''
p2
sS'direction'
p3
S'Outgoing'
p4
sS'remote'
p5
g2
sS'description'
p6
S'Voice Call'
p7
sS'callid'
p8
L1290L
sS'oid'
p9
L799403L
sS'number'
p10
g2
sS'person_oid'
p11
L82L
sS'contact'
p12
L162L
sS'starttime'
p13
cdatetime
datetime
p14
(S'\x07\xd5\x02\x19\x14$)\x00\x00\x00'
p15
tp16
Rp17
sS'duration'
p18
L0L
sS'endtime'
p19
g14
(S'\x07\xd5\x02\x19\x14$)\x00\x00\x00'
p20
tp21
Rp22
sS'phonenumber_oid'
p23
L3170L
s.(dp0
S'status'
p1
S''
p2
sS'direction'
p3
S'Outgoing'
p4
sS'remote'
p5
g2
sS'description'
p6
S'Voice Call'
p7
sS'callid'
p8
L1290L
sS'oid'
p9
L799406L
sS'number'
p10
g2
sS'person_oid'
p11
L82L
sS'contact'
p12
L162L
sS'starttime'
p13
cdatetime
datetime
p14
(S'\x07\xd5\x02\x19\x14$)\x00\x00\x00'
p15
tp16
Rp17
sS'duration'
p18
L0L
sS'endtime'
p19
g14
(S'\x07\xd5\x02\x19\x14$)\x00\x00\x00'
p20
tp21
Rp22
sS'phonenumber_oid'
p23
L3170L
s.(dp0
S'status'
p1
S''
p2
sS'direction'
p3
S'Outgoing'
p4
sS'remote'
p5
g2
sS'description'
p6
S'Voice Call'
p7
sS'callid'
p8
L1291L
sS'oid'
p9
L799404L
sS'number'
p10
g2
sS'person_oid'
p11
L82L
sS'contact'
p12
L162L
sS'starttime'
p13
cdatetime
datetime
p14
(S'\x07\xd5\x02\x19\x14%%\x00\x00\x00'
p15
tp16
Rp17
sS'duration'
p18
L22L
sS'endtime'
p19
g14
(S'\x07\xd5\x02\x19\x14%;\x00\x00\x00'
p20
tp21
Rp22
sS'phonenumber_oid'
p23
L3170L
s.(dp0
S'status'
p1
S''
p2
sS'direction'
p3
S'Outgoing'
p4
sS'remote'
p5
g2
sS'description'
p6
S'Voice Call'
p7
sS'callid'
p8
L1291L
sS'oid'
p9
L799407L
sS'number'
p10
g2
sS'person_oid'
p11
L82L
sS'contact'
p12
L162L
sS'starttime'
p13
cdatetime
datetime
p14
(S'\x07\xd5\x02\x19\x14%%\x00\x00\x00'
p15
tp16
Rp17
sS'duration'
p18
L22L
sS'endtime'
p19
g14
(S'\x07\xd5\x02\x19\x14%;\x00\x00\x00'
p20
tp21
Rp22
sS'phonenumber_oid'
p23
L3170L
s.(dp0
S'status'
p1
S''
p2
sS'direction'
p3
S'Outgoing'
p4
sS'remote'
p5
g2
sS'description'
p6
S'Voice Call'
p7
sS'callid'
p8
L1292L
sS'oid'
p9
L799408L
sS'number'
p10
g2
sS'person_oid'
p11
L82L
sS'contact'
p12
L162L
sS'starttime'
p13
cdatetime
datetime
p14
(S'\x07\xd5\x02\x1a\x12\x01\x0c\x00\x00\x00'
p15
tp16
Rp17
sS'duration'
p18
L7L
sS'endtime'
p19
g14
(S'\x07\xd5\x02\x1a\x12\x01\x13\x00\x00\x00'
p20
tp21
Rp22
sS'phonenumber_oid'
p23
L3170L
s.(dp0
S'status'
p1
S''
p2
sS'direction'
p3
S'Outgoing'
p4
sS'remote'
p5
g2
sS'description'
p6
S'Voice Call'
p7
sS'callid'
p8
L1292L
sS'oid'
p9
L799413L
sS'number'
p10
g2
sS'person_oid'
p11
L82L
sS'contact'
p12
L162L
sS'starttime'
p13
cdatetime
datetime
p14
(S'\x07\xd5\x02\x1a\x12\x01\x0c\x00\x00\x00'
p15
tp16
Rp17
sS'duration'
p18
L7L
sS'endtime'
p19
g14
(S'\x07\xd5\x02\x1a\x12\x01\x13\x00\x00\x00'
p20
tp21
Rp22
sS'phonenumber_oid'
p23
L3170L
s.(dp0
S'status'
p1
S''
p2
sS'direction'
p3
S'Incoming'
p4
sS'remote'
p5
g2
sS'description'
p6
S'Voice Call'
p7
sS'callid'
p8
L1294L
sS'oid'
p9
L799409L
sS'number'
p10
g2
sS'person_oid'
p11
L82L
sS'contact'
p12
L162L
sS'starttime'
p13
cdatetime
datetime
p14
(S'\x07\xd5\x02\x1a\x14!\x1a\x00\x00\x00'
p15
tp16
Rp17
sS'duration'
p18
L6L
sS'endtime'
p19
g14
(S'\x07\xd5\x02\x1a\x14! \x00\x00\x00'
p20
tp21
Rp22
sS'phonenumber_oid'
p23
L3170L
s.(dp0
S'status'
p1
S''
p2
sS'direction'
p3
S'Incoming'
p4
sS'remote'
p5
g2
sS'description'
p6
S'Voice Call'
p7
sS'callid'
p8
L1294L
sS'oid'
p9
L799414L
sS'number'
p10
g2
sS'person_oid'
p11
L82L
sS'contact'
p12
L162L
sS'starttime'
p13
cdatetime
datetime
p14
(S'\x07\xd5\x02\x1a\x14!\x1a\x00\x00\x00'
p15
tp16
Rp17
sS'duration'
p18
L6L
sS'endtime'
p19
g14
(S'\x07\xd5\x02\x1a\x14! \x00\x00\x00'
p20
tp21
Rp22
sS'phonenumber_oid'
p23
L3170L
s.(dp0
S'status'
p1
S''
p2
sS'direction'
p3
S'Outgoing'
p4
sS'remote'
p5
g2
sS'description'
p6
S'Voice Call'
p7
sS'callid'
p8
L1295L
sS'oid'
p9
L799410L
sS'number'
p10
g2
sS'person_oid'
p11
L82L
sS'contact'
p12
L165L
sS'starttime'
p13
cdatetime
datetime
p14
(S'\x07\xd5\x02\x1a\x14-/\x00\x00\x00'
p15
tp16
Rp17
sS'duration'
p18
L72L
sS'endtime'
p19
g14
(S'\x07\xd5\x02\x1a\x14.;\x00\x00\x00'
p20
tp21
Rp22
sS'phonenumber_oid'
p23
L3172L
s.(dp0
S'status'
p1
S''
p2
sS'direction'
p3
S'Outgoing'
p4
sS'remote'
p5
g2
sS'description'
p6
S'Voice Call'
p7
sS'callid'
p8
L1295L
sS'oid'
p9
L799415L
sS'number'
p10
g2
sS'person_oid'
p11
L82L
sS'contact'
p12
L165L
sS'starttime'
p13
cdatetime
datetime
p14
(S'\x07\xd5\x02\x1a\x14-/\x00\x00\x00'
p15
tp16
Rp17
sS'duration'
p18
L72L
sS'endtime'
p19
g14
(S'\x07\xd5\x02\x1a\x14.;\x00\x00\x00'
p20
tp21
Rp22
sS'phonenumber_oid'
p23
L3172L
s.(dp0
S'status'
p1
S''
p2
sS'direction'
p3
S'Incoming'
p4
sS'remote'
p5
g2
sS'description'
p6
S'Voice Call'
p7
sS'callid'
p8
L1297L
sS'oid'
p9
L799411L
sS'number'
p10
g2
sS'person_oid'
p11
L82L
sS'contact'
p12
L168L
sS'starttime'
p13
cdatetime
datetime
p14
(S'\x07\xd5\x02\x1a\x15#\x1f\x00\x00\x00'
p15
tp16
Rp17
sS'duration'
p18
L169L
sS'endtime'
p19
g14
(S'\x07\xd5\x02\x1a\x15&\x14\x00\x00\x00'
p20
tp21
Rp22
sS'phonenumber_oid'
p23
L2401L
s.(dp0
S'status'
p1
S''
p2
sS'direction'
p3
S'Incoming'
p4
sS'remote'
p5
g2
sS'description'
p6
S'Voice Call'
p7
sS'callid'
p8
L1297L
sS'oid'
p9
L799416L
sS'number'
p10
g2
sS'person_oid'
p11
L82L
sS'contact'
p12
L168L
sS'starttime'
p13
cdatetime
datetime
p14
(S'\x07\xd5\x02\x1a\x15#\x1f\x00\x00\x00'
p15
tp16
Rp17
sS'duration'
p18
L169L
sS'endtime'
p19
g14
(S'\x07\xd5\x02\x1a\x15&\x14\x00\x00\x00'
p20
tp21
Rp22
sS'phonenumber_oid'
p23
L2401L
s.(dp0
S'status'
p1
S''
p2
sS'direction'
p3
S'Outgoing'
p4
sS'remote'
p5
g2
sS'description'
p6
S'Voice Call'
p7
sS'callid'
p8
L1298L
sS'oid'
p9
L799412L
sS'number'
p10
g2
sS'person_oid'
p11
L82L
sS'contact'
p12
L169L
sS'starttime'
p13
cdatetime
datetime
p14
(S'\x07\xd5\x02\x1a\x15*"\x00\x00\x00'
p15
tp16
Rp17
sS'duration'
p18
L173L
sS'endtime'
p19
g14
(S'\x07\xd5\x02\x1a\x15-\x1b\x00\x00\x00'
p20
tp21
Rp22
sS'phonenumber_oid'
p23
L3175L
s.(dp0
S'status'
p1
S''
p2
sS'direction'
p3
S'Outgoing'
p4
sS'remote'
p5
g2
sS'description'
p6
S'Voice Call'
p7
sS'callid'
p8
L1298L
sS'oid'
p9
L799417L
sS'number'
p10
g2
sS'person_oid'
p11
L82L
sS'contact'
p12
L169L
sS'starttime'
p13
cdatetime
datetime
p14
(S'\x07\xd5\x02\x1a\x15*"\x00\x00\x00'
p15
tp16
Rp17
sS'duration'
p18
L173L
sS'endtime'
p19
g14
(S'\x07\xd5\x02\x1a\x15-\x1b\x00\x00\x00'
p20
tp21
Rp22
sS'phonenumber_oid'
p23
L3175L
s.(dp0
S'status'
p1
S''
p2
sS'direction'
p3
S'Missed Call'
p4
sS'remote'
p5
g2
sS'description'
p6
S'Voice Call'
p7
sS'callid'
p8
L1301L
sS'oid'
p9
L799418L
sS'number'
p10
g2
sS'person_oid'
p11
L82L
sS'contact'
p12
L165L
sS'starttime'
p13
cdatetime
datetime
p14
(S'\x07\xd5\x02\x1b\x0b\t9\x00\x00\x00'
p15
tp16
Rp17
sS'duration'
p18
L0L
sS'endtime'
p19
g14
(S'\x07\xd5\x02\x1b\x0b\t9\x00\x00\x00'
p20
tp21
Rp22
sS'phonenumber_oid'
p23
L3172L
s.(dp0
S'status'
p1
S''
p2
sS'direction'
p3
S'Missed Call'
p4
sS'remote'
p5
g2
sS'description'
p6
S'Voice Call'
p7
sS'callid'
p8
L1301L
sS'oid'
p9
L799429L
sS'number'
p10
g2
sS'person_oid'
p11
L82L
sS'contact'
p12
L165L
sS'starttime'
p13
cdatetime
datetime
p14
(S'\x07\xd5\x02\x1b\x0b\t9\x00\x00\x00'
p15
tp16
Rp17
sS'duration'
p18
L0L
sS'endtime'
p19
g14
(S'\x07\xd5\x02\x1b\x0b\t9\x00\x00\x00'
p20
tp21
Rp22
sS'phonenumber_oid'
p23
L3172L
s.(dp0
S'status'
p1
S''
p2
sS'direction'
p3
S'Outgoing'
p4
sS'remote'
p5
g2
sS'description'
p6
S'Voice Call'
p7
sS'callid'
p8
L1308L
sS'oid'
p9
L799419L
sS'number'
p10
g2
sS'person_oid'
p11
L82L
sS'contact'
p12
L165L
sS'starttime'
p13
cdatetime
datetime
p14
(S'\x07\xd5\x02\x1b\x0b\x13\x10\x00\x00\x00'
p15
tp16
Rp17
sS'duration'
p18
L33L
sS'endtime'
p19
g14
(S'\x07\xd5\x02\x1b\x0b\x131\x00\x00\x00'
p20
tp21
Rp22
sS'phonenumber_oid'
p23
L3172L
s.(dp0
S'status'
p1
S''
p2
sS'direction'
p3
S'Outgoing'
p4
sS'remote'
p5
g2
sS'description'
p6
S'Voice Call'
p7
sS'callid'
p8
L1308L
sS'oid'
p9
L799430L
sS'number'
p10
g2
sS'person_oid'
p11
L82L
sS'contact'
p12
L165L
sS'starttime'
p13
cdatetime
datetime
p14
(S'\x07\xd5\x02\x1b\x0b\x13\x10\x00\x00\x00'
p15
tp16
Rp17
sS'duration'
p18
L33L
sS'endtime'
p19
g14
(S'\x07\xd5\x02\x1b\x0b\x131\x00\x00\x00'
p20
tp21
Rp22
sS'phonenumber_oid'
p23
L3172L
s.(dp0
S'status'
p1
S''
p2
sS'direction'
p3
S'Outgoing'
p4
sS'remote'
p5
g2
sS'description'
p6
S'Voice Call'
p7
sS'callid'
p8
L1309L
sS'oid'
p9
L799420L
sS'number'
p10
g2
sS'person_oid'
p11
L82L
sS'contact'
p12
L162L
sS'starttime'
p13
cdatetime
datetime
p14
(S'\x07\xd5\x02\x1b\x0b\x145\x00\x00\x00'
p15
tp16
Rp17
sS'duration'
p18
L7L
sS'endtime'
p19
g14
(S'\x07\xd5\x02\x1b\x0b\x15\x00\x00\x00\x00'
p20
tp21
Rp22
sS'phonenumber_oid'
p23
L3170L
s.(dp0
S'status'
p1
S''
p2
sS'direction'
p3
S'Outgoing'
p4
sS'remote'
p5
g2
sS'description'
p6
S'Voice Call'
p7
sS'callid'
p8
L1309L
sS'oid'
p9
L799431L
sS'number'
p10
g2
sS'person_oid'
p11
L82L
sS'contact'
p12
L162L
sS'starttime'
p13
cdatetime
datetime
p14
(S'\x07\xd5\x02\x1b\x0b\x145\x00\x00\x00'
p15
tp16
Rp17
sS'duration'
p18
L7L
sS'endtime'
p19
g14
(S'\x07\xd5\x02\x1b\x0b\x15\x00\x00\x00\x00'
p20
tp21
Rp22
sS'phonenumber_oid'
p23
L3170L
s.(dp0
S'status'
p1
S''
p2
sS'direction'
p3
S'Incoming'
p4
sS'remote'
p5
g2
sS'description'
p6
S'Voice Call'
p7
sS'callid'
p8
L1311L
sS'oid'
p9
L799421L
sS'number'
p10
g2
sS'person_oid'
p11
L82L
sS'contact'
p12
L162L
sS'starttime'
p13
cdatetime
datetime
p14
(S'\x07\xd5\x02\x1b\x0b\x1f!\x00\x00\x00'
p15
tp16
Rp17
sS'duration'
p18
L29L
sS'endtime'
p19
g14
(S'\x07\xd5\x02\x1b\x0b \x02\x00\x00\x00'
p20
tp21
Rp22
sS'phonenumber_oid'
p23
L3170L
s.(dp0
S'status'
p1
S''
p2
sS'direction'
p3
S'Incoming'
p4
sS'remote'
p5
g2
sS'description'
p6
S'Voice Call'
p7
sS'callid'
p8
L1311L
sS'oid'
p9
L799432L
sS'number'
p10
g2
sS'person_oid'
p11
L82L
sS'contact'
p12
L162L
sS'starttime'
p13
cdatetime
datetime
p14
(S'\x07\xd5\x02\x1b\x0b\x1f!\x00\x00\x00'
p15
tp16
Rp17
sS'duration'
p18
L29L
sS'endtime'
p19
g14
(S'\x07\xd5\x02\x1b\x0b \x02\x00\x00\x00'
p20
tp21
Rp22
sS'phonenumber_oid'
p23
L3170L
s.(dp0
S'status'
p1
S''
p2
sS'direction'
p3
S'Incoming'
p4
sS'remote'
p5
g2
sS'description'
p6
S'Voice Call'
p7
sS'callid'
p8
L1313L
sS'oid'
p9
L799422L
sS'number'
p10
g2
sS'person_oid'
p11
L82L
sS'contact'
p12
L165L
sS'starttime'
p13
cdatetime
datetime
p14
(S'\x07\xd5\x02\x1b\x0b 6\x00\x00\x00'
p15
tp16
Rp17
sS'duration'
p18
L48L
sS'endtime'
p19
g14
(S'\x07\xd5\x02\x1b\x0b!*\x00\x00\x00'
p20
tp21
Rp22
sS'phonenumber_oid'
p23
L3172L
s.(dp0
S'status'
p1
S''
p2
sS'direction'
p3
S'Incoming'
p4
sS'remote'
p5
g2
sS'description'
p6
S'Voice Call'
p7
sS'callid'
p8
L1313L
sS'oid'
p9
L799433L
sS'number'
p10
g2
sS'person_oid'
p11
L82L
sS'contact'
p12
L165L
sS'starttime'
p13
cdatetime
datetime
p14
(S'\x07\xd5\x02\x1b\x0b 6\x00\x00\x00'
p15
tp16
Rp17
sS'duration'
p18
L48L
sS'endtime'
p19
g14
(S'\x07\xd5\x02\x1b\x0b!*\x00\x00\x00'
p20
tp21
Rp22
sS'phonenumber_oid'
p23
L3172L
s.(dp0
S'status'
p1
S''
p2
sS'direction'
p3
S'Outgoing'
p4
sS'remote'
p5
g2
sS'description'
p6
S'Voice Call'
p7
sS'callid'
p8
L1314L
sS'oid'
p9
L799423L
sS'number'
p10
g2
sS'person_oid'
p11
L82L
sS'contact'
p12
L165L
sS'starttime'
p13
cdatetime
datetime
p14
(S'\x07\xd5\x02\x1b\x0b7/\x00\x00\x00'
p15
tp16
Rp17
sS'duration'
p18
L106L
sS'endtime'
p19
g14
(S'\x07\xd5\x02\x1b\x0b9!\x00\x00\x00'
p20
tp21
Rp22
sS'phonenumber_oid'
p23
L3172L
s.(dp0
S'status'
p1
S''
p2
sS'direction'
p3
S'Outgoing'
p4
sS'remote'
p5
g2
sS'description'
p6
S'Voice Call'
p7
sS'callid'
p8
L1314L
sS'oid'
p9
L799434L
sS'number'
p10
g2
sS'person_oid'
p11
L82L
sS'contact'
p12
L165L
sS'starttime'
p13
cdatetime
datetime
p14
(S'\x07\xd5\x02\x1b\x0b7/\x00\x00\x00'
p15
tp16
Rp17
sS'duration'
p18
L106L
sS'endtime'
p19
g14
(S'\x07\xd5\x02\x1b\x0b9!\x00\x00\x00'
p20
tp21
Rp22
sS'phonenumber_oid'
p23
L3172L
s.(dp0
S'status'
p1
S''
p2
sS'direction'
p3
S'Outgoing'
p4
sS'remote'
p5
g2
sS'description'
p6
S'Voice Call'
p7
sS'callid'
p8
L1319L
sS'oid'
p9
L799424L
sS'number'
p10
g2
sS'person_oid'
p11
L82L
sS'contact'
p12
L165L
sS'starttime'
p13
cdatetime
datetime
p14
(S'\x07\xd5\x02\x1b\x0c\x188\x00\x00\x00'
p15
tp16
Rp17
sS'duration'
p18
L20L
sS'endtime'
p19
g14
(S'\x07\xd5\x02\x1b\x0c\x19\x10\x00\x00\x00'
p20
tp21
Rp22
sS'phonenumber_oid'
p23
L3172L
s.(dp0
S'status'
p1
S''
p2
sS'direction'
p3
S'Outgoing'
p4
sS'remote'
p5
g2
sS'description'
p6
S'Voice Call'
p7
sS'callid'
p8
L1319L
sS'oid'
p9
L799435L
sS'number'
p10
g2
sS'person_oid'
p11
L82L
sS'contact'
p12
L165L
sS'starttime'
p13
cdatetime
datetime
p14
(S'\x07\xd5\x02\x1b\x0c\x188\x00\x00\x00'
p15
tp16
Rp17
sS'duration'
p18
L20L
sS'endtime'
p19
g14
(S'\x07\xd5\x02\x1b\x0c\x19\x10\x00\x00\x00'
p20
tp21
Rp22
sS'phonenumber_oid'
p23
L3172L
s.(dp0
S'status'
p1
S''
p2
sS'direction'
p3
S'Incoming'
p4
sS'remote'
p5
g2
sS'description'
p6
S'Voice Call'
p7
sS'callid'
p8
L1321L
sS'oid'
p9
L799425L
sS'number'
p10
g2
sS'person_oid'
p11
L82L
sS'contact'
p12
L165L
sS'starttime'
p13
cdatetime
datetime
p14
(S'\x07\xd5\x02\x1b\x0c&)\x00\x00\x00'
p15
tp16
Rp17
sS'duration'
p18
L63L
sS'endtime'
p19
g14
(S"\x07\xd5\x02\x1b\x0c',\x00\x00\x00"
p20
tp21
Rp22
sS'phonenumber_oid'
p23
L3172L
s.(dp0
S'status'
p1
S''
p2
sS'direction'
p3
S'Incoming'
p4
sS'remote'
p5
g2
sS'description'
p6
S'Voice Call'
p7
sS'callid'
p8
L1321L
sS'oid'
p9
L799436L
sS'number'
p10
g2
sS'person_oid'
p11
L82L
sS'contact'
p12
L165L
sS'starttime'
p13
cdatetime
datetime
p14
(S'\x07\xd5\x02\x1b\x0c&)\x00\x00\x00'
p15
tp16
Rp17
sS'duration'
p18
L63L
sS'endtime'
p19
g14
(S"\x07\xd5\x02\x1b\x0c',\x00\x00\x00"
p20
tp21
Rp22
sS'phonenumber_oid'
p23
L3172L
s.(dp0
S'status'
p1
S''
p2
sS'direction'
p3
S'Outgoing'
p4
sS'remote'
p5
g2
sS'description'
p6
S'Voice Call'
p7
sS'callid'
p8
L1322L
sS'oid'
p9
L799426L
sS'number'
p10
g2
sS'person_oid'
p11
L82L
sS'contact'
p12
L162L
sS'starttime'
p13
cdatetime
datetime
p14
(S'\x07\xd5\x02\x1b\x0c-\x01\x00\x00\x00'
p15
tp16
Rp17
sS'duration'
p18
L7L
sS'endtime'
p19
g14
(S'\x07\xd5\x02\x1b\x0c-\x08\x00\x00\x00'
p20
tp21
Rp22
sS'phonenumber_oid'
p23
L3170L
s.(dp0
S'status'
p1
S''
p2
sS'direction'
p3
S'Outgoing'
p4
sS'remote'
p5
g2
sS'description'
p6
S'Voice Call'
p7
sS'callid'
p8
L1322L
sS'oid'
p9
L799437L
sS'number'
p10
g2
sS'person_oid'
p11
L82L
sS'contact'
p12
L162L
sS'starttime'
p13
cdatetime
datetime
p14
(S'\x07\xd5\x02\x1b\x0c-\x01\x00\x00\x00'
p15
tp16
Rp17
sS'duration'
p18
L7L
sS'endtime'
p19
g14
(S'\x07\xd5\x02\x1b\x0c-\x08\x00\x00\x00'
p20
tp21
Rp22
sS'phonenumber_oid'
p23
L3170L
s.(dp0
S'status'
p1
S''
p2
sS'direction'
p3
S'Incoming'
p4
sS'remote'
p5
g2
sS'description'
p6
S'Voice Call'
p7
sS'callid'
p8
L1324L
sS'oid'
p9
L799427L
sS'number'
p10
g2
sS'person_oid'
p11
L82L
sS'contact'
p12
L162L
sS'starttime'
p13
cdatetime
datetime
p14
(S'\x07\xd5\x02\x1b\x0c4\x17\x00\x00\x00'
p15
tp16
Rp17
sS'duration'
p18
L31L
sS'endtime'
p19
g14
(S'\x07\xd5\x02\x1b\x0c46\x00\x00\x00'
p20
tp21
Rp22
sS'phonenumber_oid'
p23
L3170L
s.(dp0
S'status'
p1
S''
p2
sS'direction'
p3
S'Incoming'
p4
sS'remote'
p5
g2
sS'description'
p6
S'Voice Call'
p7
sS'callid'
p8
L1324L
sS'oid'
p9
L799438L
sS'number'
p10
g2
sS'person_oid'
p11
L82L
sS'contact'
p12
L162L
sS'starttime'
p13
cdatetime
datetime
p14
(S'\x07\xd5\x02\x1b\x0c4\x17\x00\x00\x00'
p15
tp16
Rp17
sS'duration'
p18
L31L
sS'endtime'
p19
g14
(S'\x07\xd5\x02\x1b\x0c46\x00\x00\x00'
p20
tp21
Rp22
sS'phonenumber_oid'
p23
L3170L
s.(dp0
S'status'
p1
S''
p2
sS'direction'
p3
S'Outgoing'
p4
sS'remote'
p5
g2
sS'description'
p6
S'Voice Call'
p7
sS'callid'
p8
L1325L
sS'oid'
p9
L799428L
sS'number'
p10
g2
sS'person_oid'
p11
L82L
sS'contact'
p12
L162L
sS'starttime'
p13
cdatetime
datetime
p14
(S'\x07\xd5\x02\x1b\r\x10 \x00\x00\x00'
p15
tp16
Rp17
sS'duration'
p18
L10L
sS'endtime'
p19
g14
(S'\x07\xd5\x02\x1b\r\x10*\x00\x00\x00'
p20
tp21
Rp22
sS'phonenumber_oid'
p23
L3170L
s.(dp0
S'status'
p1
S''
p2
sS'direction'
p3
S'Outgoing'
p4
sS'remote'
p5
g2
sS'description'
p6
S'Voice Call'
p7
sS'callid'
p8
L1325L
sS'oid'
p9
L799439L
sS'number'
p10
g2
sS'person_oid'
p11
L82L
sS'contact'
p12
L162L
sS'starttime'
p13
cdatetime
datetime
p14
(S'\x07\xd5\x02\x1b\r\x10 \x00\x00\x00'
p15
tp16
Rp17
sS'duration'
p18
L10L
sS'endtime'
p19
g14
(S'\x07\xd5\x02\x1b\r\x10*\x00\x00\x00'
p20
tp21
Rp22
sS'phonenumber_oid'
p23
L3170L
s.(dp0
S'status'
p1
S''
p2
sS'direction'
p3
S'Outgoing'
p4
sS'remote'
p5
g2
sS'description'
p6
S'Voice Call'
p7
sS'callid'
p8
L1331L
sS'oid'
p9
L799440L
sS'number'
p10
g2
sS'person_oid'
p11
L82L
sS'contact'
p12
L168L
sS'starttime'
p13
cdatetime
datetime
p14
(S'\x07\xd5\x03\x02\x14;1\x00\x00\x00'
p15
tp16
Rp17
sS'duration'
p18
L0L
sS'endtime'
p19
g14
(S'\x07\xd5\x03\x02\x14;1\x00\x00\x00'
p20
tp21
Rp22
sS'phonenumber_oid'
p23
L2401L
s.(dp0
S'status'
p1
S''
p2
sS'direction'
p3
S'Outgoing'
p4
sS'remote'
p5
g2
sS'description'
p6
S'Voice Call'
p7
sS'callid'
p8
L1331L
sS'oid'
p9
L799441L
sS'number'
p10
g2
sS'person_oid'
p11
L82L
sS'contact'
p12
L168L
sS'starttime'
p13
cdatetime
datetime
p14
(S'\x07\xd5\x03\x02\x14;1\x00\x00\x00'
p15
tp16
Rp17
sS'duration'
p18
L0L
sS'endtime'
p19
g14
(S'\x07\xd5\x03\x02\x14;1\x00\x00\x00'
p20
tp21
Rp22
sS'phonenumber_oid'
p23
L2401L
s.(dp0
S'status'
p1
S''
p2
sS'direction'
p3
S'Incoming'
p4
sS'remote'
p5
g2
sS'description'
p6
S'Voice Call'
p7
sS'callid'
p8
L1338L
sS'oid'
p9
L799442L
sS'number'
p10
g2
sS'person_oid'
p11
L82L
sS'contact'
p12
L185L
sS'starttime'
p13
cdatetime
datetime
p14
(S'\x07\xd5\x03\x04\x14$\x02\x00\x00\x00'
p15
tp16
Rp17
sS'duration'
p18
L178L
sS'endtime'
p19
g14
(S"\x07\xd5\x03\x04\x14'\x00\x00\x00\x00"
p20
tp21
Rp22
sS'phonenumber_oid'
p23
L3188L
s.(dp0
S'status'
p1
S''
p2
sS'direction'
p3
S'Incoming'
p4
sS'remote'
p5
g2
sS'description'
p6
S'Voice Call'
p7
sS'callid'
p8
L1338L
sS'oid'
p9
L799447L
sS'number'
p10
g2
sS'person_oid'
p11
L82L
sS'contact'
p12
L185L
sS'starttime'
p13
cdatetime
datetime
p14
(S'\x07\xd5\x03\x04\x14$\x02\x00\x00\x00'
p15
tp16
Rp17
sS'duration'
p18
L178L
sS'endtime'
p19
g14
(S"\x07\xd5\x03\x04\x14'\x00\x00\x00\x00"
p20
tp21
Rp22
sS'phonenumber_oid'
p23
L3188L
s.(dp0
S'status'
p1
S''
p2
sS'direction'
p3
S'Incoming'
p4
sS'remote'
p5
g2
sS'description'
p6
S'Voice Call'
p7
sS'callid'
p8
L1340L
sS'oid'
p9
L799443L
sS'number'
p10
g2
sS'person_oid'
p11
L82L
sS'contact'
p12
L185L
sS'starttime'
p13
cdatetime
datetime
p14
(S'\x07\xd5\x03\x04\x15\x011\x00\x00\x00'
p15
tp16
Rp17
sS'duration'
p18
L8L
sS'endtime'
p19
g14
(S'\x07\xd5\x03\x04\x15\x019\x00\x00\x00'
p20
tp21
Rp22
sS'phonenumber_oid'
p23
L3188L
s.(dp0
S'status'
p1
S''
p2
sS'direction'
p3
S'Incoming'
p4
sS'remote'
p5
g2
sS'description'
p6
S'Voice Call'
p7
sS'callid'
p8
L1340L
sS'oid'
p9
L799448L
sS'number'
p10
g2
sS'person_oid'
p11
L82L
sS'contact'
p12
L185L
sS'starttime'
p13
cdatetime
datetime
p14
(S'\x07\xd5\x03\x04\x15\x011\x00\x00\x00'
p15
tp16
Rp17
sS'duration'
p18
L8L
sS'endtime'
p19
g14
(S'\x07\xd5\x03\x04\x15\x019\x00\x00\x00'
p20
tp21
Rp22
sS'phonenumber_oid'
p23
L3188L
s.(dp0
S'status'
p1
S''
p2
sS'direction'
p3
S'Incoming'
p4
sS'remote'
p5
g2
sS'description'
p6
S'Voice Call'
p7
sS'callid'
p8
L1342L
sS'oid'
p9
L799444L
sS'number'
p10
g2
sS'person_oid'
p11
L82L
sS'contact'
p12
L162L
sS'starttime'
p13
cdatetime
datetime
p14
(S'\x07\xd5\x03\x04\x16\x11"\x00\x00\x00'
p15
tp16
Rp17
sS'duration'
p18
L42L
sS'endtime'
p19
g14
(S'\x07\xd5\x03\x04\x16\x12\x10\x00\x00\x00'
p20
tp21
Rp22
sS'phonenumber_oid'
p23
L3170L
s.(dp0
S'status'
p1
S''
p2
sS'direction'
p3
S'Incoming'
p4
sS'remote'
p5
g2
sS'description'
p6
S'Voice Call'
p7
sS'callid'
p8
L1342L
sS'oid'
p9
L799449L
sS'number'
p10
g2
sS'person_oid'
p11
L82L
sS'contact'
p12
L162L
sS'starttime'
p13
cdatetime
datetime
p14
(S'\x07\xd5\x03\x04\x16\x11"\x00\x00\x00'
p15
tp16
Rp17
sS'duration'
p18
L42L
sS'endtime'
p19
g14
(S'\x07\xd5\x03\x04\x16\x12\x10\x00\x00\x00'
p20
tp21
Rp22
sS'phonenumber_oid'
p23
L3170L
s.(dp0
S'status'
p1
S''
p2
sS'direction'
p3
S'Incoming'
p4
sS'remote'
p5
g2
sS'description'
p6
S'Voice Call'
p7
sS'callid'
p8
L1344L
sS'oid'
p9
L799445L
sS'number'
p10
g2
sS'person_oid'
p11
L82L
sS'contact'
p12
L162L
sS'starttime'
p13
cdatetime
datetime
p14
(S'\x07\xd5\x03\x04\x16\x18;\x00\x00\x00'
p15
tp16
Rp17
sS'duration'
p18
L9L
sS'endtime'
p19
g14
(S'\x07\xd5\x03\x04\x16\x19\x08\x00\x00\x00'
p20
tp21
Rp22
sS'phonenumber_oid'
p23
L3170L
s.(dp0
S'status'
p1
S''
p2
sS'direction'
p3
S'Incoming'
p4
sS'remote'
p5
g2
sS'description'
p6
S'Voice Call'
p7
sS'callid'
p8
L1344L
sS'oid'
p9
L799450L
sS'number'
p10
g2
sS'person_oid'
p11
L82L
sS'contact'
p12
L162L
sS'starttime'
p13
cdatetime
datetime
p14
(S'\x07\xd5\x03\x04\x16\x18;\x00\x00\x00'
p15
tp16
Rp17
sS'duration'
p18
L9L
sS'endtime'
p19
g14
(S'\x07\xd5\x03\x04\x16\x19\x08\x00\x00\x00'
p20
tp21
Rp22
sS'phonenumber_oid'
p23
L3170L
s.(dp0
S'status'
p1
S''
p2
sS'direction'
p3
S'Outgoing'
p4
sS'remote'
p5
g2
sS'description'
p6
S'Voice Call'
p7
sS'callid'
p8
L1345L
sS'oid'
p9
L799446L
sS'number'
p10
g2
sS'person_oid'
p11
L82L
sS'contact'
p12
L165L
sS'starttime'
p13
cdatetime
datetime
p14
(S'\x07\xd5\x03\x04\x17\x02\x0b\x00\x00\x00'
p15
tp16
Rp17
sS'duration'
p18
L8L
sS'endtime'
p19
g14
(S'\x07\xd5\x03\x04\x17\x02\x13\x00\x00\x00'
p20
tp21
Rp22
sS'phonenumber_oid'
p23
L3172L
s.(dp0
S'status'
p1
S''
p2
sS'direction'
p3
S'Outgoing'
p4
sS'remote'
p5
g2
sS'description'
p6
S'Voice Call'
p7
sS'callid'
p8
L1345L
sS'oid'
p9
L799451L
sS'number'
p10
g2
sS'person_oid'
p11
L82L
sS'contact'
p12
L165L
sS'starttime'
p13
cdatetime
datetime
p14
(S'\x07\xd5\x03\x04\x17\x02\x0b\x00\x00\x00'
p15
tp16
Rp17
sS'duration'
p18
L8L
sS'endtime'
p19
g14
(S'\x07\xd5\x03\x04\x17\x02\x13\x00\x00\x00'
p20
tp21
Rp22
sS'phonenumber_oid'
p23
L3172L
s.(dp0
S'status'
p1
S''
p2
sS'direction'
p3
S'Incoming'
p4
sS'remote'
p5
g2
sS'description'
p6
S'Voice Call'
p7
sS'callid'
p8
L1347L
sS'oid'
p9
L799452L
sS'number'
p10
g2
sS'person_oid'
p11
L82L
sS'contact'
p12
L163L
sS'starttime'
p13
cdatetime
datetime
p14
(S'\x07\xd5\x03\x05\x0b\x06%\x00\x00\x00'
p15
tp16
Rp17
sS'duration'
p18
L59L
sS'endtime'
p19
g14
(S'\x07\xd5\x03\x05\x0b\x07$\x00\x00\x00'
p20
tp21
Rp22
sS'phonenumber_oid'
p23
L2394L
s.(dp0
S'status'
p1
S''
p2
sS'direction'
p3
S'Incoming'
p4
sS'remote'
p5
g2
sS'description'
p6
S'Voice Call'
p7
sS'callid'
p8
L1347L
sS'oid'
p9
L799470L
sS'number'
p10
g2
sS'person_oid'
p11
L82L
sS'contact'
p12
L163L
sS'starttime'
p13
cdatetime
datetime
p14
(S'\x07\xd5\x03\x05\x0b\x06%\x00\x00\x00'
p15
tp16
Rp17
sS'duration'
p18
L59L
sS'endtime'
p19
g14
(S'\x07\xd5\x03\x05\x0b\x07$\x00\x00\x00'
p20
tp21
Rp22
sS'phonenumber_oid'
p23
L2394L
s.(dp0
S'status'
p1
S''
p2
sS'direction'
p3
S'Incoming'
p4
sS'remote'
p5
g2
sS'description'
p6
S'Voice Call'
p7
sS'callid'
p8
L1349L
sS'oid'
p9
L799453L
sS'number'
p10
g2
sS'person_oid'
p11
L82L
sS'contact'
p12
L163L
sS'starttime'
p13
cdatetime
datetime
p14
(S'\x07\xd5\x03\x05\x0c\x13,\x00\x00\x00'
p15
tp16
Rp17
sS'duration'
p18
L4L
sS'endtime'
p19
g14
(S'\x07\xd5\x03\x05\x0c\x130\x00\x00\x00'
p20
tp21
Rp22
sS'phonenumber_oid'
p23
L2394L
s.(dp0
S'status'
p1
S''
p2
sS'direction'
p3
S'Incoming'
p4
sS'remote'
p5
g2
sS'description'
p6
S'Voice Call'
p7
sS'callid'
p8
L1349L
sS'oid'
p9
L799471L
sS'number'
p10
g2
sS'person_oid'
p11
L82L
sS'contact'
p12
L163L
sS'starttime'
p13
cdatetime
datetime
p14
(S'\x07\xd5\x03\x05\x0c\x13,\x00\x00\x00'
p15
tp16
Rp17
sS'duration'
p18
L4L
sS'endtime'
p19
g14
(S'\x07\xd5\x03\x05\x0c\x130\x00\x00\x00'
p20
tp21
Rp22
sS'phonenumber_oid'
p23
L2394L
s.(dp0
S'status'
p1
S''
p2
sS'direction'
p3
S'Incoming'
p4
sS'remote'
p5
g2
sS'description'
p6
S'Voice Call'
p7
sS'callid'
p8
L1351L
sS'oid'
p9
L799454L
sS'number'
p10
g2
sS'person_oid'
p11
L82L
sS'contact'
p12
L163L
sS'starttime'
p13
cdatetime
datetime
p14
(S'\x07\xd5\x03\x05\x0c\x15\x18\x00\x00\x00'
p15
tp16
Rp17
sS'duration'
p18
L104L
sS'endtime'
p19
g14
(S'\x07\xd5\x03\x05\x0c\x17\x08\x00\x00\x00'
p20
tp21
Rp22
sS'phonenumber_oid'
p23
L2394L
s.(dp0
S'status'
p1
S''
p2
sS'direction'
p3
S'Incoming'
p4
sS'remote'
p5
g2
sS'description'
p6
S'Voice Call'
p7
sS'callid'
p8
L1351L
sS'oid'
p9
L799472L
sS'number'
p10
g2
sS'person_oid'
p11
L82L
sS'contact'
p12
L163L
sS'starttime'
p13
cdatetime
datetime
p14
(S'\x07\xd5\x03\x05\x0c\x15\x18\x00\x00\x00'
p15
tp16
Rp17
sS'duration'
p18
L104L
sS'endtime'
p19
g14
(S'\x07\xd5\x03\x05\x0c\x17\x08\x00\x00\x00'
p20
tp21
Rp22
sS'phonenumber_oid'
p23
L2394L
s.(dp0
S'status'
p1
S''
p2
sS'direction'
p3
S'Incoming'
p4
sS'remote'
p5
g2
sS'description'
p6
S'Voice Call'
p7
sS'callid'
p8
L1353L
sS'oid'
p9
L799455L
sS'number'
p10
g2
sS'person_oid'
p11
L82L
sS'contact'
p12
L162L
sS'starttime'
p13
cdatetime
datetime
p14
(S'\x07\xd5\x03\x05\x12\x1c$\x00\x00\x00'
p15
tp16
Rp17
sS'duration'
p18
L28L
sS'endtime'
p19
g14
(S'\x07\xd5\x03\x05\x12\x1d\x04\x00\x00\x00'
p20
tp21
Rp22
sS'phonenumber_oid'
p23
L3170L
s.(dp0
S'status'
p1
S''
p2
sS'direction'
p3
S'Incoming'
p4
sS'remote'
p5
g2
sS'description'
p6
S'Voice Call'
p7
sS'callid'
p8
L1353L
sS'oid'
p9
L799473L
sS'number'
p10
g2
sS'person_oid'
p11
L82L
sS'contact'
p12
L162L
sS'starttime'
p13
cdatetime
datetime
p14
(S'\x07\xd5\x03\x05\x12\x1c$\x00\x00\x00'
p15
tp16
Rp17
sS'duration'
p18
L28L
sS'endtime'
p19
g14
(S'\x07\xd5\x03\x05\x12\x1d\x04\x00\x00\x00'
p20
tp21
Rp22
sS'phonenumber_oid'
p23
L3170L
s.(dp0
S'status'
p1
S''
p2
sS'direction'
p3
S'Incoming'
p4
sS'remote'
p5
g2
sS'description'
p6
S'Voice Call'
p7
sS'callid'
p8
L1355L
sS'oid'
p9
L799456L
sS'number'
p10
g2
sS'person_oid'
p11
L82L
sS'contact'
p12
L162L
sS'starttime'
p13
cdatetime
datetime
p14
(S'\x07\xd5\x03\x05\x12#\x07\x00\x00\x00'
p15
tp16
Rp17
sS'duration'
p18
L3L
sS'endtime'
p19
g14
(S'\x07\xd5\x03\x05\x12#\n\x00\x00\x00'
p20
tp21
Rp22
sS'phonenumber_oid'
p23
L3170L
s.(dp0
S'status'
p1
S''
p2
sS'direction'
p3
S'Incoming'
p4
sS'remote'
p5
g2
sS'description'
p6
S'Voice Call'
p7
sS'callid'
p8
L1355L
sS'oid'
p9
L799474L
sS'number'
p10
g2
sS'person_oid'
p11
L82L
sS'contact'
p12
L162L
sS'starttime'
p13
cdatetime
datetime
p14
(S'\x07\xd5\x03\x05\x12#\x07\x00\x00\x00'
p15
tp16
Rp17
sS'duration'
p18
L3L
sS'endtime'
p19
g14
(S'\x07\xd5\x03\x05\x12#\n\x00\x00\x00'
p20
tp21
Rp22
sS'phonenumber_oid'
p23
L3170L
s.(dp0
S'status'
p1
S''
p2
sS'direction'
p3
S'Outgoing'
p4
sS'remote'
p5
g2
sS'description'
p6
S'Voice Call'
p7
sS'callid'
p8
L1357L
sS'oid'
p9
L799457L
sS'number'
p10
g2
sS'person_oid'
p11
L82L
sS'contact'
p12
L168L
sS'starttime'
p13
cdatetime
datetime
p14
(S'\x07\xd5\x03\x05\x16)\x03\x00\x00\x00'
p15
tp16
Rp17
sS'duration'
p18
L88L
sS'endtime'
p19
g14
(S'\x07\xd5\x03\x05\x16*\x1f\x00\x00\x00'
p20
tp21
Rp22
sS'phonenumber_oid'
p23
L2401L
s.(dp0
S'status'
p1
S''
p2
sS'direction'
p3
S'Outgoing'
p4
sS'remote'
p5
g2
sS'description'
p6
S'Voice Call'
p7
sS'callid'
p8
L1357L
sS'oid'
p9
L799475L
sS'number'
p10
g2
sS'person_oid'
p11
L82L
sS'contact'
p12
L168L
sS'starttime'
p13
cdatetime
datetime
p14
(S'\x07\xd5\x03\x05\x16)\x03\x00\x00\x00'
p15
tp16
Rp17
sS'duration'
p18
L88L
sS'endtime'
p19
g14
(S'\x07\xd5\x03\x05\x16*\x1f\x00\x00\x00'
p20
tp21
Rp22
sS'phonenumber_oid'
p23
L2401L
s.(dp0
S'status'
p1
S''
p2
sS'direction'
p3
S'Outgoing'
p4
sS'remote'
p5
g2
sS'description'
p6
S'Voice Call'
p7
sS'callid'
p8
L1358L
sS'oid'
p9
L799458L
sS'number'
p10
g2
sS'person_oid'
p11
L82L
sS'contact'
p12
L185L
sS'starttime'
p13
cdatetime
datetime
p14
(S'\x07\xd5\x03\x05\x16, \x00\x00\x00'
p15
tp16
Rp17
sS'duration'
p18
L79L
sS'endtime'
p19
g14
(S'\x07\xd5\x03\x05\x16-3\x00\x00\x00'
p20
tp21
Rp22
sS'phonenumber_oid'
p23
L3188L
s.(dp0
S'status'
p1
S''
p2
sS'direction'
p3
S'Outgoing'
p4
sS'remote'
p5
g2
sS'description'
p6
S'Voice Call'
p7
sS'callid'
p8
L1358L
sS'oid'
p9
L799476L
sS'number'
p10
g2
sS'person_oid'
p11
L82L
sS'contact'
p12
L185L
sS'starttime'
p13
cdatetime
datetime
p14
(S'\x07\xd5\x03\x05\x16, \x00\x00\x00'
p15
tp16
Rp17
sS'duration'
p18
L79L
sS'endtime'
p19
g14
(S'\x07\xd5\x03\x05\x16-3\x00\x00\x00'
p20
tp21
Rp22
sS'phonenumber_oid'
p23
L3188L
s.(dp0
S'status'
p1
S''
p2
sS'direction'
p3
S'Incoming'
p4
sS'remote'
p5
g2
sS'description'
p6
S'Voice Call'
p7
sS'callid'
p8
L1362L
sS'oid'
p9
L799459L
sS'number'
p10
g2
sS'person_oid'
p11
L82L
sS'contact'
p12
L185L
sS'starttime'
p13
cdatetime
datetime
p14
(S'\x07\xd5\x03\x05\x166\x15\x00\x00\x00'
p15
tp16
Rp17
sS'duration'
p18
L50L
sS'endtime'
p19
g14
(S'\x07\xd5\x03\x05\x167\x0b\x00\x00\x00'
p20
tp21
Rp22
sS'phonenumber_oid'
p23
L3188L
s.(dp0
S'status'
p1
S''
p2
sS'direction'
p3
S'Incoming'
p4
sS'remote'
p5
g2
sS'description'
p6
S'Voice Call'
p7
sS'callid'
p8
L1362L
sS'oid'
p9
L799477L
sS'number'
p10
g2
sS'person_oid'
p11
L82L
sS'contact'
p12
L185L
sS'starttime'
p13
cdatetime
datetime
p14
(S'\x07\xd5\x03\x05\x166\x15\x00\x00\x00'
p15
tp16
Rp17
sS'duration'
p18
L50L
sS'endtime'
p19
g14
(S'\x07\xd5\x03\x05\x167\x0b\x00\x00\x00'
p20
tp21
Rp22
sS'phonenumber_oid'
p23
L3188L
s.(dp0
S'status'
p1
S''
p2
sS'direction'
p3
S'Incoming'
p4
sS'remote'
p5
g2
sS'description'
p6
S'Voice Call'
p7
sS'callid'
p8
L1364L
sS'oid'
p9
L799460L
sS'number'
p10
g2
sS'person_oid'
p11
L82L
sS'contact'
p12
L163L
sS'starttime'
p13
cdatetime
datetime
p14
(S'\x07\xd5\x03\x05\x17\x045\x00\x00\x00'
p15
tp16
Rp17
sS'duration'
p18
L51L
sS'endtime'
p19
g14
(S'\x07\xd5\x03\x05\x17\x05,\x00\x00\x00'
p20
tp21
Rp22
sS'phonenumber_oid'
p23
L2394L
s.(dp0
S'status'
p1
S''
p2
sS'direction'
p3
S'Incoming'
p4
sS'remote'
p5
g2
sS'description'
p6
S'Voice Call'
p7
sS'callid'
p8
L1364L
sS'oid'
p9
L799478L
sS'number'
p10
g2
sS'person_oid'
p11
L82L
sS'contact'
p12
L163L
sS'starttime'
p13
cdatetime
datetime
p14
(S'\x07\xd5\x03\x05\x17\x045\x00\x00\x00'
p15
tp16
Rp17
sS'duration'
p18
L51L
sS'endtime'
p19
g14
(S'\x07\xd5\x03\x05\x17\x05,\x00\x00\x00'
p20
tp21
Rp22
sS'phonenumber_oid'
p23
L2394L
s.(dp0
S'status'
p1
S''
p2
sS'direction'
p3
S'Outgoing'
p4
sS'remote'
p5
g2
sS'description'
p6
S'Voice Call'
p7
sS'callid'
p8
L1365L
sS'oid'
p9
L799461L
sS'number'
p10
g2
sS'person_oid'
p11
L82L
sS'contact'
p12
L163L
sS'starttime'
p13
cdatetime
datetime
p14
(S'\x07\xd5\x03\x05\x17\t\x02\x00\x00\x00'
p15
tp16
Rp17
sS'duration'
p18
L28L
sS'endtime'
p19
g14
(S'\x07\xd5\x03\x05\x17\t\x1e\x00\x00\x00'
p20
tp21
Rp22
sS'phonenumber_oid'
p23
L2394L
s.(dp0
S'status'
p1
S''
p2
sS'direction'
p3
S'Outgoing'
p4
sS'remote'
p5
g2
sS'description'
p6
S'Voice Call'
p7
sS'callid'
p8
L1365L
sS'oid'
p9
L799479L
sS'number'
p10
g2
sS'person_oid'
p11
L82L
sS'contact'
p12
L163L
sS'starttime'
p13
cdatetime
datetime
p14
(S'\x07\xd5\x03\x05\x17\t\x02\x00\x00\x00'
p15
tp16
Rp17
sS'duration'
p18
L28L
sS'endtime'
p19
g14
(S'\x07\xd5\x03\x05\x17\t\x1e\x00\x00\x00'
p20
tp21
Rp22
sS'phonenumber_oid'
p23
L2394L
s.(dp0
S'status'
p1
S''
p2
sS'direction'
p3
S'Outgoing'
p4
sS'remote'
p5
g2
sS'description'
p6
S'Voice Call'
p7
sS'callid'
p8
L1366L
sS'oid'
p9
L799462L
sS'number'
p10
g2
sS'person_oid'
p11
L82L
sS'contact'
p12
L168L
sS'starttime'
p13
cdatetime
datetime
p14
(S'\x07\xd5\x03\x05\x17\x0b \x00\x00\x00'
p15
tp16
Rp17
sS'duration'
p18
L31L
sS'endtime'
p19
g14
(S'\x07\xd5\x03\x05\x17\x0c\x03\x00\x00\x00'
p20
tp21
Rp22
sS'phonenumber_oid'
p23
L2401L
s.(dp0
S'status'
p1
S''
p2
sS'direction'
p3
S'Outgoing'
p4
sS'remote'
p5
g2
sS'description'
p6
S'Voice Call'
p7
sS'callid'
p8
L1366L
sS'oid'
p9
L799480L
sS'number'
p10
g2
sS'person_oid'
p11
L82L
sS'contact'
p12
L168L
sS'starttime'
p13
cdatetime
datetime
p14
(S'\x07\xd5\x03\x05\x17\x0b \x00\x00\x00'
p15
tp16
Rp17
sS'duration'
p18
L31L
sS'endtime'
p19
g14
(S'\x07\xd5\x03\x05\x17\x0c\x03\x00\x00\x00'
p20
tp21
Rp22
sS'phonenumber_oid'
p23
L2401L
s.(dp0
S'status'
p1
S''
p2
sS'direction'
p3
S'Outgoing'
p4
sS'remote'
p5
g2
sS'description'
p6
S'Voice Call'
p7
sS'callid'
p8
L1367L
sS'oid'
p9
L799463L
sS'number'
p10
g2
sS'person_oid'
p11
L82L
sS'contact'
p12
L185L
sS'starttime'
p13
cdatetime
datetime
p14
(S'\x07\xd5\x03\x05\x17\x0c\x1c\x00\x00\x00'
p15
tp16
Rp17
sS'duration'
p18
L43L
sS'endtime'
p19
g14
(S'\x07\xd5\x03\x05\x17\r\x0b\x00\x00\x00'
p20
tp21
Rp22
sS'phonenumber_oid'
p23
L3188L
s.(dp0
S'status'
p1
S''
p2
sS'direction'
p3
S'Outgoing'
p4
sS'remote'
p5
g2
sS'description'
p6
S'Voice Call'
p7
sS'callid'
p8
L1367L
sS'oid'
p9
L799481L
sS'number'
p10
g2
sS'person_oid'
p11
L82L
sS'contact'
p12
L185L
sS'starttime'
p13
cdatetime
datetime
p14
(S'\x07\xd5\x03\x05\x17\x0c\x1c\x00\x00\x00'
p15
tp16
Rp17
sS'duration'
p18
L43L
sS'endtime'
p19
g14
(S'\x07\xd5\x03\x05\x17\r\x0b\x00\x00\x00'
p20
tp21
Rp22
sS'phonenumber_oid'
p23
L3188L
s.(dp0
S'status'
p1
S''
p2
sS'direction'
p3
S'Outgoing'
p4
sS'remote'
p5
g2
sS'description'
p6
S'Voice Call'
p7
sS'callid'
p8
L1368L
sS'oid'
p9
L799464L
sS'number'
p10
g2
sS'person_oid'
p11
L82L
sS'contact'
p12
L185L
sS'starttime'
p13
cdatetime
datetime
p14
(S'\x07\xd5\x03\x05\x17\x10"\x00\x00\x00'
p15
tp16
Rp17
sS'duration'
p18
L7L
sS'endtime'
p19
g14
(S'\x07\xd5\x03\x05\x17\x10)\x00\x00\x00'
p20
tp21
Rp22
sS'phonenumber_oid'
p23
L3188L
s.(dp0
S'status'
p1
S''
p2
sS'direction'
p3
S'Outgoing'
p4
sS'remote'
p5
g2
sS'description'
p6
S'Voice Call'
p7
sS'callid'
p8
L1368L
sS'oid'
p9
L799482L
sS'number'
p10
g2
sS'person_oid'
p11
L82L
sS'contact'
p12
L185L
sS'starttime'
p13
cdatetime
datetime
p14
(S'\x07\xd5\x03\x05\x17\x10"\x00\x00\x00'
p15
tp16
Rp17
sS'duration'
p18
L7L
sS'endtime'
p19
g14
(S'\x07\xd5\x03\x05\x17\x10)\x00\x00\x00'
p20
tp21
Rp22
sS'phonenumber_oid'
p23
L3188L
s.(dp0
S'status'
p1
S''
p2
sS'direction'
p3
S'Outgoing'
p4
sS'remote'
p5
g2
sS'description'
p6
S'Voice Call'
p7
sS'callid'
p8
L1369L
sS'oid'
p9
L799465L
sS'number'
p10
g2
sS'person_oid'
p11
L82L
sS'contact'
p12
L185L
sS'starttime'
p13
cdatetime
datetime
p14
(S'\x07\xd5\x03\x05\x17\x13%\x00\x00\x00'
p15
tp16
Rp17
sS'duration'
p18
L0L
sS'endtime'
p19
g14
(S'\x07\xd5\x03\x05\x17\x13%\x00\x00\x00'
p20
tp21
Rp22
sS'phonenumber_oid'
p23
L3188L
s.(dp0
S'status'
p1
S''
p2
sS'direction'
p3
S'Outgoing'
p4
sS'remote'
p5
g2
sS'description'
p6
S'Voice Call'
p7
sS'callid'
p8
L1369L
sS'oid'
p9
L799483L
sS'number'
p10
g2
sS'person_oid'
p11
L82L
sS'contact'
p12
L185L
sS'starttime'
p13
cdatetime
datetime
p14
(S'\x07\xd5\x03\x05\x17\x13%\x00\x00\x00'
p15
tp16
Rp17
sS'duration'
p18
L0L
sS'endtime'
p19
g14
(S'\x07\xd5\x03\x05\x17\x13%\x00\x00\x00'
p20
tp21
Rp22
sS'phonenumber_oid'
p23
L3188L
s.(dp0
S'status'
p1
S''
p2
sS'direction'
p3
S'Outgoing'
p4
sS'remote'
p5
g2
sS'description'
p6
S'Voice Call'
p7
sS'callid'
p8
L1370L
sS'oid'
p9
L799466L
sS'number'
p10
g2
sS'person_oid'
p11
L82L
sS'contact'
p12
L185L
sS'starttime'
p13
cdatetime
datetime
p14
(S'\x07\xd5\x03\x05\x17\x140\x00\x00\x00'
p15
tp16
Rp17
sS'duration'
p18
L11L
sS'endtime'
p19
g14
(S'\x07\xd5\x03\x05\x17\x14;\x00\x00\x00'
p20
tp21
Rp22
sS'phonenumber_oid'
p23
L3188L
s.(dp0
S'status'
p1
S''
p2
sS'direction'
p3
S'Outgoing'
p4
sS'remote'
p5
g2
sS'description'
p6
S'Voice Call'
p7
sS'callid'
p8
L1370L
sS'oid'
p9
L799484L
sS'number'
p10
g2
sS'person_oid'
p11
L82L
sS'contact'
p12
L185L
sS'starttime'
p13
cdatetime
datetime
p14
(S'\x07\xd5\x03\x05\x17\x140\x00\x00\x00'
p15
tp16
Rp17
sS'duration'
p18
L11L
sS'endtime'
p19
g14
(S'\x07\xd5\x03\x05\x17\x14;\x00\x00\x00'
p20
tp21
Rp22
sS'phonenumber_oid'
p23
L3188L
s.(dp0
S'status'
p1
S''
p2
sS'direction'
p3
S'Outgoing'
p4
sS'remote'
p5
g2
sS'description'
p6
S'Voice Call'
p7
sS'callid'
p8
L1371L
sS'oid'
p9
L799467L
sS'number'
p10
g2
sS'person_oid'
p11
L82L
sS'contact'
p12
L168L
sS'starttime'
p13
cdatetime
datetime
p14
(S'\x07\xd5\x03\x05\x17\x1b \x00\x00\x00'
p15
tp16
Rp17
sS'duration'
p18
L8L
sS'endtime'
p19
g14
(S'\x07\xd5\x03\x05\x17\x1b(\x00\x00\x00'
p20
tp21
Rp22
sS'phonenumber_oid'
p23
L2401L
s.(dp0
S'status'
p1
S''
p2
sS'direction'
p3
S'Outgoing'
p4
sS'remote'
p5
g2
sS'description'
p6
S'Voice Call'
p7
sS'callid'
p8
L1371L
sS'oid'
p9
L799485L
sS'number'
p10
g2
sS'person_oid'
p11
L82L
sS'contact'
p12
L168L
sS'starttime'
p13
cdatetime
datetime
p14
(S'\x07\xd5\x03\x05\x17\x1b \x00\x00\x00'
p15
tp16
Rp17
sS'duration'
p18
L8L
sS'endtime'
p19
g14
(S'\x07\xd5\x03\x05\x17\x1b(\x00\x00\x00'
p20
tp21
Rp22
sS'phonenumber_oid'
p23
L2401L
s.(dp0
S'status'
p1
S''
p2
sS'direction'
p3
S'Outgoing'
p4
sS'remote'
p5
g2
sS'description'
p6
S'Voice Call'
p7
sS'callid'
p8
L1372L
sS'oid'
p9
L799468L
sS'number'
p10
g2
sS'person_oid'
p11
L82L
sS'contact'
p12
L163L
sS'starttime'
p13
cdatetime
datetime
p14
(S'\x07\xd5\x03\x05\x17"\x10\x00\x00\x00'
p15
tp16
Rp17
sS'duration'
p18
L11L
sS'endtime'
p19
g14
(S'\x07\xd5\x03\x05\x17"\x1b\x00\x00\x00'
p20
tp21
Rp22
sS'phonenumber_oid'
p23
L2394L
s.(dp0
S'status'
p1
S''
p2
sS'direction'
p3
S'Outgoing'
p4
sS'remote'
p5
g2
sS'description'
p6
S'Voice Call'
p7
sS'callid'
p8
L1372L
sS'oid'
p9
L799486L
sS'number'
p10
g2
sS'person_oid'
p11
L82L
sS'contact'
p12
L163L
sS'starttime'
p13
cdatetime
datetime
p14
(S'\x07\xd5\x03\x05\x17"\x10\x00\x00\x00'
p15
tp16
Rp17
sS'duration'
p18
L11L
sS'endtime'
p19
g14
(S'\x07\xd5\x03\x05\x17"\x1b\x00\x00\x00'
p20
tp21
Rp22
sS'phonenumber_oid'
p23
L2394L
s.(dp0
S'status'
p1
S''
p2
sS'direction'
p3
S'Outgoing'
p4
sS'remote'
p5
g2
sS'description'
p6
S'Voice Call'
p7
sS'callid'
p8
L1373L
sS'oid'
p9
L799469L
sS'number'
p10
g2
sS'person_oid'
p11
L82L
sS'contact'
p12
L163L
sS'starttime'
p13
cdatetime
datetime
p14
(S'\x07\xd5\x03\x05\x17$2\x00\x00\x00'
p15
tp16
Rp17
sS'duration'
p18
L0L
sS'endtime'
p19
g14
(S'\x07\xd5\x03\x05\x17$2\x00\x00\x00'
p20
tp21
Rp22
sS'phonenumber_oid'
p23
L2394L
s.(dp0
S'status'
p1
S''
p2
sS'direction'
p3
S'Outgoing'
p4
sS'remote'
p5
g2
sS'description'
p6
S'Voice Call'
p7
sS'callid'
p8
L1373L
sS'oid'
p9
L799487L
sS'number'
p10
g2
sS'person_oid'
p11
L82L
sS'contact'
p12
L163L
sS'starttime'
p13
cdatetime
datetime
p14
(S'\x07\xd5\x03\x05\x17$2\x00\x00\x00'
p15
tp16
Rp17
sS'duration'
p18
L0L
sS'endtime'
p19
g14
(S'\x07\xd5\x03\x05\x17$2\x00\x00\x00'
p20
tp21
Rp22
sS'phonenumber_oid'
p23
L2394L
s.(dp0
S'status'
p1
S''
p2
sS'direction'
p3
S'Incoming'
p4
sS'remote'
p5
g2
sS'description'
p6
S'Voice Call'
p7
sS'callid'
p8
L1377L
sS'oid'
p9
L799488L
sS'number'
p10
g2
sS'person_oid'
p11
L82L
sS'contact'
p12
L163L
sS'starttime'
p13
cdatetime
datetime
p14
(S'\x07\xd5\x03\x06\x0b\x122\x00\x00\x00'
p15
tp16
Rp17
sS'duration'
p18
L61L
sS'endtime'
p19
g14
(S'\x07\xd5\x03\x06\x0b\x133\x00\x00\x00'
p20
tp21
Rp22
sS'phonenumber_oid'
p23
L2394L
s.(dp0
S'status'
p1
S''
p2
sS'direction'
p3
S'Incoming'
p4
sS'remote'
p5
g2
sS'description'
p6
S'Voice Call'
p7
sS'callid'
p8
L1377L
sS'oid'
p9
L799489L
sS'number'
p10
g2
sS'person_oid'
p11
L82L
sS'contact'
p12
L163L
sS'starttime'
p13
cdatetime
datetime
p14
(S'\x07\xd5\x03\x06\x0b\x122\x00\x00\x00'
p15
tp16
Rp17
sS'duration'
p18
L61L
sS'endtime'
p19
g14
(S'\x07\xd5\x03\x06\x0b\x133\x00\x00\x00'
p20
tp21
Rp22
sS'phonenumber_oid'
p23
L2394L
s.(dp0
S'status'
p1
S''
p2
sS'direction'
p3
S'Outgoing'
p4
sS'remote'
p5
g2
sS'description'
p6
S'Voice Call'
p7
sS'callid'
p8
L1392L
sS'oid'
p9
L799490L
sS'number'
p10
g2
sS'person_oid'
p11
L82L
sS'contact'
p12
L161L
sS'starttime'
p13
cdatetime
datetime
p14
(S'\x07\xd5\x03\t\x0c0\x1c\x00\x00\x00'
p15
tp16
Rp17
sS'duration'
p18
L2L
sS'endtime'
p19
g14
(S'\x07\xd5\x03\t\x0c0\x1e\x00\x00\x00'
p20
tp21
Rp22
sS'phonenumber_oid'
p23
L3169L
s.(dp0
S'status'
p1
S''
p2
sS'direction'
p3
S'Outgoing'
p4
sS'remote'
p5
g2
sS'description'
p6
S'Voice Call'
p7
sS'callid'
p8
L1392L
sS'oid'
p9
L799493L
sS'number'
p10
g2
sS'person_oid'
p11
L82L
sS'contact'
p12
L161L
sS'starttime'
p13
cdatetime
datetime
p14
(S'\x07\xd5\x03\t\x0c0\x1c\x00\x00\x00'
p15
tp16
Rp17
sS'duration'
p18
L2L
sS'endtime'
p19
g14
(S'\x07\xd5\x03\t\x0c0\x1e\x00\x00\x00'
p20
tp21
Rp22
sS'phonenumber_oid'
p23
L3169L
s.(dp0
S'status'
p1
S''
p2
sS'direction'
p3
S'Outgoing'
p4
sS'remote'
p5
g2
sS'description'
p6
S'Voice Call'
p7
sS'callid'
p8
L1394L
sS'oid'
p9
L799491L
sS'number'
p10
g2
sS'person_oid'
p11
L82L
sS'contact'
p12
L167L
sS'starttime'
p13
cdatetime
datetime
p14
(S"\x07\xd5\x03\t\x15\x00'\x00\x00\x00"
p15
tp16
Rp17
sS'duration'
p18
L28L
sS'endtime'
p19
g14
(S'\x07\xd5\x03\t\x15\x01\x07\x00\x00\x00'
p20
tp21
Rp22
sS'phonenumber_oid'
p23
L3174L
s.(dp0
S'status'
p1
S''
p2
sS'direction'
p3
S'Outgoing'
p4
sS'remote'
p5
g2
sS'description'
p6
S'Voice Call'
p7
sS'callid'
p8
L1394L
sS'oid'
p9
L799494L
sS'number'
p10
g2
sS'person_oid'
p11
L82L
sS'contact'
p12
L167L
sS'starttime'
p13
cdatetime
datetime
p14
(S"\x07\xd5\x03\t\x15\x00'\x00\x00\x00"
p15
tp16
Rp17
sS'duration'
p18
L28L
sS'endtime'
p19
g14
(S'\x07\xd5\x03\t\x15\x01\x07\x00\x00\x00'
p20
tp21
Rp22
sS'phonenumber_oid'
p23
L3174L
s.(dp0
S'status'
p1
S''
p2
sS'direction'
p3
S'Outgoing'
p4
sS'remote'
p5
g2
sS'description'
p6
S'Voice Call'
p7
sS'callid'
p8
L1395L
sS'oid'
p9
L799492L
sS'number'
p10
g2
sS'person_oid'
p11
L82L
sS'contact'
p12
L169L
sS'starttime'
p13
cdatetime
datetime
p14
(S'\x07\xd5\x03\t\x15\x01"\x00\x00\x00'
p15
tp16
Rp17
sS'duration'
p18
L136L
sS'endtime'
p19
g14
(S'\x07\xd5\x03\t\x15\x032\x00\x00\x00'
p20
tp21
Rp22
sS'phonenumber_oid'
p23
L3175L
s.(dp0
S'status'
p1
S''
p2
sS'direction'
p3
S'Outgoing'
p4
sS'remote'
p5
g2
sS'description'
p6
S'Voice Call'
p7
sS'callid'
p8
L1395L
sS'oid'
p9
L799495L
sS'number'
p10
g2
sS'person_oid'
p11
L82L
sS'contact'
p12
L169L
sS'starttime'
p13
cdatetime
datetime
p14
(S'\x07\xd5\x03\t\x15\x01"\x00\x00\x00'
p15
tp16
Rp17
sS'duration'
p18
L136L
sS'endtime'
p19
g14
(S'\x07\xd5\x03\t\x15\x032\x00\x00\x00'
p20
tp21
Rp22
sS'phonenumber_oid'
p23
L3175L
s.(dp0
S'status'
p1
S''
p2
sS'direction'
p3
S'Outgoing'
p4
sS'remote'
p5
g2
sS'description'
p6
S'Voice Call'
p7
sS'callid'
p8
L1398L
sS'oid'
p9
L799496L
sS'number'
p10
g2
sS'person_oid'
p11
L82L
sS'contact'
p12
L187L
sS'starttime'
p13
cdatetime
datetime
p14
(S'\x07\xd5\x03\n\x13\x11\x13\x00\x00\x00'
p15
tp16
Rp17
sS'duration'
p18
L28L
sS'endtime'
p19
g14
(S'\x07\xd5\x03\n\x13\x11/\x00\x00\x00'
p20
tp21
Rp22
sS'phonenumber_oid'
p23
L3189L
s.(dp0
S'status'
p1
S''
p2
sS'direction'
p3
S'Incoming'
p4
sS'remote'
p5
g2
sS'description'
p6
S'Voice Call'
p7
sS'callid'
p8
L1400L
sS'oid'
p9
L799497L
sS'number'
p10
g2
sS'person_oid'
p11
L82L
sS'contact'
p12
L168L
sS'starttime'
p13
cdatetime
datetime
p14
(S'\x07\xd5\x03\n\x13\x13\x00\x00\x00\x00'
p15
tp16
Rp17
sS'duration'
p18
L18L
sS'endtime'
p19
g14
(S'\x07\xd5\x03\n\x13\x13\x12\x00\x00\x00'
p20
tp21
Rp22
sS'phonenumber_oid'
p23
L2401L
s.(dp0
S'status'
p1
S''
p2
sS'direction'
p3
S'Missed Call'
p4
sS'remote'
p5
g2
sS'description'
p6
S'Voice Call'
p7
sS'callid'
p8
L1401L
sS'oid'
p9
L799498L
sS'number'
p10
g2
sS'person_oid'
p11
L82L
sS'contact'
p12
L187L
sS'starttime'
p13
cdatetime
datetime
p14
(S'\x07\xd5\x03\n\x14\x19\x03\x00\x00\x00'
p15
tp16
Rp17
sS'duration'
p18
L0L
sS'endtime'
p19
g14
(S'\x07\xd5\x03\n\x14\x19\x03\x00\x00\x00'
p20
tp21
Rp22
sS'phonenumber_oid'
p23
L3189L
s.(dp0
S'status'
p1
S''
p2
sS'direction'
p3
S'Outgoing'
p4
sS'remote'
p5
g2
sS'description'
p6
S'Voice Call'
p7
sS'callid'
p8
L1404L
sS'oid'
p9
L799499L
sS'number'
p10
g2
sS'person_oid'
p11
L82L
sS'contact'
p12
L165L
sS'starttime'
p13
cdatetime
datetime
p14
(S'\x07\xd5\x03\n\x17\x14+\x00\x00\x00'
p15
tp16
Rp17
sS'duration'
p18
L39L
sS'endtime'
p19
g14
(S'\x07\xd5\x03\n\x17\x15\x16\x00\x00\x00'
p20
tp21
Rp22
sS'phonenumber_oid'
p23
L3172L
s.(dp0
S'status'
p1
S''
p2
sS'direction'
p3
S'Outgoing'
p4
sS'remote'
p5
g2
sS'description'
p6
S'Voice Call'
p7
sS'callid'
p8
L1405L
sS'oid'
p9
L799500L
sS'number'
p10
g2
sS'person_oid'
p11
L82L
sS'contact'
p12
L178L
sS'starttime'
p13
cdatetime
datetime
p14
(S'\x07\xd5\x03\n\x17\x16\x1f\x00\x00\x00'
p15
tp16
Rp17
sS'duration'
p18
L37L
sS'endtime'
p19
g14
(S'\x07\xd5\x03\n\x17\x17\x08\x00\x00\x00'
p20
tp21
Rp22
sS'phonenumber_oid'
p23
L3180L
s.(dp0
S'status'
p1
S''
p2
sS'direction'
p3
S'Incoming'
p4
sS'remote'
p5
g2
sS'description'
p6
S'Voice Call'
p7
sS'callid'
p8
L1407L
sS'oid'
p9
L799501L
sS'number'
p10
g2
sS'person_oid'
p11
L82L
sS'contact'
p12
L178L
sS'starttime'
p13
cdatetime
datetime
p14
(S'\x07\xd5\x03\n\x17\x18\x17\x00\x00\x00'
p15
tp16
Rp17
sS'duration'
p18
L75L
sS'endtime'
p19
g14
(S'\x07\xd5\x03\n\x17\x19&\x00\x00\x00'
p20
tp21
Rp22
sS'phonenumber_oid'
p23
L3180L
s.(dp0
S'status'
p1
S''
p2
sS'direction'
p3
S'Outgoing'
p4
sS'remote'
p5
g2
sS'description'
p6
S'Voice Call'
p7
sS'callid'
p8
L1410L
sS'oid'
p9
L799502L
sS'number'
p10
g2
sS'person_oid'
p11
L82L
sS'contact'
p12
L165L
sS'starttime'
p13
cdatetime
datetime
p14
(S'\x07\xd5\x03\x0b\x132)\x00\x00\x00'
p15
tp16
Rp17
sS'duration'
p18
L173L
sS'endtime'
p19
g14
(S'\x07\xd5\x03\x0b\x135"\x00\x00\x00'
p20
tp21
Rp22
sS'phonenumber_oid'
p23
L3172L
s.(dp0
S'status'
p1
S''
p2
sS'direction'
p3
S'Outgoing'
p4
sS'remote'
p5
g2
sS'description'
p6
S'Voice Call'
p7
sS'callid'
p8
L1411L
sS'oid'
p9
L799503L
sS'number'
p10
g2
sS'person_oid'
p11
L82L
sS'contact'
p12
L187L
sS'starttime'
p13
cdatetime
datetime
p14
(S'\x07\xd5\x03\x0b\x14\x08\x1f\x00\x00\x00'
p15
tp16
Rp17
sS'duration'
p18
L181L
sS'endtime'
p19
g14
(S'\x07\xd5\x03\x0b\x14\x0b \x00\x00\x00'
p20
tp21
Rp22
sS'phonenumber_oid'
p23
L3189L
s.(dp0
S'status'
p1
S''
p2
sS'direction'
p3
S'Outgoing'
p4
sS'remote'
p5
g2
sS'description'
p6
S'Voice Call'
p7
sS'callid'
p8
L1412L
sS'oid'
p9
L799504L
sS'number'
p10
g2
sS'person_oid'
p11
L82L
sS'contact'
p12
L185L
sS'starttime'
p13
cdatetime
datetime
p14
(S'\x07\xd5\x03\x0b\x14\x0c1\x00\x00\x00'
p15
tp16
Rp17
sS'duration'
p18
L0L
sS'endtime'
p19
g14
(S'\x07\xd5\x03\x0b\x14\x0c1\x00\x00\x00'
p20
tp21
Rp22
sS'phonenumber_oid'
p23
L3188L
s.(dp0
S'status'
p1
S''
p2
sS'direction'
p3
S'Incoming'
p4
sS'remote'
p5
g2
sS'description'
p6
S'Voice Call'
p7
sS'callid'
p8
L1414L
sS'oid'
p9
L799505L
sS'number'
p10
g2
sS'person_oid'
p11
L82L
sS'contact'
p12
L185L
sS'starttime'
p13
cdatetime
datetime
p14
(S'\x07\xd5\x03\x0b\x14 \x0c\x00\x00\x00'
p15
tp16
Rp17
sS'duration'
p18
L121L
sS'endtime'
p19
g14
(S'\x07\xd5\x03\x0b\x14"\r\x00\x00\x00'
p20
tp21
Rp22
sS'phonenumber_oid'
p23
L3188L
s.(dp0
S'status'
p1
S''
p2
sS'direction'
p3
S'Outgoing'
p4
sS'remote'
p5
g2
sS'description'
p6
S'Voice Call'
p7
sS'callid'
p8
L1415L
sS'oid'
p9
L799506L
sS'number'
p10
g2
sS'person_oid'
p11
L82L
sS'contact'
p12
L162L
sS'starttime'
p13
cdatetime
datetime
p14
(S'\x07\xd5\x03\x0b\x15\x0f\x03\x00\x00\x00'
p15
tp16
Rp17
sS'duration'
p18
L7L
sS'endtime'
p19
g14
(S'\x07\xd5\x03\x0b\x15\x0f\n\x00\x00\x00'
p20
tp21
Rp22
sS'phonenumber_oid'
p23
L3170L
s.(dp0
S'status'
p1
S''
p2
sS'direction'
p3
S'Outgoing'
p4
sS'remote'
p5
g2
sS'description'
p6
S'Voice Call'
p7
sS'callid'
p8
L1416L
sS'oid'
p9
L799507L
sS'number'
p10
g2
sS'person_oid'
p11
L82L
sS'contact'
p12
L165L
sS'starttime'
p13
cdatetime
datetime
p14
(S'\x07\xd5\x03\x0b\x15\x0f\x1f\x00\x00\x00'
p15
tp16
Rp17
sS'duration'
p18
L74L
sS'endtime'
p19
g14
(S'\x07\xd5\x03\x0b\x15\x10-\x00\x00\x00'
p20
tp21
Rp22
sS'phonenumber_oid'
p23
L3172L
s.(dp0
S'status'
p1
S''
p2
sS'direction'
p3
S'Outgoing'
p4
sS'remote'
p5
g2
sS'description'
p6
S'Voice Call'
p7
sS'callid'
p8
L1417L
sS'oid'
p9
L799508L
sS'number'
p10
g2
sS'person_oid'
p11
L82L
sS'contact'
p12
L185L
sS'starttime'
p13
cdatetime
datetime
p14
(S'\x07\xd5\x03\x0b\x15\x118\x00\x00\x00'
p15
tp16
Rp17
sS'duration'
p18
L105L
sS'endtime'
p19
g14
(S'\x07\xd5\x03\x0b\x15\x13)\x00\x00\x00'
p20
tp21
Rp22
sS'phonenumber_oid'
p23
L3188L
s.(dp0
S'status'
p1
S''
p2
sS'direction'
p3
S'Incoming'
p4
sS'remote'
p5
g2
sS'description'
p6
S'Voice Call'
p7
sS'callid'
p8
L1419L
sS'oid'
p9
L799509L
sS'number'
p10
g2
sS'person_oid'
p11
L82L
sS'contact'
p12
L165L
sS'starttime'
p13
cdatetime
datetime
p14
(S"\x07\xd5\x03\x0b\x15'\x16\x00\x00\x00"
p15
tp16
Rp17
sS'duration'
p18
L27L
sS'endtime'
p19
g14
(S"\x07\xd5\x03\x0b\x15'1\x00\x00\x00"
p20
tp21
Rp22
sS'phonenumber_oid'
p23
L3172L
s.(dp0
S'status'
p1
S''
p2
sS'direction'
p3
S'Incoming'
p4
sS'remote'
p5
g2
sS'description'
p6
S'Voice Call'
p7
sS'callid'
p8
L1421L
sS'oid'
p9
L799510L
sS'number'
p10
g2
sS'person_oid'
p11
L82L
sS'contact'
p12
L162L
sS'starttime'
p13
cdatetime
datetime
p14
(S'\x07\xd5\x03\x0b\x15)\x03\x00\x00\x00'
p15
tp16
Rp17
sS'duration'
p18
L30L
sS'endtime'
p19
g14
(S'\x07\xd5\x03\x0b\x15)!\x00\x00\x00'
p20
tp21
Rp22
sS'phonenumber_oid'
p23
L3170L
s.(dp0
S'status'
p1
S''
p2
sS'direction'
p3
S'Outgoing'
p4
sS'remote'
p5
g2
sS'description'
p6
S'Voice Call'
p7
sS'callid'
p8
L1422L
sS'oid'
p9
L799511L
sS'number'
p10
g2
sS'person_oid'
p11
L82L
sS'contact'
p12
L185L
sS'starttime'
p13
cdatetime
datetime
p14
(S'\x07\xd5\x03\x0b\x15)6\x00\x00\x00'
p15
tp16
Rp17
sS'duration'
p18
L104L
sS'endtime'
p19
g14
(S'\x07\xd5\x03\x0b\x15+&\x00\x00\x00'
p20
tp21
Rp22
sS'phonenumber_oid'
p23
L3188L
s.(dp0
S'status'
p1
S''
p2
sS'direction'
p3
S'Outgoing'
p4
sS'remote'
p5
g2
sS'description'
p6
S'Voice Call'
p7
sS'callid'
p8
L1423L
sS'oid'
p9
L799512L
sS'number'
p10
g2
sS'person_oid'
p11
L82L
sS'contact'
p12
L194L
sS'starttime'
p13
cdatetime
datetime
p14
(S'\x07\xd5\x03\x0c\x0b82\x00\x00\x00'
p15
tp16
Rp17
sS'duration'
p18
L86L
sS'endtime'
p19
g14
(S'\x07\xd5\x03\x0c\x0b:\x10\x00\x00\x00'
p20
tp21
Rp22
sS'phonenumber_oid'
p23
L3194L
s.(dp0
S'status'
p1
S''
p2
sS'direction'
p3
S'Outgoing'
p4
sS'remote'
p5
g2
sS'description'
p6
S'Voice Call'
p7
sS'callid'
p8
L1423L
sS'oid'
p9
L799521L
sS'number'
p10
g2
sS'person_oid'
p11
L82L
sS'contact'
p12
L194L
sS'starttime'
p13
cdatetime
datetime
p14
(S'\x07\xd5\x03\x0c\x0b82\x00\x00\x00'
p15
tp16
Rp17
sS'duration'
p18
L86L
sS'endtime'
p19
g14
(S'\x07\xd5\x03\x0c\x0b:\x10\x00\x00\x00'
p20
tp21
Rp22
sS'phonenumber_oid'
p23
L3194L
s.(dp0
S'status'
p1
S''
p2
sS'direction'
p3
S'Outgoing'
p4
sS'remote'
p5
g2
sS'description'
p6
S'Voice Call'
p7
sS'callid'
p8
L1424L
sS'oid'
p9
L799513L
sS'number'
p10
g2
sS'person_oid'
p11
L82L
sS'contact'
p12
L195L
sS'starttime'
p13
cdatetime
datetime
p14
(S'\x07\xd5\x03\x0c\x0b;\x1f\x00\x00\x00'
p15
tp16
Rp17
sS'duration'
p18
L31L
sS'endtime'
p19
g14
(S'\x07\xd5\x03\x0c\x0c\x00\x02\x00\x00\x00'
p20
tp21
Rp22
sS'phonenumber_oid'
p23
L3195L
s.(dp0
S'status'
p1
S''
p2
sS'direction'
p3
S'Outgoing'
p4
sS'remote'
p5
g2
sS'description'
p6
S'Voice Call'
p7
sS'callid'
p8
L1424L
sS'oid'
p9
L799522L
sS'number'
p10
g2
sS'person_oid'
p11
L82L
sS'contact'
p12
L195L
sS'starttime'
p13
cdatetime
datetime
p14
(S'\x07\xd5\x03\x0c\x0b;\x1f\x00\x00\x00'
p15
tp16
Rp17
sS'duration'
p18
L31L
sS'endtime'
p19
g14
(S'\x07\xd5\x03\x0c\x0c\x00\x02\x00\x00\x00'
p20
tp21
Rp22
sS'phonenumber_oid'
p23
L3195L
s.(dp0
S'status'
p1
S''
p2
sS'direction'
p3
S'Incoming'
p4
sS'remote'
p5
g2
sS'description'
p6
S'Voice Call'
p7
sS'callid'
p8
L1426L
sS'oid'
p9
L799514L
sS'number'
p10
g2
sS'person_oid'
p11
L82L
sS'contact'
p12
L195L
sS'starttime'
p13
cdatetime
datetime
p14
(S'\x07\xd5\x03\x0c\r\x1a!\x00\x00\x00'
p15
tp16
Rp17
sS'duration'
p18
L93L
sS'endtime'
p19
g14
(S'\x07\xd5\x03\x0c\r\x1c\x06\x00\x00\x00'
p20
tp21
Rp22
sS'phonenumber_oid'
p23
L3195L
s.(dp0
S'status'
p1
S''
p2
sS'direction'
p3
S'Incoming'
p4
sS'remote'
p5
g2
sS'description'
p6
S'Voice Call'
p7
sS'callid'
p8
L1426L
sS'oid'
p9
L799523L
sS'number'
p10
g2
sS'person_oid'
p11
L82L
sS'contact'
p12
L195L
sS'starttime'
p13
cdatetime
datetime
p14
(S'\x07\xd5\x03\x0c\r\x1a!\x00\x00\x00'
p15
tp16
Rp17
sS'duration'
p18
L93L
sS'endtime'
p19
g14
(S'\x07\xd5\x03\x0c\r\x1c\x06\x00\x00\x00'
p20
tp21
Rp22
sS'phonenumber_oid'
p23
L3195L
s.(dp0
S'status'
p1
S''
p2
sS'direction'
p3
S'Incoming'
p4
sS'remote'
p5
g2
sS'description'
p6
S'Voice Call'
p7
sS'callid'
p8
L1428L
sS'oid'
p9
L799515L
sS'number'
p10
g2
sS'person_oid'
p11
L82L
sS'contact'
p12
L165L
sS'starttime'
p13
cdatetime
datetime
p14
(S'\x07\xd5\x03\x0c\x109\x04\x00\x00\x00'
p15
tp16
Rp17
sS'duration'
p18
L45L
sS'endtime'
p19
g14
(S'\x07\xd5\x03\x0c\x1091\x00\x00\x00'
p20
tp21
Rp22
sS'phonenumber_oid'
p23
L3172L
s.(dp0
S'status'
p1
S''
p2
sS'direction'
p3
S'Incoming'
p4
sS'remote'
p5
g2
sS'description'
p6
S'Voice Call'
p7
sS'callid'
p8
L1428L
sS'oid'
p9
L799524L
sS'number'
p10
g2
sS'person_oid'
p11
L82L
sS'contact'
p12
L165L
sS'starttime'
p13
cdatetime
datetime
p14
(S'\x07\xd5\x03\x0c\x109\x04\x00\x00\x00'
p15
tp16
Rp17
sS'duration'
p18
L45L
sS'endtime'
p19
g14
(S'\x07\xd5\x03\x0c\x1091\x00\x00\x00'
p20
tp21
Rp22
sS'phonenumber_oid'
p23
L3172L
s.(dp0
S'status'
p1
S''
p2
sS'direction'
p3
S'Outgoing'
p4
sS'remote'
p5
g2
sS'description'
p6
S'Voice Call'
p7
sS'callid'
p8
L1429L
sS'oid'
p9
L799516L
sS'number'
p10
g2
sS'person_oid'
p11
L82L
sS'contact'
p12
L185L
sS'starttime'
p13
cdatetime
datetime
p14
(S'\x07\xd5\x03\x0c\x11)\x10\x00\x00\x00'
p15
tp16
Rp17
sS'duration'
p18
L32L
sS'endtime'
p19
g14
(S'\x07\xd5\x03\x0c\x11)0\x00\x00\x00'
p20
tp21
Rp22
sS'phonenumber_oid'
p23
L3188L
s.(dp0
S'status'
p1
S''
p2
sS'direction'
p3
S'Outgoing'
p4
sS'remote'
p5
g2
sS'description'
p6
S'Voice Call'
p7
sS'callid'
p8
L1429L
sS'oid'
p9
L799525L
sS'number'
p10
g2
sS'person_oid'
p11
L82L
sS'contact'
p12
L185L
sS'starttime'
p13
cdatetime
datetime
p14
(S'\x07\xd5\x03\x0c\x11)\x10\x00\x00\x00'
p15
tp16
Rp17
sS'duration'
p18
L32L
sS'endtime'
p19
g14
(S'\x07\xd5\x03\x0c\x11)0\x00\x00\x00'
p20
tp21
Rp22
sS'phonenumber_oid'
p23
L3188L
s.(dp0
S'status'
p1
S''
p2
sS'direction'
p3
S'Incoming'
p4
sS'remote'
p5
g2
sS'description'
p6
S'Voice Call'
p7
sS'callid'
p8
L1433L
sS'oid'
p9
L799517L
sS'number'
p10
g2
sS'person_oid'
p11
L82L
sS'contact'
p12
L187L
sS'starttime'
p13
cdatetime
datetime
p14
(S'\x07\xd5\x03\x0c\x12;\x06\x00\x00\x00'
p15
tp16
Rp17
sS'duration'
p18
L49L
sS'endtime'
p19
g14
(S'\x07\xd5\x03\x0c\x12;7\x00\x00\x00'
p20
tp21
Rp22
sS'phonenumber_oid'
p23
L3189L
s.(dp0
S'status'
p1
S''
p2
sS'direction'
p3
S'Incoming'
p4
sS'remote'
p5
g2
sS'description'
p6
S'Voice Call'
p7
sS'callid'
p8
L1433L
sS'oid'
p9
L799526L
sS'number'
p10
g2
sS'person_oid'
p11
L82L
sS'contact'
p12
L187L
sS'starttime'
p13
cdatetime
datetime
p14
(S'\x07\xd5\x03\x0c\x12;\x06\x00\x00\x00'
p15
tp16
Rp17
sS'duration'
p18
L49L
sS'endtime'
p19
g14
(S'\x07\xd5\x03\x0c\x12;7\x00\x00\x00'
p20
tp21
Rp22
sS'phonenumber_oid'
p23
L3189L
s.(dp0
S'status'
p1
S''
p2
sS'direction'
p3
S'Outgoing'
p4
sS'remote'
p5
g2
sS'description'
p6
S'Voice Call'
p7
sS'callid'
p8
L1434L
sS'oid'
p9
L799518L
sS'number'
p10
g2
sS'person_oid'
p11
L82L
sS'contact'
p12
L178L
sS'starttime'
p13
cdatetime
datetime
p14
(S'\x07\xd5\x03\x0c\x131\x1f\x00\x00\x00'
p15
tp16
Rp17
sS'duration'
p18
L60L
sS'endtime'
p19
g14
(S'\x07\xd5\x03\x0c\x132\x1f\x00\x00\x00'
p20
tp21
Rp22
sS'phonenumber_oid'
p23
L3180L
s.(dp0
S'status'
p1
S''
p2
sS'direction'
p3
S'Outgoing'
p4
sS'remote'
p5
g2
sS'description'
p6
S'Voice Call'
p7
sS'callid'
p8
L1434L
sS'oid'
p9
L799527L
sS'number'
p10
g2
sS'person_oid'
p11
L82L
sS'contact'
p12
L178L
sS'starttime'
p13
cdatetime
datetime
p14
(S'\x07\xd5\x03\x0c\x131\x1f\x00\x00\x00'
p15
tp16
Rp17
sS'duration'
p18
L60L
sS'endtime'
p19
g14
(S'\x07\xd5\x03\x0c\x132\x1f\x00\x00\x00'
p20
tp21
Rp22
sS'phonenumber_oid'
p23
L3180L
s.(dp0
S'status'
p1
S''
p2
sS'direction'
p3
S'Outgoing'
p4
sS'remote'
p5
g2
sS'description'
p6
S'Voice Call'
p7
sS'callid'
p8
L1435L
sS'oid'
p9
L799519L
sS'number'
p10
g2
sS'person_oid'
p11
L82L
sS'contact'
p12
L195L
sS'starttime'
p13
cdatetime
datetime
p14
(S'\x07\xd5\x03\x0c\x14\r\r\x00\x00\x00'
p15
tp16
Rp17
sS'duration'
p18
L66L
sS'endtime'
p19
g14
(S'\x07\xd5\x03\x0c\x14\x0e\x13\x00\x00\x00'
p20
tp21
Rp22
sS'phonenumber_oid'
p23
L3195L
s.(dp0
S'status'
p1
S''
p2
sS'direction'
p3
S'Outgoing'
p4
sS'remote'
p5
g2
sS'description'
p6
S'Voice Call'
p7
sS'callid'
p8
L1435L
sS'oid'
p9
L799528L
sS'number'
p10
g2
sS'person_oid'
p11
L82L
sS'contact'
p12
L195L
sS'starttime'
p13
cdatetime
datetime
p14
(S'\x07\xd5\x03\x0c\x14\r\r\x00\x00\x00'
p15
tp16
Rp17
sS'duration'
p18
L66L
sS'endtime'
p19
g14
(S'\x07\xd5\x03\x0c\x14\x0e\x13\x00\x00\x00'
p20
tp21
Rp22
sS'phonenumber_oid'
p23
L3195L
s.(dp0
S'status'
p1
S''
p2
sS'direction'
p3
S'Incoming'
p4
sS'remote'
p5
g2
sS'description'
p6
S'Voice Call'
p7
sS'callid'
p8
L1437L
sS'oid'
p9
L799520L
sS'number'
p10
g2
sS'person_oid'
p11
L82L
sS'contact'
p12
L178L
sS'starttime'
p13
cdatetime
datetime
p14
(S'\x07\xd5\x03\x0c\x14 \r\x00\x00\x00'
p15
tp16
Rp17
sS'duration'
p18
L8L
sS'endtime'
p19
g14
(S'\x07\xd5\x03\x0c\x14 \x15\x00\x00\x00'
p20
tp21
Rp22
sS'phonenumber_oid'
p23
L3180L
s.(dp0
S'status'
p1
S''
p2
sS'direction'
p3
S'Incoming'
p4
sS'remote'
p5
g2
sS'description'
p6
S'Voice Call'
p7
sS'callid'
p8
L1437L
sS'oid'
p9
L799529L
sS'number'
p10
g2
sS'person_oid'
p11
L82L
sS'contact'
p12
L178L
sS'starttime'
p13
cdatetime
datetime
p14
(S'\x07\xd5\x03\x0c\x14 \r\x00\x00\x00'
p15
tp16
Rp17
sS'duration'
p18
L8L
sS'endtime'
p19
g14
(S'\x07\xd5\x03\x0c\x14 \x15\x00\x00\x00'
p20
tp21
Rp22
sS'phonenumber_oid'
p23
L3180L
s.(dp0
S'status'
p1
S''
p2
sS'direction'
p3
S'Incoming'
p4
sS'remote'
p5
g2
sS'description'
p6
S'Voice Call'
p7
sS'callid'
p8
L1442L
sS'oid'
p9
L799530L
sS'number'
p10
g2
sS'person_oid'
p11
L82L
sS'contact'
p12
L178L
sS'starttime'
p13
cdatetime
datetime
p14
(S'\x07\xd5\x03\r\n\x059\x00\x00\x00'
p15
tp16
Rp17
sS'duration'
p18
L21L
sS'endtime'
p19
g14
(S'\x07\xd5\x03\r\n\x06\x12\x00\x00\x00'
p20
tp21
Rp22
sS'phonenumber_oid'
p23
L3180L
s.(dp0
S'status'
p1
S''
p2
sS'direction'
p3
S'Incoming'
p4
sS'remote'
p5
g2
sS'description'
p6
S'Voice Call'
p7
sS'callid'
p8
L1445L
sS'oid'
p9
L799531L
sS'number'
p10
g2
sS'person_oid'
p11
L82L
sS'contact'
p12
L185L
sS'starttime'
p13
cdatetime
datetime
p14
(S'\x07\xd5\x03\r\r,\x04\x00\x00\x00'
p15
tp16
Rp17
sS'duration'
p18
L63L
sS'endtime'
p19
g14
(S'\x07\xd5\x03\r\r-\x07\x00\x00\x00'
p20
tp21
Rp22
sS'phonenumber_oid'
p23
L3188L
s.(dp0
S'status'
p1
S''
p2
sS'direction'
p3
S'Missed Call'
p4
sS'remote'
p5
g2
sS'description'
p6
S'Voice Call'
p7
sS'callid'
p8
L1447L
sS'oid'
p9
L799532L
sS'number'
p10
g2
sS'person_oid'
p11
L82L
sS'contact'
p12
L185L
sS'starttime'
p13
cdatetime
datetime
p14
(S'\x07\xd5\x03\r\x0e\x1d\x04\x00\x00\x00'
p15
tp16
Rp17
sS'duration'
p18
L0L
sS'endtime'
p19
g14
(S'\x07\xd5\x03\r\x0e\x1d\x04\x00\x00\x00'
p20
tp21
Rp22
sS'phonenumber_oid'
p23
L3188L
s.(dp0
S'status'
p1
S''
p2
sS'direction'
p3
S'Outgoing'
p4
sS'remote'
p5
g2
sS'description'
p6
S'Voice Call'
p7
sS'callid'
p8
L1448L
sS'oid'
p9
L799533L
sS'number'
p10
g2
sS'person_oid'
p11
L82L
sS'contact'
p12
L185L
sS'starttime'
p13
cdatetime
datetime
p14
(S'\x07\xd5\x03\r\x0e\x1d.\x00\x00\x00'
p15
tp16
Rp17
sS'duration'
p18
L4L
sS'endtime'
p19
g14
(S'\x07\xd5\x03\r\x0e\x1d2\x00\x00\x00'
p20
tp21
Rp22
sS'phonenumber_oid'
p23
L3188L
s.(dp0
S'status'
p1
S''
p2
sS'direction'
p3
S'Incoming'
p4
sS'remote'
p5
g2
sS'description'
p6
S'Voice Call'
p7
sS'callid'
p8
L1450L
sS'oid'
p9
L799534L
sS'number'
p10
g2
sS'person_oid'
p11
L82L
sS'contact'
p12
L165L
sS'starttime'
p13
cdatetime
datetime
p14
(S'\x07\xd5\x03\r\x10\x12\x17\x00\x00\x00'
p15
tp16
Rp17
sS'duration'
p18
L129L
sS'endtime'
p19
g14
(S'\x07\xd5\x03\r\x10\x14 \x00\x00\x00'
p20
tp21
Rp22
sS'phonenumber_oid'
p23
L3172L
s.(dp0
S'status'
p1
S''
p2
sS'direction'
p3
S'Outgoing'
p4
sS'remote'
p5
g2
sS'description'
p6
S'Voice Call'
p7
sS'callid'
p8
L1451L
sS'oid'
p9
L799535L
sS'number'
p10
g2
sS'person_oid'
p11
L82L
sS'contact'
p12
L165L
sS'starttime'
p13
cdatetime
datetime
p14
(S'\x07\xd5\x03\r\x13\x18\x1e\x00\x00\x00'
p15
tp16
Rp17
sS'duration'
p18
L27L
sS'endtime'
p19
g14
(S'\x07\xd5\x03\r\x13\x189\x00\x00\x00'
p20
tp21
Rp22
sS'phonenumber_oid'
p23
L3172L
s.(dp0
S'status'
p1
S''
p2
sS'direction'
p3
S'Outgoing'
p4
sS'remote'
p5
g2
sS'description'
p6
S'Voice Call'
p7
sS'callid'
p8
L1452L
sS'oid'
p9
L799536L
sS'number'
p10
g2
sS'person_oid'
p11
L82L
sS'contact'
p12
L190L
sS'starttime'
p13
cdatetime
datetime
p14
(S'\x07\xd5\x03\r\x13-7\x00\x00\x00'
p15
tp16
Rp17
sS'duration'
p18
L31L
sS'endtime'
p19
g14
(S'\x07\xd5\x03\r\x13.\x1a\x00\x00\x00'
p20
tp21
Rp22
sS'phonenumber_oid'
p23
L3192L
s.(dp0
S'status'
p1
S''
p2
sS'direction'
p3
S'Incoming'
p4
sS'remote'
p5
g2
sS'description'
p6
S'Voice Call'
p7
sS'callid'
p8
L1454L
sS'oid'
p9
L799537L
sS'number'
p10
g2
sS'person_oid'
p11
L82L
sS'contact'
p12
L165L
sS'starttime'
p13
cdatetime
datetime
p14
(S'\x07\xd5\x03\r\x1320\x00\x00\x00'
p15
tp16
Rp17
sS'duration'
p18
L26L
sS'endtime'
p19
g14
(S'\x07\xd5\x03\r\x133\x0e\x00\x00\x00'
p20
tp21
Rp22
sS'phonenumber_oid'
p23
L3172L
s.(dp0
S'status'
p1
S''
p2
sS'direction'
p3
S'Incoming'
p4
sS'remote'
p5
g2
sS'description'
p6
S'Voice Call'
p7
sS'callid'
p8
L1463L
sS'oid'
p9
L799538L
sS'number'
p10
g2
sS'person_oid'
p11
L82L
sS'contact'
p12
L165L
sS'starttime'
p13
cdatetime
datetime
p14
(S'\x07\xd5\x03\r\x148,\x00\x00\x00'
p15
tp16
Rp17
sS'duration'
p18
L22L
sS'endtime'
p19
g14
(S'\x07\xd5\x03\r\x149\x06\x00\x00\x00'
p20
tp21
Rp22
sS'phonenumber_oid'
p23
L3172L
s.(dp0
S'status'
p1
S''
p2
sS'direction'
p3
S'Incoming'
p4
sS'remote'
p5
g2
sS'description'
p6
S'Voice Call'
p7
sS'callid'
p8
L1465L
sS'oid'
p9
L799539L
sS'number'
p10
g2
sS'person_oid'
p11
L82L
sS'contact'
p12
L165L
sS'starttime'
p13
cdatetime
datetime
p14
(S'\x07\xd5\x03\r\x15!\x00\x00\x00\x00'
p15
tp16
Rp17
sS'duration'
p18
L14L
sS'endtime'
p19
g14
(S'\x07\xd5\x03\r\x15!\x0e\x00\x00\x00'
p20
tp21
Rp22
sS'phonenumber_oid'
p23
L3172L
s.(dp0
S'status'
p1
S''
p2
sS'direction'
p3
S'Missed Call'
p4
sS'remote'
p5
g2
sS'description'
p6
S'Voice Call'
p7
sS'callid'
p8
L1476L
sS'oid'
p9
L799540L
sS'number'
p10
g2
sS'person_oid'
p11
L82L
sS'contact'
p12
L162L
sS'starttime'
p13
cdatetime
datetime
p14
(S'\x07\xd5\x03\x0f\x13!&\x00\x00\x00'
p15
tp16
Rp17
sS'duration'
p18
L0L
sS'endtime'
p19
g14
(S'\x07\xd5\x03\x0f\x13!&\x00\x00\x00'
p20
tp21
Rp22
sS'phonenumber_oid'
p23
L3170L
s.(dp0
S'status'
p1
S''
p2
sS'direction'
p3
S'Missed Call'
p4
sS'remote'
p5
g2
sS'description'
p6
S'Voice Call'
p7
sS'callid'
p8
L1476L
sS'oid'
p9
L799542L
sS'number'
p10
g2
sS'person_oid'
p11
L82L
sS'contact'
p12
L162L
sS'starttime'
p13
cdatetime
datetime
p14
(S'\x07\xd5\x03\x0f\x13!&\x00\x00\x00'
p15
tp16
Rp17
sS'duration'
p18
L0L
sS'endtime'
p19
g14
(S'\x07\xd5\x03\x0f\x13!&\x00\x00\x00'
p20
tp21
Rp22
sS'phonenumber_oid'
p23
L3170L
s.(dp0
S'status'
p1
S''
p2
sS'direction'
p3
S'Missed Call'
p4
sS'remote'
p5
g2
sS'description'
p6
S'Voice Call'
p7
sS'callid'
p8
L1477L
sS'oid'
p9
L799541L
sS'number'
p10
g2
sS'person_oid'
p11
L82L
sS'contact'
p12
L162L
sS'starttime'
p13
cdatetime
datetime
p14
(S'\x07\xd5\x03\x0f\x13*\x15\x00\x00\x00'
p15
tp16
Rp17
sS'duration'
p18
L0L
sS'endtime'
p19
g14
(S'\x07\xd5\x03\x0f\x13*\x15\x00\x00\x00'
p20
tp21
Rp22
sS'phonenumber_oid'
p23
L3170L
s.(dp0
S'status'
p1
S''
p2
sS'direction'
p3
S'Missed Call'
p4
sS'remote'
p5
g2
sS'description'
p6
S'Voice Call'
p7
sS'callid'
p8
L1477L
sS'oid'
p9
L799543L
sS'number'
p10
g2
sS'person_oid'
p11
L82L
sS'contact'
p12
L162L
sS'starttime'
p13
cdatetime
datetime
p14
(S'\x07\xd5\x03\x0f\x13*\x15\x00\x00\x00'
p15
tp16
Rp17
sS'duration'
p18
L0L
sS'endtime'
p19
g14
(S'\x07\xd5\x03\x0f\x13*\x15\x00\x00\x00'
p20
tp21
Rp22
sS'phonenumber_oid'
p23
L3170L
s.(dp0
S'status'
p1
S''
p2
sS'direction'
p3
S'Outgoing'
p4
sS'remote'
p5
g2
sS'description'
p6
S'Voice Call'
p7
sS'callid'
p8
L1485L
sS'oid'
p9
L799544L
sS'number'
p10
g2
sS'person_oid'
p11
L82L
sS'contact'
p12
L162L
sS'starttime'
p13
cdatetime
datetime
p14
(S'\x07\xd5\x03\x12\x12\t\x0f\x00\x00\x00'
p15
tp16
Rp17
sS'duration'
p18
L8L
sS'endtime'
p19
g14
(S'\x07\xd5\x03\x12\x12\t\x17\x00\x00\x00'
p20
tp21
Rp22
sS'phonenumber_oid'
p23
L3170L
s.(dp0
S'status'
p1
S''
p2
sS'direction'
p3
S'Outgoing'
p4
sS'remote'
p5
g2
sS'description'
p6
S'Voice Call'
p7
sS'callid'
p8
L1485L
sS'oid'
p9
L799551L
sS'number'
p10
g2
sS'person_oid'
p11
L82L
sS'contact'
p12
L162L
sS'starttime'
p13
cdatetime
datetime
p14
(S'\x07\xd5\x03\x12\x12\t\x0f\x00\x00\x00'
p15
tp16
Rp17
sS'duration'
p18
L8L
sS'endtime'
p19
g14
(S'\x07\xd5\x03\x12\x12\t\x17\x00\x00\x00'
p20
tp21
Rp22
sS'phonenumber_oid'
p23
L3170L
s.(dp0
S'status'
p1
S''
p2
sS'direction'
p3
S'Outgoing'
p4
sS'remote'
p5
g2
sS'description'
p6
S'Voice Call'
p7
sS'callid'
p8
L1486L
sS'oid'
p9
L799545L
sS'number'
p10
g2
sS'person_oid'
p11
L82L
sS'contact'
p12
L162L
sS'starttime'
p13
cdatetime
datetime
p14
(S'\x07\xd5\x03\x12\x14.\x1e\x00\x00\x00'
p15
tp16
Rp17
sS'duration'
p18
L28L
sS'endtime'
p19
g14
(S'\x07\xd5\x03\x12\x14.:\x00\x00\x00'
p20
tp21
Rp22
sS'phonenumber_oid'
p23
L3170L
s.(dp0
S'status'
p1
S''
p2
sS'direction'
p3
S'Outgoing'
p4
sS'remote'
p5
g2
sS'description'
p6
S'Voice Call'
p7
sS'callid'
p8
L1486L
sS'oid'
p9
L799552L
sS'number'
p10
g2
sS'person_oid'
p11
L82L
sS'contact'
p12
L162L
sS'starttime'
p13
cdatetime
datetime
p14
(S'\x07\xd5\x03\x12\x14.\x1e\x00\x00\x00'
p15
tp16
Rp17
sS'duration'
p18
L28L
sS'endtime'
p19
g14
(S'\x07\xd5\x03\x12\x14.:\x00\x00\x00'
p20
tp21
Rp22
sS'phonenumber_oid'
p23
L3170L
s.(dp0
S'status'
p1
S''
p2
sS'direction'
p3
S'Missed Call'
p4
sS'remote'
p5
g2
sS'description'
p6
S'Voice Call'
p7
sS'callid'
p8
L1487L
sS'oid'
p9
L799546L
sS'number'
p10
g2
sS'person_oid'
p11
L82L
sS'contact'
p12
L162L
sS'starttime'
p13
cdatetime
datetime
p14
(S'\x07\xd5\x03\x12\x15\x188\x00\x00\x00'
p15
tp16
Rp17
sS'duration'
p18
L0L
sS'endtime'
p19
g14
(S'\x07\xd5\x03\x12\x15\x188\x00\x00\x00'
p20
tp21
Rp22
sS'phonenumber_oid'
p23
L3170L
s.(dp0
S'status'
p1
S''
p2
sS'direction'
p3
S'Missed Call'
p4
sS'remote'
p5
g2
sS'description'
p6
S'Voice Call'
p7
sS'callid'
p8
L1487L
sS'oid'
p9
L799553L
sS'number'
p10
g2
sS'person_oid'
p11
L82L
sS'contact'
p12
L162L
sS'starttime'
p13
cdatetime
datetime
p14
(S'\x07\xd5\x03\x12\x15\x188\x00\x00\x00'
p15
tp16
Rp17
sS'duration'
p18
L0L
sS'endtime'
p19
g14
(S'\x07\xd5\x03\x12\x15\x188\x00\x00\x00'
p20
tp21
Rp22
sS'phonenumber_oid'
p23
L3170L
s.(dp0
S'status'
p1
S''
p2
sS'direction'
p3
S'Outgoing'
p4
sS'remote'
p5
g2
sS'description'
p6
S'Voice Call'
p7
sS'callid'
p8
L1488L
sS'oid'
p9
L799547L
sS'number'
p10
g2
sS'person_oid'
p11
L82L
sS'contact'
p12
L162L
sS'starttime'
p13
cdatetime
datetime
p14
(S'\x07\xd5\x03\x12\x15\x19"\x00\x00\x00'
p15
tp16
Rp17
sS'duration'
p18
L24L
sS'endtime'
p19
g14
(S'\x07\xd5\x03\x12\x15\x19:\x00\x00\x00'
p20
tp21
Rp22
sS'phonenumber_oid'
p23
L3170L
s.(dp0
S'status'
p1
S''
p2
sS'direction'
p3
S'Outgoing'
p4
sS'remote'
p5
g2
sS'description'
p6
S'Voice Call'
p7
sS'callid'
p8
L1488L
sS'oid'
p9
L799554L
sS'number'
p10
g2
sS'person_oid'
p11
L82L
sS'contact'
p12
L162L
sS'starttime'
p13
cdatetime
datetime
p14
(S'\x07\xd5\x03\x12\x15\x19"\x00\x00\x00'
p15
tp16
Rp17
sS'duration'
p18
L24L
sS'endtime'
p19
g14
(S'\x07\xd5\x03\x12\x15\x19:\x00\x00\x00'
p20
tp21
Rp22
sS'phonenumber_oid'
p23
L3170L
s.(dp0
S'status'
p1
S''
p2
sS'direction'
p3
S'Outgoing'
p4
sS'remote'
p5
g2
sS'description'
p6
S'Voice Call'
p7
sS'callid'
p8
L1489L
sS'oid'
p9
L799548L
sS'number'
p10
g2
sS'person_oid'
p11
L82L
sS'contact'
p12
L196L
sS'starttime'
p13
cdatetime
datetime
p14
(S'\x07\xd5\x03\x13\x00\x0e&\x00\x00\x00'
p15
tp16
Rp17
sS'duration'
p18
L126L
sS'endtime'
p19
g14
(S'\x07\xd5\x03\x13\x00\x10,\x00\x00\x00'
p20
tp21
Rp22
sS'phonenumber_oid'
p23
L3196L
s.(dp0
S'status'
p1
S''
p2
sS'direction'
p3
S'Outgoing'
p4
sS'remote'
p5
g2
sS'description'
p6
S'Voice Call'
p7
sS'callid'
p8
L1489L
sS'oid'
p9
L799555L
sS'number'
p10
g2
sS'person_oid'
p11
L82L
sS'contact'
p12
L196L
sS'starttime'
p13
cdatetime
datetime
p14
(S'\x07\xd5\x03\x13\x00\x0e&\x00\x00\x00'
p15
tp16
Rp17
sS'duration'
p18
L126L
sS'endtime'
p19
g14
(S'\x07\xd5\x03\x13\x00\x10,\x00\x00\x00'
p20
tp21
Rp22
sS'phonenumber_oid'
p23
L3196L
s.(dp0
S'status'
p1
S''
p2
sS'direction'
p3
S'Missed Call'
p4
sS'remote'
p5
g2
sS'description'
p6
S'Voice Call'
p7
sS'callid'
p8
L1490L
sS'oid'
p9
L799549L
sS'number'
p10
g2
sS'person_oid'
p11
L82L
sS'contact'
p12
L176L
sS'starttime'
p13
cdatetime
datetime
p14
(S'\x07\xd5\x03\x13\x019\x16\x00\x00\x00'
p15
tp16
Rp17
sS'duration'
p18
L0L
sS'endtime'
p19
g14
(S'\x07\xd5\x03\x13\x019\x16\x00\x00\x00'
p20
tp21
Rp22
sS'phonenumber_oid'
p23
L3197L
s.(dp0
S'status'
p1
S''
p2
sS'direction'
p3
S'Missed Call'
p4
sS'remote'
p5
g2
sS'description'
p6
S'Voice Call'
p7
sS'callid'
p8
L1490L
sS'oid'
p9
L799556L
sS'number'
p10
g2
sS'person_oid'
p11
L82L
sS'contact'
p12
L176L
sS'starttime'
p13
cdatetime
datetime
p14
(S'\x07\xd5\x03\x13\x019\x16\x00\x00\x00'
p15
tp16
Rp17
sS'duration'
p18
L0L
sS'endtime'
p19
g14
(S'\x07\xd5\x03\x13\x019\x16\x00\x00\x00'
p20
tp21
Rp22
sS'phonenumber_oid'
p23
L3197L
s.(dp0
S'status'
p1
S''
p2
sS'direction'
p3
S'Outgoing'
p4
sS'remote'
p5
g2
sS'description'
p6
S'Voice Call'
p7
sS'callid'
p8
L1491L
sS'oid'
p9
L799550L
sS'number'
p10
g2
sS'person_oid'
p11
L82L
sS'contact'
p12
L176L
sS'starttime'
p13
cdatetime
datetime
p14
(S'\x07\xd5\x03\x13\x02\t\x00\x00\x00\x00'
p15
tp16
Rp17
sS'duration'
p18
L663L
sS'endtime'
p19
g14
(S'\x07\xd5\x03\x13\x02\x14\x03\x00\x00\x00'
p20
tp21
Rp22
sS'phonenumber_oid'
p23
L3197L
s.(dp0
S'status'
p1
S''
p2
sS'direction'
p3
S'Outgoing'
p4
sS'remote'
p5
g2
sS'description'
p6
S'Voice Call'
p7
sS'callid'
p8
L1491L
sS'oid'
p9
L799557L
sS'number'
p10
g2
sS'person_oid'
p11
L82L
sS'contact'
p12
L176L
sS'starttime'
p13
cdatetime
datetime
p14
(S'\x07\xd5\x03\x13\x02\t\x00\x00\x00\x00'
p15
tp16
Rp17
sS'duration'
p18
L663L
sS'endtime'
p19
g14
(S'\x07\xd5\x03\x13\x02\x14\x03\x00\x00\x00'
p20
tp21
Rp22
sS'phonenumber_oid'
p23
L3197L
s.(dp0
S'status'
p1
S''
p2
sS'direction'
p3
S'Outgoing'
p4
sS'remote'
p5
g2
sS'description'
p6
S'Voice Call'
p7
sS'callid'
p8
L1492L
sS'oid'
p9
L799558L
sS'number'
p10
g2
sS'person_oid'
p11
L82L
sS'contact'
p12
L197L
sS'starttime'
p13
cdatetime
datetime
p14
(S'\x07\xd5\x03\x14\x06\x12$\x00\x00\x00'
p15
tp16
Rp17
sS'duration'
p18
L0L
sS'endtime'
p19
g14
(S'\x07\xd5\x03\x14\x06\x12$\x00\x00\x00'
p20
tp21
Rp22
sS'phonenumber_oid'
p23
L3198L
s.(dp0
S'status'
p1
S''
p2
sS'direction'
p3
S'Outgoing'
p4
sS'remote'
p5
g2
sS'description'
p6
S'Voice Call'
p7
sS'callid'
p8
L1492L
sS'oid'
p9
L799567L
sS'number'
p10
g2
sS'person_oid'
p11
L82L
sS'contact'
p12
L197L
sS'starttime'
p13
cdatetime
datetime
p14
(S'\x07\xd5\x03\x14\x06\x12$\x00\x00\x00'
p15
tp16
Rp17
sS'duration'
p18
L0L
sS'endtime'
p19
g14
(S'\x07\xd5\x03\x14\x06\x12$\x00\x00\x00'
p20
tp21
Rp22
sS'phonenumber_oid'
p23
L3198L
s.(dp0
S'status'
p1
S''
p2
sS'direction'
p3
S'Outgoing'
p4
sS'remote'
p5
g2
sS'description'
p6
S'Voice Call'
p7
sS'callid'
p8
L1493L
sS'oid'
p9
L799559L
sS'number'
p10
g2
sS'person_oid'
p11
L82L
sS'contact'
p12
L196L
sS'starttime'
p13
cdatetime
datetime
p14
(S"\x07\xd5\x03\x14\n,'\x00\x00\x00"
p15
tp16
Rp17
sS'duration'
p18
L42L
sS'endtime'
p19
g14
(S'\x07\xd5\x03\x14\n-\x15\x00\x00\x00'
p20
tp21
Rp22
sS'phonenumber_oid'
p23
L3196L
s.(dp0
S'status'
p1
S''
p2
sS'direction'
p3
S'Outgoing'
p4
sS'remote'
p5
g2
sS'description'
p6
S'Voice Call'
p7
sS'callid'
p8
L1493L
sS'oid'
p9
L799568L
sS'number'
p10
g2
sS'person_oid'
p11
L82L
sS'contact'
p12
L196L
sS'starttime'
p13
cdatetime
datetime
p14
(S"\x07\xd5\x03\x14\n,'\x00\x00\x00"
p15
tp16
Rp17
sS'duration'
p18
L42L
sS'endtime'
p19
g14
(S'\x07\xd5\x03\x14\n-\x15\x00\x00\x00'
p20
tp21
Rp22
sS'phonenumber_oid'
p23
L3196L
s.(dp0
S'status'
p1
S''
p2
sS'direction'
p3
S'Incoming'
p4
sS'remote'
p5
g2
sS'description'
p6
S'Voice Call'
p7
sS'callid'
p8
L1495L
sS'oid'
p9
L799560L
sS'number'
p10
g2
sS'person_oid'
p11
L82L
sS'contact'
p12
L196L
sS'starttime'
p13
cdatetime
datetime
p14
(S'\x07\xd5\x03\x14\n3\x1f\x00\x00\x00'
p15
tp16
Rp17
sS'duration'
p18
L11L
sS'endtime'
p19
g14
(S'\x07\xd5\x03\x14\n3*\x00\x00\x00'
p20
tp21
Rp22
sS'phonenumber_oid'
p23
L3196L
s.(dp0
S'status'
p1
S''
p2
sS'direction'
p3
S'Incoming'
p4
sS'remote'
p5
g2
sS'description'
p6
S'Voice Call'
p7
sS'callid'
p8
L1495L
sS'oid'
p9
L799569L
sS'number'
p10
g2
sS'person_oid'
p11
L82L
sS'contact'
p12
L196L
sS'starttime'
p13
cdatetime
datetime
p14
(S'\x07\xd5\x03\x14\n3\x1f\x00\x00\x00'
p15
tp16
Rp17
sS'duration'
p18
L11L
sS'endtime'
p19
g14
(S'\x07\xd5\x03\x14\n3*\x00\x00\x00'
p20
tp21
Rp22
sS'phonenumber_oid'
p23
L3196L
s.(dp0
S'status'
p1
S''
p2
sS'direction'
p3
S'Incoming'
p4
sS'remote'
p5
g2
sS'description'
p6
S'Voice Call'
p7
sS'callid'
p8
L1497L
sS'oid'
p9
L799561L
sS'number'
p10
g2
sS'person_oid'
p11
L82L
sS'contact'
p12
L176L
sS'starttime'
p13
cdatetime
datetime
p14
(S'\x07\xd5\x03\x14\x0b\x1d\x1e\x00\x00\x00'
p15
tp16
Rp17
sS'duration'
p18
L174L
sS'endtime'
p19
g14
(S'\x07\xd5\x03\x14\x0b \x18\x00\x00\x00'
p20
tp21
Rp22
sS'phonenumber_oid'
p23
L3197L
s.(dp0
S'status'
p1
S''
p2
sS'direction'
p3
S'Incoming'
p4
sS'remote'
p5
g2
sS'description'
p6
S'Voice Call'
p7
sS'callid'
p8
L1497L
sS'oid'
p9
L799570L
sS'number'
p10
g2
sS'person_oid'
p11
L82L
sS'contact'
p12
L176L
sS'starttime'
p13
cdatetime
datetime
p14
(S'\x07\xd5\x03\x14\x0b\x1d\x1e\x00\x00\x00'
p15
tp16
Rp17
sS'duration'
p18
L174L
sS'endtime'
p19
g14
(S'\x07\xd5\x03\x14\x0b \x18\x00\x00\x00'
p20
tp21
Rp22
sS'phonenumber_oid'
p23
L3197L
s.(dp0
S'status'
p1
S''
p2
sS'direction'
p3
S'Incoming'
p4
sS'remote'
p5
g2
sS'description'
p6
S'Voice Call'
p7
sS'callid'
p8
L1499L
sS'oid'
p9
L799562L
sS'number'
p10
g2
sS'person_oid'
p11
L82L
sS'contact'
p12
L167L
sS'starttime'
p13
cdatetime
datetime
p14
(S'\x07\xd5\x03\x14\x0c\x042\x00\x00\x00'
p15
tp16
Rp17
sS'duration'
p18
L49L
sS'endtime'
p19
g14
(S"\x07\xd5\x03\x14\x0c\x05'\x00\x00\x00"
p20
tp21
Rp22
sS'phonenumber_oid'
p23
L3174L
s.(dp0
S'status'
p1
S''
p2
sS'direction'
p3
S'Incoming'
p4
sS'remote'
p5
g2
sS'description'
p6
S'Voice Call'
p7
sS'callid'
p8
L1499L
sS'oid'
p9
L799571L
sS'number'
p10
g2
sS'person_oid'
p11
L82L
sS'contact'
p12
L167L
sS'starttime'
p13
cdatetime
datetime
p14
(S'\x07\xd5\x03\x14\x0c\x042\x00\x00\x00'
p15
tp16
Rp17
sS'duration'
p18
L49L
sS'endtime'
p19
g14
(S"\x07\xd5\x03\x14\x0c\x05'\x00\x00\x00"
p20
tp21
Rp22
sS'phonenumber_oid'
p23
L3174L
s.(dp0
S'status'
p1
S''
p2
sS'direction'
p3
S'Outgoing'
p4
sS'remote'
p5
g2
sS'description'
p6
S'Voice Call'
p7
sS'callid'
p8
L1500L
sS'oid'
p9
L799563L
sS'number'
p10
g2
sS'person_oid'
p11
L82L
sS'contact'
p12
L196L
sS'starttime'
p13
cdatetime
datetime
p14
(S'\x07\xd5\x03\x14\x11\x16\x1e\x00\x00\x00'
p15
tp16
Rp17
sS'duration'
p18
L48L
sS'endtime'
p19
g14
(S'\x07\xd5\x03\x14\x11\x17\x12\x00\x00\x00'
p20
tp21
Rp22
sS'phonenumber_oid'
p23
L3196L
s.(dp0
S'status'
p1
S''
p2
sS'direction'
p3
S'Outgoing'
p4
sS'remote'
p5
g2
sS'description'
p6
S'Voice Call'
p7
sS'callid'
p8
L1500L
sS'oid'
p9
L799572L
sS'number'
p10
g2
sS'person_oid'
p11
L82L
sS'contact'
p12
L196L
sS'starttime'
p13
cdatetime
datetime
p14
(S'\x07\xd5\x03\x14\x11\x16\x1e\x00\x00\x00'
p15
tp16
Rp17
sS'duration'
p18
L48L
sS'endtime'
p19
g14
(S'\x07\xd5\x03\x14\x11\x17\x12\x00\x00\x00'
p20
tp21
Rp22
sS'phonenumber_oid'
p23
L3196L
s.(dp0
S'status'
p1
S''
p2
sS'direction'
p3
S'Incoming'
p4
sS'remote'
p5
g2
sS'description'
p6
S'Voice Call'
p7
sS'callid'
p8
L1502L
sS'oid'
p9
L799564L
sS'number'
p10
g2
sS'person_oid'
p11
L82L
sS'contact'
p12
L194L
sS'starttime'
p13
cdatetime
datetime
p14
(S'\x07\xd5\x03\x14\x12"\x00\x00\x00\x00'
p15
tp16
Rp17
sS'duration'
p18
L341L
sS'endtime'
p19
g14
(S"\x07\xd5\x03\x14\x12')\x00\x00\x00"
p20
tp21
Rp22
sS'phonenumber_oid'
p23
L3194L
s.(dp0
S'status'
p1
S''
p2
sS'direction'
p3
S'Incoming'
p4
sS'remote'
p5
g2
sS'description'
p6
S'Voice Call'
p7
sS'callid'
p8
L1502L
sS'oid'
p9
L799573L
sS'number'
p10
g2
sS'person_oid'
p11
L82L
sS'contact'
p12
L194L
sS'starttime'
p13
cdatetime
datetime
p14
(S'\x07\xd5\x03\x14\x12"\x00\x00\x00\x00'
p15
tp16
Rp17
sS'duration'
p18
L341L
sS'endtime'
p19
g14
(S"\x07\xd5\x03\x14\x12')\x00\x00\x00"
p20
tp21
Rp22
sS'phonenumber_oid'
p23
L3194L
s.(dp0
S'status'
p1
S''
p2
sS'direction'
p3
S'Incoming'
p4
sS'remote'
p5
g2
sS'description'
p6
S'Voice Call'
p7
sS'callid'
p8
L1504L
sS'oid'
p9
L799565L
sS'number'
p10
g2
sS'person_oid'
p11
L82L
sS'contact'
p12
L194L
sS'starttime'
p13
cdatetime
datetime
p14
(S"\x07\xd5\x03\x14\x12'6\x00\x00\x00"
p15
tp16
Rp17
sS'duration'
p18
L1704L
sS'endtime'
p19
g14
(S'\x07\xd5\x03\x14\x13\x08\x12\x00\x00\x00'
p20
tp21
Rp22
sS'phonenumber_oid'
p23
L3194L
s.(dp0
S'status'
p1
S''
p2
sS'direction'
p3
S'Incoming'
p4
sS'remote'
p5
g2
sS'description'
p6
S'Voice Call'
p7
sS'callid'
p8
L1504L
sS'oid'
p9
L799574L
sS'number'
p10
g2
sS'person_oid'
p11
L82L
sS'contact'
p12
L194L
sS'starttime'
p13
cdatetime
datetime
p14
(S"\x07\xd5\x03\x14\x12'6\x00\x00\x00"
p15
tp16
Rp17
sS'duration'
p18
L1704L
sS'endtime'
p19
g14
(S'\x07\xd5\x03\x14\x13\x08\x12\x00\x00\x00'
p20
tp21
Rp22
sS'phonenumber_oid'
p23
L3194L
s.(dp0
S'status'
p1
S''
p2
sS'direction'
p3
S'Incoming'
p4
sS'remote'
p5
g2
sS'description'
p6
S'Voice Call'
p7
sS'callid'
p8
L1506L
sS'oid'
p9
L799566L
sS'number'
p10
g2
sS'person_oid'
p11
L82L
sS'contact'
p12
L174L
sS'starttime'
p13
cdatetime
datetime
p14
(S'\x07\xd5\x03\x14\x14,\x03\x00\x00\x00'
p15
tp16
Rp17
sS'duration'
p18
L1880L
sS'endtime'
p19
g14
(S'\x07\xd5\x03\x14\x15\x0f\x17\x00\x00\x00'
p20
tp21
Rp22
sS'phonenumber_oid'
p23
L3179L
s.(dp0
S'status'
p1
S''
p2
sS'direction'
p3
S'Incoming'
p4
sS'remote'
p5
g2
sS'description'
p6
S'Voice Call'
p7
sS'callid'
p8
L1506L
sS'oid'
p9
L799575L
sS'number'
p10
g2
sS'person_oid'
p11
L82L
sS'contact'
p12
L174L
sS'starttime'
p13
cdatetime
datetime
p14
(S'\x07\xd5\x03\x14\x14,\x03\x00\x00\x00'
p15
tp16
Rp17
sS'duration'
p18
L1880L
sS'endtime'
p19
g14
(S'\x07\xd5\x03\x14\x15\x0f\x17\x00\x00\x00'
p20
tp21
Rp22
sS'phonenumber_oid'
p23
L3179L
s.(dp0
S'status'
p1
S''
p2
sS'direction'
p3
S'Outgoing'
p4
sS'remote'
p5
g2
sS'description'
p6
S'Voice Call'
p7
sS'callid'
p8
L1508L
sS'oid'
p9
L799576L
sS'number'
p10
g2
sS'person_oid'
p11
L82L
sS'contact'
p12
L196L
sS'starttime'
p13
cdatetime
datetime
p14
(S'\x07\xd5\x03\x15\x0f,)\x00\x00\x00'
p15
tp16
Rp17
sS'duration'
p18
L44L
sS'endtime'
p19
g14
(S'\x07\xd5\x03\x15\x0f-\x19\x00\x00\x00'
p20
tp21
Rp22
sS'phonenumber_oid'
p23
L3196L
s.(dp0
S'status'
p1
S''
p2
sS'direction'
p3
S'Outgoing'
p4
sS'remote'
p5
g2
sS'description'
p6
S'Voice Call'
p7
sS'callid'
p8
L1508L
sS'oid'
p9
L799579L
sS'number'
p10
g2
sS'person_oid'
p11
L82L
sS'contact'
p12
L196L
sS'starttime'
p13
cdatetime
datetime
p14
(S'\x07\xd5\x03\x15\x0f,)\x00\x00\x00'
p15
tp16
Rp17
sS'duration'
p18
L44L
sS'endtime'
p19
g14
(S'\x07\xd5\x03\x15\x0f-\x19\x00\x00\x00'
p20
tp21
Rp22
sS'phonenumber_oid'
p23
L3196L
s.(dp0
S'status'
p1
S''
p2
sS'direction'
p3
S'Incoming'
p4
sS'remote'
p5
g2
sS'description'
p6
S'Voice Call'
p7
sS'callid'
p8
L1511L
sS'oid'
p9
L799577L
sS'number'
p10
g2
sS'person_oid'
p11
L82L
sS'contact'
p12
L196L
sS'starttime'
p13
cdatetime
datetime
p14
(S'\x07\xd5\x03\x15\x13\x1f\x01\x00\x00\x00'
p15
tp16
Rp17
sS'duration'
p18
L30L
sS'endtime'
p19
g14
(S'\x07\xd5\x03\x15\x13\x1f\x1f\x00\x00\x00'
p20
tp21
Rp22
sS'phonenumber_oid'
p23
L3196L
s.(dp0
S'status'
p1
S''
p2
sS'direction'
p3
S'Incoming'
p4
sS'remote'
p5
g2
sS'description'
p6
S'Voice Call'
p7
sS'callid'
p8
L1511L
sS'oid'
p9
L799580L
sS'number'
p10
g2
sS'person_oid'
p11
L82L
sS'contact'
p12
L196L
sS'starttime'
p13
cdatetime
datetime
p14
(S'\x07\xd5\x03\x15\x13\x1f\x01\x00\x00\x00'
p15
tp16
Rp17
sS'duration'
p18
L30L
sS'endtime'
p19
g14
(S'\x07\xd5\x03\x15\x13\x1f\x1f\x00\x00\x00'
p20
tp21
Rp22
sS'phonenumber_oid'
p23
L3196L
s.(dp0
S'status'
p1
S''
p2
sS'direction'
p3
S'Incoming'
p4
sS'remote'
p5
g2
sS'description'
p6
S'Voice Call'
p7
sS'callid'
p8
L1513L
sS'oid'
p9
L799578L
sS'number'
p10
g2
sS'person_oid'
p11
L82L
sS'contact'
p12
L176L
sS'starttime'
p13
cdatetime
datetime
p14
(S'\x07\xd5\x03\x15\x1461\x00\x00\x00'
p15
tp16
Rp17
sS'duration'
p18
L1916L
sS'endtime'
p19
g14
(S'\x07\xd5\x03\x15\x15\x1a-\x00\x00\x00'
p20
tp21
Rp22
sS'phonenumber_oid'
p23
L3197L
s.(dp0
S'status'
p1
S''
p2
sS'direction'
p3
S'Incoming'
p4
sS'remote'
p5
g2
sS'description'
p6
S'Voice Call'
p7
sS'callid'
p8
L1513L
sS'oid'
p9
L799581L
sS'number'
p10
g2
sS'person_oid'
p11
L82L
sS'contact'
p12
L176L
sS'starttime'
p13
cdatetime
datetime
p14
(S'\x07\xd5\x03\x15\x1461\x00\x00\x00'
p15
tp16
Rp17
sS'duration'
p18
L1916L
sS'endtime'
p19
g14
(S'\x07\xd5\x03\x15\x15\x1a-\x00\x00\x00'
p20
tp21
Rp22
sS'phonenumber_oid'
p23
L3197L
s.(dp0
S'status'
p1
S''
p2
sS'direction'
p3
S'Outgoing'
p4
sS'remote'
p5
g2
sS'description'
p6
S'Voice Call'
p7
sS'callid'
p8
L1517L
sS'oid'
p9
L799582L
sS'number'
p10
g2
sS'person_oid'
p11
L82L
sS'contact'
p12
L196L
sS'starttime'
p13
cdatetime
datetime
p14
(S'\x07\xd5\x03\x16\x10\x0e\x08\x00\x00\x00'
p15
tp16
Rp17
sS'duration'
p18
L19L
sS'endtime'
p19
g14
(S'\x07\xd5\x03\x16\x10\x0e\x1b\x00\x00\x00'
p20
tp21
Rp22
sS'phonenumber_oid'
p23
L3196L
s.(dp0
S'status'
p1
S''
p2
sS'direction'
p3
S'Outgoing'
p4
sS'remote'
p5
g2
sS'description'
p6
S'Voice Call'
p7
sS'callid'
p8
L1517L
sS'oid'
p9
L799585L
sS'number'
p10
g2
sS'person_oid'
p11
L82L
sS'contact'
p12
L196L
sS'starttime'
p13
cdatetime
datetime
p14
(S'\x07\xd5\x03\x16\x10\x0e\x08\x00\x00\x00'
p15
tp16
Rp17
sS'duration'
p18
L19L
sS'endtime'
p19
g14
(S'\x07\xd5\x03\x16\x10\x0e\x1b\x00\x00\x00'
p20
tp21
Rp22
sS'phonenumber_oid'
p23
L3196L
s.(dp0
S'status'
p1
S''
p2
sS'direction'
p3
S'Incoming'
p4
sS'remote'
p5
g2
sS'description'
p6
S'Voice Call'
p7
sS'callid'
p8
L1519L
sS'oid'
p9
L799583L
sS'number'
p10
g2
sS'person_oid'
p11
L82L
sS'contact'
p12
L196L
sS'starttime'
p13
cdatetime
datetime
p14
(S'\x07\xd5\x03\x16\x11\x1c4\x00\x00\x00'
p15
tp16
Rp17
sS'duration'
p18
L29L
sS'endtime'
p19
g14
(S'\x07\xd5\x03\x16\x11\x1d\x15\x00\x00\x00'
p20
tp21
Rp22
sS'phonenumber_oid'
p23
L3196L
s.(dp0
S'status'
p1
S''
p2
sS'direction'
p3
S'Incoming'
p4
sS'remote'
p5
g2
sS'description'
p6
S'Voice Call'
p7
sS'callid'
p8
L1519L
sS'oid'
p9
L799586L
sS'number'
p10
g2
sS'person_oid'
p11
L82L
sS'contact'
p12
L196L
sS'starttime'
p13
cdatetime
datetime
p14
(S'\x07\xd5\x03\x16\x11\x1c4\x00\x00\x00'
p15
tp16
Rp17
sS'duration'
p18
L29L
sS'endtime'
p19
g14
(S'\x07\xd5\x03\x16\x11\x1d\x15\x00\x00\x00'
p20
tp21
Rp22
sS'phonenumber_oid'
p23
L3196L
s.(dp0
S'status'
p1
S''
p2
sS'direction'
p3
S'Outgoing'
p4
sS'remote'
p5
g2
sS'description'
p6
S'Voice Call'
p7
sS'callid'
p8
L1526L
sS'oid'
p9
L799584L
sS'number'
p10
g2
sS'person_oid'
p11
L82L
sS'contact'
p12
L198L
sS'starttime'
p13
cdatetime
datetime
p14
(S'\x07\xd5\x03\x16\x17\x1f#\x00\x00\x00'
p15
tp16
Rp17
sS'duration'
p18
L0L
sS'endtime'
p19
g14
(S'\x07\xd5\x03\x16\x17\x1f#\x00\x00\x00'
p20
tp21
Rp22
sS'phonenumber_oid'
p23
L3199L
s.(dp0
S'status'
p1
S''
p2
sS'direction'
p3
S'Outgoing'
p4
sS'remote'
p5
g2
sS'description'
p6
S'Voice Call'
p7
sS'callid'
p8
L1526L
sS'oid'
p9
L799587L
sS'number'
p10
g2
sS'person_oid'
p11
L82L
sS'contact'
p12
L198L
sS'starttime'
p13
cdatetime
datetime
p14
(S'\x07\xd5\x03\x16\x17\x1f#\x00\x00\x00'
p15
tp16
Rp17
sS'duration'
p18
L0L
sS'endtime'
p19
g14
(S'\x07\xd5\x03\x16\x17\x1f#\x00\x00\x00'
p20
tp21
Rp22
sS'phonenumber_oid'
p23
L3199L
s.(dp0
S'status'
p1
S''
p2
sS'direction'
p3
S'Outgoing'
p4
sS'remote'
p5
g2
sS'description'
p6
S'Voice Call'
p7
sS'callid'
p8
L1530L
sS'oid'
p9
L799588L
sS'number'
p10
g2
sS'person_oid'
p11
L82L
sS'contact'
p12
L161L
sS'starttime'
p13
cdatetime
datetime
p14
(S'\x07\xd5\x03\x17\x12\x1c\n\x00\x00\x00'
p15
tp16
Rp17
sS'duration'
p18
L3L
sS'endtime'
p19
g14
(S'\x07\xd5\x03\x17\x12\x1c\r\x00\x00\x00'
p20
tp21
Rp22
sS'phonenumber_oid'
p23
L3169L
s.(dp0
S'status'
p1
S''
p2
sS'direction'
p3
S'Outgoing'
p4
sS'remote'
p5
g2
sS'description'
p6
S'Voice Call'
p7
sS'callid'
p8
L1530L
sS'oid'
p9
L799592L
sS'number'
p10
g2
sS'person_oid'
p11
L82L
sS'contact'
p12
L161L
sS'starttime'
p13
cdatetime
datetime
p14
(S'\x07\xd5\x03\x17\x12\x1c\n\x00\x00\x00'
p15
tp16
Rp17
sS'duration'
p18
L3L
sS'endtime'
p19
g14
(S'\x07\xd5\x03\x17\x12\x1c\r\x00\x00\x00'
p20
tp21
Rp22
sS'phonenumber_oid'
p23
L3169L
s.(dp0
S'status'
p1
S''
p2
sS'direction'
p3
S'Outgoing'
p4
sS'remote'
p5
g2
sS'description'
p6
S'Voice Call'
p7
sS'callid'
p8
L1531L
sS'oid'
p9
L799589L
sS'number'
p10
g2
sS'person_oid'
p11
L82L
sS'contact'
p12
L162L
sS'starttime'
p13
cdatetime
datetime
p14
(S'\x07\xd5\x03\x17\x12\x1c0\x00\x00\x00'
p15
tp16
Rp17
sS'duration'
p18
L149L
sS'endtime'
p19
g14
(S'\x07\xd5\x03\x17\x12\x1f\x11\x00\x00\x00'
p20
tp21
Rp22
sS'phonenumber_oid'
p23
L3170L
s.(dp0
S'status'
p1
S''
p2
sS'direction'
p3
S'Outgoing'
p4
sS'remote'
p5
g2
sS'description'
p6
S'Voice Call'
p7
sS'callid'
p8
L1531L
sS'oid'
p9
L799593L
sS'number'
p10
g2
sS'person_oid'
p11
L82L
sS'contact'
p12
L162L
sS'starttime'
p13
cdatetime
datetime
p14
(S'\x07\xd5\x03\x17\x12\x1c0\x00\x00\x00'
p15
tp16
Rp17
sS'duration'
p18
L149L
sS'endtime'
p19
g14
(S'\x07\xd5\x03\x17\x12\x1f\x11\x00\x00\x00'
p20
tp21
Rp22
sS'phonenumber_oid'
p23
L3170L
s.(dp0
S'status'
p1
S''
p2
sS'direction'
p3
S'Outgoing'
p4
sS'remote'
p5
g2
sS'description'
p6
S'Voice Call'
p7
sS'callid'
p8
L1532L
sS'oid'
p9
L799590L
sS'number'
p10
g2
sS'person_oid'
p11
L82L
sS'contact'
p12
L162L
sS'starttime'
p13
cdatetime
datetime
p14
(S'\x07\xd5\x03\x17\x122&\x00\x00\x00'
p15
tp16
Rp17
sS'duration'
p18
L190L
sS'endtime'
p19
g14
(S'\x07\xd5\x03\x17\x1250\x00\x00\x00'
p20
tp21
Rp22
sS'phonenumber_oid'
p23
L3170L
s.(dp0
S'status'
p1
S''
p2
sS'direction'
p3
S'Outgoing'
p4
sS'remote'
p5
g2
sS'description'
p6
S'Voice Call'
p7
sS'callid'
p8
L1532L
sS'oid'
p9
L799594L
sS'number'
p10
g2
sS'person_oid'
p11
L82L
sS'contact'
p12
L162L
sS'starttime'
p13
cdatetime
datetime
p14
(S'\x07\xd5\x03\x17\x122&\x00\x00\x00'
p15
tp16
Rp17
sS'duration'
p18
L190L
sS'endtime'
p19
g14
(S'\x07\xd5\x03\x17\x1250\x00\x00\x00'
p20
tp21
Rp22
sS'phonenumber_oid'
p23
L3170L
s.(dp0
S'status'
p1
S''
p2
sS'direction'
p3
S'Outgoing'
p4
sS'remote'
p5
g2
sS'description'
p6
S'Voice Call'
p7
sS'callid'
p8
L1533L
sS'oid'
p9
L799591L
sS'number'
p10
g2
sS'person_oid'
p11
L82L
sS'contact'
p12
L162L
sS'starttime'
p13
cdatetime
datetime
p14
(S'\x07\xd5\x03\x17\x127:\x00\x00\x00'
p15
tp16
Rp17
sS'duration'
p18
L10L
sS'endtime'
p19
g14
(S'\x07\xd5\x03\x17\x128\x08\x00\x00\x00'
p20
tp21
Rp22
sS'phonenumber_oid'
p23
L3170L
s.(dp0
S'status'
p1
S''
p2
sS'direction'
p3
S'Outgoing'
p4
sS'remote'
p5
g2
sS'description'
p6
S'Voice Call'
p7
sS'callid'
p8
L1533L
sS'oid'
p9
L799595L
sS'number'
p10
g2
sS'person_oid'
p11
L82L
sS'contact'
p12
L162L
sS'starttime'
p13
cdatetime
datetime
p14
(S'\x07\xd5\x03\x17\x127:\x00\x00\x00'
p15
tp16
Rp17
sS'duration'
p18
L10L
sS'endtime'
p19
g14
(S'\x07\xd5\x03\x17\x128\x08\x00\x00\x00'
p20
tp21
Rp22
sS'phonenumber_oid'
p23
L3170L
s.(dp0
S'status'
p1
S''
p2
sS'direction'
p3
S'Missed Call'
p4
sS'remote'
p5
g2
sS'description'
p6
S'Voice Call'
p7
sS'callid'
p8
L1541L
sS'oid'
p9
L799596L
sS'number'
p10
g2
sS'person_oid'
p11
L82L
sS'contact'
p12
L185L
sS'starttime'
p13
cdatetime
datetime
p14
(S'\x07\xd5\x03\x18\x13\x0e5\x00\x00\x00'
p15
tp16
Rp17
sS'duration'
p18
L0L
sS'endtime'
p19
g14
(S'\x07\xd5\x03\x18\x13\x0e5\x00\x00\x00'
p20
tp21
Rp22
sS'phonenumber_oid'
p23
L3188L
s.(dp0
S'status'
p1
S''
p2
sS'direction'
p3
S'Missed Call'
p4
sS'remote'
p5
g2
sS'description'
p6
S'Voice Call'
p7
sS'callid'
p8
L1541L
sS'oid'
p9
L799600L
sS'number'
p10
g2
sS'person_oid'
p11
L82L
sS'contact'
p12
L185L
sS'starttime'
p13
cdatetime
datetime
p14
(S'\x07\xd5\x03\x18\x13\x0e5\x00\x00\x00'
p15
tp16
Rp17
sS'duration'
p18
L0L
sS'endtime'
p19
g14
(S'\x07\xd5\x03\x18\x13\x0e5\x00\x00\x00'
p20
tp21
Rp22
sS'phonenumber_oid'
p23
L3188L
s.(dp0
S'status'
p1
S''
p2
sS'direction'
p3
S'Outgoing'
p4
sS'remote'
p5
g2
sS'description'
p6
S'Voice Call'
p7
sS'callid'
p8
L1542L
sS'oid'
p9
L799597L
sS'number'
p10
g2
sS'person_oid'
p11
L82L
sS'contact'
p12
L185L
sS'starttime'
p13
cdatetime
datetime
p14
(S'\x07\xd5\x03\x18\x13\x0f)\x00\x00\x00'
p15
tp16
Rp17
sS'duration'
p18
L22L
sS'endtime'
p19
g14
(S'\x07\xd5\x03\x18\x13\x10\x03\x00\x00\x00'
p20
tp21
Rp22
sS'phonenumber_oid'
p23
L3188L
s.(dp0
S'status'
p1
S''
p2
sS'direction'
p3
S'Outgoing'
p4
sS'remote'
p5
g2
sS'description'
p6
S'Voice Call'
p7
sS'callid'
p8
L1542L
sS'oid'
p9
L799601L
sS'number'
p10
g2
sS'person_oid'
p11
L82L
sS'contact'
p12
L185L
sS'starttime'
p13
cdatetime
datetime
p14
(S'\x07\xd5\x03\x18\x13\x0f)\x00\x00\x00'
p15
tp16
Rp17
sS'duration'
p18
L22L
sS'endtime'
p19
g14
(S'\x07\xd5\x03\x18\x13\x10\x03\x00\x00\x00'
p20
tp21
Rp22
sS'phonenumber_oid'
p23
L3188L
s.(dp0
S'status'
p1
S''
p2
sS'direction'
p3
S'Outgoing'
p4
sS'remote'
p5
g2
sS'description'
p6
S'Voice Call'
p7
sS'callid'
p8
L1543L
sS'oid'
p9
L799598L
sS'number'
p10
g2
sS'person_oid'
p11
L82L
sS'contact'
p12
L162L
sS'starttime'
p13
cdatetime
datetime
p14
(S'\x07\xd5\x03\x18\x16\t\x10\x00\x00\x00'
p15
tp16
Rp17
sS'duration'
p18
L173L
sS'endtime'
p19
g14
(S'\x07\xd5\x03\x18\x16\x0c\t\x00\x00\x00'
p20
tp21
Rp22
sS'phonenumber_oid'
p23
L3170L
s.(dp0
S'status'
p1
S''
p2
sS'direction'
p3
S'Outgoing'
p4
sS'remote'
p5
g2
sS'description'
p6
S'Voice Call'
p7
sS'callid'
p8
L1543L
sS'oid'
p9
L799602L
sS'number'
p10
g2
sS'person_oid'
p11
L82L
sS'contact'
p12
L162L
sS'starttime'
p13
cdatetime
datetime
p14
(S'\x07\xd5\x03\x18\x16\t\x10\x00\x00\x00'
p15
tp16
Rp17
sS'duration'
p18
L173L
sS'endtime'
p19
g14
(S'\x07\xd5\x03\x18\x16\x0c\t\x00\x00\x00'
p20
tp21
Rp22
sS'phonenumber_oid'
p23
L3170L
s.(dp0
S'status'
p1
S''
p2
sS'direction'
p3
S'Missed Call'
p4
sS'remote'
p5
g2
sS'description'
p6
S'Voice Call'
p7
sS'callid'
p8
L1546L
sS'oid'
p9
L799599L
sS'number'
p10
g2
sS'person_oid'
p11
L82L
sS'contact'
p12
L-1L
sS'starttime'
p13
cdatetime
datetime
p14
(S'\x07\xd5\x03\x19\x00,\x12\x00\x00\x00'
p15
tp16
Rp17
sS'duration'
p18
L0L
sS'endtime'
p19
g14
(S'\x07\xd5\x03\x19\x00,\x12\x00\x00\x00'
p20
tp21
Rp22
sS'phonenumber_oid'
p23
L3L
s.(dp0
S'status'
p1
S''
p2
sS'direction'
p3
S'Missed Call'
p4
sS'remote'
p5
g2
sS'description'
p6
S'Voice Call'
p7
sS'callid'
p8
L1546L
sS'oid'
p9
L799603L
sS'number'
p10
g2
sS'person_oid'
p11
L82L
sS'contact'
p12
L-1L
sS'starttime'
p13
cdatetime
datetime
p14
(S'\x07\xd5\x03\x19\x00,\x12\x00\x00\x00'
p15
tp16
Rp17
sS'duration'
p18
L0L
sS'endtime'
p19
g14
(S'\x07\xd5\x03\x19\x00,\x12\x00\x00\x00'
p20
tp21
Rp22
sS'phonenumber_oid'
p23
L3L
s.(dp0
S'status'
p1
S''
p2
sS'direction'
p3
S'Incoming'
p4
sS'remote'
p5
g2
sS'description'
p6
S'Voice Call'
p7
sS'callid'
p8
L1549L
sS'oid'
p9
L799604L
sS'number'
p10
g2
sS'person_oid'
p11
L82L
sS'contact'
p12
L185L
sS'starttime'
p13
cdatetime
datetime
p14
(S'\x07\xd5\x03\x19\x0b\x0e+\x00\x00\x00'
p15
tp16
Rp17
sS'duration'
p18
L90L
sS'endtime'
p19
g14
(S'\x07\xd5\x03\x19\x0b\x10\r\x00\x00\x00'
p20
tp21
Rp22
sS'phonenumber_oid'
p23
L3188L
s.(dp0
S'status'
p1
S''
p2
sS'direction'
p3
S'Incoming'
p4
sS'remote'
p5
g2
sS'description'
p6
S'Voice Call'
p7
sS'callid'
p8
L1549L
sS'oid'
p9
L799605L
sS'number'
p10
g2
sS'person_oid'
p11
L82L
sS'contact'
p12
L185L
sS'starttime'
p13
cdatetime
datetime
p14
(S'\x07\xd5\x03\x19\x0b\x0e+\x00\x00\x00'
p15
tp16
Rp17
sS'duration'
p18
L90L
sS'endtime'
p19
g14
(S'\x07\xd5\x03\x19\x0b\x10\r\x00\x00\x00'
p20
tp21
Rp22
sS'phonenumber_oid'
p23
L3188L
s.(dp0
S'status'
p1
S''
p2
sS'direction'
p3
S'Outgoing'
p4
sS'remote'
p5
g2
sS'description'
p6
S'Voice Call'
p7
sS'callid'
p8
L1551L
sS'oid'
p9
L799606L
sS'number'
p10
g2
sS'person_oid'
p11
L82L
sS'contact'
p12
L184L
sS'starttime'
p13
cdatetime
datetime
p14
(S'\x07\xd5\x03\x1a\x11!\x1d\x00\x00\x00'
p15
tp16
Rp17
sS'duration'
p18
L2424L
sS'endtime'
p19
g14
(S'\x07\xd5\x03\x1a\x12\r5\x00\x00\x00'
p20
tp21
Rp22
sS'phonenumber_oid'
p23
L3186L
s.(dp0
S'status'
p1
S''
p2
sS'direction'
p3
S'Outgoing'
p4
sS'remote'
p5
g2
sS'description'
p6
S'Voice Call'
p7
sS'callid'
p8
L1552L
sS'oid'
p9
L799607L
sS'number'
p10
g2
sS'person_oid'
p11
L82L
sS'contact'
p12
L162L
sS'starttime'
p13
cdatetime
datetime
p14
(S'\x07\xd5\x03\x1a\x12\x0e(\x00\x00\x00'
p15
tp16
Rp17
sS'duration'
p18
L56L
sS'endtime'
p19
g14
(S'\x07\xd5\x03\x1a\x12\x0f$\x00\x00\x00'
p20
tp21
Rp22
sS'phonenumber_oid'
p23
L3170L
s.(dp0
S'status'
p1
S''
p2
sS'direction'
p3
S'Incoming'
p4
sS'remote'
p5
g2
sS'description'
p6
S'Voice Call'
p7
sS'callid'
p8
L1554L
sS'oid'
p9
L799608L
sS'number'
p10
g2
sS'person_oid'
p11
L82L
sS'contact'
p12
L161L
sS'starttime'
p13
cdatetime
datetime
p14
(S'\x07\xd5\x03\x1a\x15/7\x00\x00\x00'
p15
tp16
Rp17
sS'duration'
p18
L9L
sS'endtime'
p19
g14
(S'\x07\xd5\x03\x1a\x150\x04\x00\x00\x00'
p20
tp21
Rp22
sS'phonenumber_oid'
p23
L3169L
s.(dp0
S'status'
p1
S''
p2
sS'direction'
p3
S'Outgoing'
p4
sS'remote'
p5
g2
sS'description'
p6
S'Voice Call'
p7
sS'callid'
p8
L1555L
sS'oid'
p9
L799609L
sS'number'
p10
g2
sS'person_oid'
p11
L82L
sS'contact'
p12
L168L
sS'starttime'
p13
cdatetime
datetime
p14
(S'\x07\xd5\x03\x1b\x0c-,\x00\x00\x00'
p15
tp16
Rp17
sS'duration'
p18
L23L
sS'endtime'
p19
g14
(S'\x07\xd5\x03\x1b\x0c.\x07\x00\x00\x00'
p20
tp21
Rp22
sS'phonenumber_oid'
p23
L2401L
s.(dp0
S'status'
p1
S''
p2
sS'direction'
p3
S'Outgoing'
p4
sS'remote'
p5
g2
sS'description'
p6
S'Voice Call'
p7
sS'callid'
p8
L1555L
sS'oid'
p9
L799619L
sS'number'
p10
g2
sS'person_oid'
p11
L82L
sS'contact'
p12
L168L
sS'starttime'
p13
cdatetime
datetime
p14
(S'\x07\xd5\x03\x1b\x0c-,\x00\x00\x00'
p15
tp16
Rp17
sS'duration'
p18
L23L
sS'endtime'
p19
g14
(S'\x07\xd5\x03\x1b\x0c.\x07\x00\x00\x00'
p20
tp21
Rp22
sS'phonenumber_oid'
p23
L2401L
s.(dp0
S'status'
p1
S''
p2
sS'direction'
p3
S'Outgoing'
p4
sS'remote'
p5
g2
sS'description'
p6
S'Voice Call'
p7
sS'callid'
p8
L1556L
sS'oid'
p9
L799610L
sS'number'
p10
g2
sS'person_oid'
p11
L82L
sS'contact'
p12
L168L
sS'starttime'
p13
cdatetime
datetime
p14
(S'\x07\xd5\x03\x1b\x0c5&\x00\x00\x00'
p15
tp16
Rp17
sS'duration'
p18
L16L
sS'endtime'
p19
g14
(S'\x07\xd5\x03\x1b\x0c56\x00\x00\x00'
p20
tp21
Rp22
sS'phonenumber_oid'
p23
L2401L
s.(dp0
S'status'
p1
S''
p2
sS'direction'
p3
S'Outgoing'
p4
sS'remote'
p5
g2
sS'description'
p6
S'Voice Call'
p7
sS'callid'
p8
L1556L
sS'oid'
p9
L799620L
sS'number'
p10
g2
sS'person_oid'
p11
L82L
sS'contact'
p12
L168L
sS'starttime'
p13
cdatetime
datetime
p14
(S'\x07\xd5\x03\x1b\x0c5&\x00\x00\x00'
p15
tp16
Rp17
sS'duration'
p18
L16L
sS'endtime'
p19
g14
(S'\x07\xd5\x03\x1b\x0c56\x00\x00\x00'
p20
tp21
Rp22
sS'phonenumber_oid'
p23
L2401L
s.(dp0
S'status'
p1
S''
p2
sS'direction'
p3
S'Outgoing'
p4
sS'remote'
p5
g2
sS'description'
p6
S'Voice Call'
p7
sS'callid'
p8
L1557L
sS'oid'
p9
L799611L
sS'number'
p10
g2
sS'person_oid'
p11
L82L
sS'contact'
p12
L162L
sS'starttime'
p13
cdatetime
datetime
p14
(S'\x07\xd5\x03\x1b\r\x1c\x1b\x00\x00\x00'
p15
tp16
Rp17
sS'duration'
p18
L6L
sS'endtime'
p19
g14
(S'\x07\xd5\x03\x1b\r\x1c!\x00\x00\x00'
p20
tp21
Rp22
sS'phonenumber_oid'
p23
L3170L
s.(dp0
S'status'
p1
S''
p2
sS'direction'
p3
S'Outgoing'
p4
sS'remote'
p5
g2
sS'description'
p6
S'Voice Call'
p7
sS'callid'
p8
L1557L
sS'oid'
p9
L799621L
sS'number'
p10
g2
sS'person_oid'
p11
L82L
sS'contact'
p12
L162L
sS'starttime'
p13
cdatetime
datetime
p14
(S'\x07\xd5\x03\x1b\r\x1c\x1b\x00\x00\x00'
p15
tp16
Rp17
sS'duration'
p18
L6L
sS'endtime'
p19
g14
(S'\x07\xd5\x03\x1b\r\x1c!\x00\x00\x00'
p20
tp21
Rp22
sS'phonenumber_oid'
p23
L3170L
s.(dp0
S'status'
p1
S''
p2
sS'direction'
p3
S'Outgoing'
p4
sS'remote'
p5
g2
sS'description'
p6
S'Voice Call'
p7
sS'callid'
p8
L1558L
sS'oid'
p9
L799612L
sS'number'
p10
g2
sS'person_oid'
p11
L82L
sS'contact'
p12
L162L
sS'starttime'
p13
cdatetime
datetime
p14
(S'\x07\xd5\x03\x1b\r#\x18\x00\x00\x00'
p15
tp16
Rp17
sS'duration'
p18
L8L
sS'endtime'
p19
g14
(S'\x07\xd5\x03\x1b\r# \x00\x00\x00'
p20
tp21
Rp22
sS'phonenumber_oid'
p23
L3170L
s.(dp0
S'status'
p1
S''
p2
sS'direction'
p3
S'Outgoing'
p4
sS'remote'
p5
g2
sS'description'
p6
S'Voice Call'
p7
sS'callid'
p8
L1558L
sS'oid'
p9
L799622L
sS'number'
p10
g2
sS'person_oid'
p11
L82L
sS'contact'
p12
L162L
sS'starttime'
p13
cdatetime
datetime
p14
(S'\x07\xd5\x03\x1b\r#\x18\x00\x00\x00'
p15
tp16
Rp17
sS'duration'
p18
L8L
sS'endtime'
p19
g14
(S'\x07\xd5\x03\x1b\r# \x00\x00\x00'
p20
tp21
Rp22
sS'phonenumber_oid'
p23
L3170L
s.(dp0
S'status'
p1
S''
p2
sS'direction'
p3
S'Outgoing'
p4
sS'remote'
p5
g2
sS'description'
p6
S'Voice Call'
p7
sS'callid'
p8
L1559L
sS'oid'
p9
L799613L
sS'number'
p10
g2
sS'person_oid'
p11
L82L
sS'contact'
p12
L188L
sS'starttime'
p13
cdatetime
datetime
p14
(S'\x07\xd5\x03\x1b\x14\x03\x05\x00\x00\x00'
p15
tp16
Rp17
sS'duration'
p18
L20L
sS'endtime'
p19
g14
(S'\x07\xd5\x03\x1b\x14\x03\x19\x00\x00\x00'
p20
tp21
Rp22
sS'phonenumber_oid'
p23
L3190L
s.(dp0
S'status'
p1
S''
p2
sS'direction'
p3
S'Outgoing'
p4
sS'remote'
p5
g2
sS'description'
p6
S'Voice Call'
p7
sS'callid'
p8
L1559L
sS'oid'
p9
L799623L
sS'number'
p10
g2
sS'person_oid'
p11
L82L
sS'contact'
p12
L188L
sS'starttime'
p13
cdatetime
datetime
p14
(S'\x07\xd5\x03\x1b\x14\x03\x05\x00\x00\x00'
p15
tp16
Rp17
sS'duration'
p18
L20L
sS'endtime'
p19
g14
(S'\x07\xd5\x03\x1b\x14\x03\x19\x00\x00\x00'
p20
tp21
Rp22
sS'phonenumber_oid'
p23
L3190L
s.(dp0
S'status'
p1
S''
p2
sS'direction'
p3
S'Outgoing'
p4
sS'remote'
p5
g2
sS'description'
p6
S'Voice Call'
p7
sS'callid'
p8
L1562L
sS'oid'
p9
L799614L
sS'number'
p10
g2
sS'person_oid'
p11
L82L
sS'contact'
p12
L165L
sS'starttime'
p13
cdatetime
datetime
p14
(S'\x07\xd5\x03\x1b\x14\x12\x00\x00\x00\x00'
p15
tp16
Rp17
sS'duration'
p18
L34L
sS'endtime'
p19
g14
(S'\x07\xd5\x03\x1b\x14\x12"\x00\x00\x00'
p20
tp21
Rp22
sS'phonenumber_oid'
p23
L3172L
s.(dp0
S'status'
p1
S''
p2
sS'direction'
p3
S'Outgoing'
p4
sS'remote'
p5
g2
sS'description'
p6
S'Voice Call'
p7
sS'callid'
p8
L1562L
sS'oid'
p9
L799624L
sS'number'
p10
g2
sS'person_oid'
p11
L82L
sS'contact'
p12
L165L
sS'starttime'
p13
cdatetime
datetime
p14
(S'\x07\xd5\x03\x1b\x14\x12\x00\x00\x00\x00'
p15
tp16
Rp17
sS'duration'
p18
L34L
sS'endtime'
p19
g14
(S'\x07\xd5\x03\x1b\x14\x12"\x00\x00\x00'
p20
tp21
Rp22
sS'phonenumber_oid'
p23
L3172L
s.(dp0
S'status'
p1
S''
p2
sS'direction'
p3
S'Outgoing'
p4
sS'remote'
p5
g2
sS'description'
p6
S'Voice Call'
p7
sS'callid'
p8
L1563L
sS'oid'
p9
L799615L
sS'number'
p10
g2
sS'person_oid'
p11
L82L
sS'contact'
p12
L165L
sS'starttime'
p13
cdatetime
datetime
p14
(S'\x07\xd5\x03\x1b\x14\x1c \x00\x00\x00'
p15
tp16
Rp17
sS'duration'
p18
L30L
sS'endtime'
p19
g14
(S'\x07\xd5\x03\x1b\x14\x1d\x02\x00\x00\x00'
p20
tp21
Rp22
sS'phonenumber_oid'
p23
L3172L
s.(dp0
S'status'
p1
S''
p2
sS'direction'
p3
S'Outgoing'
p4
sS'remote'
p5
g2
sS'description'
p6
S'Voice Call'
p7
sS'callid'
p8
L1563L
sS'oid'
p9
L799625L
sS'number'
p10
g2
sS'person_oid'
p11
L82L
sS'contact'
p12
L165L
sS'starttime'
p13
cdatetime
datetime
p14
(S'\x07\xd5\x03\x1b\x14\x1c \x00\x00\x00'
p15
tp16
Rp17
sS'duration'
p18
L30L
sS'endtime'
p19
g14
(S'\x07\xd5\x03\x1b\x14\x1d\x02\x00\x00\x00'
p20
tp21
Rp22
sS'phonenumber_oid'
p23
L3172L
s.(dp0
S'status'
p1
S''
p2
sS'direction'
p3
S'Outgoing'
p4
sS'remote'
p5
g2
sS'description'
p6
S'Voice Call'
p7
sS'callid'
p8
L1564L
sS'oid'
p9
L799616L
sS'number'
p10
g2
sS'person_oid'
p11
L82L
sS'contact'
p12
L165L
sS'starttime'
p13
cdatetime
datetime
p14
(S'\x07\xd5\x03\x1b\x14+4\x00\x00\x00'
p15
tp16
Rp17
sS'duration'
p18
L12L
sS'endtime'
p19
g14
(S'\x07\xd5\x03\x1b\x14,\x04\x00\x00\x00'
p20
tp21
Rp22
sS'phonenumber_oid'
p23
L3172L
s.(dp0
S'status'
p1
S''
p2
sS'direction'
p3
S'Outgoing'
p4
sS'remote'
p5
g2
sS'description'
p6
S'Voice Call'
p7
sS'callid'
p8
L1564L
sS'oid'
p9
L799626L
sS'number'
p10
g2
sS'person_oid'
p11
L82L
sS'contact'
p12
L165L
sS'starttime'
p13
cdatetime
datetime
p14
(S'\x07\xd5\x03\x1b\x14+4\x00\x00\x00'
p15
tp16
Rp17
sS'duration'
p18
L12L
sS'endtime'
p19
g14
(S'\x07\xd5\x03\x1b\x14,\x04\x00\x00\x00'
p20
tp21
Rp22
sS'phonenumber_oid'
p23
L3172L
s.(dp0
S'status'
p1
S''
p2
sS'direction'
p3
S'Incoming'
p4
sS'remote'
p5
g2
sS'description'
p6
S'Voice Call'
p7
sS'callid'
p8
L1566L
sS'oid'
p9
L799617L
sS'number'
p10
g2
sS'person_oid'
p11
L82L
sS'contact'
p12
L165L
sS'starttime'
p13
cdatetime
datetime
p14
(S'\x07\xd5\x03\x1b\x14,\x13\x00\x00\x00'
p15
tp16
Rp17
sS'duration'
p18
L28L
sS'endtime'
p19
g14
(S'\x07\xd5\x03\x1b\x14,/\x00\x00\x00'
p20
tp21
Rp22
sS'phonenumber_oid'
p23
L3172L
s.(dp0
S'status'
p1
S''
p2
sS'direction'
p3
S'Incoming'
p4
sS'remote'
p5
g2
sS'description'
p6
S'Voice Call'
p7
sS'callid'
p8
L1566L
sS'oid'
p9
L799627L
sS'number'
p10
g2
sS'person_oid'
p11
L82L
sS'contact'
p12
L165L
sS'starttime'
p13
cdatetime
datetime
p14
(S'\x07\xd5\x03\x1b\x14,\x13\x00\x00\x00'
p15
tp16
Rp17
sS'duration'
p18
L28L
sS'endtime'
p19
g14
(S'\x07\xd5\x03\x1b\x14,/\x00\x00\x00'
p20
tp21
Rp22
sS'phonenumber_oid'
p23
L3172L
s.(dp0
S'status'
p1
S''
p2
sS'direction'
p3
S'Incoming'
p4
sS'remote'
p5
g2
sS'description'
p6
S'Voice Call'
p7
sS'callid'
p8
L1569L
sS'oid'
p9
L799618L
sS'number'
p10
g2
sS'person_oid'
p11
L82L
sS'contact'
p12
L187L
sS'starttime'
p13
cdatetime
datetime
p14
(S'\x07\xd5\x03\x1b\x17\x0c:\x00\x00\x00'
p15
tp16
Rp17
sS'duration'
p18
L105L
sS'endtime'
p19
g14
(S'\x07\xd5\x03\x1b\x17\x0e+\x00\x00\x00'
p20
tp21
Rp22
sS'phonenumber_oid'
p23
L3189L
s.(dp0
S'status'
p1
S''
p2
sS'direction'
p3
S'Incoming'
p4
sS'remote'
p5
g2
sS'description'
p6
S'Voice Call'
p7
sS'callid'
p8
L1569L
sS'oid'
p9
L799628L
sS'number'
p10
g2
sS'person_oid'
p11
L82L
sS'contact'
p12
L187L
sS'starttime'
p13
cdatetime
datetime
p14
(S'\x07\xd5\x03\x1b\x17\x0c:\x00\x00\x00'
p15
tp16
Rp17
sS'duration'
p18
L105L
sS'endtime'
p19
g14
(S'\x07\xd5\x03\x1b\x17\x0e+\x00\x00\x00'
p20
tp21
Rp22
sS'phonenumber_oid'
p23
L3189L
s.(dp0
S'status'
p1
S''
p2
sS'direction'
p3
S'Missed Call'
p4
sS'remote'
p5
g2
sS'description'
p6
S'Voice Call'
p7
sS'callid'
p8
L1570L
sS'oid'
p9
L799629L
sS'number'
p10
g2
sS'person_oid'
p11
L82L
sS'contact'
p12
L-1L
sS'starttime'
p13
cdatetime
datetime
p14
(S'\x07\xd5\x03\x1c\x08\x11\x14\x00\x00\x00'
p15
tp16
Rp17
sS'duration'
p18
L0L
sS'endtime'
p19
g14
(S'\x07\xd5\x03\x1c\x08\x11\x14\x00\x00\x00'
p20
tp21
Rp22
sS'phonenumber_oid'
p23
L3L
s.(dp0
S'status'
p1
S''
p2
sS'direction'
p3
S'Missed Call'
p4
sS'remote'
p5
g2
sS'description'
p6
S'Voice Call'
p7
sS'callid'
p8
L1570L
sS'oid'
p9
L799632L
sS'number'
p10
g2
sS'person_oid'
p11
L82L
sS'contact'
p12
L-1L
sS'starttime'
p13
cdatetime
datetime
p14
(S'\x07\xd5\x03\x1c\x08\x11\x14\x00\x00\x00'
p15
tp16
Rp17
sS'duration'
p18
L0L
sS'endtime'
p19
g14
(S'\x07\xd5\x03\x1c\x08\x11\x14\x00\x00\x00'
p20
tp21
Rp22
sS'phonenumber_oid'
p23
L3L
s.(dp0
S'status'
p1
S''
p2
sS'direction'
p3
S'Incoming'
p4
sS'remote'
p5
g2
sS'description'
p6
S'Voice Call'
p7
sS'callid'
p8
L1573L
sS'oid'
p9
L799630L
sS'number'
p10
g2
sS'person_oid'
p11
L82L
sS'contact'
p12
L188L
sS'starttime'
p13
cdatetime
datetime
p14
(S'\x07\xd5\x03\x1c\x1221\x00\x00\x00'
p15
tp16
Rp17
sS'duration'
p18
L67L
sS'endtime'
p19
g14
(S'\x07\xd5\x03\x1c\x1238\x00\x00\x00'
p20
tp21
Rp22
sS'phonenumber_oid'
p23
L3190L
s.(dp0
S'status'
p1
S''
p2
sS'direction'
p3
S'Incoming'
p4
sS'remote'
p5
g2
sS'description'
p6
S'Voice Call'
p7
sS'callid'
p8
L1573L
sS'oid'
p9
L799633L
sS'number'
p10
g2
sS'person_oid'
p11
L82L
sS'contact'
p12
L188L
sS'starttime'
p13
cdatetime
datetime
p14
(S'\x07\xd5\x03\x1c\x1221\x00\x00\x00'
p15
tp16
Rp17
sS'duration'
p18
L67L
sS'endtime'
p19
g14
(S'\x07\xd5\x03\x1c\x1238\x00\x00\x00'
p20
tp21
Rp22
sS'phonenumber_oid'
p23
L3190L
s.(dp0
S'status'
p1
S''
p2
sS'direction'
p3
S'Outgoing'
p4
sS'remote'
p5
g2
sS'description'
p6
S'Voice Call'
p7
sS'callid'
p8
L1574L
sS'oid'
p9
L799631L
sS'number'
p10
g2
sS'person_oid'
p11
L82L
sS'contact'
p12
L194L
sS'starttime'
p13
cdatetime
datetime
p14
(S'\x07\xd5\x03\x1c\x14\x117\x00\x00\x00'
p15
tp16
Rp17
sS'duration'
p18
L2258L
sS'endtime'
p19
g14
(S'\x07\xd5\x03\x1c\x147!\x00\x00\x00'
p20
tp21
Rp22
sS'phonenumber_oid'
p23
L3194L
s.(dp0
S'status'
p1
S''
p2
sS'direction'
p3
S'Outgoing'
p4
sS'remote'
p5
g2
sS'description'
p6
S'Voice Call'
p7
sS'callid'
p8
L1574L
sS'oid'
p9
L799634L
sS'number'
p10
g2
sS'person_oid'
p11
L82L
sS'contact'
p12
L194L
sS'starttime'
p13
cdatetime
datetime
p14
(S'\x07\xd5\x03\x1c\x14\x117\x00\x00\x00'
p15
tp16
Rp17
sS'duration'
p18
L2258L
sS'endtime'
p19
g14
(S'\x07\xd5\x03\x1c\x147!\x00\x00\x00'
p20
tp21
Rp22
sS'phonenumber_oid'
p23
L3194L
s.(dp0
S'status'
p1
S''
p2
sS'direction'
p3
S'Incoming'
p4
sS'remote'
p5
g2
sS'description'
p6
S'Voice Call'
p7
sS'callid'
p8
L1577L
sS'oid'
p9
L799635L
sS'number'
p10
g2
sS'person_oid'
p11
L82L
sS'contact'
p12
L162L
sS'starttime'
p13
cdatetime
datetime
p14
(S'\x07\xd5\x03\x1e\x13,\x03\x00\x00\x00'
p15
tp16
Rp17
sS'duration'
p18
L13L
sS'endtime'
p19
g14
(S'\x07\xd5\x03\x1e\x13,\x10\x00\x00\x00'
p20
tp21
Rp22
sS'phonenumber_oid'
p23
L3170L
s.(dp0
S'status'
p1
S''
p2
sS'direction'
p3
S'Incoming'
p4
sS'remote'
p5
g2
sS'description'
p6
S'Voice Call'
p7
sS'callid'
p8
L1577L
sS'oid'
p9
L799637L
sS'number'
p10
g2
sS'person_oid'
p11
L82L
sS'contact'
p12
L162L
sS'starttime'
p13
cdatetime
datetime
p14
(S'\x07\xd5\x03\x1e\x13,\x03\x00\x00\x00'
p15
tp16
Rp17
sS'duration'
p18
L13L
sS'endtime'
p19
g14
(S'\x07\xd5\x03\x1e\x13,\x10\x00\x00\x00'
p20
tp21
Rp22
sS'phonenumber_oid'
p23
L3170L
s.(dp0
S'status'
p1
S''
p2
sS'direction'
p3
S'Incoming'
p4
sS'remote'
p5
g2
sS'description'
p6
S'Voice Call'
p7
sS'callid'
p8
L1579L
sS'oid'
p9
L799636L
sS'number'
p10
g2
sS'person_oid'
p11
L82L
sS'contact'
p12
L162L
sS'starttime'
p13
cdatetime
datetime
p14
(S'\x07\xd5\x03\x1e\x1312\x00\x00\x00'
p15
tp16
Rp17
sS'duration'
p18
L6L
sS'endtime'
p19
g14
(S'\x07\xd5\x03\x1e\x1318\x00\x00\x00'
p20
tp21
Rp22
sS'phonenumber_oid'
p23
L3170L
s.(dp0
S'status'
p1
S''
p2
sS'direction'
p3
S'Incoming'
p4
sS'remote'
p5
g2
sS'description'
p6
S'Voice Call'
p7
sS'callid'
p8
L1579L
sS'oid'
p9
L799638L
sS'number'
p10
g2
sS'person_oid'
p11
L82L
sS'contact'
p12
L162L
sS'starttime'
p13
cdatetime
datetime
p14
(S'\x07\xd5\x03\x1e\x1312\x00\x00\x00'
p15
tp16
Rp17
sS'duration'
p18
L6L
sS'endtime'
p19
g14
(S'\x07\xd5\x03\x1e\x1318\x00\x00\x00'
p20
tp21
Rp22
sS'phonenumber_oid'
p23
L3170L
s.(dp0
S'status'
p1
S''
p2
sS'direction'
p3
S'Incoming'
p4
sS'remote'
p5
g2
sS'description'
p6
S'Voice Call'
p7
sS'callid'
p8
L1581L
sS'oid'
p9
L799639L
sS'number'
p10
g2
sS'person_oid'
p11
L82L
sS'contact'
p12
L162L
sS'starttime'
p13
cdatetime
datetime
p14
(S'\x07\xd5\x03\x1f\x12\x1b\x19\x00\x00\x00'
p15
tp16
Rp17
sS'duration'
p18
L35L
sS'endtime'
p19
g14
(S'\x07\xd5\x03\x1f\x12\x1c\x00\x00\x00\x00'
p20
tp21
Rp22
sS'phonenumber_oid'
p23
L3170L
s.(dp0
S'status'
p1
S''
p2
sS'direction'
p3
S'Outgoing'
p4
sS'remote'
p5
g2
sS'description'
p6
S'Voice Call'
p7
sS'callid'
p8
L1582L
sS'oid'
p9
L799640L
sS'number'
p10
g2
sS'person_oid'
p11
L82L
sS'contact'
p12
L162L
sS'starttime'
p13
cdatetime
datetime
p14
(S'\x07\xd5\x03\x1f\x12 \x10\x00\x00\x00'
p15
tp16
Rp17
sS'duration'
p18
L18L
sS'endtime'
p19
g14
(S'\x07\xd5\x03\x1f\x12 "\x00\x00\x00'
p20
tp21
Rp22
sS'phonenumber_oid'
p23
L3170L
s.(dp0
S'status'
p1
S''
p2
sS'direction'
p3
S'Outgoing'
p4
sS'remote'
p5
g2
sS'description'
p6
S'Voice Call'
p7
sS'callid'
p8
L1585L
sS'oid'
p9
L799641L
sS'number'
p10
g2
sS'person_oid'
p11
L82L
sS'contact'
p12
L162L
sS'starttime'
p13
cdatetime
datetime
p14
(S'\x07\xd5\x03\x1f\x15*9\x00\x00\x00'
p15
tp16
Rp17
sS'duration'
p18
L9L
sS'endtime'
p19
g14
(S'\x07\xd5\x03\x1f\x15+\x06\x00\x00\x00'
p20
tp21
Rp22
sS'phonenumber_oid'
p23
L3170L
s.(dp0
S'status'
p1
S''
p2
sS'direction'
p3
S'Incoming'
p4
sS'remote'
p5
g2
sS'description'
p6
S'Voice Call'
p7
sS'callid'
p8
L1587L
sS'oid'
p9
L799642L
sS'number'
p10
g2
sS'person_oid'
p11
L82L
sS'contact'
p12
L162L
sS'starttime'
p13
cdatetime
datetime
p14
(S'\x07\xd5\x03\x1f\x15.7\x00\x00\x00'
p15
tp16
Rp17
sS'duration'
p18
L7L
sS'endtime'
p19
g14
(S'\x07\xd5\x03\x1f\x15/\x02\x00\x00\x00'
p20
tp21
Rp22
sS'phonenumber_oid'
p23
L3170L
s.