(dp0
S'status'
p1
S''
p2
sS'direction'
p3
S'Outgoing'
p4
sS'remote'
p5
g2
sS'description'
p6
S'Voice Call'
p7
sS'callid'
p8
L0L
sS'oid'
p9
L609188L
sS'number'
p10
g2
sS'person_oid'
p11
L93L
sS'contact'
p12
L3L
sS'starttime'
p13
cdatetime
datetime
p14
(S'\x07\xd4\t\x0f\x17\t\x10\x00\x00\x00'
p15
tp16
Rp17
sS'duration'
p18
L454L
sS'endtime'
p19
g14
(S'\x07\xd4\t\x0f\x17\x102\x00\x00\x00'
p20
tp21
Rp22
sS'phonenumber_oid'
p23
L2513L
s.(dp0
S'status'
p1
S''
p2
sS'direction'
p3
S'Outgoing'
p4
sS'remote'
p5
g2
sS'description'
p6
S'Voice Call'
p7
sS'callid'
p8
L0L
sS'oid'
p9
L609189L
sS'number'
p10
g2
sS'person_oid'
p11
L93L
sS'contact'
p12
L3L
sS'starttime'
p13
cdatetime
datetime
p14
(S'\x07\xd4\t\x0f\x17\t\x10\x00\x00\x00'
p15
tp16
Rp17
sS'duration'
p18
L454L
sS'endtime'
p19
g14
(S'\x07\xd4\t\x0f\x17\x102\x00\x00\x00'
p20
tp21
Rp22
sS'phonenumber_oid'
p23
L2513L
s.(dp0
S'status'
p1
S''
p2
sS'direction'
p3
S'Outgoing'
p4
sS'remote'
p5
g2
sS'description'
p6
S'Voice Call'
p7
sS'callid'
p8
L0L
sS'oid'
p9
L609190L
sS'number'
p10
g2
sS'person_oid'
p11
L93L
sS'contact'
p12
L3L
sS'starttime'
p13
cdatetime
datetime
p14
(S'\x07\xd4\t\x0f\x17\t\x10\x00\x00\x00'
p15
tp16
Rp17
sS'duration'
p18
L454L
sS'endtime'
p19
g14
(S'\x07\xd4\t\x0f\x17\x102\x00\x00\x00'
p20
tp21
Rp22
sS'phonenumber_oid'
p23
L2513L
s.(dp0
S'status'
p1
S''
p2
sS'direction'
p3
S'Outgoing'
p4
sS'remote'
p5
g2
sS'description'
p6
S'Voice Call'
p7
sS'callid'
p8
L0L
sS'oid'
p9
L609196L
sS'number'
p10
g2
sS'person_oid'
p11
L93L
sS'contact'
p12
L3L
sS'starttime'
p13
cdatetime
datetime
p14
(S'\x07\xd4\t\x0f\x17\t\x10\x00\x00\x00'
p15
tp16
Rp17
sS'duration'
p18
L454L
sS'endtime'
p19
g14
(S'\x07\xd4\t\x0f\x17\x102\x00\x00\x00'
p20
tp21
Rp22
sS'phonenumber_oid'
p23
L2513L
s.(dp0
S'status'
p1
S''
p2
sS'direction'
p3
S'Outgoing'
p4
sS'remote'
p5
g2
sS'description'
p6
S'Voice Call'
p7
sS'callid'
p8
L0L
sS'oid'
p9
L609203L
sS'number'
p10
g2
sS'person_oid'
p11
L93L
sS'contact'
p12
L3L
sS'starttime'
p13
cdatetime
datetime
p14
(S'\x07\xd4\t\x0f\x17\t\x10\x00\x00\x00'
p15
tp16
Rp17
sS'duration'
p18
L454L
sS'endtime'
p19
g14
(S'\x07\xd4\t\x0f\x17\x102\x00\x00\x00'
p20
tp21
Rp22
sS'phonenumber_oid'
p23
L2513L
s.(dp0
S'status'
p1
S''
p2
sS'direction'
p3
S'Missed Call'
p4
sS'remote'
p5
g2
sS'description'
p6
S'Voice Call'
p7
sS'callid'
p8
L1L
sS'oid'
p9
L609191L
sS'number'
p10
g2
sS'person_oid'
p11
L93L
sS'contact'
p12
L-1L
sS'starttime'
p13
cdatetime
datetime
p14
(S'\x07\xd4\t\x11\x0f\x00\x1b\x00\x00\x00'
p15
tp16
Rp17
sS'duration'
p18
L0L
sS'endtime'
p19
g14
(S'\x07\xd4\t\x11\x0f\x00\x1b\x00\x00\x00'
p20
tp21
Rp22
sS'phonenumber_oid'
p23
L3L
s.(dp0
S'status'
p1
S''
p2
sS'direction'
p3
S'Missed Call'
p4
sS'remote'
p5
g2
sS'description'
p6
S'Voice Call'
p7
sS'callid'
p8
L1L
sS'oid'
p9
L609197L
sS'number'
p10
g2
sS'person_oid'
p11
L93L
sS'contact'
p12
L-1L
sS'starttime'
p13
cdatetime
datetime
p14
(S'\x07\xd4\t\x11\x0f\x00\x1b\x00\x00\x00'
p15
tp16
Rp17
sS'duration'
p18
L0L
sS'endtime'
p19
g14
(S'\x07\xd4\t\x11\x0f\x00\x1b\x00\x00\x00'
p20
tp21
Rp22
sS'phonenumber_oid'
p23
L3L
s.(dp0
S'status'
p1
S''
p2
sS'direction'
p3
S'Missed Call'
p4
sS'remote'
p5
g2
sS'description'
p6
S'Voice Call'
p7
sS'callid'
p8
L1L
sS'oid'
p9
L609204L
sS'number'
p10
g2
sS'person_oid'
p11
L93L
sS'contact'
p12
L-1L
sS'starttime'
p13
cdatetime
datetime
p14
(S'\x07\xd4\t\x11\x0f\x00\x1b\x00\x00\x00'
p15
tp16
Rp17
sS'duration'
p18
L0L
sS'endtime'
p19
g14
(S'\x07\xd4\t\x11\x0f\x00\x1b\x00\x00\x00'
p20
tp21
Rp22
sS'phonenumber_oid'
p23
L3L
s.(dp0
S'status'
p1
S''
p2
sS'direction'
p3
S'Outgoing'
p4
sS'remote'
p5
g2
sS'description'
p6
S'Voice Call'
p7
sS'callid'
p8
L2L
sS'oid'
p9
L609192L
sS'number'
p10
g2
sS'person_oid'
p11
L93L
sS'contact'
p12
L3L
sS'starttime'
p13
cdatetime
datetime
p14
(S'\x07\xd4\t\x11\x13:\x1e\x00\x00\x00'
p15
tp16
Rp17
sS'duration'
p18
L201L
sS'endtime'
p19
g14
(S'\x07\xd4\t\x11\x14\x013\x00\x00\x00'
p20
tp21
Rp22
sS'phonenumber_oid'
p23
L2513L
s.(dp0
S'status'
p1
S''
p2
sS'direction'
p3
S'Outgoing'
p4
sS'remote'
p5
g2
sS'description'
p6
S'Voice Call'
p7
sS'callid'
p8
L2L
sS'oid'
p9
L609198L
sS'number'
p10
g2
sS'person_oid'
p11
L93L
sS'contact'
p12
L3L
sS'starttime'
p13
cdatetime
datetime
p14
(S'\x07\xd4\t\x11\x13:\x1e\x00\x00\x00'
p15
tp16
Rp17
sS'duration'
p18
L201L
sS'endtime'
p19
g14
(S'\x07\xd4\t\x11\x14\x013\x00\x00\x00'
p20
tp21
Rp22
sS'phonenumber_oid'
p23
L2513L
s.(dp0
S'status'
p1
S''
p2
sS'direction'
p3
S'Outgoing'
p4
sS'remote'
p5
g2
sS'description'
p6
S'Voice Call'
p7
sS'callid'
p8
L2L
sS'oid'
p9
L609205L
sS'number'
p10
g2
sS'person_oid'
p11
L93L
sS'contact'
p12
L3L
sS'starttime'
p13
cdatetime
datetime
p14
(S'\x07\xd4\t\x11\x13:\x1e\x00\x00\x00'
p15
tp16
Rp17
sS'duration'
p18
L201L
sS'endtime'
p19
g14
(S'\x07\xd4\t\x11\x14\x013\x00\x00\x00'
p20
tp21
Rp22
sS'phonenumber_oid'
p23
L2513L
s.(dp0
S'status'
p1
S'Delivered'
p2
sS'direction'
p3
S'Incoming'
p4
sS'remote'
p5
S''
p6
sS'description'
p7
S'Short Message'
p8
sS'callid'
p9
L4L
sS'oid'
p10
L609206L
sS'number'
p11
g6
sS'person_oid'
p12
L93L
sS'contact'
p13
L13L
sS'starttime'
p14
cdatetime
datetime
p15
(S'\x07\xd4\t\x12\x00\x03\x0c\x00\x00\x00'
p16
tp17
Rp18
sS'duration'
p19
L0L
sS'endtime'
p20
g15
(S'\x07\xd4\t\x12\x00\x03\x0c\x00\x00\x00'
p21
tp22
Rp23
sS'phonenumber_oid'
p24
L2515L
s.(dp0
S'status'
p1
S''
p2
sS'direction'
p3
S'Missed Call'
p4
sS'remote'
p5
g2
sS'description'
p6
S'Voice Call'
p7
sS'callid'
p8
L5L
sS'oid'
p9
L609193L
sS'number'
p10
g2
sS'person_oid'
p11
L93L
sS'contact'
p12
L1L
sS'starttime'
p13
cdatetime
datetime
p14
(S'\x07\xd4\t\x12\x00-\x00\x00\x00\x00'
p15
tp16
Rp17
sS'duration'
p18
L0L
sS'endtime'
p19
g14
(S'\x07\xd4\t\x12\x00-\x00\x00\x00\x00'
p20
tp21
Rp22
sS'phonenumber_oid'
p23
L2514L
s.(dp0
S'status'
p1
S''
p2
sS'direction'
p3
S'Missed Call'
p4
sS'remote'
p5
g2
sS'description'
p6
S'Voice Call'
p7
sS'callid'
p8
L5L
sS'oid'
p9
L609199L
sS'number'
p10
g2
sS'person_oid'
p11
L93L
sS'contact'
p12
L1L
sS'starttime'
p13
cdatetime
datetime
p14
(S'\x07\xd4\t\x12\x00-\x00\x00\x00\x00'
p15
tp16
Rp17
sS'duration'
p18
L0L
sS'endtime'
p19
g14
(S'\x07\xd4\t\x12\x00-\x00\x00\x00\x00'
p20
tp21
Rp22
sS'phonenumber_oid'
p23
L2514L
s.(dp0
S'status'
p1
S''
p2
sS'direction'
p3
S'Missed Call'
p4
sS'remote'
p5
g2
sS'description'
p6
S'Voice Call'
p7
sS'callid'
p8
L5L
sS'oid'
p9
L609207L
sS'number'
p10
g2
sS'person_oid'
p11
L93L
sS'contact'
p12
L1L
sS'starttime'
p13
cdatetime
datetime
p14
(S'\x07\xd4\t\x12\x00-\x00\x00\x00\x00'
p15
tp16
Rp17
sS'duration'
p18
L0L
sS'endtime'
p19
g14
(S'\x07\xd4\t\x12\x00-\x00\x00\x00\x00'
p20
tp21
Rp22
sS'phonenumber_oid'
p23
L2514L
s.(dp0
S'status'
p1
S''
p2
sS'direction'
p3
S'Outgoing'
p4
sS'remote'
p5
g2
sS'description'
p6
S'Voice Call'
p7
sS'callid'
p8
L6L
sS'oid'
p9
L609194L
sS'number'
p10
g2
sS'person_oid'
p11
L93L
sS'contact'
p12
L1L
sS'starttime'
p13
cdatetime
datetime
p14
(S'\x07\xd4\t\x12\x00.\x17\x00\x00\x00'
p15
tp16
Rp17
sS'duration'
p18
L107L
sS'endtime'
p19
g14
(S'\x07\xd4\t\x12\x000\n\x00\x00\x00'
p20
tp21
Rp22
sS'phonenumber_oid'
p23
L2514L
s.(dp0
S'status'
p1
S''
p2
sS'direction'
p3
S'Outgoing'
p4
sS'remote'
p5
g2
sS'description'
p6
S'Voice Call'
p7
sS'callid'
p8
L6L
sS'oid'
p9
L609200L
sS'number'
p10
g2
sS'person_oid'
p11
L93L
sS'contact'
p12
L1L
sS'starttime'
p13
cdatetime
datetime
p14
(S'\x07\xd4\t\x12\x00.\x17\x00\x00\x00'
p15
tp16
Rp17
sS'duration'
p18
L107L
sS'endtime'
p19
g14
(S'\x07\xd4\t\x12\x000\n\x00\x00\x00'
p20
tp21
Rp22
sS'phonenumber_oid'
p23
L2514L
s.(dp0
S'status'
p1
S''
p2
sS'direction'
p3
S'Outgoing'
p4
sS'remote'
p5
g2
sS'description'
p6
S'Voice Call'
p7
sS'callid'
p8
L6L
sS'oid'
p9
L609208L
sS'number'
p10
g2
sS'person_oid'
p11
L93L
sS'contact'
p12
L1L
sS'starttime'
p13
cdatetime
datetime
p14
(S'\x07\xd4\t\x12\x00.\x17\x00\x00\x00'
p15
tp16
Rp17
sS'duration'
p18
L107L
sS'endtime'
p19
g14
(S'\x07\xd4\t\x12\x000\n\x00\x00\x00'
p20
tp21
Rp22
sS'phonenumber_oid'
p23
L2514L
s.(dp0
S'status'
p1
S''
p2
sS'direction'
p3
S'Missed Call'
p4
sS'remote'
p5
g2
sS'description'
p6
S'Voice Call'
p7
sS'callid'
p8
L7L
sS'oid'
p9
L609195L
sS'number'
p10
g2
sS'person_oid'
p11
L93L
sS'contact'
p12
L1L
sS'starttime'
p13
cdatetime
datetime
p14
(S'\x07\xd4\t\x12\x02\x04\x03\x00\x00\x00'
p15
tp16
Rp17
sS'duration'
p18
L0L
sS'endtime'
p19
g14
(S'\x07\xd4\t\x12\x02\x04\x03\x00\x00\x00'
p20
tp21
Rp22
sS'phonenumber_oid'
p23
L2514L
s.(dp0
S'status'
p1
S''
p2
sS'direction'
p3
S'Missed Call'
p4
sS'remote'
p5
g2
sS'description'
p6
S'Voice Call'
p7
sS'callid'
p8
L7L
sS'oid'
p9
L609201L
sS'number'
p10
g2
sS'person_oid'
p11
L93L
sS'contact'
p12
L1L
sS'starttime'
p13
cdatetime
datetime
p14
(S'\x07\xd4\t\x12\x02\x04\x03\x00\x00\x00'
p15
tp16
Rp17
sS'duration'
p18
L0L
sS'endtime'
p19
g14
(S'\x07\xd4\t\x12\x02\x04\x03\x00\x00\x00'
p20
tp21
Rp22
sS'phonenumber_oid'
p23
L2514L
s.(dp0
S'status'
p1
S''
p2
sS'direction'
p3
S'Missed Call'
p4
sS'remote'
p5
g2
sS'description'
p6
S'Voice Call'
p7
sS'callid'
p8
L7L
sS'oid'
p9
L609209L
sS'number'
p10
g2
sS'person_oid'
p11
L93L
sS'contact'
p12
L1L
sS'starttime'
p13
cdatetime
datetime
p14
(S'\x07\xd4\t\x12\x02\x04\x03\x00\x00\x00'
p15
tp16
Rp17
sS'duration'
p18
L0L
sS'endtime'
p19
g14
(S'\x07\xd4\t\x12\x02\x04\x03\x00\x00\x00'
p20
tp21
Rp22
sS'phonenumber_oid'
p23
L2514L
s.(dp0
S'status'
p1
S''
p2
sS'direction'
p3
S'Missed Call'
p4
sS'remote'
p5
g2
sS'description'
p6
S'Voice Call'
p7
sS'callid'
p8
L8L
sS'oid'
p9
L609210L
sS'number'
p10
g2
sS'person_oid'
p11
L93L
sS'contact'
p12
L13L
sS'starttime'
p13
cdatetime
datetime
p14
(S'\x07\xd4\t\x12\x036\x12\x00\x00\x00'
p15
tp16
Rp17
sS'duration'
p18
L0L
sS'endtime'
p19
g14
(S'\x07\xd4\t\x12\x036\x12\x00\x00\x00'
p20
tp21
Rp22
sS'phonenumber_oid'
p23
L2515L
s.(dp0
S'status'
p1
S''
p2
sS'direction'
p3
S'Outgoing'
p4
sS'remote'
p5
g2
sS'description'
p6
S'Voice Call'
p7
sS'callid'
p8
L9L
sS'oid'
p9
L609211L
sS'number'
p10
g2
sS'person_oid'
p11
L93L
sS'contact'
p12
L13L
sS'starttime'
p13
cdatetime
datetime
p14
(S'\x07\xd4\t\x12\x0368\x00\x00\x00'
p15
tp16
Rp17
sS'duration'
p18
L838L
sS'endtime'
p19
g14
(S'\x07\xd4\t\x12\x04\x086\x00\x00\x00'
p20
tp21
Rp22
sS'phonenumber_oid'
p23
L2515L
s.(dp0
S'status'
p1
S''
p2
sS'direction'
p3
S'Outgoing'
p4
sS'remote'
p5
g2
sS'description'
p6
S'Voice Call'
p7
sS'callid'
p8
L11L
sS'oid'
p9
L609202L
sS'number'
p10
g2
sS'person_oid'
p11
L93L
sS'contact'
p12
L3L
sS'starttime'
p13
cdatetime
datetime
p14
(S'\x07\xd4\t\x12\x11/#\x00\x00\x00'
p15
tp16
Rp17
sS'duration'
p18
L43L
sS'endtime'
p19
g14
(S'\x07\xd4\t\x12\x110\x12\x00\x00\x00'
p20
tp21
Rp22
sS'phonenumber_oid'
p23
L2513L
s.(dp0
S'status'
p1
S''
p2
sS'direction'
p3
S'Outgoing'
p4
sS'remote'
p5
g2
sS'description'
p6
S'Voice Call'
p7
sS'callid'
p8
L11L
sS'oid'
p9
L609212L
sS'number'
p10
g2
sS'person_oid'
p11
L93L
sS'contact'
p12
L3L
sS'starttime'
p13
cdatetime
datetime
p14
(S'\x07\xd4\t\x12\x11/#\x00\x00\x00'
p15
tp16
Rp17
sS'duration'
p18
L43L
sS'endtime'
p19
g14
(S'\x07\xd4\t\x12\x110\x12\x00\x00\x00'
p20
tp21
Rp22
sS'phonenumber_oid'
p23
L2513L
s.(dp0
S'status'
p1
S''
p2
sS'direction'
p3
S'Incoming'
p4
sS'remote'
p5
g2
sS'description'
p6
S'Voice Call'
p7
sS'callid'
p8
L14L
sS'oid'
p9
L609213L
sS'number'
p10
g2
sS'person_oid'
p11
L93L
sS'contact'
p12
L13L
sS'starttime'
p13
cdatetime
datetime
p14
(S'\x07\xd4\t\x12\x13\x1e\x08\x00\x00\x00'
p15
tp16
Rp17
sS'duration'
p18
L470L
sS'endtime'
p19
g14
(S'\x07\xd4\t\x12\x13%:\x00\x00\x00'
p20
tp21
Rp22
sS'phonenumber_oid'
p23
L2515L
s.(dp0
S'status'
p1
S'Pending'
p2
sS'direction'
p3
S'Outgoing'
p4
sS'remote'
p5
S''
p6
sS'description'
p7
S'Short Message'
p8
sS'callid'
p9
L15L
sS'oid'
p10
L609214L
sS'number'
p11
g6
sS'person_oid'
p12
L93L
sS'contact'
p13
L13L
sS'starttime'
p14
cdatetime
datetime
p15
(S'\x07\xd4\t\x12\x17\x05\x18\x00\x00\x00'
p16
tp17
Rp18
sS'duration'
p19
L0L
sS'endtime'
p20
g15
(S'\x07\xd4\t\x12\x17\x05\x18\x00\x00\x00'
p21
tp22
Rp23
sS'phonenumber_oid'
p24
L2515L
s.(dp0
S'status'
p1
S''
p2
sS'direction'
p3
S'Incoming'
p4
sS'remote'
p5
g2
sS'description'
p6
S'Voice Call'
p7
sS'callid'
p8
L17L
sS'oid'
p9
L609215L
sS'number'
p10
g2
sS'person_oid'
p11
L93L
sS'contact'
p12
L13L
sS'starttime'
p13
cdatetime
datetime
p14
(S'\x07\xd4\t\x12\x17\x15\x08\x00\x00\x00'
p15
tp16
Rp17
sS'duration'
p18
L352L
sS'endtime'
p19
g14
(S'\x07\xd4\t\x12\x17\x1b\x00\x00\x00\x00'
p20
tp21
Rp22
sS'phonenumber_oid'
p23
L2515L
s.(dp0
S'status'
p1
S''
p2
sS'direction'
p3
S'Missed Call'
p4
sS'remote'
p5
g2
sS'description'
p6
S'Voice Call'
p7
sS'callid'
p8
L18L
sS'oid'
p9
L609216L
sS'number'
p10
g2
sS'person_oid'
p11
L93L
sS'contact'
p12
L13L
sS'starttime'
p13
cdatetime
datetime
p14
(S'\x07\xd4\t\x13\x01\x02\x0e\x00\x00\x00'
p15
tp16
Rp17
sS'duration'
p18
L0L
sS'endtime'
p19
g14
(S'\x07\xd4\t\x13\x01\x02\x0e\x00\x00\x00'
p20
tp21
Rp22
sS'phonenumber_oid'
p23
L2515L
s.(dp0
S'status'
p1
S''
p2
sS'direction'
p3
S'Missed Call'
p4
sS'remote'
p5
g2
sS'description'
p6
S'Voice Call'
p7
sS'callid'
p8
L20L
sS'oid'
p9
L609217L
sS'number'
p10
g2
sS'person_oid'
p11
L93L
sS'contact'
p12
L13L
sS'starttime'
p13
cdatetime
datetime
p14
(S'\x07\xd4\t\x13\x01\x0f\x05\x00\x00\x00'
p15
tp16
Rp17
sS'duration'
p18
L0L
sS'endtime'
p19
g14
(S'\x07\xd4\t\x13\x01\x0f\x05\x00\x00\x00'
p20
tp21
Rp22
sS'phonenumber_oid'
p23
L2515L
s.(dp0
S'status'
p1
S''
p2
sS'direction'
p3
S'Missed Call'
p4
sS'remote'
p5
g2
sS'description'
p6
S'Voice Call'
p7
sS'callid'
p8
L22L
sS'oid'
p9
L609218L
sS'number'
p10
g2
sS'person_oid'
p11
L93L
sS'contact'
p12
L13L
sS'starttime'
p13
cdatetime
datetime
p14
(S'\x07\xd4\t\x13\x01\x16"\x00\x00\x00'
p15
tp16
Rp17
sS'duration'
p18
L0L
sS'endtime'
p19
g14
(S'\x07\xd4\t\x13\x01\x16"\x00\x00\x00'
p20
tp21
Rp22
sS'phonenumber_oid'
p23
L2515L
s.(dp0
S'status'
p1
S''
p2
sS'direction'
p3
S'Missed Call'
p4
sS'remote'
p5
g2
sS'description'
p6
S'Voice Call'
p7
sS'callid'
p8
L24L
sS'oid'
p9
L609219L
sS'number'
p10
g2
sS'person_oid'
p11
L93L
sS'contact'
p12
L13L
sS'starttime'
p13
cdatetime
datetime
p14
(S'\x07\xd4\t\x13\x01\x1a&\x00\x00\x00'
p15
tp16
Rp17
sS'duration'
p18
L0L
sS'endtime'
p19
g14
(S'\x07\xd4\t\x13\x01\x1a&\x00\x00\x00'
p20
tp21
Rp22
sS'phonenumber_oid'
p23
L2515L
s.(dp0
S'status'
p1
S''
p2
sS'direction'
p3
S'Missed Call'
p4
sS'remote'
p5
g2
sS'description'
p6
S'Voice Call'
p7
sS'callid'
p8
L25L
sS'oid'
p9
L609220L
sS'number'
p10
g2
sS'person_oid'
p11
L93L
sS'contact'
p12
L13L
sS'starttime'
p13
cdatetime
datetime
p14
(S'\x07\xd4\t\x13\x01!\x07\x00\x00\x00'
p15
tp16
Rp17
sS'duration'
p18
L0L
sS'endtime'
p19
g14
(S'\x07\xd4\t\x13\x01!\x07\x00\x00\x00'
p20
tp21
Rp22
sS'phonenumber_oid'
p23
L2515L
s.(dp0
S'status'
p1
S'Pending'
p2
sS'direction'
p3
S'Outgoing'
p4
sS'remote'
p5
S''
p6
sS'description'
p7
S'Short Message'
p8
sS'callid'
p9
L31L
sS'oid'
p10
L609221L
sS'number'
p11
g6
sS'person_oid'
p12
L93L
sS'contact'
p13
L-1L
sS'starttime'
p14
cdatetime
datetime
p15
(S'\x07\xd4\t\x13\x10;&\x00\x00\x00'
p16
tp17
Rp18
sS'duration'
p19
L0L
sS'endtime'
p20
g15
(S'\x07\xd4\t\x13\x10;&\x00\x00\x00'
p21
tp22
Rp23
sS'phonenumber_oid'
p24
L2516L
s.