(dp0
S'status'
p1
S''
p2
sS'direction'
p3
S'Outgoing'
p4
sS'remote'
p5
g2
sS'description'
p6
S'Voice Call'
p7
sS'callid'
p8
L0L
sS'oid'
p9
L846996L
sS'number'
p10
g2
sS'person_oid'
p11
L56L
sS'contact'
p12
L1L
sS'starttime'
p13
cdatetime
datetime
p14
(S'\x07\xd4\n\x06\r\x15\r\x00\x00\x00'
p15
tp16
Rp17
sS'duration'
p18
L0L
sS'endtime'
p19
g14
(S'\x07\xd4\n\x06\r\x15\r\x00\x00\x00'
p20
tp21
Rp22
sS'phonenumber_oid'
p23
L1986L
s.(dp0
S'status'
p1
S''
p2
sS'direction'
p3
S'Outgoing'
p4
sS'remote'
p5
g2
sS'description'
p6
S'Voice Call'
p7
sS'callid'
p8
L0L
sS'oid'
p9
L847013L
sS'number'
p10
g2
sS'person_oid'
p11
L56L
sS'contact'
p12
L1L
sS'starttime'
p13
cdatetime
datetime
p14
(S'\x07\xd4\n\x06\r\x15\r\x00\x00\x00'
p15
tp16
Rp17
sS'duration'
p18
L0L
sS'endtime'
p19
g14
(S'\x07\xd4\n\x06\r\x15\r\x00\x00\x00'
p20
tp21
Rp22
sS'phonenumber_oid'
p23
L1986L
s.(dp0
S'status'
p1
S''
p2
sS'direction'
p3
S'Outgoing'
p4
sS'remote'
p5
g2
sS'description'
p6
S'Voice Call'
p7
sS'callid'
p8
L0L
sS'oid'
p9
L847044L
sS'number'
p10
g2
sS'person_oid'
p11
L56L
sS'contact'
p12
L1L
sS'starttime'
p13
cdatetime
datetime
p14
(S'\x07\xd4\n\x06\r\x15\r\x00\x00\x00'
p15
tp16
Rp17
sS'duration'
p18
L0L
sS'endtime'
p19
g14
(S'\x07\xd4\n\x06\r\x15\r\x00\x00\x00'
p20
tp21
Rp22
sS'phonenumber_oid'
p23
L1986L
s.(dp0
S'status'
p1
S'Disconnected'
p2
sS'direction'
p3
S'Outgoing'
p4
sS'remote'
p5
S''
p6
sS'description'
p7
S'Packet Data'
p8
sS'callid'
p9
L5L
sS'oid'
p10
L846997L
sS'number'
p11
g6
sS'person_oid'
p12
L56L
sS'contact'
p13
L-1L
sS'starttime'
p14
cdatetime
datetime
p15
(S'\x07\xd4\n\x06\x10/:\x00\x00\x00'
p16
tp17
Rp18
sS'duration'
p19
L462L
sS'endtime'
p20
g15
(S'\x07\xd4\n\x06\x107(\x00\x00\x00'
p21
tp22
Rp23
sS'phonenumber_oid'
p24
L3L
s.(dp0
S'status'
p1
S'Disconnected'
p2
sS'direction'
p3
S'Outgoing'
p4
sS'remote'
p5
S''
p6
sS'description'
p7
S'Packet Data'
p8
sS'callid'
p9
L5L
sS'oid'
p10
L847014L
sS'number'
p11
g6
sS'person_oid'
p12
L56L
sS'contact'
p13
L-1L
sS'starttime'
p14
cdatetime
datetime
p15
(S'\x07\xd4\n\x06\x10/:\x00\x00\x00'
p16
tp17
Rp18
sS'duration'
p19
L462L
sS'endtime'
p20
g15
(S'\x07\xd4\n\x06\x107(\x00\x00\x00'
p21
tp22
Rp23
sS'phonenumber_oid'
p24
L3L
s.(dp0
S'status'
p1
S'Disconnected'
p2
sS'direction'
p3
S'Outgoing'
p4
sS'remote'
p5
S''
p6
sS'description'
p7
S'Packet Data'
p8
sS'callid'
p9
L5L
sS'oid'
p10
L847045L
sS'number'
p11
g6
sS'person_oid'
p12
L56L
sS'contact'
p13
L-1L
sS'starttime'
p14
cdatetime
datetime
p15
(S'\x07\xd4\n\x06\x10/:\x00\x00\x00'
p16
tp17
Rp18
sS'duration'
p19
L462L
sS'endtime'
p20
g15
(S'\x07\xd4\n\x06\x107(\x00\x00\x00'
p21
tp22
Rp23
sS'phonenumber_oid'
p24
L3L
s.(dp0
S'status'
p1
S''
p2
sS'direction'
p3
S'Outgoing'
p4
sS'remote'
p5
g2
sS'description'
p6
S'Voice Call'
p7
sS'callid'
p8
L6L
sS'oid'
p9
L846998L
sS'number'
p10
g2
sS'person_oid'
p11
L56L
sS'contact'
p12
L2L
sS'starttime'
p13
cdatetime
datetime
p14
(S'\x07\xd4\n\x06\x104,\x00\x00\x00'
p15
tp16
Rp17
sS'duration'
p18
L0L
sS'endtime'
p19
g14
(S'\x07\xd4\n\x06\x104,\x00\x00\x00'
p20
tp21
Rp22
sS'phonenumber_oid'
p23
L3654L
s.(dp0
S'status'
p1
S''
p2
sS'direction'
p3
S'Outgoing'
p4
sS'remote'
p5
g2
sS'description'
p6
S'Voice Call'
p7
sS'callid'
p8
L6L
sS'oid'
p9
L847015L
sS'number'
p10
g2
sS'person_oid'
p11
L56L
sS'contact'
p12
L2L
sS'starttime'
p13
cdatetime
datetime
p14
(S'\x07\xd4\n\x06\x104,\x00\x00\x00'
p15
tp16
Rp17
sS'duration'
p18
L0L
sS'endtime'
p19
g14
(S'\x07\xd4\n\x06\x104,\x00\x00\x00'
p20
tp21
Rp22
sS'phonenumber_oid'
p23
L3654L
s.(dp0
S'status'
p1
S''
p2
sS'direction'
p3
S'Outgoing'
p4
sS'remote'
p5
g2
sS'description'
p6
S'Voice Call'
p7
sS'callid'
p8
L6L
sS'oid'
p9
L847046L
sS'number'
p10
g2
sS'person_oid'
p11
L56L
sS'contact'
p12
L2L
sS'starttime'
p13
cdatetime
datetime
p14
(S'\x07\xd4\n\x06\x104,\x00\x00\x00'
p15
tp16
Rp17
sS'duration'
p18
L0L
sS'endtime'
p19
g14
(S'\x07\xd4\n\x06\x104,\x00\x00\x00'
p20
tp21
Rp22
sS'phonenumber_oid'
p23
L3654L
s.(dp0
S'status'
p1
S''
p2
sS'direction'
p3
S'Incoming'
p4
sS'remote'
p5
g2
sS'description'
p6
S'Voice Call'
p7
sS'callid'
p8
L8L
sS'oid'
p9
L846999L
sS'number'
p10
g2
sS'person_oid'
p11
L56L
sS'contact'
p12
L2L
sS'starttime'
p13
cdatetime
datetime
p14
(S'\x07\xd4\n\x06\x10:*\x00\x00\x00'
p15
tp16
Rp17
sS'duration'
p18
L248L
sS'endtime'
p19
g14
(S'\x07\xd4\n\x06\x11\x022\x00\x00\x00'
p20
tp21
Rp22
sS'phonenumber_oid'
p23
L3654L
s.(dp0
S'status'
p1
S''
p2
sS'direction'
p3
S'Incoming'
p4
sS'remote'
p5
g2
sS'description'
p6
S'Voice Call'
p7
sS'callid'
p8
L8L
sS'oid'
p9
L847016L
sS'number'
p10
g2
sS'person_oid'
p11
L56L
sS'contact'
p12
L2L
sS'starttime'
p13
cdatetime
datetime
p14
(S'\x07\xd4\n\x06\x10:*\x00\x00\x00'
p15
tp16
Rp17
sS'duration'
p18
L248L
sS'endtime'
p19
g14
(S'\x07\xd4\n\x06\x11\x022\x00\x00\x00'
p20
tp21
Rp22
sS'phonenumber_oid'
p23
L3654L
s.(dp0
S'status'
p1
S''
p2
sS'direction'
p3
S'Incoming'
p4
sS'remote'
p5
g2
sS'description'
p6
S'Voice Call'
p7
sS'callid'
p8
L8L
sS'oid'
p9
L847047L
sS'number'
p10
g2
sS'person_oid'
p11
L56L
sS'contact'
p12
L2L
sS'starttime'
p13
cdatetime
datetime
p14
(S'\x07\xd4\n\x06\x10:*\x00\x00\x00'
p15
tp16
Rp17
sS'duration'
p18
L248L
sS'endtime'
p19
g14
(S'\x07\xd4\n\x06\x11\x022\x00\x00\x00'
p20
tp21
Rp22
sS'phonenumber_oid'
p23
L3654L
s.(dp0
S'status'
p1
S'Disconnected'
p2
sS'direction'
p3
S'Outgoing'
p4
sS'remote'
p5
S''
p6
sS'description'
p7
S'Packet Data'
p8
sS'callid'
p9
L9L
sS'oid'
p10
L847000L
sS'number'
p11
g6
sS'person_oid'
p12
L56L
sS'contact'
p13
L-1L
sS'starttime'
p14
cdatetime
datetime
p15
(S'\x07\xd4\n\x06\x11\x05\x04\x00\x00\x00'
p16
tp17
Rp18
sS'duration'
p19
L11L
sS'endtime'
p20
g15
(S'\x07\xd4\n\x06\x11\x05\x0f\x00\x00\x00'
p21
tp22
Rp23
sS'phonenumber_oid'
p24
L3L
s.(dp0
S'status'
p1
S'Disconnected'
p2
sS'direction'
p3
S'Outgoing'
p4
sS'remote'
p5
S''
p6
sS'description'
p7
S'Packet Data'
p8
sS'callid'
p9
L9L
sS'oid'
p10
L847017L
sS'number'
p11
g6
sS'person_oid'
p12
L56L
sS'contact'
p13
L-1L
sS'starttime'
p14
cdatetime
datetime
p15
(S'\x07\xd4\n\x06\x11\x05\x04\x00\x00\x00'
p16
tp17
Rp18
sS'duration'
p19
L11L
sS'endtime'
p20
g15
(S'\x07\xd4\n\x06\x11\x05\x0f\x00\x00\x00'
p21
tp22
Rp23
sS'phonenumber_oid'
p24
L3L
s.(dp0
S'status'
p1
S'Disconnected'
p2
sS'direction'
p3
S'Outgoing'
p4
sS'remote'
p5
S''
p6
sS'description'
p7
S'Packet Data'
p8
sS'callid'
p9
L9L
sS'oid'
p10
L847048L
sS'number'
p11
g6
sS'person_oid'
p12
L56L
sS'contact'
p13
L-1L
sS'starttime'
p14
cdatetime
datetime
p15
(S'\x07\xd4\n\x06\x11\x05\x04\x00\x00\x00'
p16
tp17
Rp18
sS'duration'
p19
L11L
sS'endtime'
p20
g15
(S'\x07\xd4\n\x06\x11\x05\x0f\x00\x00\x00'
p21
tp22
Rp23
sS'phonenumber_oid'
p24
L3L
s.(dp0
S'status'
p1
S'Disconnected'
p2
sS'direction'
p3
S'Outgoing'
p4
sS'remote'
p5
S''
p6
sS'description'
p7
S'Packet Data'
p8
sS'callid'
p9
L10L
sS'oid'
p10
L847001L
sS'number'
p11
g6
sS'person_oid'
p12
L56L
sS'contact'
p13
L-1L
sS'starttime'
p14
cdatetime
datetime
p15
(S'\x07\xd4\n\x06\x11\x05\x18\x00\x00\x00'
p16
tp17
Rp18
sS'duration'
p19
L8L
sS'endtime'
p20
g15
(S'\x07\xd4\n\x06\x11\x05 \x00\x00\x00'
p21
tp22
Rp23
sS'phonenumber_oid'
p24
L3L
s.(dp0
S'status'
p1
S'Disconnected'
p2
sS'direction'
p3
S'Outgoing'
p4
sS'remote'
p5
S''
p6
sS'description'
p7
S'Packet Data'
p8
sS'callid'
p9
L10L
sS'oid'
p10
L847018L
sS'number'
p11
g6
sS'person_oid'
p12
L56L
sS'contact'
p13
L-1L
sS'starttime'
p14
cdatetime
datetime
p15
(S'\x07\xd4\n\x06\x11\x05\x18\x00\x00\x00'
p16
tp17
Rp18
sS'duration'
p19
L8L
sS'endtime'
p20
g15
(S'\x07\xd4\n\x06\x11\x05 \x00\x00\x00'
p21
tp22
Rp23
sS'phonenumber_oid'
p24
L3L
s.(dp0
S'status'
p1
S'Disconnected'
p2
sS'direction'
p3
S'Outgoing'
p4
sS'remote'
p5
S''
p6
sS'description'
p7
S'Packet Data'
p8
sS'callid'
p9
L10L
sS'oid'
p10
L847049L
sS'number'
p11
g6
sS'person_oid'
p12
L56L
sS'contact'
p13
L-1L
sS'starttime'
p14
cdatetime
datetime
p15
(S'\x07\xd4\n\x06\x11\x05\x18\x00\x00\x00'
p16
tp17
Rp18
sS'duration'
p19
L8L
sS'endtime'
p20
g15
(S'\x07\xd4\n\x06\x11\x05 \x00\x00\x00'
p21
tp22
Rp23
sS'phonenumber_oid'
p24
L3L
s.(dp0
S'status'
p1
S'Disconnected'
p2
sS'direction'
p3
S'Outgoing'
p4
sS'remote'
p5
S''
p6
sS'description'
p7
S'Packet Data'
p8
sS'callid'
p9
L11L
sS'oid'
p10
L847002L
sS'number'
p11
g6
sS'person_oid'
p12
L56L
sS'contact'
p13
L-1L
sS'starttime'
p14
cdatetime
datetime
p15
(S'\x07\xd4\n\x06\x11\n\x0c\x00\x00\x00'
p16
tp17
Rp18
sS'duration'
p19
L27L
sS'endtime'
p20
g15
(S"\x07\xd4\n\x06\x11\n'\x00\x00\x00"
p21
tp22
Rp23
sS'phonenumber_oid'
p24
L3L
s.(dp0
S'status'
p1
S'Disconnected'
p2
sS'direction'
p3
S'Outgoing'
p4
sS'remote'
p5
S''
p6
sS'description'
p7
S'Packet Data'
p8
sS'callid'
p9
L11L
sS'oid'
p10
L847019L
sS'number'
p11
g6
sS'person_oid'
p12
L56L
sS'contact'
p13
L-1L
sS'starttime'
p14
cdatetime
datetime
p15
(S'\x07\xd4\n\x06\x11\n\x0c\x00\x00\x00'
p16
tp17
Rp18
sS'duration'
p19
L27L
sS'endtime'
p20
g15
(S"\x07\xd4\n\x06\x11\n'\x00\x00\x00"
p21
tp22
Rp23
sS'phonenumber_oid'
p24
L3L
s.(dp0
S'status'
p1
S'Disconnected'
p2
sS'direction'
p3
S'Outgoing'
p4
sS'remote'
p5
S''
p6
sS'description'
p7
S'Packet Data'
p8
sS'callid'
p9
L11L
sS'oid'
p10
L847050L
sS'number'
p11
g6
sS'person_oid'
p12
L56L
sS'contact'
p13
L-1L
sS'starttime'
p14
cdatetime
datetime
p15
(S'\x07\xd4\n\x06\x11\n\x0c\x00\x00\x00'
p16
tp17
Rp18
sS'duration'
p19
L27L
sS'endtime'
p20
g15
(S"\x07\xd4\n\x06\x11\n'\x00\x00\x00"
p21
tp22
Rp23
sS'phonenumber_oid'
p24
L3L
s.(dp0
S'status'
p1
S''
p2
sS'direction'
p3
S'Missed Call'
p4
sS'remote'
p5
g2
sS'description'
p6
S'Voice Call'
p7
sS'callid'
p8
L12L
sS'oid'
p9
L847003L
sS'number'
p10
g2
sS'person_oid'
p11
L56L
sS'contact'
p12
L2L
sS'starttime'
p13
cdatetime
datetime
p14
(S'\x07\xd4\n\x06\x1236\x00\x00\x00'
p15
tp16
Rp17
sS'duration'
p18
L0L
sS'endtime'
p19
g14
(S'\x07\xd4\n\x06\x1236\x00\x00\x00'
p20
tp21
Rp22
sS'phonenumber_oid'
p23
L3654L
s.(dp0
S'status'
p1
S''
p2
sS'direction'
p3
S'Missed Call'
p4
sS'remote'
p5
g2
sS'description'
p6
S'Voice Call'
p7
sS'callid'
p8
L12L
sS'oid'
p9
L847020L
sS'number'
p10
g2
sS'person_oid'
p11
L56L
sS'contact'
p12
L2L
sS'starttime'
p13
cdatetime
datetime
p14
(S'\x07\xd4\n\x06\x1236\x00\x00\x00'
p15
tp16
Rp17
sS'duration'
p18
L0L
sS'endtime'
p19
g14
(S'\x07\xd4\n\x06\x1236\x00\x00\x00'
p20
tp21
Rp22
sS'phonenumber_oid'
p23
L3654L
s.(dp0
S'status'
p1
S''
p2
sS'direction'
p3
S'Missed Call'
p4
sS'remote'
p5
g2
sS'description'
p6
S'Voice Call'
p7
sS'callid'
p8
L12L
sS'oid'
p9
L847051L
sS'number'
p10
g2
sS'person_oid'
p11
L56L
sS'contact'
p12
L2L
sS'starttime'
p13
cdatetime
datetime
p14
(S'\x07\xd4\n\x06\x1236\x00\x00\x00'
p15
tp16
Rp17
sS'duration'
p18
L0L
sS'endtime'
p19
g14
(S'\x07\xd4\n\x06\x1236\x00\x00\x00'
p20
tp21
Rp22
sS'phonenumber_oid'
p23
L3654L
s.(dp0
S'status'
p1
S''
p2
sS'direction'
p3
S'Outgoing'
p4
sS'remote'
p5
g2
sS'description'
p6
S'Voice Call'
p7
sS'callid'
p8
L13L
sS'oid'
p9
L847004L
sS'number'
p10
g2
sS'person_oid'
p11
L56L
sS'contact'
p12
L2L
sS'starttime'
p13
cdatetime
datetime
p14
(S'\x07\xd4\n\x06\x153\x12\x00\x00\x00'
p15
tp16
Rp17
sS'duration'
p18
L24L
sS'endtime'
p19
g14
(S'\x07\xd4\n\x06\x153*\x00\x00\x00'
p20
tp21
Rp22
sS'phonenumber_oid'
p23
L3654L
s.(dp0
S'status'
p1
S''
p2
sS'direction'
p3
S'Outgoing'
p4
sS'remote'
p5
g2
sS'description'
p6
S'Voice Call'
p7
sS'callid'
p8
L13L
sS'oid'
p9
L847021L
sS'number'
p10
g2
sS'person_oid'
p11
L56L
sS'contact'
p12
L2L
sS'starttime'
p13
cdatetime
datetime
p14
(S'\x07\xd4\n\x06\x153\x12\x00\x00\x00'
p15
tp16
Rp17
sS'duration'
p18
L24L
sS'endtime'
p19
g14
(S'\x07\xd4\n\x06\x153*\x00\x00\x00'
p20
tp21
Rp22
sS'phonenumber_oid'
p23
L3654L
s.(dp0
S'status'
p1
S''
p2
sS'direction'
p3
S'Outgoing'
p4
sS'remote'
p5
g2
sS'description'
p6
S'Voice Call'
p7
sS'callid'
p8
L13L
sS'oid'
p9
L847052L
sS'number'
p10
g2
sS'person_oid'
p11
L56L
sS'contact'
p12
L2L
sS'starttime'
p13
cdatetime
datetime
p14
(S'\x07\xd4\n\x06\x153\x12\x00\x00\x00'
p15
tp16
Rp17
sS'duration'
p18
L24L
sS'endtime'
p19
g14
(S'\x07\xd4\n\x06\x153*\x00\x00\x00'
p20
tp21
Rp22
sS'phonenumber_oid'
p23
L3654L
s.(dp0
S'status'
p1
S''
p2
sS'direction'
p3
S'Outgoing'
p4
sS'remote'
p5
g2
sS'description'
p6
S'Voice Call'
p7
sS'callid'
p8
L20L
sS'oid'
p9
L847005L
sS'number'
p10
g2
sS'person_oid'
p11
L56L
sS'contact'
p12
L2L
sS'starttime'
p13
cdatetime
datetime
p14
(S'\x07\xd4\n\x06\x1638\x00\x00\x00'
p15
tp16
Rp17
sS'duration'
p18
L181L
sS'endtime'
p19
g14
(S'\x07\xd4\n\x06\x1669\x00\x00\x00'
p20
tp21
Rp22
sS'phonenumber_oid'
p23
L3654L
s.(dp0
S'status'
p1
S''
p2
sS'direction'
p3
S'Outgoing'
p4
sS'remote'
p5
g2
sS'description'
p6
S'Voice Call'
p7
sS'callid'
p8
L20L
sS'oid'
p9
L847022L
sS'number'
p10
g2
sS'person_oid'
p11
L56L
sS'contact'
p12
L2L
sS'starttime'
p13
cdatetime
datetime
p14
(S'\x07\xd4\n\x06\x1638\x00\x00\x00'
p15
tp16
Rp17
sS'duration'
p18
L181L
sS'endtime'
p19
g14
(S'\x07\xd4\n\x06\x1669\x00\x00\x00'
p20
tp21
Rp22
sS'phonenumber_oid'
p23
L3654L
s.(dp0
S'status'
p1
S''
p2
sS'direction'
p3
S'Outgoing'
p4
sS'remote'
p5
g2
sS'description'
p6
S'Voice Call'
p7
sS'callid'
p8
L20L
sS'oid'
p9
L847053L
sS'number'
p10
g2
sS'person_oid'
p11
L56L
sS'contact'
p12
L2L
sS'starttime'
p13
cdatetime
datetime
p14
(S'\x07\xd4\n\x06\x1638\x00\x00\x00'
p15
tp16
Rp17
sS'duration'
p18
L181L
sS'endtime'
p19
g14
(S'\x07\xd4\n\x06\x1669\x00\x00\x00'
p20
tp21
Rp22
sS'phonenumber_oid'
p23
L3654L
s.(dp0
S'status'
p1
S''
p2
sS'direction'
p3
S'Incoming'
p4
sS'remote'
p5
g2
sS'description'
p6
S'Voice Call'
p7
sS'callid'
p8
L22L
sS'oid'
p9
L847006L
sS'number'
p10
g2
sS'person_oid'
p11
L56L
sS'contact'
p12
L2L
sS'starttime'
p13
cdatetime
datetime
p14
(S'\x07\xd4\n\x06\x167\x15\x00\x00\x00'
p15
tp16
Rp17
sS'duration'
p18
L162L
sS'endtime'
p19
g14
(S'\x07\xd4\n\x06\x16:\x03\x00\x00\x00'
p20
tp21
Rp22
sS'phonenumber_oid'
p23
L3654L
s.(dp0
S'status'
p1
S''
p2
sS'direction'
p3
S'Incoming'
p4
sS'remote'
p5
g2
sS'description'
p6
S'Voice Call'
p7
sS'callid'
p8
L22L
sS'oid'
p9
L847023L
sS'number'
p10
g2
sS'person_oid'
p11
L56L
sS'contact'
p12
L2L
sS'starttime'
p13
cdatetime
datetime
p14
(S'\x07\xd4\n\x06\x167\x15\x00\x00\x00'
p15
tp16
Rp17
sS'duration'
p18
L162L
sS'endtime'
p19
g14
(S'\x07\xd4\n\x06\x16:\x03\x00\x00\x00'
p20
tp21
Rp22
sS'phonenumber_oid'
p23
L3654L
s.(dp0
S'status'
p1
S''
p2
sS'direction'
p3
S'Incoming'
p4
sS'remote'
p5
g2
sS'description'
p6
S'Voice Call'
p7
sS'callid'
p8
L22L
sS'oid'
p9
L847054L
sS'number'
p10
g2
sS'person_oid'
p11
L56L
sS'contact'
p12
L2L
sS'starttime'
p13
cdatetime
datetime
p14
(S'\x07\xd4\n\x06\x167\x15\x00\x00\x00'
p15
tp16
Rp17
sS'duration'
p18
L162L
sS'endtime'
p19
g14
(S'\x07\xd4\n\x06\x16:\x03\x00\x00\x00'
p20
tp21
Rp22
sS'phonenumber_oid'
p23
L3654L
s.(dp0
S'status'
p1
S'Connected'
p2
sS'direction'
p3
S'Outgoing'
p4
sS'remote'
p5
S''
p6
sS'description'
p7
S'Packet Data'
p8
sS'callid'
p9
L23L
sS'oid'
p10
L847007L
sS'number'
p11
g6
sS'person_oid'
p12
L56L
sS'contact'
p13
L-1L
sS'starttime'
p14
cdatetime
datetime
p15
(S'\x07\xd4\n\x06\x17\x00\x06\x00\x00\x00'
p16
tp17
Rp18
sS'duration'
p19
L407L
sS'endtime'
p20
g15
(S'\x07\xd4\n\x06\x17\x065\x00\x00\x00'
p21
tp22
Rp23
sS'phonenumber_oid'
p24
L3L
s.(dp0
S'status'
p1
S'Connected'
p2
sS'direction'
p3
S'Outgoing'
p4
sS'remote'
p5
S''
p6
sS'description'
p7
S'Packet Data'
p8
sS'callid'
p9
L23L
sS'oid'
p10
L847024L
sS'number'
p11
g6
sS'person_oid'
p12
L56L
sS'contact'
p13
L-1L
sS'starttime'
p14
cdatetime
datetime
p15
(S'\x07\xd4\n\x06\x17\x00\x06\x00\x00\x00'
p16
tp17
Rp18
sS'duration'
p19
L407L
sS'endtime'
p20
g15
(S'\x07\xd4\n\x06\x17\x065\x00\x00\x00'
p21
tp22
Rp23
sS'phonenumber_oid'
p24
L3L
s.(dp0
S'status'
p1
S'Connected'
p2
sS'direction'
p3
S'Outgoing'
p4
sS'remote'
p5
S''
p6
sS'description'
p7
S'Packet Data'
p8
sS'callid'
p9
L23L
sS'oid'
p10
L847055L
sS'number'
p11
g6
sS'person_oid'
p12
L56L
sS'contact'
p13
L-1L
sS'starttime'
p14
cdatetime
datetime
p15
(S'\x07\xd4\n\x06\x17\x00\x06\x00\x00\x00'
p16
tp17
Rp18
sS'duration'
p19
L407L
sS'endtime'
p20
g15
(S'\x07\xd4\n\x06\x17\x065\x00\x00\x00'
p21
tp22
Rp23
sS'phonenumber_oid'
p24
L3L
s.(dp0
S'status'
p1
S''
p2
sS'direction'
p3
S'Missed Call'
p4
sS'remote'
p5
g2
sS'description'
p6
S'Voice Call'
p7
sS'callid'
p8
L24L
sS'oid'
p9
L847008L
sS'number'
p10
g2
sS'person_oid'
p11
L56L
sS'contact'
p12
L2L
sS'starttime'
p13
cdatetime
datetime
p14
(S'\x07\xd4\n\x06\x17\x11\x15\x00\x00\x00'
p15
tp16
Rp17
sS'duration'
p18
L0L
sS'endtime'
p19
g14
(S'\x07\xd4\n\x06\x17\x11\x15\x00\x00\x00'
p20
tp21
Rp22
sS'phonenumber_oid'
p23
L3654L
s.(dp0
S'status'
p1
S''
p2
sS'direction'
p3
S'Missed Call'
p4
sS'remote'
p5
g2
sS'description'
p6
S'Voice Call'
p7
sS'callid'
p8
L24L
sS'oid'
p9
L847025L
sS'number'
p10
g2
sS'person_oid'
p11
L56L
sS'contact'
p12
L2L
sS'starttime'
p13
cdatetime
datetime
p14
(S'\x07\xd4\n\x06\x17\x11\x15\x00\x00\x00'
p15
tp16
Rp17
sS'duration'
p18
L0L
sS'endtime'
p19
g14
(S'\x07\xd4\n\x06\x17\x11\x15\x00\x00\x00'
p20
tp21
Rp22
sS'phonenumber_oid'
p23
L3654L
s.(dp0
S'status'
p1
S''
p2
sS'direction'
p3
S'Missed Call'
p4
sS'remote'
p5
g2
sS'description'
p6
S'Voice Call'
p7
sS'callid'
p8
L24L
sS'oid'
p9
L847056L
sS'number'
p10
g2
sS'person_oid'
p11
L56L
sS'contact'
p12
L2L
sS'starttime'
p13
cdatetime
datetime
p14
(S'\x07\xd4\n\x06\x17\x11\x15\x00\x00\x00'
p15
tp16
Rp17
sS'duration'
p18
L0L
sS'endtime'
p19
g14
(S'\x07\xd4\n\x06\x17\x11\x15\x00\x00\x00'
p20
tp21
Rp22
sS'phonenumber_oid'
p23
L3654L
s.(dp0
S'status'
p1
S''
p2
sS'direction'
p3
S'Missed Call'
p4
sS'remote'
p5
g2
sS'description'
p6
S'Voice Call'
p7
sS'callid'
p8
L25L
sS'oid'
p9
L847009L
sS'number'
p10
g2
sS'person_oid'
p11
L56L
sS'contact'
p12
L2L
sS'starttime'
p13
cdatetime
datetime
p14
(S'\x07\xd4\n\x06\x17\x12.\x00\x00\x00'
p15
tp16
Rp17
sS'duration'
p18
L0L
sS'endtime'
p19
g14
(S'\x07\xd4\n\x06\x17\x12.\x00\x00\x00'
p20
tp21
Rp22
sS'phonenumber_oid'
p23
L3654L
s.(dp0
S'status'
p1
S''
p2
sS'direction'
p3
S'Missed Call'
p4
sS'remote'
p5
g2
sS'description'
p6
S'Voice Call'
p7
sS'callid'
p8
L25L
sS'oid'
p9
L847026L
sS'number'
p10
g2
sS'person_oid'
p11
L56L
sS'contact'
p12
L2L
sS'starttime'
p13
cdatetime
datetime
p14
(S'\x07\xd4\n\x06\x17\x12.\x00\x00\x00'
p15
tp16
Rp17
sS'duration'
p18
L0L
sS'endtime'
p19
g14
(S'\x07\xd4\n\x06\x17\x12.\x00\x00\x00'
p20
tp21
Rp22
sS'phonenumber_oid'
p23
L3654L
s.(dp0
S'status'
p1
S''
p2
sS'direction'
p3
S'Missed Call'
p4
sS'remote'
p5
g2
sS'description'
p6
S'Voice Call'
p7
sS'callid'
p8
L25L
sS'oid'
p9
L847057L
sS'number'
p10
g2
sS'person_oid'
p11
L56L
sS'contact'
p12
L2L
sS'starttime'
p13
cdatetime
datetime
p14
(S'\x07\xd4\n\x06\x17\x12.\x00\x00\x00'
p15
tp16
Rp17
sS'duration'
p18
L0L
sS'endtime'
p19
g14
(S'\x07\xd4\n\x06\x17\x12.\x00\x00\x00'
p20
tp21
Rp22
sS'phonenumber_oid'
p23
L3654L
s.(dp0
S'status'
p1
S''
p2
sS'direction'
p3
S'Incoming'
p4
sS'remote'
p5
g2
sS'description'
p6
S'Voice Call'
p7
sS'callid'
p8
L27L
sS'oid'
p9
L847010L
sS'number'
p10
g2
sS'person_oid'
p11
L56L
sS'contact'
p12
L2L
sS'starttime'
p13
cdatetime
datetime
p14
(S'\x07\xd4\n\x06\x17\x1b!\x00\x00\x00'
p15
tp16
Rp17
sS'duration'
p18
L865L
sS'endtime'
p19
g14
(S'\x07\xd4\n\x06\x17):\x00\x00\x00'
p20
tp21
Rp22
sS'phonenumber_oid'
p23
L3654L
s.(dp0
S'status'
p1
S''
p2
sS'direction'
p3
S'Incoming'
p4
sS'remote'
p5
g2
sS'description'
p6
S'Voice Call'
p7
sS'callid'
p8
L27L
sS'oid'
p9
L847027L
sS'number'
p10
g2
sS'person_oid'
p11
L56L
sS'contact'
p12
L2L
sS'starttime'
p13
cdatetime
datetime
p14
(S'\x07\xd4\n\x06\x17\x1b!\x00\x00\x00'
p15
tp16
Rp17
sS'duration'
p18
L865L
sS'endtime'
p19
g14
(S'\x07\xd4\n\x06\x17):\x00\x00\x00'
p20
tp21
Rp22
sS'phonenumber_oid'
p23
L3654L
s.(dp0
S'status'
p1
S''
p2
sS'direction'
p3
S'Incoming'
p4
sS'remote'
p5
g2
sS'description'
p6
S'Voice Call'
p7
sS'callid'
p8
L27L
sS'oid'
p9
L847058L
sS'number'
p10
g2
sS'person_oid'
p11
L56L
sS'contact'
p12
L2L
sS'starttime'
p13
cdatetime
datetime
p14
(S'\x07\xd4\n\x06\x17\x1b!\x00\x00\x00'
p15
tp16
Rp17
sS'duration'
p18
L865L
sS'endtime'
p19
g14
(S'\x07\xd4\n\x06\x17):\x00\x00\x00'
p20
tp21
Rp22
sS'phonenumber_oid'
p23
L3654L
s.(dp0
S'status'
p1
S''
p2
sS'direction'
p3
S'Incoming'
p4
sS'remote'
p5
g2
sS'description'
p6
S'Voice Call'
p7
sS'callid'
p8
L29L
sS'oid'
p9
L847011L
sS'number'
p10
g2
sS'person_oid'
p11
L56L
sS'contact'
p12
L2L
sS'starttime'
p13
cdatetime
datetime
p14
(S'\x07\xd4\n\x06\x174-\x00\x00\x00'
p15
tp16
Rp17
sS'duration'
p18
L88L
sS'endtime'
p19
g14
(S'\x07\xd4\n\x06\x176\r\x00\x00\x00'
p20
tp21
Rp22
sS'phonenumber_oid'
p23
L3654L
s.(dp0
S'status'
p1
S''
p2
sS'direction'
p3
S'Incoming'
p4
sS'remote'
p5
g2
sS'description'
p6
S'Voice Call'
p7
sS'callid'
p8
L29L
sS'oid'
p9
L847028L
sS'number'
p10
g2
sS'person_oid'
p11
L56L
sS'contact'
p12
L2L
sS'starttime'
p13
cdatetime
datetime
p14
(S'\x07\xd4\n\x06\x174-\x00\x00\x00'
p15
tp16
Rp17
sS'duration'
p18
L88L
sS'endtime'
p19
g14
(S'\x07\xd4\n\x06\x176\r\x00\x00\x00'
p20
tp21
Rp22
sS'phonenumber_oid'
p23
L3654L
s.(dp0
S'status'
p1
S''
p2
sS'direction'
p3
S'Incoming'
p4
sS'remote'
p5
g2
sS'description'
p6
S'Voice Call'
p7
sS'callid'
p8
L29L
sS'oid'
p9
L847059L
sS'number'
p10
g2
sS'person_oid'
p11
L56L
sS'contact'
p12
L2L
sS'starttime'
p13
cdatetime
datetime
p14
(S'\x07\xd4\n\x06\x174-\x00\x00\x00'
p15
tp16
Rp17
sS'duration'
p18
L88L
sS'endtime'
p19
g14
(S'\x07\xd4\n\x06\x176\r\x00\x00\x00'
p20
tp21
Rp22
sS'phonenumber_oid'
p23
L3654L
s.(dp0
S'status'
p1
S''
p2
sS'direction'
p3
S'Outgoing'
p4
sS'remote'
p5
g2
sS'description'
p6
S'Voice Call'
p7
sS'callid'
p8
L30L
sS'oid'
p9
L847012L
sS'number'
p10
g2
sS'person_oid'
p11
L56L
sS'contact'
p12
L2L
sS'starttime'
p13
cdatetime
datetime
p14
(S'\x07\xd4\n\x07\x00\x0f!\x00\x00\x00'
p15
tp16
Rp17
sS'duration'
p18
L26L
sS'endtime'
p19
g14
(S'\x07\xd4\n\x07\x00\x0f;\x00\x00\x00'
p20
tp21
Rp22
sS'phonenumber_oid'
p23
L3654L
s.(dp0
S'status'
p1
S''
p2
sS'direction'
p3
S'Outgoing'
p4
sS'remote'
p5
g2
sS'description'
p6
S'Voice Call'
p7
sS'callid'
p8
L30L
sS'oid'
p9
L847029L
sS'number'
p10
g2
sS'person_oid'
p11
L56L
sS'contact'
p12
L2L
sS'starttime'
p13
cdatetime
datetime
p14
(S'\x07\xd4\n\x07\x00\x0f!\x00\x00\x00'
p15
tp16
Rp17
sS'duration'
p18
L26L
sS'endtime'
p19
g14
(S'\x07\xd4\n\x07\x00\x0f;\x00\x00\x00'
p20
tp21
Rp22
sS'phonenumber_oid'
p23
L3654L
s.(dp0
S'status'
p1
S''
p2
sS'direction'
p3
S'Outgoing'
p4
sS'remote'
p5
g2
sS'description'
p6
S'Voice Call'
p7
sS'callid'
p8
L30L
sS'oid'
p9
L847060L
sS'number'
p10
g2
sS'person_oid'
p11
L56L
sS'contact'
p12
L2L
sS'starttime'
p13
cdatetime
datetime
p14
(S'\x07\xd4\n\x07\x00\x0f!\x00\x00\x00'
p15
tp16
Rp17
sS'duration'
p18
L26L
sS'endtime'
p19
g14
(S'\x07\xd4\n\x07\x00\x0f;\x00\x00\x00'
p20
tp21
Rp22
sS'phonenumber_oid'
p23
L3654L
s.(dp0
S'status'
p1
S''
p2
sS'direction'
p3
S'Incoming'
p4
sS'remote'
p5
g2
sS'description'
p6
S'Voice Call'
p7
sS'callid'
p8
L32L
sS'oid'
p9
L847030L
sS'number'
p10
g2
sS'person_oid'
p11
L56L
sS'contact'
p12
L2L
sS'starttime'
p13
cdatetime
datetime
p14
(S'\x07\xd4\n\x07\x07\x083\x00\x00\x00'
p15
tp16
Rp17
sS'duration'
p18
L52L
sS'endtime'
p19
g14
(S'\x07\xd4\n\x07\x07\t+\x00\x00\x00'
p20
tp21
Rp22
sS'phonenumber_oid'
p23
L3654L
s.(dp0
S'status'
p1
S''
p2
sS'direction'
p3
S'Incoming'
p4
sS'remote'
p5
g2
sS'description'
p6
S'Voice Call'
p7
sS'callid'
p8
L32L
sS'oid'
p9
L847061L
sS'number'
p10
g2
sS'person_oid'
p11
L56L
sS'contact'
p12
L2L
sS'starttime'
p13
cdatetime
datetime
p14
(S'\x07\xd4\n\x07\x07\x083\x00\x00\x00'
p15
tp16
Rp17
sS'duration'
p18
L52L
sS'endtime'
p19
g14
(S'\x07\xd4\n\x07\x07\t+\x00\x00\x00'
p20
tp21
Rp22
sS'phonenumber_oid'
p23
L3654L
s.(dp0
S'status'
p1
S''
p2
sS'direction'
p3
S'Missed Call'
p4
sS'remote'
p5
g2
sS'description'
p6
S'Voice Call'
p7
sS'callid'
p8
L35L
sS'oid'
p9
L847031L
sS'number'
p10
g2
sS'person_oid'
p11
L56L
sS'contact'
p12
L2L
sS'starttime'
p13
cdatetime
datetime
p14
(S'\x07\xd4\n\x07\x0e\x01(\x00\x00\x00'
p15
tp16
Rp17
sS'duration'
p18
L0L
sS'endtime'
p19
g14
(S'\x07\xd4\n\x07\x0e\x01(\x00\x00\x00'
p20
tp21
Rp22
sS'phonenumber_oid'
p23
L3654L
s.(dp0
S'status'
p1
S''
p2
sS'direction'
p3
S'Missed Call'
p4
sS'remote'
p5
g2
sS'description'
p6
S'Voice Call'
p7
sS'callid'
p8
L35L
sS'oid'
p9
L847062L
sS'number'
p10
g2
sS'person_oid'
p11
L56L
sS'contact'
p12
L2L
sS'starttime'
p13
cdatetime
datetime
p14
(S'\x07\xd4\n\x07\x0e\x01(\x00\x00\x00'
p15
tp16
Rp17
sS'duration'
p18
L0L
sS'endtime'
p19
g14
(S'\x07\xd4\n\x07\x0e\x01(\x00\x00\x00'
p20
tp21
Rp22
sS'phonenumber_oid'
p23
L3654L
s.(dp0
S'status'
p1
S''
p2
sS'direction'
p3
S'Missed Call'
p4
sS'remote'
p5
g2
sS'description'
p6
S'Voice Call'
p7
sS'callid'
p8
L36L
sS'oid'
p9
L847032L
sS'number'
p10
g2
sS'person_oid'
p11
L56L
sS'contact'
p12
L2L
sS'starttime'
p13
cdatetime
datetime
p14
(S'\x07\xd4\n\x07\x0f2\x12\x00\x00\x00'
p15
tp16
Rp17
sS'duration'
p18
L0L
sS'endtime'
p19
g14
(S'\x07\xd4\n\x07\x0f2\x12\x00\x00\x00'
p20
tp21
Rp22
sS'phonenumber_oid'
p23
L3654L
s.(dp0
S'status'
p1
S''
p2
sS'direction'
p3
S'Missed Call'
p4
sS'remote'
p5
g2
sS'description'
p6
S'Voice Call'
p7
sS'callid'
p8
L36L
sS'oid'
p9
L847063L
sS'number'
p10
g2
sS'person_oid'
p11
L56L
sS'contact'
p12
L2L
sS'starttime'
p13
cdatetime
datetime
p14
(S'\x07\xd4\n\x07\x0f2\x12\x00\x00\x00'
p15
tp16
Rp17
sS'duration'
p18
L0L
sS'endtime'
p19
g14
(S'\x07\xd4\n\x07\x0f2\x12\x00\x00\x00'
p20
tp21
Rp22
sS'phonenumber_oid'
p23
L3654L
s.(dp0
S'status'
p1
S''
p2
sS'direction'
p3
S'Missed Call'
p4
sS'remote'
p5
g2
sS'description'
p6
S'Voice Call'
p7
sS'callid'
p8
L37L
sS'oid'
p9
L847033L
sS'number'
p10
g2
sS'person_oid'
p11
L56L
sS'contact'
p12
L2L
sS'starttime'
p13
cdatetime
datetime
p14
(S'\x07\xd4\n\x07\x0f2\x1e\x00\x00\x00'
p15
tp16
Rp17
sS'duration'
p18
L0L
sS'endtime'
p19
g14
(S'\x07\xd4\n\x07\x0f2\x1e\x00\x00\x00'
p20
tp21
Rp22
sS'phonenumber_oid'
p23
L3654L
s.(dp0
S'status'
p1
S''
p2
sS'direction'
p3
S'Missed Call'
p4
sS'remote'
p5
g2
sS'description'
p6
S'Voice Call'
p7
sS'callid'
p8
L37L
sS'oid'
p9
L847064L
sS'number'
p10
g2
sS'person_oid'
p11
L56L
sS'contact'
p12
L2L
sS'starttime'
p13
cdatetime
datetime
p14
(S'\x07\xd4\n\x07\x0f2\x1e\x00\x00\x00'
p15
tp16
Rp17
sS'duration'
p18
L0L
sS'endtime'
p19
g14
(S'\x07\xd4\n\x07\x0f2\x1e\x00\x00\x00'
p20
tp21
Rp22
sS'phonenumber_oid'
p23
L3654L
s.(dp0
S'status'
p1
S''
p2
sS'direction'
p3
S'Missed Call'
p4
sS'remote'
p5
g2
sS'description'
p6
S'Voice Call'
p7
sS'callid'
p8
L38L
sS'oid'
p9
L847034L
sS'number'
p10
g2
sS'person_oid'
p11
L56L
sS'contact'
p12
L2L
sS'starttime'
p13
cdatetime
datetime
p14
(S'\x07\xd4\n\x07\x10\x05\x1b\x00\x00\x00'
p15
tp16
Rp17
sS'duration'
p18
L0L
sS'endtime'
p19
g14
(S'\x07\xd4\n\x07\x10\x05\x1b\x00\x00\x00'
p20
tp21
Rp22
sS'phonenumber_oid'
p23
L3654L
s.(dp0
S'status'
p1
S''
p2
sS'direction'
p3
S'Missed Call'
p4
sS'remote'
p5
g2
sS'description'
p6
S'Voice Call'
p7
sS'callid'
p8
L38L
sS'oid'
p9
L847065L
sS'number'
p10
g2
sS'person_oid'
p11
L56L
sS'contact'
p12
L2L
sS'starttime'
p13
cdatetime
datetime
p14
(S'\x07\xd4\n\x07\x10\x05\x1b\x00\x00\x00'
p15
tp16
Rp17
sS'duration'
p18
L0L
sS'endtime'
p19
g14
(S'\x07\xd4\n\x07\x10\x05\x1b\x00\x00\x00'
p20
tp21
Rp22
sS'phonenumber_oid'
p23
L3654L
s.(dp0
S'status'
p1
S''
p2
sS'direction'
p3
S'Outgoing'
p4
sS'remote'
p5
g2
sS'description'
p6
S'Voice Call'
p7
sS'callid'
p8
L39L
sS'oid'
p9
L847035L
sS'number'
p10
g2
sS'person_oid'
p11
L56L
sS'contact'
p12
L2L
sS'starttime'
p13
cdatetime
datetime
p14
(S'\x07\xd4\n\x07\x11\x19$\x00\x00\x00'
p15
tp16
Rp17
sS'duration'
p18
L47L
sS'endtime'
p19
g14
(S'\x07\xd4\n\x07\x11\x1a\x17\x00\x00\x00'
p20
tp21
Rp22
sS'phonenumber_oid'
p23
L3654L
s.(dp0
S'status'
p1
S''
p2
sS'direction'
p3
S'Outgoing'
p4
sS'remote'
p5
g2
sS'description'
p6
S'Voice Call'
p7
sS'callid'
p8
L39L
sS'oid'
p9
L847066L
sS'number'
p10
g2
sS'person_oid'
p11
L56L
sS'contact'
p12
L2L
sS'starttime'
p13
cdatetime
datetime
p14
(S'\x07\xd4\n\x07\x11\x19$\x00\x00\x00'
p15
tp16
Rp17
sS'duration'
p18
L47L
sS'endtime'
p19
g14
(S'\x07\xd4\n\x07\x11\x1a\x17\x00\x00\x00'
p20
tp21
Rp22
sS'phonenumber_oid'
p23
L3654L
s.(dp0
S'status'
p1
S''
p2
sS'direction'
p3
S'Outgoing'
p4
sS'remote'
p5
g2
sS'description'
p6
S'Voice Call'
p7
sS'callid'
p8
L42L
sS'oid'
p9
L847036L
sS'number'
p10
g2
sS'person_oid'
p11
L56L
sS'contact'
p12
L2L
sS'starttime'
p13
cdatetime
datetime
p14
(S'\x07\xd4\n\x07\x12\x08)\x00\x00\x00'
p15
tp16
Rp17
sS'duration'
p18
L33L
sS'endtime'
p19
g14
(S'\x07\xd4\n\x07\x12\t\x0e\x00\x00\x00'
p20
tp21
Rp22
sS'phonenumber_oid'
p23
L3654L
s.(dp0
S'status'
p1
S''
p2
sS'direction'
p3
S'Outgoing'
p4
sS'remote'
p5
g2
sS'description'
p6
S'Voice Call'
p7
sS'callid'
p8
L42L
sS'oid'
p9
L847067L
sS'number'
p10
g2
sS'person_oid'
p11
L56L
sS'contact'
p12
L2L
sS'starttime'
p13
cdatetime
datetime
p14
(S'\x07\xd4\n\x07\x12\x08)\x00\x00\x00'
p15
tp16
Rp17
sS'duration'
p18
L33L
sS'endtime'
p19
g14
(S'\x07\xd4\n\x07\x12\t\x0e\x00\x00\x00'
p20
tp21
Rp22
sS'phonenumber_oid'
p23
L3654L
s.(dp0
S'status'
p1
S''
p2
sS'direction'
p3
S'Outgoing'
p4
sS'remote'
p5
g2
sS'description'
p6
S'Voice Call'
p7
sS'callid'
p8
L43L
sS'oid'
p9
L847037L
sS'number'
p10
g2
sS'person_oid'
p11
L56L
sS'contact'
p12
L2L
sS'starttime'
p13
cdatetime
datetime
p14
(S'\x07\xd4\n\x07\x13\x003\x00\x00\x00'
p15
tp16
Rp17
sS'duration'
p18
L38L
sS'endtime'
p19
g14
(S'\x07\xd4\n\x07\x13\x01\x1d\x00\x00\x00'
p20
tp21
Rp22
sS'phonenumber_oid'
p23
L3654L
s.(dp0
S'status'
p1
S''
p2
sS'direction'
p3
S'Outgoing'
p4
sS'remote'
p5
g2
sS'description'
p6
S'Voice Call'
p7
sS'callid'
p8
L43L
sS'oid'
p9
L847068L
sS'number'
p10
g2
sS'person_oid'
p11
L56L
sS'contact'
p12
L2L
sS'starttime'
p13
cdatetime
datetime
p14
(S'\x07\xd4\n\x07\x13\x003\x00\x00\x00'
p15
tp16
Rp17
sS'duration'
p18
L38L
sS'endtime'
p19
g14
(S'\x07\xd4\n\x07\x13\x01\x1d\x00\x00\x00'
p20
tp21
Rp22
sS'phonenumber_oid'
p23
L3654L
s.(dp0
S'status'
p1
S''
p2
sS'direction'
p3
S'Missed Call'
p4
sS'remote'
p5
g2
sS'description'
p6
S'Voice Call'
p7
sS'callid'
p8
L44L
sS'oid'
p9
L847038L
sS'number'
p10
g2
sS'person_oid'
p11
L56L
sS'contact'
p12
L2L
sS'starttime'
p13
cdatetime
datetime
p14
(S'\x07\xd4\n\x07\x15( \x00\x00\x00'
p15
tp16
Rp17
sS'duration'
p18
L0L
sS'endtime'
p19
g14
(S'\x07\xd4\n\x07\x15( \x00\x00\x00'
p20
tp21
Rp22
sS'phonenumber_oid'
p23
L3654L
s.(dp0
S'status'
p1
S''
p2
sS'direction'
p3
S'Missed Call'
p4
sS'remote'
p5
g2
sS'description'
p6
S'Voice Call'
p7
sS'callid'
p8
L44L
sS'oid'
p9
L847069L
sS'number'
p10
g2
sS'person_oid'
p11
L56L
sS'contact'
p12
L2L
sS'starttime'
p13
cdatetime
datetime
p14
(S'\x07\xd4\n\x07\x15( \x00\x00\x00'
p15
tp16
Rp17
sS'duration'
p18
L0L
sS'endtime'
p19
g14
(S'\x07\xd4\n\x07\x15( \x00\x00\x00'
p20
tp21
Rp22
sS'phonenumber_oid'
p23
L3654L
s.(dp0
S'status'
p1
S''
p2
sS'direction'
p3
S'Outgoing'
p4
sS'remote'
p5
g2
sS'description'
p6
S'Voice Call'
p7
sS'callid'
p8
L45L
sS'oid'
p9
L847039L
sS'number'
p10
g2
sS'person_oid'
p11
L56L
sS'contact'
p12
L2L
sS'starttime'
p13
cdatetime
datetime
p14
(S'\x07\xd4\n\x07\x16\x139\x00\x00\x00'
p15
tp16
Rp17
sS'duration'
p18
L189L
sS'endtime'
p19
g14
(S'\x07\xd4\n\x07\x16\x17\x06\x00\x00\x00'
p20
tp21
Rp22
sS'phonenumber_oid'
p23
L3654L
s.(dp0
S'status'
p1
S''
p2
sS'direction'
p3
S'Outgoing'
p4
sS'remote'
p5
g2
sS'description'
p6
S'Voice Call'
p7
sS'callid'
p8
L45L
sS'oid'
p9
L847070L
sS'number'
p10
g2
sS'person_oid'
p11
L56L
sS'contact'
p12
L2L
sS'starttime'
p13
cdatetime
datetime
p14
(S'\x07\xd4\n\x07\x16\x139\x00\x00\x00'
p15
tp16
Rp17
sS'duration'
p18
L189L
sS'endtime'
p19
g14
(S'\x07\xd4\n\x07\x16\x17\x06\x00\x00\x00'
p20
tp21
Rp22
sS'phonenumber_oid'
p23
L3654L
s.(dp0
S'status'
p1
S''
p2
sS'direction'
p3
S'Missed Call'
p4
sS'remote'
p5
g2
sS'description'
p6
S'Voice Call'
p7
sS'callid'
p8
L46L
sS'oid'
p9
L847040L
sS'number'
p10
g2
sS'person_oid'
p11
L56L
sS'contact'
p12
L2L
sS'starttime'
p13
cdatetime
datetime
p14
(S'\x07\xd4\n\x07\x16\x18 \x00\x00\x00'
p15
tp16
Rp17
sS'duration'
p18
L0L
sS'endtime'
p19
g14
(S'\x07\xd4\n\x07\x16\x18 \x00\x00\x00'
p20
tp21
Rp22
sS'phonenumber_oid'
p23
L3654L
s.(dp0
S'status'
p1
S''
p2
sS'direction'
p3
S'Missed Call'
p4
sS'remote'
p5
g2
sS'description'
p6
S'Voice Call'
p7
sS'callid'
p8
L46L
sS'oid'
p9
L847071L
sS'number'
p10
g2
sS'person_oid'
p11
L56L
sS'contact'
p12
L2L
sS'starttime'
p13
cdatetime
datetime
p14
(S'\x07\xd4\n\x07\x16\x18 \x00\x00\x00'
p15
tp16
Rp17
sS'duration'
p18
L0L
sS'endtime'
p19
g14
(S'\x07\xd4\n\x07\x16\x18 \x00\x00\x00'
p20
tp21
Rp22
sS'phonenumber_oid'
p23
L3654L
s.(dp0
S'status'
p1
S''
p2
sS'direction'
p3
S'Missed Call'
p4
sS'remote'
p5
g2
sS'description'
p6
S'Voice Call'
p7
sS'callid'
p8
L47L
sS'oid'
p9
L847041L
sS'number'
p10
g2
sS'person_oid'
p11
L56L
sS'contact'
p12
L2L
sS'starttime'
p13
cdatetime
datetime
p14
(S'\x07\xd4\n\x07\x16\x192\x00\x00\x00'
p15
tp16
Rp17
sS'duration'
p18
L0L
sS'endtime'
p19
g14
(S'\x07\xd4\n\x07\x16\x192\x00\x00\x00'
p20
tp21
Rp22
sS'phonenumber_oid'
p23
L3654L
s.(dp0
S'status'
p1
S''
p2
sS'direction'
p3
S'Missed Call'
p4
sS'remote'
p5
g2
sS'description'
p6
S'Voice Call'
p7
sS'callid'
p8
L47L
sS'oid'
p9
L847072L
sS'number'
p10
g2
sS'person_oid'
p11
L56L
sS'contact'
p12
L2L
sS'starttime'
p13
cdatetime
datetime
p14
(S'\x07\xd4\n\x07\x16\x192\x00\x00\x00'
p15
tp16
Rp17
sS'duration'
p18
L0L
sS'endtime'
p19
g14
(S'\x07\xd4\n\x07\x16\x192\x00\x00\x00'
p20
tp21
Rp22
sS'phonenumber_oid'
p23
L3654L
s.(dp0
S'status'
p1
S''
p2
sS'direction'
p3
S'Incoming'
p4
sS'remote'
p5
g2
sS'description'
p6
S'Voice Call'
p7
sS'callid'
p8
L49L
sS'oid'
p9
L847042L
sS'number'
p10
g2
sS'person_oid'
p11
L56L
sS'contact'
p12
L2L
sS'starttime'
p13
cdatetime
datetime
p14
(S'\x07\xd4\n\x07\x16\x1b\x0e\x00\x00\x00'
p15
tp16
Rp17
sS'duration'
p18
L2657L
sS'endtime'
p19
g14
(S'\x07\xd4\n\x07\x17\x0b\x1f\x00\x00\x00'
p20
tp21
Rp22
sS'phonenumber_oid'
p23
L3654L
s.(dp0
S'status'
p1
S''
p2
sS'direction'
p3
S'Incoming'
p4
sS'remote'
p5
g2
sS'description'
p6
S'Voice Call'
p7
sS'callid'
p8
L49L
sS'oid'
p9
L847073L
sS'number'
p10
g2
sS'person_oid'
p11
L56L
sS'contact'
p12
L2L
sS'starttime'
p13
cdatetime
datetime
p14
(S'\x07\xd4\n\x07\x16\x1b\x0e\x00\x00\x00'
p15
tp16
Rp17
sS'duration'
p18
L2657L
sS'endtime'
p19
g14
(S'\x07\xd4\n\x07\x17\x0b\x1f\x00\x00\x00'
p20
tp21
Rp22
sS'phonenumber_oid'
p23
L3654L
s.(dp0
S'status'
p1
S''
p2
sS'direction'
p3
S'Outgoing'
p4
sS'remote'
p5
g2
sS'description'
p6
S'Voice Call'
p7
sS'callid'
p8
L52L
sS'oid'
p9
L847043L
sS'number'
p10
g2
sS'person_oid'
p11
L56L
sS'contact'
p12
L2L
sS'starttime'
p13
cdatetime
datetime
p14
(S'\x07\xd4\n\x08\x00\t\x03\x00\x00\x00'
p15
tp16
Rp17
sS'duration'
p18
L21L
sS'endtime'
p19
g14
(S'\x07\xd4\n\x08\x00\t\x18\x00\x00\x00'
p20
tp21
Rp22
sS'phonenumber_oid'
p23
L3654L
s.(dp0
S'status'
p1
S''
p2
sS'direction'
p3
S'Outgoing'
p4
sS'remote'
p5
g2
sS'description'
p6
S'Voice Call'
p7
sS'callid'
p8
L52L
sS'oid'
p9
L847074L
sS'number'
p10
g2
sS'person_oid'
p11
L56L
sS'contact'
p12
L2L
sS'starttime'
p13
cdatetime
datetime
p14
(S'\x07\xd4\n\x08\x00\t\x03\x00\x00\x00'
p15
tp16
Rp17
sS'duration'
p18
L21L
sS'endtime'
p19
g14
(S'\x07\xd4\n\x08\x00\t\x18\x00\x00\x00'
p20
tp21
Rp22
sS'phonenumber_oid'
p23
L3654L
s.(dp0
S'status'
p1
S''
p2
sS'direction'
p3
S'Outgoing'
p4
sS'remote'
p5
g2
sS'description'
p6
S'Voice Call'
p7
sS'callid'
p8
L56L
sS'oid'
p9
L847075L
sS'number'
p10
g2
sS'person_oid'
p11
L56L
sS'contact'
p12
L2L
sS'starttime'
p13
cdatetime
datetime
p14
(S'\x07\xd4\n\x08\x0b\r\n\x00\x00\x00'
p15
tp16
Rp17
sS'duration'
p18
L444L
sS'endtime'
p19
g14
(S'\x07\xd4\n\x08\x0b\x14"\x00\x00\x00'
p20
tp21
Rp22
sS'phonenumber_oid'
p23
L3654L
s.(dp0
S'status'
p1
S''
p2
sS'direction'
p3
S'Missed Call'
p4
sS'remote'
p5
g2
sS'description'
p6
S'Voice Call'
p7
sS'callid'
p8
L60L
sS'oid'
p9
L847076L
sS'number'
p10
g2
sS'person_oid'
p11
L56L
sS'contact'
p12
L2L
sS'starttime'
p13
cdatetime
datetime
p14
(S'\x07\xd4\n\x08\r\x0b\x0e\x00\x00\x00'
p15
tp16
Rp17
sS'duration'
p18
L0L
sS'endtime'
p19
g14
(S'\x07\xd4\n\x08\r\x0b\x0e\x00\x00\x00'
p20
tp21
Rp22
sS'phonenumber_oid'
p23
L3654L
s.(dp0
S'status'
p1
S''
p2
sS'direction'
p3
S'Outgoing'
p4
sS'remote'
p5
g2
sS'description'
p6
S'Voice Call'
p7
sS'callid'
p8
L62L
sS'oid'
p9
L847077L
sS'number'
p10
g2
sS'person_oid'
p11
L56L
sS'contact'
p12
L2L
sS'starttime'
p13
cdatetime
datetime
p14
(S'\x07\xd4\n\x08\x0f7\x06\x00\x00\x00'
p15
tp16
Rp17
sS'duration'
p18
L0L
sS'endtime'
p19
g14
(S'\x07\xd4\n\x08\x0f7\x06\x00\x00\x00'
p20
tp21
Rp22
sS'phonenumber_oid'
p23
L3654L
s.(dp0
S'status'
p1
S''
p2
sS'direction'
p3
S'Missed Call'
p4
sS'remote'
p5
g2
sS'description'
p6
S'Voice Call'
p7
sS'callid'
p8
L63L
sS'oid'
p9
L847078L
sS'number'
p10
g2
sS'person_oid'
p11
L56L
sS'contact'
p12
L2L
sS'starttime'
p13
cdatetime
datetime
p14
(S'\x07\xd4\n\x08\x10"0\x00\x00\x00'
p15
tp16
Rp17
sS'duration'
p18
L0L
sS'endtime'
p19
g14
(S'\x07\xd4\n\x08\x10"0\x00\x00\x00'
p20
tp21
Rp22
sS'phonenumber_oid'
p23
L3654L
s.(dp0
S'status'
p1
S''
p2
sS'direction'
p3
S'Missed Call'
p4
sS'remote'
p5
g2
sS'description'
p6
S'Voice Call'
p7
sS'callid'
p8
L64L
sS'oid'
p9
L847079L
sS'number'
p10
g2
sS'person_oid'
p11
L56L
sS'contact'
p12
L2L
sS'starttime'
p13
cdatetime
datetime
p14
(S'\x07\xd4\n\x08\x10#%\x00\x00\x00'
p15
tp16
Rp17
sS'duration'
p18
L0L
sS'endtime'
p19
g14
(S'\x07\xd4\n\x08\x10#%\x00\x00\x00'
p20
tp21
Rp22
sS'phonenumber_oid'
p23
L3654L
s.(dp0
S'status'
p1
S''
p2
sS'direction'
p3
S'Outgoing'
p4
sS'remote'
p5
g2
sS'description'
p6
S'Voice Call'
p7
sS'callid'
p8
L72L
sS'oid'
p9
L847080L
sS'number'
p10
g2
sS'person_oid'
p11
L56L
sS'contact'
p12
L2L
sS'starttime'
p13
cdatetime
datetime
p14
(S'\x07\xd4\n\x08\x113\x08\x00\x00\x00'
p15
tp16
Rp17
sS'duration'
p18
L205L
sS'endtime'
p19
g14
(S'\x07\xd4\n\x08\x116!\x00\x00\x00'
p20
tp21
Rp22
sS'phonenumber_oid'
p23
L3654L
s.(dp0
S'status'
p1
S''
p2
sS'direction'
p3
S'Outgoing'
p4
sS'remote'
p5
g2
sS'description'
p6
S'Voice Call'
p7
sS'callid'
p8
L73L
sS'oid'
p9
L847081L
sS'number'
p10
g2
sS'person_oid'
p11
L56L
sS'contact'
p12
L2L
sS'starttime'
p13
cdatetime
datetime
p14
(S'\x07\xd4\n\x08\x13\x1e%\x00\x00\x00'
p15
tp16
Rp17
sS'duration'
p18
L833L
sS'endtime'
p19
g14
(S'\x07\xd4\n\x08\x13,\x1e\x00\x00\x00'
p20
tp21
Rp22
sS'phonenumber_oid'
p23
L3654L
s.(dp0
S'status'
p1
S''
p2
sS'direction'
p3
S'Incoming'
p4
sS'remote'
p5
g2
sS'description'
p6
S'Voice Call'
p7
sS'callid'
p8
L75L
sS'oid'
p9
L847082L
sS'number'
p10
g2
sS'person_oid'
p11
L56L
sS'contact'
p12
L2L
sS'starttime'
p13
cdatetime
datetime
p14
(S'\x07\xd4\n\x08\x14\x050\x00\x00\x00'
p15
tp16
Rp17
sS'duration'
p18
L642L
sS'endtime'
p19
g14
(S'\x07\xd4\n\x08\x14\x10\x1e\x00\x00\x00'
p20
tp21
Rp22
sS'phonenumber_oid'
p23
L3654L
s.(dp0
S'status'
p1
S''
p2
sS'direction'
p3
S'Outgoing'
p4
sS'remote'
p5
g2
sS'description'
p6
S'Voice Call'
p7
sS'callid'
p8
L76L
sS'oid'
p9
L847083L
sS'number'
p10
g2
sS'person_oid'
p11
L56L
sS'contact'
p12
L2L
sS'starttime'
p13
cdatetime
datetime
p14
(S'\x07\xd4\n\x08\x14\x1a\x12\x00\x00\x00'
p15
tp16
Rp17
sS'duration'
p18
L45L
sS'endtime'
p19
g14
(S'\x07\xd4\n\x08\x14\x1b\x03\x00\x00\x00'
p20
tp21
Rp22
sS'phonenumber_oid'
p23
L3654L
s.(dp0
S'status'
p1
S'Connected'
p2
sS'direction'
p3
S'Outgoing'
p4
sS'remote'
p5
S''
p6
sS'description'
p7
S'Packet Data'
p8
sS'callid'
p9
L77L
sS'oid'
p10
L847084L
sS'number'
p11
g6
sS'person_oid'
p12
L56L
sS'contact'
p13
L-1L
sS'starttime'
p14
cdatetime
datetime
p15
(S'\x07\xd4\n\x08\x16\t-\x00\x00\x00'
p16
tp17
Rp18
sS'duration'
p19
L20L
sS'endtime'
p20
g15
(S'\x07\xd4\n\x08\x16\n\x05\x00\x00\x00'
p21
tp22
Rp23
sS'phonenumber_oid'
p24
L3L
s.(dp0
S'status'
p1
S''
p2
sS'direction'
p3
S'Missed Call'
p4
sS'remote'
p5
g2
sS'description'
p6
S'Voice Call'
p7
sS'callid'
p8
L78L
sS'oid'
p9
L847085L
sS'number'
p10
g2
sS'person_oid'
p11
L56L
sS'contact'
p12
L2L
sS'starttime'
p13
cdatetime
datetime
p14
(S'\x07\xd4\n\t\x00(5\x00\x00\x00'
p15
tp16
Rp17
sS'duration'
p18
L0L
sS'endtime'
p19
g14
(S'\x07\xd4\n\t\x00(5\x00\x00\x00'
p20
tp21
Rp22
sS'phonenumber_oid'
p23
L3654L
s.(dp0
S'status'
p1
S''
p2
sS'direction'
p3
S'Outgoing'
p4
sS'remote'
p5
g2
sS'description'
p6
S'Voice Call'
p7
sS'callid'
p8
L79L
sS'oid'
p9
L847086L
sS'number'
p10
g2
sS'person_oid'
p11
L56L
sS'contact'
p12
L2L
sS'starttime'
p13
cdatetime
datetime
p14
(S'\x07\xd4\n\t\x00++\x00\x00\x00'
p15
tp16
Rp17
sS'duration'
p18
L23L
sS'endtime'
p19
g14
(S'\x07\xd4\n\t\x00,\x06\x00\x00\x00'
p20
tp21
Rp22
sS'phonenumber_oid'
p23
L3654L
s.(dp0
S'status'
p1
S'Delivered'
p2
sS'direction'
p3
S'Incoming'
p4
sS'remote'
p5
S''
p6
sS'description'
p7
S'Short Message'
p8
sS'callid'
p9
L80L
sS'oid'
p10
L847087L
sS'number'
p11
g6
sS'person_oid'
p12
L56L
sS'contact'
p13
L-1L
sS'starttime'
p14
cdatetime
datetime
p15
(S'\x07\xd4\n\t\x00/*\x00\x00\x00'
p16
tp17
Rp18
sS'duration'
p19
L0L
sS'endtime'
p20
g15
(S'\x07\xd4\n\t\x00/*\x00\x00\x00'
p21
tp22
Rp23
sS'phonenumber_oid'
p24
L3654L
s.(dp0
S'status'
p1
S''
p2
sS'direction'
p3
S'Outgoing'
p4
sS'remote'
p5
g2
sS'description'
p6
S'Voice Call'
p7
sS'callid'
p8
L99L
sS'oid'
p9
L847088L
sS'number'
p10
g2
sS'person_oid'
p11
L56L
sS'contact'
p12
L2L
sS'starttime'
p13
cdatetime
datetime
p14
(S'\x07\xd4\n\x1e\x17\x1a\x00\x00\x00\x00'
p15
tp16
Rp17
sS'duration'
p18
L61L
sS'endtime'
p19
g14
(S'\x07\xd4\n\x1e\x17\x1b\x01\x00\x00\x00'
p20
tp21
Rp22
sS'phonenumber_oid'
p23
L3654L
s.(dp0
S'status'
p1
S''
p2
sS'direction'
p3
S'Outgoing'
p4
sS'remote'
p5
g2
sS'description'
p6
S'Voice Call'
p7
sS'callid'
p8
L99L
sS'oid'
p9
L847090L
sS'number'
p10
g2
sS'person_oid'
p11
L56L
sS'contact'
p12
L2L
sS'starttime'
p13
cdatetime
datetime
p14
(S'\x07\xd4\n\x1e\x17\x1a\x00\x00\x00\x00'
p15
tp16
Rp17
sS'duration'
p18
L61L
sS'endtime'
p19
g14
(S'\x07\xd4\n\x1e\x17\x1b\x01\x00\x00\x00'
p20
tp21
Rp22
sS'phonenumber_oid'
p23
L3654L
s.(dp0
S'status'
p1
S''
p2
sS'direction'
p3
S'Outgoing'
p4
sS'remote'
p5
g2
sS'description'
p6
S'Voice Call'
p7
sS'callid'
p8
L99L
sS'oid'
p9
L847138L
sS'number'
p10
g2
sS'person_oid'
p11
L56L
sS'contact'
p12
L2L
sS'starttime'
p13
cdatetime
datetime
p14
(S'\x07\xd4\n\x1e\x17\x1a\x00\x00\x00\x00'
p15
tp16
Rp17
sS'duration'
p18
L61L
sS'endtime'
p19
g14
(S'\x07\xd4\n\x1e\x17\x1b\x01\x00\x00\x00'
p20
tp21
Rp22
sS'phonenumber_oid'
p23
L3654L
s.(dp0
S'status'
p1
S''
p2
sS'direction'
p3
S'Outgoing'
p4
sS'remote'
p5
g2
sS'description'
p6
S'Voice Call'
p7
sS'callid'
p8
L101L
sS'oid'
p9
L847089L
sS'number'
p10
g2
sS'person_oid'
p11
L56L
sS'contact'
p12
L2L
sS'starttime'
p13
cdatetime
datetime
p14
(S'\x07\xd4\n\x1e\x171\x14\x00\x00\x00'
p15
tp16
Rp17
sS'duration'
p18
L68L
sS'endtime'
p19
g14
(S'\x07\xd4\n\x1e\x172\x1c\x00\x00\x00'
p20
tp21
Rp22
sS'phonenumber_oid'
p23
L3654L
s.(dp0
S'status'
p1
S''
p2
sS'direction'
p3
S'Outgoing'
p4
sS'remote'
p5
g2
sS'description'
p6
S'Voice Call'
p7
sS'callid'
p8
L101L
sS'oid'
p9
L847091L
sS'number'
p10
g2
sS'person_oid'
p11
L56L
sS'contact'
p12
L2L
sS'starttime'
p13
cdatetime
datetime
p14
(S'\x07\xd4\n\x1e\x171\x14\x00\x00\x00'
p15
tp16
Rp17
sS'duration'
p18
L68L
sS'endtime'
p19
g14
(S'\x07\xd4\n\x1e\x172\x1c\x00\x00\x00'
p20
tp21
Rp22
sS'phonenumber_oid'
p23
L3654L
s.(dp0
S'status'
p1
S''
p2
sS'direction'
p3
S'Outgoing'
p4
sS'remote'
p5
g2
sS'description'
p6
S'Voice Call'
p7
sS'callid'
p8
L101L
sS'oid'
p9
L847139L
sS'number'
p10
g2
sS'person_oid'
p11
L56L
sS'contact'
p12
L2L
sS'starttime'
p13
cdatetime
datetime
p14
(S'\x07\xd4\n\x1e\x171\x14\x00\x00\x00'
p15
tp16
Rp17
sS'duration'
p18
L68L
sS'endtime'
p19
g14
(S'\x07\xd4\n\x1e\x172\x1c\x00\x00\x00'
p20
tp21
Rp22
sS'phonenumber_oid'
p23
L3654L
s.(dp0
S'status'
p1
S''
p2
sS'direction'
p3
S'Outgoing'
p4
sS'remote'
p5
g2
sS'description'
p6
S'Voice Call'
p7
sS'callid'
p8
L102L
sS'oid'
p9
L847092L
sS'number'
p10
g2
sS'person_oid'
p11
L56L
sS'contact'
p12
L4L
sS'starttime'
p13
cdatetime
datetime
p14
(S'\x07\xd4\n\x1e\x17;\x1c\x00\x00\x00'
p15
tp16
Rp17
sS'duration'
p18
L0L
sS'endtime'
p19
g14
(S'\x07\xd4\n\x1e\x17;\x1c\x00\x00\x00'
p20
tp21
Rp22
sS'phonenumber_oid'
p23
L1771L
s.(dp0
S'status'
p1
S''
p2
sS'direction'
p3
S'Outgoing'
p4
sS'remote'
p5
g2
sS'description'
p6
S'Voice Call'
p7
sS'callid'
p8
L102L
sS'oid'
p9
L847140L
sS'number'
p10
g2
sS'person_oid'
p11
L56L
sS'contact'
p12
L4L
sS'starttime'
p13
cdatetime
datetime
p14
(S'\x07\xd4\n\x1e\x17;\x1c\x00\x00\x00'
p15
tp16
Rp17
sS'duration'
p18
L0L
sS'endtime'
p19
g14
(S'\x07\xd4\n\x1e\x17;\x1c\x00\x00\x00'
p20
tp21
Rp22
sS'phonenumber_oid'
p23
L1771L
s.(dp0
S'status'
p1
S''
p2
sS'direction'
p3
S'Outgoing'
p4
sS'remote'
p5
g2
sS'description'
p6
S'Voice Call'
p7
sS'callid'
p8
L103L
sS'oid'
p9
L847093L
sS'number'
p10
g2
sS'person_oid'
p11
L56L
sS'contact'
p12
L7L
sS'starttime'
p13
cdatetime
datetime
p14
(S'\x07\xd4\n\x1f\x00\x00-\x00\x00\x00'
p15
tp16
Rp17
sS'duration'
p18
L37L
sS'endtime'
p19
g14
(S'\x07\xd4\n\x1f\x00\x01\x16\x00\x00\x00'
p20
tp21
Rp22
sS'phonenumber_oid'
p23
L2278L
s.(dp0
S'status'
p1
S''
p2
sS'direction'
p3
S'Outgoing'
p4
sS'remote'
p5
g2
sS'description'
p6
S'Voice Call'
p7
sS'callid'
p8
L103L
sS'oid'
p9
L847141L
sS'number'
p10
g2
sS'person_oid'
p11
L56L
sS'contact'
p12
L7L
sS'starttime'
p13
cdatetime
datetime
p14
(S'\x07\xd4\n\x1f\x00\x00-\x00\x00\x00'
p15
tp16
Rp17
sS'duration'
p18
L37L
sS'endtime'
p19
g14
(S'\x07\xd4\n\x1f\x00\x01\x16\x00\x00\x00'
p20
tp21
Rp22
sS'phonenumber_oid'
p23
L2278L
s.(dp0
S'status'
p1
S''
p2
sS'direction'
p3
S'Incoming'
p4
sS'remote'
p5
g2
sS'description'
p6
S'Voice Call'
p7
sS'callid'
p8
L105L
sS'oid'
p9
L847094L
sS'number'
p10
g2
sS'person_oid'
p11
L56L
sS'contact'
p12
L4L
sS'starttime'
p13
cdatetime
datetime
p14
(S'\x07\xd4\n\x1f\x00\x04\x0c\x00\x00\x00'
p15
tp16
Rp17
sS'duration'
p18
L154L
sS'endtime'
p19
g14
(S'\x07\xd4\n\x1f\x00\x06.\x00\x00\x00'
p20
tp21
Rp22
sS'phonenumber_oid'
p23
L1771L
s.(dp0
S'status'
p1
S''
p2
sS'direction'
p3
S'Incoming'
p4
sS'remote'
p5
g2
sS'description'
p6
S'Voice Call'
p7
sS'callid'
p8
L105L
sS'oid'
p9
L847142L
sS'number'
p10
g2
sS'person_oid'
p11
L56L
sS'contact'
p12
L4L
sS'starttime'
p13
cdatetime
datetime
p14
(S'\x07\xd4\n\x1f\x00\x04\x0c\x00\x00\x00'
p15
tp16
Rp17
sS'duration'
p18
L154L
sS'endtime'
p19
g14
(S'\x07\xd4\n\x1f\x00\x06.\x00\x00\x00'
p20
tp21
Rp22
sS'phonenumber_oid'
p23
L1771L
s.(dp0
S'status'
p1
S''
p2
sS'direction'
p3
S'Incoming'
p4
sS'remote'
p5
g2
sS'description'
p6
S'Voice Call'
p7
sS'callid'
p8
L107L
sS'oid'
p9
L847095L
sS'number'
p10
g2
sS'person_oid'
p11
L56L
sS'contact'
p12
L7L
sS'starttime'
p13
cdatetime
datetime
p14
(S'\x07\xd4\n\x1f\x00\x10\x00\x00\x00\x00'
p15
tp16
Rp17
sS'duration'
p18
L54L
sS'endtime'
p19
g14
(S'\x07\xd4\n\x1f\x00\x106\x00\x00\x00'
p20
tp21
Rp22
sS'phonenumber_oid'
p23
L2278L
s.(dp0
S'status'
p1
S''
p2
sS'direction'
p3
S'Incoming'
p4
sS'remote'
p5
g2
sS'description'
p6
S'Voice Call'
p7
sS'callid'
p8
L107L
sS'oid'
p9
L847143L
sS'number'
p10
g2
sS'person_oid'
p11
L56L
sS'contact'
p12
L7L
sS'starttime'
p13
cdatetime
datetime
p14
(S'\x07\xd4\n\x1f\x00\x10\x00\x00\x00\x00'
p15
tp16
Rp17
sS'duration'
p18
L54L
sS'endtime'
p19
g14
(S'\x07\xd4\n\x1f\x00\x106\x00\x00\x00'
p20
tp21
Rp22
sS'phonenumber_oid'
p23
L2278L
s.(dp0
S'status'
p1
S''
p2
sS'direction'
p3
S'Incoming'
p4
sS'remote'
p5
g2
sS'description'
p6
S'Voice Call'
p7
sS'callid'
p8
L109L
sS'oid'
p9
L847096L
sS'number'
p10
g2
sS'person_oid'
p11
L56L
sS'contact'
p12
L4L
sS'starttime'
p13
cdatetime
datetime
p14
(S'\x07\xd4\n\x1f\x00\x16+\x00\x00\x00'
p15
tp16
Rp17
sS'duration'
p18
L35L
sS'endtime'
p19
g14
(S'\x07\xd4\n\x1f\x00\x17\x12\x00\x00\x00'
p20
tp21
Rp22
sS'phonenumber_oid'
p23
L1771L
s.(dp0
S'status'
p1
S''
p2
sS'direction'
p3
S'Incoming'
p4
sS'remote'
p5
g2
sS'description'
p6
S'Voice Call'
p7
sS'callid'
p8
L109L
sS'oid'
p9
L847144L
sS'number'
p10
g2
sS'person_oid'
p11
L56L
sS'contact'
p12
L4L
sS'starttime'
p13
cdatetime
datetime
p14
(S'\x07\xd4\n\x1f\x00\x16+\x00\x00\x00'
p15
tp16
Rp17
sS'duration'
p18
L35L
sS'endtime'
p19
g14
(S'\x07\xd4\n\x1f\x00\x17\x12\x00\x00\x00'
p20
tp21
Rp22
sS'phonenumber_oid'
p23
L1771L
s.(dp0
S'status'
p1
S''
p2
sS'direction'
p3
S'Missed Call'
p4
sS'remote'
p5
g2
sS'description'
p6
S'Voice Call'
p7
sS'callid'
p8
L112L
sS'oid'
p9
L847097L
sS'number'
p10
g2
sS'person_oid'
p11
L56L
sS'contact'
p12
L2L
sS'starttime'
p13
cdatetime
datetime
p14
(S'\x07\xd4\n\x1f\x0b;\t\x00\x00\x00'
p15
tp16
Rp17
sS'duration'
p18
L0L
sS'endtime'
p19
g14
(S'\x07\xd4\n\x1f\x0b;\t\x00\x00\x00'
p20
tp21
Rp22
sS'phonenumber_oid'
p23
L3654L
s.(dp0
S'status'
p1
S''
p2
sS'direction'
p3
S'Missed Call'
p4
sS'remote'
p5
g2
sS'description'
p6
S'Voice Call'
p7
sS'callid'
p8
L112L
sS'oid'
p9
L847145L
sS'number'
p10
g2
sS'person_oid'
p11
L56L
sS'contact'
p12
L2L
sS'starttime'
p13
cdatetime
datetime
p14
(S'\x07\xd4\n\x1f\x0b;\t\x00\x00\x00'
p15
tp16
Rp17
sS'duration'
p18
L0L
sS'endtime'
p19
g14
(S'\x07\xd4\n\x1f\x0b;\t\x00\x00\x00'
p20
tp21
Rp22
sS'phonenumber_oid'
p23
L3654L
s.(dp0
S'status'
p1
S''
p2
sS'direction'
p3
S'Outgoing'
p4
sS'remote'
p5
g2
sS'description'
p6
S'Voice Call'
p7
sS'callid'
p8
L113L
sS'oid'
p9
L847098L
sS'number'
p10
g2
sS'person_oid'
p11
L56L
sS'contact'
p12
L2L
sS'starttime'
p13
cdatetime
datetime
p14
(S'\x07\xd4\n\x1f\x0c\x05;\x00\x00\x00'
p15
tp16
Rp17
sS'duration'
p18
L72L
sS'endtime'
p19
g14
(S'\x07\xd4\n\x1f\x0c\x07\x0b\x00\x00\x00'
p20
tp21
Rp22
sS'phonenumber_oid'
p23
L3654L
s.(dp0
S'status'
p1
S''
p2
sS'direction'
p3
S'Outgoing'
p4
sS'remote'
p5
g2
sS'description'
p6
S'Voice Call'
p7
sS'callid'
p8
L113L
sS'oid'
p9
L847146L
sS'number'
p10
g2
sS'person_oid'
p11
L56L
sS'contact'
p12
L2L
sS'starttime'
p13
cdatetime
datetime
p14
(S'\x07\xd4\n\x1f\x0c\x05;\x00\x00\x00'
p15
tp16
Rp17
sS'duration'
p18
L72L
sS'endtime'
p19
g14
(S'\x07\xd4\n\x1f\x0c\x07\x0b\x00\x00\x00'
p20
tp21
Rp22
sS'phonenumber_oid'
p23
L3654L
s.(dp0
S'status'
p1
S''
p2
sS'direction'
p3
S'Outgoing'
p4
sS'remote'
p5
g2
sS'description'
p6
S'Voice Call'
p7
sS'callid'
p8
L114L
sS'oid'
p9
L847099L
sS'number'
p10
g2
sS'person_oid'
p11
L56L
sS'contact'
p12
L2L
sS'starttime'
p13
cdatetime
datetime
p14
(S'\x07\xd4\n\x1f\x0c\x07\x1f\x00\x00\x00'
p15
tp16
Rp17
sS'duration'
p18
L348L
sS'endtime'
p19
g14
(S'\x07\xd4\n\x1f\x0c\r\x13\x00\x00\x00'
p20
tp21
Rp22
sS'phonenumber_oid'
p23
L3654L
s.(dp0
S'status'
p1
S''
p2
sS'direction'
p3
S'Outgoing'
p4
sS'remote'
p5
g2
sS'description'
p6
S'Voice Call'
p7
sS'callid'
p8
L114L
sS'oid'
p9
L847147L
sS'number'
p10
g2
sS'person_oid'
p11
L56L
sS'contact'
p12
L2L
sS'starttime'
p13
cdatetime
datetime
p14
(S'\x07\xd4\n\x1f\x0c\x07\x1f\x00\x00\x00'
p15
tp16
Rp17
sS'duration'
p18
L348L
sS'endtime'
p19
g14
(S'\x07\xd4\n\x1f\x0c\r\x13\x00\x00\x00'
p20
tp21
Rp22
sS'phonenumber_oid'
p23
L3654L
s.(dp0
S'status'
p1
S''
p2
sS'direction'
p3
S'Incoming'
p4
sS'remote'
p5
g2
sS'description'
p6
S'Voice Call'
p7
sS'callid'
p8
L116L
sS'oid'
p9
L847100L
sS'number'
p10
g2
sS'person_oid'
p11
L56L
sS'contact'
p12
L2L
sS'starttime'
p13
cdatetime
datetime
p14
(S'\x07\xd4\n\x1f\x0c\r4\x00\x00\x00'
p15
tp16
Rp17
sS'duration'
p18
L31L
sS'endtime'
p19
g14
(S'\x07\xd4\n\x1f\x0c\x0e\x17\x00\x00\x00'
p20
tp21
Rp22
sS'phonenumber_oid'
p23
L3654L
s.(dp0
S'status'
p1
S''
p2
sS'direction'
p3
S'Incoming'
p4
sS'remote'
p5
g2
sS'description'
p6
S'Voice Call'
p7
sS'callid'
p8
L116L
sS'oid'
p9
L847148L
sS'number'
p10
g2
sS'person_oid'
p11
L56L
sS'contact'
p12
L2L
sS'starttime'
p13
cdatetime
datetime
p14
(S'\x07\xd4\n\x1f\x0c\r4\x00\x00\x00'
p15
tp16
Rp17
sS'duration'
p18
L31L
sS'endtime'
p19
g14
(S'\x07\xd4\n\x1f\x0c\x0e\x17\x00\x00\x00'
p20
tp21
Rp22
sS'phonenumber_oid'
p23
L3654L
s.(dp0
S'status'
p1
S''
p2
sS'direction'
p3
S'Outgoing'
p4
sS'remote'
p5
g2
sS'description'
p6
S'Voice Call'
p7
sS'callid'
p8
L117L
sS'oid'
p9
L847101L
sS'number'
p10
g2
sS'person_oid'
p11
L56L
sS'contact'
p12
L2L
sS'starttime'
p13
cdatetime
datetime
p14
(S'\x07\xd4\n\x1f\x0c\x0e)\x00\x00\x00'
p15
tp16
Rp17
sS'duration'
p18
L69L
sS'endtime'
p19
g14
(S'\x07\xd4\n\x1f\x0c\x0f2\x00\x00\x00'
p20
tp21
Rp22
sS'phonenumber_oid'
p23
L3654L
s.(dp0
S'status'
p1
S''
p2
sS'direction'
p3
S'Outgoing'
p4
sS'remote'
p5
g2
sS'description'
p6
S'Voice Call'
p7
sS'callid'
p8
L117L
sS'oid'
p9
L847149L
sS'number'
p10
g2
sS'person_oid'
p11
L56L
sS'contact'
p12
L2L
sS'starttime'
p13
cdatetime
datetime
p14
(S'\x07\xd4\n\x1f\x0c\x0e)\x00\x00\x00'
p15
tp16
Rp17
sS'duration'
p18
L69L
sS'endtime'
p19
g14
(S'\x07\xd4\n\x1f\x0c\x0f2\x00\x00\x00'
p20
tp21
Rp22
sS'phonenumber_oid'
p23
L3654L
s.(dp0
S'status'
p1
S''
p2
sS'direction'
p3
S'Incoming'
p4
sS'remote'
p5
g2
sS'description'
p6
S'Voice Call'
p7
sS'callid'
p8
L119L
sS'oid'
p9
L847102L
sS'number'
p10
g2
sS'person_oid'
p11
L56L
sS'contact'
p12
L2L
sS'starttime'
p13
cdatetime
datetime
p14
(S'\x07\xd4\n\x1f\x0c\x0e6\x00\x00\x00'
p15
tp16
Rp17
sS'duration'
p18
L109L
sS'endtime'
p19
g14
(S'\x07\xd4\n\x1f\x0c\x10+\x00\x00\x00'
p20
tp21
Rp22
sS'phonenumber_oid'
p23
L3654L
s.(dp0
S'status'
p1
S''
p2
sS'direction'
p3
S'Incoming'
p4
sS'remote'
p5
g2
sS'description'
p6
S'Voice Call'
p7
sS'callid'
p8
L119L
sS'oid'
p9
L847150L
sS'number'
p10
g2
sS'person_oid'
p11
L56L
sS'contact'
p12
L2L
sS'starttime'
p13
cdatetime
datetime
p14
(S'\x07\xd4\n\x1f\x0c\x0e6\x00\x00\x00'
p15
tp16
Rp17
sS'duration'
p18
L109L
sS'endtime'
p19
g14
(S'\x07\xd4\n\x1f\x0c\x10+\x00\x00\x00'
p20
tp21
Rp22
sS'phonenumber_oid'
p23
L3654L
s.(dp0
S'status'
p1
S''
p2
sS'direction'
p3
S'Incoming'
p4
sS'remote'
p5
g2
sS'description'
p6
S'Voice Call'
p7
sS'callid'
p8
L121L
sS'oid'
p9
L847103L
sS'number'
p10
g2
sS'person_oid'
p11
L56L
sS'contact'
p12
L2L
sS'starttime'
p13
cdatetime
datetime
p14
(S'\x07\xd4\n\x1f\x0c\x105\x00\x00\x00'
p15
tp16
Rp17
sS'duration'
p18
L794L
sS'endtime'
p19
g14
(S'\x07\xd4\n\x1f\x0c\x1e\x07\x00\x00\x00'
p20
tp21
Rp22
sS'phonenumber_oid'
p23
L3654L
s.(dp0
S'status'
p1
S''
p2
sS'direction'
p3
S'Incoming'
p4
sS'remote'
p5
g2
sS'description'
p6
S'Voice Call'
p7
sS'callid'
p8
L121L
sS'oid'
p9
L847151L
sS'number'
p10
g2
sS'person_oid'
p11
L56L
sS'contact'
p12
L2L
sS'starttime'
p13
cdatetime
datetime
p14
(S'\x07\xd4\n\x1f\x0c\x105\x00\x00\x00'
p15
tp16
Rp17
sS'duration'
p18
L794L
sS'endtime'
p19
g14
(S'\x07\xd4\n\x1f\x0c\x1e\x07\x00\x00\x00'
p20
tp21
Rp22
sS'phonenumber_oid'
p23
L3654L
s.(dp0
S'status'
p1
S''
p2
sS'direction'
p3
S'Outgoing'
p4
sS'remote'
p5
g2
sS'description'
p6
S'Voice Call'
p7
sS'callid'
p8
L122L
sS'oid'
p9
L847104L
sS'number'
p10
g2
sS'person_oid'
p11
L56L
sS'contact'
p12
L4L
sS'starttime'
p13
cdatetime
datetime
p14
(S'\x07\xd4\n\x1f\x0c(\x1d\x00\x00\x00'
p15
tp16
Rp17
sS'duration'
p18
L0L
sS'endtime'
p19
g14
(S'\x07\xd4\n\x1f\x0c(\x1d\x00\x00\x00'
p20
tp21
Rp22
sS'phonenumber_oid'
p23
L1771L
s.(dp0
S'status'
p1
S''
p2
sS'direction'
p3
S'Outgoing'
p4
sS'remote'
p5
g2
sS'description'
p6
S'Voice Call'
p7
sS'callid'
p8
L122L
sS'oid'
p9
L847152L
sS'number'
p10
g2
sS'person_oid'
p11
L56L
sS'contact'
p12
L4L
sS'starttime'
p13
cdatetime
datetime
p14
(S'\x07\xd4\n\x1f\x0c(\x1d\x00\x00\x00'
p15
tp16
Rp17
sS'duration'
p18
L0L
sS'endtime'
p19
g14
(S'\x07\xd4\n\x1f\x0c(\x1d\x00\x00\x00'
p20
tp21
Rp22
sS'phonenumber_oid'
p23
L1771L
s.(dp0
S'status'
p1
S''
p2
sS'direction'
p3
S'Outgoing'
p4
sS'remote'
p5
g2
sS'description'
p6
S'Voice Call'
p7
sS'callid'
p8
L123L
sS'oid'
p9
L847105L
sS'number'
p10
g2
sS'person_oid'
p11
L56L
sS'contact'
p12
L7L
sS'starttime'
p13
cdatetime
datetime
p14
(S'\x07\xd4\n\x1f\x0c)!\x00\x00\x00'
p15
tp16
Rp17
sS'duration'
p18
L0L
sS'endtime'
p19
g14
(S'\x07\xd4\n\x1f\x0c)!\x00\x00\x00'
p20
tp21
Rp22
sS'phonenumber_oid'
p23
L2278L
s.(dp0
S'status'
p1
S''
p2
sS'direction'
p3
S'Outgoing'
p4
sS'remote'
p5
g2
sS'description'
p6
S'Voice Call'
p7
sS'callid'
p8
L123L
sS'oid'
p9
L847153L
sS'number'
p10
g2
sS'person_oid'
p11
L56L
sS'contact'
p12
L7L
sS'starttime'
p13
cdatetime
datetime
p14
(S'\x07\xd4\n\x1f\x0c)!\x00\x00\x00'
p15
tp16
Rp17
sS'duration'
p18
L0L
sS'endtime'
p19
g14
(S'\x07\xd4\n\x1f\x0c)!\x00\x00\x00'
p20
tp21
Rp22
sS'phonenumber_oid'
p23
L2278L
s.(dp0
S'status'
p1
S''
p2
sS'direction'
p3
S'Outgoing'
p4
sS'remote'
p5
g2
sS'description'
p6
S'Voice Call'
p7
sS'callid'
p8
L124L
sS'oid'
p9
L847106L
sS'number'
p10
g2
sS'person_oid'
p11
L56L
sS'contact'
p12
L7L
sS'starttime'
p13
cdatetime
datetime
p14
(S'\x07\xd4\n\x1f\x0c)4\x00\x00\x00'
p15
tp16
Rp17
sS'duration'
p18
L64L
sS'endtime'
p19
g14
(S'\x07\xd4\n\x1f\x0c*8\x00\x00\x00'
p20
tp21
Rp22
sS'phonenumber_oid'
p23
L2278L
s.(dp0
S'status'
p1
S''
p2
sS'direction'
p3
S'Outgoing'
p4
sS'remote'
p5
g2
sS'description'
p6
S'Voice Call'
p7
sS'callid'
p8
L124L
sS'oid'
p9
L847154L
sS'number'
p10
g2
sS'person_oid'
p11
L56L
sS'contact'
p12
L7L
sS'starttime'
p13
cdatetime
datetime
p14
(S'\x07\xd4\n\x1f\x0c)4\x00\x00\x00'
p15
tp16
Rp17
sS'duration'
p18
L64L
sS'endtime'
p19
g14
(S'\x07\xd4\n\x1f\x0c*8\x00\x00\x00'
p20
tp21
Rp22
sS'phonenumber_oid'
p23
L2278L
s.(dp0
S'status'
p1
S''
p2
sS'direction'
p3
S'Incoming'
p4
sS'remote'
p5
g2
sS'description'
p6
S'Voice Call'
p7
sS'callid'
p8
L126L
sS'oid'
p9
L847107L
sS'number'
p10
g2
sS'person_oid'
p11
L56L
sS'contact'
p12
L2L
sS'starttime'
p13
cdatetime
datetime
p14
(S'\x07\xd4\n\x1f\x0c+#\x00\x00\x00'
p15
tp16
Rp17
sS'duration'
p18
L304L
sS'endtime'
p19
g14
(S"\x07\xd4\n\x1f\x0c0'\x00\x00\x00"
p20
tp21
Rp22
sS'phonenumber_oid'
p23
L3654L
s.(dp0
S'status'
p1
S''
p2
sS'direction'
p3
S'Incoming'
p4
sS'remote'
p5
g2
sS'description'
p6
S'Voice Call'
p7
sS'callid'
p8
L126L
sS'oid'
p9
L847155L
sS'number'
p10
g2
sS'person_oid'
p11
L56L
sS'contact'
p12
L2L
sS'starttime'
p13
cdatetime
datetime
p14
(S'\x07\xd4\n\x1f\x0c+#\x00\x00\x00'
p15
tp16
Rp17
sS'duration'
p18
L304L
sS'endtime'
p19
g14
(S"\x07\xd4\n\x1f\x0c0'\x00\x00\x00"
p20
tp21
Rp22
sS'phonenumber_oid'
p23
L3654L
s.(dp0
S'status'
p1
S''
p2
sS'direction'
p3
S'Missed Call'
p4
sS'remote'
p5
g2
sS'description'
p6
S'Voice Call'
p7
sS'callid'
p8
L127L
sS'oid'
p9
L847108L
sS'number'
p10
g2
sS'person_oid'
p11
L56L
sS'contact'
p12
L2L
sS'starttime'
p13
cdatetime
datetime
p14
(S'\x07\xd4\n\x1f\x0c1\t\x00\x00\x00'
p15
tp16
Rp17
sS'duration'
p18
L0L
sS'endtime'
p19
g14
(S'\x07\xd4\n\x1f\x0c1\t\x00\x00\x00'
p20
tp21
Rp22
sS'phonenumber_oid'
p23
L3654L
s.(dp0
S'status'
p1
S''
p2
sS'direction'
p3
S'Missed Call'
p4
sS'remote'
p5
g2
sS'description'
p6
S'Voice Call'
p7
sS'callid'
p8
L127L
sS'oid'
p9
L847156L
sS'number'
p10
g2
sS'person_oid'
p11
L56L
sS'contact'
p12
L2L
sS'starttime'
p13
cdatetime
datetime
p14
(S'\x07\xd4\n\x1f\x0c1\t\x00\x00\x00'
p15
tp16
Rp17
sS'duration'
p18
L0L
sS'endtime'
p19
g14
(S'\x07\xd4\n\x1f\x0c1\t\x00\x00\x00'
p20
tp21
Rp22
sS'phonenumber_oid'
p23
L3654L
s.(dp0
S'status'
p1
S''
p2
sS'direction'
p3
S'Incoming'
p4
sS'remote'
p5
g2
sS'description'
p6
S'Voice Call'
p7
sS'callid'
p8
L129L
sS'oid'
p9
L847109L
sS'number'
p10
g2
sS'person_oid'
p11
L56L
sS'contact'
p12
L2L
sS'starttime'
p13
cdatetime
datetime
p14
(S'\x07\xd4\n\x1f\x0c:,\x00\x00\x00'
p15
tp16
Rp17
sS'duration'
p18
L50L
sS'endtime'
p19
g14
(S'\x07\xd4\n\x1f\x0c;"\x00\x00\x00'
p20
tp21
Rp22
sS'phonenumber_oid'
p23
L3654L
s.(dp0
S'status'
p1
S''
p2
sS'direction'
p3
S'Incoming'
p4
sS'remote'
p5
g2
sS'description'
p6
S'Voice Call'
p7
sS'callid'
p8
L129L
sS'oid'
p9
L847157L
sS'number'
p10
g2
sS'person_oid'
p11
L56L
sS'contact'
p12
L2L
sS'starttime'
p13
cdatetime
datetime
p14
(S'\x07\xd4\n\x1f\x0c:,\x00\x00\x00'
p15
tp16
Rp17
sS'duration'
p18
L50L
sS'endtime'
p19
g14
(S'\x07\xd4\n\x1f\x0c;"\x00\x00\x00'
p20
tp21
Rp22
sS'phonenumber_oid'
p23
L3654L
s.(dp0
S'status'
p1
S''
p2
sS'direction'
p3
S'Outgoing'
p4
sS'remote'
p5
g2
sS'description'
p6
S'Voice Call'
p7
sS'callid'
p8
L130L
sS'oid'
p9
L847110L
sS'number'
p10
g2
sS'person_oid'
p11
L56L
sS'contact'
p12
L2L
sS'starttime'
p13
cdatetime
datetime
p14
(S'\x07\xd4\n\x1f\x0c;7\x00\x00\x00'
p15
tp16
Rp17
sS'duration'
p18
L11L
sS'endtime'
p19
g14
(S'\x07\xd4\n\x1f\r\x00\x06\x00\x00\x00'
p20
tp21
Rp22
sS'phonenumber_oid'
p23
L3654L
s.(dp0
S'status'
p1
S''
p2
sS'direction'
p3
S'Outgoing'
p4
sS'remote'
p5
g2
sS'description'
p6
S'Voice Call'
p7
sS'callid'
p8
L130L
sS'oid'
p9
L847158L
sS'number'
p10
g2
sS'person_oid'
p11
L56L
sS'contact'
p12
L2L
sS'starttime'
p13
cdatetime
datetime
p14
(S'\x07\xd4\n\x1f\x0c;7\x00\x00\x00'
p15
tp16
Rp17
sS'duration'
p18
L11L
sS'endtime'
p19
g14
(S'\x07\xd4\n\x1f\r\x00\x06\x00\x00\x00'
p20
tp21
Rp22
sS'phonenumber_oid'
p23
L3654L
s.(dp0
S'status'
p1
S''
p2
sS'direction'
p3
S'Outgoing'
p4
sS'remote'
p5
g2
sS'description'
p6
S'Voice Call'
p7
sS'callid'
p8
L131L
sS'oid'
p9
L847111L
sS'number'
p10
g2
sS'person_oid'
p11
L56L
sS'contact'
p12
L2L
sS'starttime'
p13
cdatetime
datetime
p14
(S'\x07\xd4\n\x1f\r\x00\n\x00\x00\x00'
p15
tp16
Rp17
sS'duration'
p18
L0L
sS'endtime'
p19
g14
(S'\x07\xd4\n\x1f\r\x00\n\x00\x00\x00'
p20
tp21
Rp22
sS'phonenumber_oid'
p23
L3654L
s.(dp0
S'status'
p1
S''
p2
sS'direction'
p3
S'Outgoing'
p4
sS'remote'
p5
g2
sS'description'
p6
S'Voice Call'
p7
sS'callid'
p8
L131L
sS'oid'
p9
L847159L
sS'number'
p10
g2
sS'person_oid'
p11
L56L
sS'contact'
p12
L2L
sS'starttime'
p13
cdatetime
datetime
p14
(S'\x07\xd4\n\x1f\r\x00\n\x00\x00\x00'
p15
tp16
Rp17
sS'duration'
p18
L0L
sS'endtime'
p19
g14
(S'\x07\xd4\n\x1f\r\x00\n\x00\x00\x00'
p20
tp21
Rp22
sS'phonenumber_oid'
p23
L3654L
s.(dp0
S'status'
p1
S''
p2
sS'direction'
p3
S'Outgoing'
p4
sS'remote'
p5
g2
sS'description'
p6
S'Voice Call'
p7
sS'callid'
p8
L132L
sS'oid'
p9
L847112L
sS'number'
p10
g2
sS'person_oid'
p11
L56L
sS'contact'
p12
L2L
sS'starttime'
p13
cdatetime
datetime
p14
(S'\x07\xd4\n\x1f\r\x00&\x00\x00\x00'
p15
tp16
Rp17
sS'duration'
p18
L143L
sS'endtime'
p19
g14
(S'\x07\xd4\n\x1f\r\x03\x01\x00\x00\x00'
p20
tp21
Rp22
sS'phonenumber_oid'
p23
L3654L
s.(dp0
S'status'
p1
S''
p2
sS'direction'
p3
S'Outgoing'
p4
sS'remote'
p5
g2
sS'description'
p6
S'Voice Call'
p7
sS'callid'
p8
L132L
sS'oid'
p9
L847160L
sS'number'
p10
g2
sS'person_oid'
p11
L56L
sS'contact'
p12
L2L
sS'starttime'
p13
cdatetime
datetime
p14
(S'\x07\xd4\n\x1f\r\x00&\x00\x00\x00'
p15
tp16
Rp17
sS'duration'
p18
L143L
sS'endtime'
p19
g14
(S'\x07\xd4\n\x1f\r\x03\x01\x00\x00\x00'
p20
tp21
Rp22
sS'phonenumber_oid'
p23
L3654L
s.(dp0
S'status'
p1
S''
p2
sS'direction'
p3
S'Incoming'
p4
sS'remote'
p5
g2
sS'description'
p6
S'Voice Call'
p7
sS'callid'
p8
L134L
sS'oid'
p9
L847113L
sS'number'
p10
g2
sS'person_oid'
p11
L56L
sS'contact'
p12
L2L
sS'starttime'
p13
cdatetime
datetime
p14
(S"\x07\xd4\n\x1f\r#'\x00\x00\x00"
p15
tp16
Rp17
sS'duration'
p18
L155L
sS'endtime'
p19
g14
(S'\x07\xd4\n\x1f\r&\x0e\x00\x00\x00'
p20
tp21
Rp22
sS'phonenumber_oid'
p23
L3654L
s.(dp0
S'status'
p1
S''
p2
sS'direction'
p3
S'Incoming'
p4
sS'remote'
p5
g2
sS'description'
p6
S'Voice Call'
p7
sS'callid'
p8
L134L
sS'oid'
p9
L847161L
sS'number'
p10
g2
sS'person_oid'
p11
L56L
sS'contact'
p12
L2L
sS'starttime'
p13
cdatetime
datetime
p14
(S"\x07\xd4\n\x1f\r#'\x00\x00\x00"
p15
tp16
Rp17
sS'duration'
p18
L155L
sS'endtime'
p19
g14
(S'\x07\xd4\n\x1f\r&\x0e\x00\x00\x00'
p20
tp21
Rp22
sS'phonenumber_oid'
p23
L3654L
s.(dp0
S'status'
p1
S''
p2
sS'direction'
p3
S'Incoming'
p4
sS'remote'
p5
g2
sS'description'
p6
S'Voice Call'
p7
sS'callid'
p8
L136L
sS'oid'
p9
L847114L
sS'number'
p10
g2
sS'person_oid'
p11
L56L
sS'contact'
p12
L8L
sS'starttime'
p13
cdatetime
datetime
p14
(S'\x07\xd4\n\x1f\r&\x0c\x00\x00\x00'
p15
tp16
Rp17
sS'duration'
p18
L36L
sS'endtime'
p19
g14
(S'\x07\xd4\n\x1f\r&0\x00\x00\x00'
p20
tp21
Rp22
sS'phonenumber_oid'
p23
L1784L
s.(dp0
S'status'
p1
S''
p2
sS'direction'
p3
S'Incoming'
p4
sS'remote'
p5
g2
sS'description'
p6
S'Voice Call'
p7
sS'callid'
p8
L136L
sS'oid'
p9
L847162L
sS'number'
p10
g2
sS'person_oid'
p11
L56L
sS'contact'
p12
L8L
sS'starttime'
p13
cdatetime
datetime
p14
(S'\x07\xd4\n\x1f\r&\x0c\x00\x00\x00'
p15
tp16
Rp17
sS'duration'
p18
L36L
sS'endtime'
p19
g14
(S'\x07\xd4\n\x1f\r&0\x00\x00\x00'
p20
tp21
Rp22
sS'phonenumber_oid'
p23
L1784L
s.(dp0
S'status'
p1
S''
p2
sS'direction'
p3
S'Outgoing'
p4
sS'remote'
p5
g2
sS'description'
p6
S'Voice Call'
p7
sS'callid'
p8
L137L
sS'oid'
p9
L847115L
sS'number'
p10
g2
sS'person_oid'
p11
L56L
sS'contact'
p12
L2L
sS'starttime'
p13
cdatetime
datetime
p14
(S"\x07\xd4\n\x1f\r'\x14\x00\x00\x00"
p15
tp16
Rp17
sS'duration'
p18
L39L
sS'endtime'
p19
g14
(S"\x07\xd4\n\x1f\r';\x00\x00\x00"
p20
tp21
Rp22
sS'phonenumber_oid'
p23
L3654L
s.(dp0
S'status'
p1
S''
p2
sS'direction'
p3
S'Outgoing'
p4
sS'remote'
p5
g2
sS'description'
p6
S'Voice Call'
p7
sS'callid'
p8
L137L
sS'oid'
p9
L847163L
sS'number'
p10
g2
sS'person_oid'
p11
L56L
sS'contact'
p12
L2L
sS'starttime'
p13
cdatetime
datetime
p14
(S"\x07\xd4\n\x1f\r'\x14\x00\x00\x00"
p15
tp16
Rp17
sS'duration'
p18
L39L
sS'endtime'
p19
g14
(S"\x07\xd4\n\x1f\r';\x00\x00\x00"
p20
tp21
Rp22
sS'phonenumber_oid'
p23
L3654L
s.(dp0
S'status'
p1
S''
p2
sS'direction'
p3
S'Outgoing'
p4
sS'remote'
p5
g2
sS'description'
p6
S'Voice Call'
p7
sS'callid'
p8
L138L
sS'oid'
p9
L847116L
sS'number'
p10
g2
sS'person_oid'
p11
L56L
sS'contact'
p12
L7L
sS'starttime'
p13
cdatetime
datetime
p14
(S'\x07\xd4\n\x1f\x0e\x02\x00\x00\x00\x00'
p15
tp16
Rp17
sS'duration'
p18
L27L
sS'endtime'
p19
g14
(S'\x07\xd4\n\x1f\x0e\x02\x1b\x00\x00\x00'
p20
tp21
Rp22
sS'phonenumber_oid'
p23
L2278L
s.(dp0
S'status'
p1
S''
p2
sS'direction'
p3
S'Outgoing'
p4
sS'remote'
p5
g2
sS'description'
p6
S'Voice Call'
p7
sS'callid'
p8
L138L
sS'oid'
p9
L847164L
sS'number'
p10
g2
sS'person_oid'
p11
L56L
sS'contact'
p12
L7L
sS'starttime'
p13
cdatetime
datetime
p14
(S'\x07\xd4\n\x1f\x0e\x02\x00\x00\x00\x00'
p15
tp16
Rp17
sS'duration'
p18
L27L
sS'endtime'
p19
g14
(S'\x07\xd4\n\x1f\x0e\x02\x1b\x00\x00\x00'
p20
tp21
Rp22
sS'phonenumber_oid'
p23
L2278L
s.(dp0
S'status'
p1
S''
p2
sS'direction'
p3
S'Incoming'
p4
sS'remote'
p5
g2
sS'description'
p6
S'Voice Call'
p7
sS'callid'
p8
L140L
sS'oid'
p9
L847117L
sS'number'
p10
g2
sS'person_oid'
p11
L56L
sS'contact'
p12
L2L
sS'starttime'
p13
cdatetime
datetime
p14
(S'\x07\xd4\n\x1f\x0e5\x1a\x00\x00\x00'
p15
tp16
Rp17
sS'duration'
p18
L0L
sS'endtime'
p19
g14
(S'\x07\xd4\n\x1f\x0e5\x1a\x00\x00\x00'
p20
tp21
Rp22
sS'phonenumber_oid'
p23
L3654L
s.(dp0
S'status'
p1
S''
p2
sS'direction'
p3
S'Incoming'
p4
sS'remote'
p5
g2
sS'description'
p6
S'Voice Call'
p7
sS'callid'
p8
L140L
sS'oid'
p9
L847165L
sS'number'
p10
g2
sS'person_oid'
p11
L56L
sS'contact'
p12
L2L
sS'starttime'
p13
cdatetime
datetime
p14
(S'\x07\xd4\n\x1f\x0e5\x1a\x00\x00\x00'
p15
tp16
Rp17
sS'duration'
p18
L0L
sS'endtime'
p19
g14
(S'\x07\xd4\n\x1f\x0e5\x1a\x00\x00\x00'
p20
tp21
Rp22
sS'phonenumber_oid'
p23
L3654L
s.(dp0
S'status'
p1
S''
p2
sS'direction'
p3
S'Outgoing'
p4
sS'remote'
p5
g2
sS'description'
p6
S'Voice Call'
p7
sS'callid'
p8
L142L
sS'oid'
p9
L847118L
sS'number'
p10
g2
sS'person_oid'
p11
L56L
sS'contact'
p12
L2L
sS'starttime'
p13
cdatetime
datetime
p14
(S'\x07\xd4\n\x1f\x0f8\x07\x00\x00\x00'
p15
tp16
Rp17
sS'duration'
p18
L3L
sS'endtime'
p19
g14
(S'\x07\xd4\n\x1f\x0f8\n\x00\x00\x00'
p20
tp21
Rp22
sS'phonenumber_oid'
p23
L3654L
s.(dp0
S'status'
p1
S''
p2
sS'direction'
p3
S'Outgoing'
p4
sS'remote'
p5
g2
sS'description'
p6
S'Voice Call'
p7
sS'callid'
p8
L142L
sS'oid'
p9
L847166L
sS'number'
p10
g2
sS'person_oid'
p11
L56L
sS'contact'
p12
L2L
sS'starttime'
p13
cdatetime
datetime
p14
(S'\x07\xd4\n\x1f\x0f8\x07\x00\x00\x00'
p15
tp16
Rp17
sS'duration'
p18
L3L
sS'endtime'
p19
g14
(S'\x07\xd4\n\x1f\x0f8\n\x00\x00\x00'
p20
tp21
Rp22
sS'phonenumber_oid'
p23
L3654L
s.(dp0
S'status'
p1
S''
p2
sS'direction'
p3
S'Incoming'
p4
sS'remote'
p5
g2
sS'description'
p6
S'Voice Call'
p7
sS'callid'
p8
L144L
sS'oid'
p9
L847119L
sS'number'
p10
g2
sS'person_oid'
p11
L56L
sS'contact'
p12
L2L
sS'starttime'
p13
cdatetime
datetime
p14
(S'\x07\xd4\n\x1f\x10&\x01\x00\x00\x00'
p15
tp16
Rp17
sS'duration'
p18
L56L
sS'endtime'
p19
g14
(S'\x07\xd4\n\x1f\x10&9\x00\x00\x00'
p20
tp21
Rp22
sS'phonenumber_oid'
p23
L3654L
s.(dp0
S'status'
p1
S''
p2
sS'direction'
p3
S'Incoming'
p4
sS'remote'
p5
g2
sS'description'
p6
S'Voice Call'
p7
sS'callid'
p8
L144L
sS'oid'
p9
L847167L
sS'number'
p10
g2
sS'person_oid'
p11
L56L
sS'contact'
p12
L2L
sS'starttime'
p13
cdatetime
datetime
p14
(S'\x07\xd4\n\x1f\x10&\x01\x00\x00\x00'
p15
tp16
Rp17
sS'duration'
p18
L56L
sS'endtime'
p19
g14
(S'\x07\xd4\n\x1f\x10&9\x00\x00\x00'
p20
tp21
Rp22
sS'phonenumber_oid'
p23
L3654L
s.(dp0
S'status'
p1
S''
p2
sS'direction'
p3
S'Incoming'
p4
sS'remote'
p5
g2
sS'description'
p6
S'Voice Call'
p7
sS'callid'
p8
L146L
sS'oid'
p9
L847120L
sS'number'
p10
g2
sS'person_oid'
p11
L56L
sS'contact'
p12
L2L
sS'starttime'
p13
cdatetime
datetime
p14
(S'\x07\xd4\n\x1f\x12\x1a\n\x00\x00\x00'
p15
tp16
Rp17
sS'duration'
p18
L1041L
sS'endtime'
p19
g14
(S'\x07\xd4\n\x1f\x12+\x1f\x00\x00\x00'
p20
tp21
Rp22
sS'phonenumber_oid'
p23
L3654L
s.(dp0
S'status'
p1
S''
p2
sS'direction'
p3
S'Incoming'
p4
sS'remote'
p5
g2
sS'description'
p6
S'Voice Call'
p7
sS'callid'
p8
L146L
sS'oid'
p9
L847168L
sS'number'
p10
g2
sS'person_oid'
p11
L56L
sS'contact'
p12
L2L
sS'starttime'
p13
cdatetime
datetime
p14
(S'\x07\xd4\n\x1f\x12\x1a\n\x00\x00\x00'
p15
tp16
Rp17
sS'duration'
p18
L1041L
sS'endtime'
p19
g14
(S'\x07\xd4\n\x1f\x12+\x1f\x00\x00\x00'
p20
tp21
Rp22
sS'phonenumber_oid'
p23
L3654L
s.(dp0
S'status'
p1
S''
p2
sS'direction'
p3
S'Missed Call'
p4
sS'remote'
p5
g2
sS'description'
p6
S'Voice Call'
p7
sS'callid'
p8
L147L
sS'oid'
p9
L847121L
sS'number'
p10
g2
sS'person_oid'
p11
L56L
sS'contact'
p12
L4L
sS'starttime'
p13
cdatetime
datetime
p14
(S'\x07\xd4\n\x1f\x12\x1c\x00\x00\x00\x00'
p15
tp16
Rp17
sS'duration'
p18
L0L
sS'endtime'
p19
g14
(S'\x07\xd4\n\x1f\x12\x1c\x00\x00\x00\x00'
p20
tp21
Rp22
sS'phonenumber_oid'
p23
L1771L
s.(dp0
S'status'
p1
S''
p2
sS'direction'
p3
S'Missed Call'
p4
sS'remote'
p5
g2
sS'description'
p6
S'Voice Call'
p7
sS'callid'
p8
L147L
sS'oid'
p9
L847169L
sS'number'
p10
g2
sS'person_oid'
p11
L56L
sS'contact'
p12
L4L
sS'starttime'
p13
cdatetime
datetime
p14
(S'\x07\xd4\n\x1f\x12\x1c\x00\x00\x00\x00'
p15
tp16
Rp17
sS'duration'
p18
L0L
sS'endtime'
p19
g14
(S'\x07\xd4\n\x1f\x12\x1c\x00\x00\x00\x00'
p20
tp21
Rp22
sS'phonenumber_oid'
p23
L1771L
s.(dp0
S'status'
p1
S''
p2
sS'direction'
p3
S'Outgoing'
p4
sS'remote'
p5
g2
sS'description'
p6
S'Voice Call'
p7
sS'callid'
p8
L148L
sS'oid'
p9
L847122L
sS'number'
p10
g2
sS'person_oid'
p11
L56L
sS'contact'
p12
L6L
sS'starttime'
p13
cdatetime
datetime
p14
(S'\x07\xd4\n\x1f\x1299\x00\x00\x00'
p15
tp16
Rp17
sS'duration'
p18
L26L
sS'endtime'
p19
g14
(S'\x07\xd4\n\x1f\x12:\x17\x00\x00\x00'
p20
tp21
Rp22
sS'phonenumber_oid'
p23
L3655L
s.(dp0
S'status'
p1
S''
p2
sS'direction'
p3
S'Outgoing'
p4
sS'remote'
p5
g2
sS'description'
p6
S'Voice Call'
p7
sS'callid'
p8
L148L
sS'oid'
p9
L847170L
sS'number'
p10
g2
sS'person_oid'
p11
L56L
sS'contact'
p12
L6L
sS'starttime'
p13
cdatetime
datetime
p14
(S'\x07\xd4\n\x1f\x1299\x00\x00\x00'
p15
tp16
Rp17
sS'duration'
p18
L26L
sS'endtime'
p19
g14
(S'\x07\xd4\n\x1f\x12:\x17\x00\x00\x00'
p20
tp21
Rp22
sS'phonenumber_oid'
p23
L3655L
s.(dp0
S'status'
p1
S''
p2
sS'direction'
p3
S'Outgoing'
p4
sS'remote'
p5
g2
sS'description'
p6
S'Voice Call'
p7
sS'callid'
p8
L149L
sS'oid'
p9
L847123L
sS'number'
p10
g2
sS'person_oid'
p11
L56L
sS'contact'
p12
L4L
sS'starttime'
p13
cdatetime
datetime
p14
(S'\x07\xd4\n\x1f\x12:0\x00\x00\x00'
p15
tp16
Rp17
sS'duration'
p18
L692L
sS'endtime'
p19
g14
(S'\x07\xd4\n\x1f\x13\n\x14\x00\x00\x00'
p20
tp21
Rp22
sS'phonenumber_oid'
p23
L1771L
s.(dp0
S'status'
p1
S''
p2
sS'direction'
p3
S'Outgoing'
p4
sS'remote'
p5
g2
sS'description'
p6
S'Voice Call'
p7
sS'callid'
p8
L149L
sS'oid'
p9
L847171L
sS'number'
p10
g2
sS'person_oid'
p11
L56L
sS'contact'
p12
L4L
sS'starttime'
p13
cdatetime
datetime
p14
(S'\x07\xd4\n\x1f\x12:0\x00\x00\x00'
p15
tp16
Rp17
sS'duration'
p18
L692L
sS'endtime'
p19
g14
(S'\x07\xd4\n\x1f\x13\n\x14\x00\x00\x00'
p20
tp21
Rp22
sS'phonenumber_oid'
p23
L1771L
s.(dp0
S'status'
p1
S''
p2
sS'direction'
p3
S'Outgoing'
p4
sS'remote'
p5
g2
sS'description'
p6
S'Voice Call'
p7
sS'callid'
p8
L150L
sS'oid'
p9
L847124L
sS'number'
p10
g2
sS'person_oid'
p11
L56L
sS'contact'
p12
L4L
sS'starttime'
p13
cdatetime
datetime
p14
(S'\x07\xd4\n\x1f\x13\n8\x00\x00\x00'
p15
tp16
Rp17
sS'duration'
p18
L63L
sS'endtime'
p19
g14
(S'\x07\xd4\n\x1f\x13\x0b;\x00\x00\x00'
p20
tp21
Rp22
sS'phonenumber_oid'
p23
L1771L
s.(dp0
S'status'
p1
S''
p2
sS'direction'
p3
S'Outgoing'
p4
sS'remote'
p5
g2
sS'description'
p6
S'Voice Call'
p7
sS'callid'
p8
L150L
sS'oid'
p9
L847172L
sS'number'
p10
g2
sS'person_oid'
p11
L56L
sS'contact'
p12
L4L
sS'starttime'
p13
cdatetime
datetime
p14
(S'\x07\xd4\n\x1f\x13\n8\x00\x00\x00'
p15
tp16
Rp17
sS'duration'
p18
L63L
sS'endtime'
p19
g14
(S'\x07\xd4\n\x1f\x13\x0b;\x00\x00\x00'
p20
tp21
Rp22
sS'phonenumber_oid'
p23
L1771L
s.(dp0
S'status'
p1
S''
p2
sS'direction'
p3
S'Incoming'
p4
sS'remote'
p5
g2
sS'description'
p6
S'Voice Call'
p7
sS'callid'
p8
L152L
sS'oid'
p9
L847125L
sS'number'
p10
g2
sS'person_oid'
p11
L56L
sS'contact'
p12
L6L
sS'starttime'
p13
cdatetime
datetime
p14
(S'\x07\xd4\n\x1f\x13\x0c\x05\x00\x00\x00'
p15
tp16
Rp17
sS'duration'
p18
L871L
sS'endtime'
p19
g14
(S'\x07\xd4\n\x1f\x13\x1a$\x00\x00\x00'
p20
tp21
Rp22
sS'phonenumber_oid'
p23
L3655L
s.(dp0
S'status'
p1
S''
p2
sS'direction'
p3
S'Incoming'
p4
sS'remote'
p5
g2
sS'description'
p6
S'Voice Call'
p7
sS'callid'
p8
L152L
sS'oid'
p9
L847173L
sS'number'
p10
g2
sS'person_oid'
p11
L56L
sS'contact'
p12
L6L
sS'starttime'
p13
cdatetime
datetime
p14
(S'\x07\xd4\n\x1f\x13\x0c\x05\x00\x00\x00'
p15
tp16
Rp17
sS'duration'
p18
L871L
sS'endtime'
p19
g14
(S'\x07\xd4\n\x1f\x13\x1a$\x00\x00\x00'
p20
tp21
Rp22
sS'phonenumber_oid'
p23
L3655L
s.(dp0
S'status'
p1
S''
p2
sS'direction'
p3
S'Missed Call'
p4
sS'remote'
p5
g2
sS'description'
p6
S'Voice Call'
p7
sS'callid'
p8
L153L
sS'oid'
p9
L847126L
sS'number'
p10
g2
sS'person_oid'
p11
L56L
sS'contact'
p12
L3L
sS'starttime'
p13
cdatetime
datetime
p14
(S'\x07\xd4\n\x1f\x13\x12(\x00\x00\x00'
p15
tp16
Rp17
sS'duration'
p18
L0L
sS'endtime'
p19
g14
(S'\x07\xd4\n\x1f\x13\x12(\x00\x00\x00'
p20
tp21
Rp22
sS'phonenumber_oid'
p23
L3656L
s.(dp0
S'status'
p1
S''
p2
sS'direction'
p3
S'Missed Call'
p4
sS'remote'
p5
g2
sS'description'
p6
S'Voice Call'
p7
sS'callid'
p8
L153L
sS'oid'
p9
L847174L
sS'number'
p10
g2
sS'person_oid'
p11
L56L
sS'contact'
p12
L3L
sS'starttime'
p13
cdatetime
datetime
p14
(S'\x07\xd4\n\x1f\x13\x12(\x00\x00\x00'
p15
tp16
Rp17
sS'duration'
p18
L0L
sS'endtime'
p19
g14
(S'\x07\xd4\n\x1f\x13\x12(\x00\x00\x00'
p20
tp21
Rp22
sS'phonenumber_oid'
p23
L3656L
s.(dp0
S'status'
p1
S''
p2
sS'direction'
p3
S'Outgoing'
p4
sS'remote'
p5
g2
sS'description'
p6
S'Voice Call'
p7
sS'callid'
p8
L155L
sS'oid'
p9
L847127L
sS'number'
p10
g2
sS'person_oid'
p11
L56L
sS'contact'
p12
L3L
sS'starttime'
p13
cdatetime
datetime
p14
(S'\x07\xd4\n\x1f\x13\x1a7\x00\x00\x00'
p15
tp16
Rp17
sS'duration'
p18
L39L
sS'endtime'
p19
g14
(S'\x07\xd4\n\x1f\x13\x1b"\x00\x00\x00'
p20
tp21
Rp22
sS'phonenumber_oid'
p23
L3656L
s.(dp0
S'status'
p1
S''
p2
sS'direction'
p3
S'Outgoing'
p4
sS'remote'
p5
g2
sS'description'
p6
S'Voice Call'
p7
sS'callid'
p8
L155L
sS'oid'
p9
L847175L
sS'number'
p10
g2
sS'person_oid'
p11
L56L
sS'contact'
p12
L3L
sS'starttime'
p13
cdatetime
datetime
p14
(S'\x07\xd4\n\x1f\x13\x1a7\x00\x00\x00'
p15
tp16
Rp17
sS'duration'
p18
L39L
sS'endtime'
p19
g14
(S'\x07\xd4\n\x1f\x13\x1b"\x00\x00\x00'
p20
tp21
Rp22
sS'phonenumber_oid'
p23
L3656L
s.(dp0
S'status'
p1
S''
p2
sS'direction'
p3
S'Outgoing'
p4
sS'remote'
p5
g2
sS'description'
p6
S'Voice Call'
p7
sS'callid'
p8
L157L
sS'oid'
p9
L847128L
sS'number'
p10
g2
sS'person_oid'
p11
L56L
sS'contact'
p12
L3L
sS'starttime'
p13
cdatetime
datetime
p14
(S'\x07\xd4\n\x1f\x13\x1d\x1d\x00\x00\x00'
p15
tp16
Rp17
sS'duration'
p18
L90L
sS'endtime'
p19
g14
(S'\x07\xd4\n\x1f\x13\x1e;\x00\x00\x00'
p20
tp21
Rp22
sS'phonenumber_oid'
p23
L3656L
s.(dp0
S'status'
p1
S''
p2
sS'direction'
p3
S'Outgoing'
p4
sS'remote'
p5
g2
sS'description'
p6
S'Voice Call'
p7
sS'callid'
p8
L157L
sS'oid'
p9
L847176L
sS'number'
p10
g2
sS'person_oid'
p11
L56L
sS'contact'
p12
L3L
sS'starttime'
p13
cdatetime
datetime
p14
(S'\x07\xd4\n\x1f\x13\x1d\x1d\x00\x00\x00'
p15
tp16
Rp17
sS'duration'
p18
L90L
sS'endtime'
p19
g14
(S'\x07\xd4\n\x1f\x13\x1e;\x00\x00\x00'
p20
tp21
Rp22
sS'phonenumber_oid'
p23
L3656L
s.(dp0
S'status'
p1
S''
p2
sS'direction'
p3
S'Incoming'
p4
sS'remote'
p5
g2
sS'description'
p6
S'Voice Call'
p7
sS'callid'
p8
L159L
sS'oid'
p9
L847129L
sS'number'
p10
g2
sS'person_oid'
p11
L56L
sS'contact'
p12
L2L
sS'starttime'
p13
cdatetime
datetime
p14
(S'\x07\xd4\n\x1f\x14:-\x00\x00\x00'
p15
tp16
Rp17
sS'duration'
p18
L288L
sS'endtime'
p19
g14
(S'\x07\xd4\n\x1f\x15\x03!\x00\x00\x00'
p20
tp21
Rp22
sS'phonenumber_oid'
p23
L3654L
s.(dp0
S'status'
p1
S''
p2
sS'direction'
p3
S'Incoming'
p4
sS'remote'
p5
g2
sS'description'
p6
S'Voice Call'
p7
sS'callid'
p8
L159L
sS'oid'
p9
L847177L
sS'number'
p10
g2
sS'person_oid'
p11
L56L
sS'contact'
p12
L2L
sS'starttime'
p13
cdatetime
datetime
p14
(S'\x07\xd4\n\x1f\x14:-\x00\x00\x00'
p15
tp16
Rp17
sS'duration'
p18
L288L
sS'endtime'
p19
g14
(S'\x07\xd4\n\x1f\x15\x03!\x00\x00\x00'
p20
tp21
Rp22
sS'phonenumber_oid'
p23
L3654L
s.(dp0
S'status'
p1
S''
p2
sS'direction'
p3
S'Outgoing'
p4
sS'remote'
p5
g2
sS'description'
p6
S'Voice Call'
p7
sS'callid'
p8
L160L
sS'oid'
p9
L847130L
sS'number'
p10
g2
sS'person_oid'
p11
L56L
sS'contact'
p12
L2L
sS'starttime'
p13
cdatetime
datetime
p14
(S'\x07\xd4\n\x1f\x15\x1a\x0b\x00\x00\x00'
p15
tp16
Rp17
sS'duration'
p18
L509L
sS'endtime'
p19
g14
(S'\x07\xd4\n\x1f\x15"(\x00\x00\x00'
p20
tp21
Rp22
sS'phonenumber_oid'
p23
L3654L
s.(dp0
S'status'
p1
S''
p2
sS'direction'
p3
S'Outgoing'
p4
sS'remote'
p5
g2
sS'description'
p6
S'Voice Call'
p7
sS'callid'
p8
L160L
sS'oid'
p9
L847178L
sS'number'
p10
g2
sS'person_oid'
p11
L56L
sS'contact'
p12
L2L
sS'starttime'
p13
cdatetime
datetime
p14
(S'\x07\xd4\n\x1f\x15\x1a\x0b\x00\x00\x00'
p15
tp16
Rp17
sS'duration'
p18
L509L
sS'endtime'
p19
g14
(S'\x07\xd4\n\x1f\x15"(\x00\x00\x00'
p20
tp21
Rp22
sS'phonenumber_oid'
p23
L3654L
s.(dp0
S'status'
p1
S''
p2
sS'direction'
p3
S'Outgoing'
p4
sS'remote'
p5
g2
sS'description'
p6
S'Voice Call'
p7
sS'callid'
p8
L161L
sS'oid'
p9
L847131L
sS'number'
p10
g2
sS'person_oid'
p11
L56L
sS'contact'
p12
L2L
sS'starttime'
p13
cdatetime
datetime
p14
(S'\x07\xd4\n\x1f\x151-\x00\x00\x00'
p15
tp16
Rp17
sS'duration'
p18
L28L
sS'endtime'
p19
g14
(S'\x07\xd4\n\x1f\x152\r\x00\x00\x00'
p20
tp21
Rp22
sS'phonenumber_oid'
p23
L3654L
s.(dp0
S'status'
p1
S''
p2
sS'direction'
p3
S'Outgoing'
p4
sS'remote'
p5
g2
sS'description'
p6
S'Voice Call'
p7
sS'callid'
p8
L161L
sS'oid'
p9
L847179L
sS'number'
p10
g2
sS'person_oid'
p11
L56L
sS'contact'
p12
L2L
sS'starttime'
p13
cdatetime
datetime
p14
(S'\x07\xd4\n\x1f\x151-\x00\x00\x00'
p15
tp16
Rp17
sS'duration'
p18
L28L
sS'endtime'
p19
g14
(S'\x07\xd4\n\x1f\x152\r\x00\x00\x00'
p20
tp21
Rp22
sS'phonenumber_oid'
p23
L3654L
s.(dp0
S'status'
p1
S''
p2
sS'direction'
p3
S'Incoming'
p4
sS'remote'
p5
g2
sS'description'
p6
S'Voice Call'
p7
sS'callid'
p8
L163L
sS'oid'
p9
L847132L
sS'number'
p10
g2
sS'person_oid'
p11
L56L
sS'contact'
p12
L2L
sS'starttime'
p13
cdatetime
datetime
p14
(S'\x07\xd4\n\x1f\x158+\x00\x00\x00'
p15
tp16
Rp17
sS'duration'
p18
L560L
sS'endtime'
p19
g14
(S'\x07\xd4\n\x1f\x16\x06\x03\x00\x00\x00'
p20
tp21
Rp22
sS'phonenumber_oid'
p23
L3654L
s.(dp0
S'status'
p1
S''
p2
sS'direction'
p3
S'Incoming'
p4
sS'remote'
p5
g2
sS'description'
p6
S'Voice Call'
p7
sS'callid'
p8
L163L
sS'oid'
p9
L847180L
sS'number'
p10
g2
sS'person_oid'
p11
L56L
sS'contact'
p12
L2L
sS'starttime'
p13
cdatetime
datetime
p14
(S'\x07\xd4\n\x1f\x158+\x00\x00\x00'
p15
tp16
Rp17
sS'duration'
p18
L560L
sS'endtime'
p19
g14
(S'\x07\xd4\n\x1f\x16\x06\x03\x00\x00\x00'
p20
tp21
Rp22
sS'phonenumber_oid'
p23
L3654L
s.(dp0
S'status'
p1
S''
p2
sS'direction'
p3
S'Outgoing'
p4
sS'remote'
p5
g2
sS'description'
p6
S'Voice Call'
p7
sS'callid'
p8
L164L
sS'oid'
p9
L847133L
sS'number'
p10
g2
sS'person_oid'
p11
L56L
sS'contact'
p12
L2L
sS'starttime'
p13
cdatetime
datetime
p14
(S'\x07\xd4\n\x1f\x16\x15\x1e\x00\x00\x00'
p15
tp16
Rp17
sS'duration'
p18
L146L
sS'endtime'
p19
g14
(S'\x07\xd4\n\x1f\x16\x178\x00\x00\x00'
p20
tp21
Rp22
sS'phonenumber_oid'
p23
L3654L
s.(dp0
S'status'
p1
S''
p2
sS'direction'
p3
S'Outgoing'
p4
sS'remote'
p5
g2
sS'description'
p6
S'Voice Call'
p7
sS'callid'
p8
L164L
sS'oid'
p9
L847181L
sS'number'
p10
g2
sS'person_oid'
p11
L56L
sS'contact'
p12
L2L
sS'starttime'
p13
cdatetime
datetime
p14
(S'\x07\xd4\n\x1f\x16\x15\x1e\x00\x00\x00'
p15
tp16
Rp17
sS'duration'
p18
L146L
sS'endtime'
p19
g14
(S'\x07\xd4\n\x1f\x16\x178\x00\x00\x00'
p20
tp21
Rp22
sS'phonenumber_oid'
p23
L3654L
s.(dp0
S'status'
p1
S''
p2
sS'direction'
p3
S'Outgoing'
p4
sS'remote'
p5
g2
sS'description'
p6
S'Voice Call'
p7
sS'callid'
p8
L165L
sS'oid'
p9
L847134L
sS'number'
p10
g2
sS'person_oid'
p11
L56L
sS'contact'
p12
L3L
sS'starttime'
p13
cdatetime
datetime
p14
(S'\x07\xd4\n\x1f\x16\x18\x11\x00\x00\x00'
p15
tp16
Rp17
sS'duration'
p18
L915L
sS'endtime'
p19
g14
(S"\x07\xd4\n\x1f\x16' \x00\x00\x00"
p20
tp21
Rp22
sS'phonenumber_oid'
p23
L3656L
s.(dp0
S'status'
p1
S''
p2
sS'direction'
p3
S'Outgoing'
p4
sS'remote'
p5
g2
sS'description'
p6
S'Voice Call'
p7
sS'callid'
p8
L165L
sS'oid'
p9
L847182L
sS'number'
p10
g2
sS'person_oid'
p11
L56L
sS'contact'
p12
L3L
sS'starttime'
p13
cdatetime
datetime
p14
(S'\x07\xd4\n\x1f\x16\x18\x11\x00\x00\x00'
p15
tp16
Rp17
sS'duration'
p18
L915L
sS'endtime'
p19
g14
(S"\x07\xd4\n\x1f\x16' \x00\x00\x00"
p20
tp21
Rp22
sS'phonenumber_oid'
p23
L3656L
s.(dp0
S'status'
p1
S''
p2
sS'direction'
p3
S'Outgoing'
p4
sS'remote'
p5
g2
sS'description'
p6
S'Voice Call'
p7
sS'callid'
p8
L168L
sS'oid'
p9
L847135L
sS'number'
p10
g2
sS'person_oid'
p11
L56L
sS'contact'
p12
L2L
sS'starttime'
p13
cdatetime
datetime
p14
(S'\x07\xd4\n\x1f\x17\x08\x1e\x00\x00\x00'
p15
tp16
Rp17
sS'duration'
p18
L3577L
sS'endtime'
p19
g14
(S'\x07\xd4\x0b\x01\x00\x08\x07\x00\x00\x00'
p20
tp21
Rp22
sS'phonenumber_oid'
p23
L3654L
s.(dp0
S'status'
p1
S''
p2
sS'direction'
p3
S'Outgoing'
p4
sS'remote'
p5
g2
sS'description'
p6
S'Voice Call'
p7
sS'callid'
p8
L168L
sS'oid'
p9
L847183L
sS'number'
p10
g2
sS'person_oid'
p11
L56L
sS'contact'
p12
L2L
sS'starttime'
p13
cdatetime
datetime
p14
(S'\x07\xd4\n\x1f\x17\x08\x1e\x00\x00\x00'
p15
tp16
Rp17
sS'duration'
p18
L3577L
sS'endtime'
p19
g14
(S'\x07\xd4\x0b\x01\x00\x08\x07\x00\x00\x00'
p20
tp21
Rp22
sS'phonenumber_oid'
p23
L3654L
s.(dp0
S'status'
p1
S''
p2
sS'direction'
p3
S'Outgoing'
p4
sS'remote'
p5
g2
sS'description'
p6
S'Voice Call'
p7
sS'callid'
p8
L169L
sS'oid'
p9
L847136L
sS'number'
p10
g2
sS'person_oid'
p11
L56L
sS'contact'
p12
L2L
sS'starttime'
p13
cdatetime
datetime
p14
(S'\x07\xd4\x0b\x01\x00\x18#\x00\x00\x00'
p15
tp16
Rp17
sS'duration'
p18
L0L
sS'endtime'
p19
g14
(S'\x07\xd4\x0b\x01\x00\x18#\x00\x00\x00'
p20
tp21
Rp22
sS'phonenumber_oid'
p23
L3654L
s.(dp0
S'status'
p1
S''
p2
sS'direction'
p3
S'Outgoing'
p4
sS'remote'
p5
g2
sS'description'
p6
S'Voice Call'
p7
sS'callid'
p8
L169L
sS'oid'
p9
L847184L
sS'number'
p10
g2
sS'person_oid'
p11
L56L
sS'contact'
p12
L2L
sS'starttime'
p13
cdatetime
datetime
p14
(S'\x07\xd4\x0b\x01\x00\x18#\x00\x00\x00'
p15
tp16
Rp17
sS'duration'
p18
L0L
sS'endtime'
p19
g14
(S'\x07\xd4\x0b\x01\x00\x18#\x00\x00\x00'
p20
tp21
Rp22
sS'phonenumber_oid'
p23
L3654L
s.(dp0
S'status'
p1
S''
p2
sS'direction'
p3
S'Outgoing'
p4
sS'remote'
p5
g2
sS'description'
p6
S'Voice Call'
p7
sS'callid'
p8
L170L
sS'oid'
p9
L847137L
sS'number'
p10
g2
sS'person_oid'
p11
L56L
sS'contact'
p12
L2L
sS'starttime'
p13
cdatetime
datetime
p14
(S'\x07\xd4\x0b\x01\x00\x19\x02\x00\x00\x00'
p15
tp16
Rp17
sS'duration'
p18
L1396L
sS'endtime'
p19
g14
(S'\x07\xd4\x0b\x01\x000\x12\x00\x00\x00'
p20
tp21
Rp22
sS'phonenumber_oid'
p23
L3654L
s.(dp0
S'status'
p1
S''
p2
sS'direction'
p3
S'Outgoing'
p4
sS'remote'
p5
g2
sS'description'
p6
S'Voice Call'
p7
sS'callid'
p8
L170L
sS'oid'
p9
L847185L
sS'number'
p10
g2
sS'person_oid'
p11
L56L
sS'contact'
p12
L2L
sS'starttime'
p13
cdatetime
datetime
p14
(S'\x07\xd4\x0b\x01\x00\x19\x02\x00\x00\x00'
p15
tp16
Rp17
sS'duration'
p18
L1396L
sS'endtime'
p19
g14
(S'\x07\xd4\x0b\x01\x000\x12\x00\x00\x00'
p20
tp21
Rp22
sS'phonenumber_oid'
p23
L3654L
s.(dp0
S'status'
p1
S''
p2
sS'direction'
p3
S'Outgoing'
p4
sS'remote'
p5
g2
sS'description'
p6
S'Voice Call'
p7
sS'callid'
p8
L171L
sS'oid'
p9
L847186L
sS'number'
p10
g2
sS'person_oid'
p11
L56L
sS'contact'
p12
L2L
sS'starttime'
p13
cdatetime
datetime
p14
(S"\x07\xd4\x0b\x01\x08\x02'\x00\x00\x00"
p15
tp16
Rp17
sS'duration'
p18
L65L
sS'endtime'
p19
g14
(S'\x07\xd4\x0b\x01\x08\x03,\x00\x00\x00'
p20
tp21
Rp22
sS'phonenumber_oid'
p23
L3654L
s.(dp0
S'status'
p1
S''
p2
sS'direction'
p3
S'Outgoing'
p4
sS'remote'
p5
g2
sS'description'
p6
S'Voice Call'
p7
sS'callid'
p8
L172L
sS'oid'
p9
L847187L
sS'number'
p10
g2
sS'person_oid'
p11
L56L
sS'contact'
p12
L2L
sS'starttime'
p13
cdatetime
datetime
p14
(S'\x07\xd4\x0b\x01\x0c; \x00\x00\x00'
p15
tp16
Rp17
sS'duration'
p18
L72L
sS'endtime'
p19
g14
(S'\x07\xd4\x0b\x01\r\x00,\x00\x00\x00'
p20
tp21
Rp22
sS'phonenumber_oid'
p23
L3654L
s.(dp0
S'status'
p1
S''
p2
sS'direction'
p3
S'Missed Call'
p4
sS'remote'
p5
g2
sS'description'
p6
S'Voice Call'
p7
sS'callid'
p8
L174L
sS'oid'
p9
L847188L
sS'number'
p10
g2
sS'person_oid'
p11
L56L
sS'contact'
p12
L3L
sS'starttime'
p13
cdatetime
datetime
p14
(S'\x07\xd4\x0b\x01\x14;-\x00\x00\x00'
p15
tp16
Rp17
sS'duration'
p18
L0L
sS'endtime'
p19
g14
(S'\x07\xd4\x0b\x01\x14;-\x00\x00\x00'
p20
tp21
Rp22
sS'phonenumber_oid'
p23
L3656L
s.(dp0
S'status'
p1
S''
p2
sS'direction'
p3
S'Outgoing'
p4
sS'remote'
p5
g2
sS'description'
p6
S'Voice Call'
p7
sS'callid'
p8
L175L
sS'oid'
p9
L847189L
sS'number'
p10
g2
sS'person_oid'
p11
L56L
sS'contact'
p12
L3L
sS'starttime'
p13
cdatetime
datetime
p14
(S'\x07\xd4\x0b\x01\x16\x1a\x00\x00\x00\x00'
p15
tp16
Rp17
sS'duration'
p18
L1L
sS'endtime'
p19
g14
(S'\x07\xd4\x0b\x01\x16\x1a\x01\x00\x00\x00'
p20
tp21
Rp22
sS'phonenumber_oid'
p23
L3656L
s.(dp0
S'status'
p1
S''
p2
sS'direction'
p3
S'Outgoing'
p4
sS'remote'
p5
g2
sS'description'
p6
S'Voice Call'
p7
sS'callid'
p8
L176L
sS'oid'
p9
L847190L
sS'number'
p10
g2
sS'person_oid'
p11
L56L
sS'contact'
p12
L2L
sS'starttime'
p13
cdatetime
datetime
p14
(S'\x07\xd4\x0b\x01\x16\x1a\x1d\x00\x00\x00'
p15
tp16
Rp17
sS'duration'
p18
L4L
sS'endtime'
p19
g14
(S'\x07\xd4\x0b\x01\x16\x1a!\x00\x00\x00'
p20
tp21
Rp22
sS'phonenumber_oid'
p23
L3654L
s.(dp0
S'status'
p1
S'Delivered'
p2
sS'direction'
p3
S'Incoming'
p4
sS'remote'
p5
S''
p6
sS'description'
p7
S'Short Message'
p8
sS'callid'
p9
L177L
sS'oid'
p10
L847191L
sS'number'
p11
g6
sS'person_oid'
p12
L56L
sS'contact'
p13
L-1L
sS'starttime'
p14
cdatetime
datetime
p15
(S'\x07\xd4\x0b\x01\x16!\x17\x00\x00\x00'
p16
tp17
Rp18
sS'duration'
p19
L0L
sS'endtime'
p20
g15
(S'\x07\xd4\x0b\x01\x16!\x17\x00\x00\x00'
p21
tp22
Rp23
sS'phonenumber_oid'
p24
L3654L
s.(dp0
S'status'
p1
S''
p2
sS'direction'
p3
S'Missed Call'
p4
sS'remote'
p5
g2
sS'description'
p6
S'Voice Call'
p7
sS'callid'
p8
L178L
sS'oid'
p9
L847192L
sS'number'
p10
g2
sS'person_oid'
p11
L56L
sS'contact'
p12
L2L
sS'starttime'
p13
cdatetime
datetime
p14
(S'\x07\xd4\x0b\x01\x17\x03;\x00\x00\x00'
p15
tp16
Rp17
sS'duration'
p18
L0L
sS'endtime'
p19
g14
(S'\x07\xd4\x0b\x01\x17\x03;\x00\x00\x00'
p20
tp21
Rp22
sS'phonenumber_oid'
p23
L3654L
s.(dp0
S'status'
p1
S''
p2
sS'direction'
p3
S'Missed Call'
p4
sS'remote'
p5
g2
sS'description'
p6
S'Voice Call'
p7
sS'callid'
p8
L179L
sS'oid'
p9
L847193L
sS'number'
p10
g2
sS'person_oid'
p11
L56L
sS'contact'
p12
L2L
sS'starttime'
p13
cdatetime
datetime
p14
(S'\x07\xd4\x0b\x01\x17\x0e\t\x00\x00\x00'
p15
tp16
Rp17
sS'duration'
p18
L0L
sS'endtime'
p19
g14
(S'\x07\xd4\x0b\x01\x17\x0e\t\x00\x00\x00'
p20
tp21
Rp22
sS'phonenumber_oid'
p23
L3654L
s.(dp0
S'status'
p1
S''
p2
sS'direction'
p3
S'Incoming'
p4
sS'remote'
p5
g2
sS'description'
p6
S'Voice Call'
p7
sS'callid'
p8
L181L
sS'oid'
p9
L847194L
sS'number'
p10
g2
sS'person_oid'
p11
L56L
sS'contact'
p12
L2L
sS'starttime'
p13
cdatetime
datetime
p14
(S'\x07\xd4\x0b\x02\x00\x05/\x00\x00\x00'
p15
tp16
Rp17
sS'duration'
p18
L18L
sS'endtime'
p19
g14
(S'\x07\xd4\x0b\x02\x00\x06\x05\x00\x00\x00'
p20
tp21
Rp22
sS'phonenumber_oid'
p23
L3654L
s.(dp0
S'status'
p1
S''
p2
sS'direction'
p3
S'Outgoing'
p4
sS'remote'
p5
g2
sS'description'
p6
S'Voice Call'
p7
sS'callid'
p8
L182L
sS'oid'
p9
L847195L
sS'number'
p10
g2
sS'person_oid'
p11
L56L
sS'contact'
p12
L2L
sS'starttime'
p13
cdatetime
datetime
p14
(S'\x07\xd4\x0b\x02\x00\x05:\x00\x00\x00'
p15
tp16
Rp17
sS'duration'
p18
L1728L
sS'endtime'
p19
g14
(S'\x07\xd4\x0b\x02\x00".\x00\x00\x00'
p20
tp21
Rp22
sS'phonenumber_oid'
p23
L3654L
s.(dp0
S'status'
p1
S''
p2
sS'direction'
p3
S'Incoming'
p4
sS'remote'
p5
g2
sS'description'
p6
S'Voice Call'
p7
sS'callid'
p8
L184L
sS'oid'
p9
L847196L
sS'number'
p10
g2
sS'person_oid'
p11
L56L
sS'contact'
p12
L2L
sS'starttime'
p13
cdatetime
datetime
p14
(S'\x07\xd4\x0b\x02\x00#;\x00\x00\x00'
p15
tp16
Rp17
sS'duration'
p18
L1502L
sS'endtime'
p19
g14
(S'\x07\xd4\x0b\x02\x01\x01\x01\x00\x00\x00'
p20
tp21
Rp22
sS'phonenumber_oid'
p23
L3654L
s.