(dp0
S'status'
p1
S''
p2
sS'direction'
p3
S'Outgoing'
p4
sS'remote'
p5
g2
sS'description'
p6
S'Voice Call'
p7
sS'callid'
p8
L4184L
sS'oid'
p9
L370775L
sS'number'
p10
g2
sS'person_oid'
p11
L22L
sS'contact'
p12
L80L
sS'starttime'
p13
cdatetime
datetime
p14
(S'\x07\xd5\x02\x01\x00\n\t\x00\x00\x00'
p15
tp16
Rp17
sS'duration'
p18
L61L
sS'endtime'
p19
g14
(S'\x07\xd5\x02\x01\x00\x0b\n\x00\x00\x00'
p20
tp21
Rp22
sS'phonenumber_oid'
p23
L1890L
s.(dp0
S'status'
p1
S''
p2
sS'direction'
p3
S'Outgoing'
p4
sS'remote'
p5
g2
sS'description'
p6
S'Voice Call'
p7
sS'callid'
p8
L4184L
sS'oid'
p9
L370800L
sS'number'
p10
g2
sS'person_oid'
p11
L22L
sS'contact'
p12
L80L
sS'starttime'
p13
cdatetime
datetime
p14
(S'\x07\xd5\x02\x01\x00\n\t\x00\x00\x00'
p15
tp16
Rp17
sS'duration'
p18
L61L
sS'endtime'
p19
g14
(S'\x07\xd5\x02\x01\x00\x0b\n\x00\x00\x00'
p20
tp21
Rp22
sS'phonenumber_oid'
p23
L1890L
s.(dp0
S'status'
p1
S''
p2
sS'direction'
p3
S'Outgoing'
p4
sS'remote'
p5
g2
sS'description'
p6
S'Voice Call'
p7
sS'callid'
p8
L4185L
sS'oid'
p9
L370776L
sS'number'
p10
g2
sS'person_oid'
p11
L22L
sS'contact'
p12
L71L
sS'starttime'
p13
cdatetime
datetime
p14
(S'\x07\xd5\x02\x01\x00\x1a,\x00\x00\x00'
p15
tp16
Rp17
sS'duration'
p18
L196L
sS'endtime'
p19
g14
(S'\x07\xd5\x02\x01\x00\x1e\x00\x00\x00\x00'
p20
tp21
Rp22
sS'phonenumber_oid'
p23
L1891L
s.(dp0
S'status'
p1
S''
p2
sS'direction'
p3
S'Outgoing'
p4
sS'remote'
p5
g2
sS'description'
p6
S'Voice Call'
p7
sS'callid'
p8
L4185L
sS'oid'
p9
L370801L
sS'number'
p10
g2
sS'person_oid'
p11
L22L
sS'contact'
p12
L71L
sS'starttime'
p13
cdatetime
datetime
p14
(S'\x07\xd5\x02\x01\x00\x1a,\x00\x00\x00'
p15
tp16
Rp17
sS'duration'
p18
L196L
sS'endtime'
p19
g14
(S'\x07\xd5\x02\x01\x00\x1e\x00\x00\x00\x00'
p20
tp21
Rp22
sS'phonenumber_oid'
p23
L1891L
s.(dp0
S'status'
p1
S''
p2
sS'direction'
p3
S'Outgoing'
p4
sS'remote'
p5
g2
sS'description'
p6
S'Voice Call'
p7
sS'callid'
p8
L4187L
sS'oid'
p9
L370777L
sS'number'
p10
g2
sS'person_oid'
p11
L22L
sS'contact'
p12
L37L
sS'starttime'
p13
cdatetime
datetime
p14
(S'\x07\xd5\x02\x01\x01%\x14\x00\x00\x00'
p15
tp16
Rp17
sS'duration'
p18
L37L
sS'endtime'
p19
g14
(S'\x07\xd5\x02\x01\x01%9\x00\x00\x00'
p20
tp21
Rp22
sS'phonenumber_oid'
p23
L1920L
s.(dp0
S'status'
p1
S''
p2
sS'direction'
p3
S'Outgoing'
p4
sS'remote'
p5
g2
sS'description'
p6
S'Voice Call'
p7
sS'callid'
p8
L4187L
sS'oid'
p9
L370802L
sS'number'
p10
g2
sS'person_oid'
p11
L22L
sS'contact'
p12
L37L
sS'starttime'
p13
cdatetime
datetime
p14
(S'\x07\xd5\x02\x01\x01%\x14\x00\x00\x00'
p15
tp16
Rp17
sS'duration'
p18
L37L
sS'endtime'
p19
g14
(S'\x07\xd5\x02\x01\x01%9\x00\x00\x00'
p20
tp21
Rp22
sS'phonenumber_oid'
p23
L1920L
s.(dp0
S'status'
p1
S''
p2
sS'direction'
p3
S'Incoming'
p4
sS'remote'
p5
g2
sS'description'
p6
S'Voice Call'
p7
sS'callid'
p8
L4191L
sS'oid'
p9
L370778L
sS'number'
p10
g2
sS'person_oid'
p11
L22L
sS'contact'
p12
L4L
sS'starttime'
p13
cdatetime
datetime
p14
(S'\x07\xd5\x02\x01\x02\x036\x00\x00\x00'
p15
tp16
Rp17
sS'duration'
p18
L0L
sS'endtime'
p19
g14
(S'\x07\xd5\x02\x01\x02\x036\x00\x00\x00'
p20
tp21
Rp22
sS'phonenumber_oid'
p23
L1910L
s.(dp0
S'status'
p1
S''
p2
sS'direction'
p3
S'Incoming'
p4
sS'remote'
p5
g2
sS'description'
p6
S'Voice Call'
p7
sS'callid'
p8
L4191L
sS'oid'
p9
L370803L
sS'number'
p10
g2
sS'person_oid'
p11
L22L
sS'contact'
p12
L4L
sS'starttime'
p13
cdatetime
datetime
p14
(S'\x07\xd5\x02\x01\x02\x036\x00\x00\x00'
p15
tp16
Rp17
sS'duration'
p18
L0L
sS'endtime'
p19
g14
(S'\x07\xd5\x02\x01\x02\x036\x00\x00\x00'
p20
tp21
Rp22
sS'phonenumber_oid'
p23
L1910L
s.(dp0
S'status'
p1
S''
p2
sS'direction'
p3
S'Incoming'
p4
sS'remote'
p5
g2
sS'description'
p6
S'Voice Call'
p7
sS'callid'
p8
L4193L
sS'oid'
p9
L370779L
sS'number'
p10
g2
sS'person_oid'
p11
L22L
sS'contact'
p12
L80L
sS'starttime'
p13
cdatetime
datetime
p14
(S'\x07\xd5\x02\x01\x02\x07\x01\x00\x00\x00'
p15
tp16
Rp17
sS'duration'
p18
L1149L
sS'endtime'
p19
g14
(S'\x07\xd5\x02\x01\x02\x1a\n\x00\x00\x00'
p20
tp21
Rp22
sS'phonenumber_oid'
p23
L1890L
s.(dp0
S'status'
p1
S''
p2
sS'direction'
p3
S'Incoming'
p4
sS'remote'
p5
g2
sS'description'
p6
S'Voice Call'
p7
sS'callid'
p8
L4193L
sS'oid'
p9
L370804L
sS'number'
p10
g2
sS'person_oid'
p11
L22L
sS'contact'
p12
L80L
sS'starttime'
p13
cdatetime
datetime
p14
(S'\x07\xd5\x02\x01\x02\x07\x01\x00\x00\x00'
p15
tp16
Rp17
sS'duration'
p18
L1149L
sS'endtime'
p19
g14
(S'\x07\xd5\x02\x01\x02\x1a\n\x00\x00\x00'
p20
tp21
Rp22
sS'phonenumber_oid'
p23
L1890L
s.(dp0
S'status'
p1
S''
p2
sS'direction'
p3
S'Outgoing'
p4
sS'remote'
p5
g2
sS'description'
p6
S'Voice Call'
p7
sS'callid'
p8
L4196L
sS'oid'
p9
L370780L
sS'number'
p10
g2
sS'person_oid'
p11
L22L
sS'contact'
p12
L92L
sS'starttime'
p13
cdatetime
datetime
p14
(S'\x07\xd5\x02\x01\x02\x1a.\x00\x00\x00'
p15
tp16
Rp17
sS'duration'
p18
L16L
sS'endtime'
p19
g14
(S'\x07\xd5\x02\x01\x02\x1b\x02\x00\x00\x00'
p20
tp21
Rp22
sS'phonenumber_oid'
p23
L1923L
s.(dp0
S'status'
p1
S''
p2
sS'direction'
p3
S'Outgoing'
p4
sS'remote'
p5
g2
sS'description'
p6
S'Voice Call'
p7
sS'callid'
p8
L4196L
sS'oid'
p9
L370805L
sS'number'
p10
g2
sS'person_oid'
p11
L22L
sS'contact'
p12
L92L
sS'starttime'
p13
cdatetime
datetime
p14
(S'\x07\xd5\x02\x01\x02\x1a.\x00\x00\x00'
p15
tp16
Rp17
sS'duration'
p18
L16L
sS'endtime'
p19
g14
(S'\x07\xd5\x02\x01\x02\x1b\x02\x00\x00\x00'
p20
tp21
Rp22
sS'phonenumber_oid'
p23
L1923L
s.(dp0
S'status'
p1
S'Delivered'
p2
sS'direction'
p3
S'Incoming'
p4
sS'remote'
p5
S''
p6
sS'description'
p7
S'Short Message'
p8
sS'callid'
p9
L4198L
sS'oid'
p10
L370781L
sS'number'
p11
g6
sS'person_oid'
p12
L22L
sS'contact'
p13
L-1L
sS'starttime'
p14
cdatetime
datetime
p15
(S'\x07\xd5\x02\x01\x0290\x00\x00\x00'
p16
tp17
Rp18
sS'duration'
p19
L0L
sS'endtime'
p20
g15
(S'\x07\xd5\x02\x01\x0290\x00\x00\x00'
p21
tp22
Rp23
sS'phonenumber_oid'
p24
L1903L
s.(dp0
S'status'
p1
S'Delivered'
p2
sS'direction'
p3
S'Incoming'
p4
sS'remote'
p5
S''
p6
sS'description'
p7
S'Short Message'
p8
sS'callid'
p9
L4198L
sS'oid'
p10
L370806L
sS'number'
p11
g6
sS'person_oid'
p12
L22L
sS'contact'
p13
L-1L
sS'starttime'
p14
cdatetime
datetime
p15
(S'\x07\xd5\x02\x01\x0290\x00\x00\x00'
p16
tp17
Rp18
sS'duration'
p19
L0L
sS'endtime'
p20
g15
(S'\x07\xd5\x02\x01\x0290\x00\x00\x00'
p21
tp22
Rp23
sS'phonenumber_oid'
p24
L1903L
s.(dp0
S'status'
p1
S''
p2
sS'direction'
p3
S'Missed Call'
p4
sS'remote'
p5
g2
sS'description'
p6
S'Voice Call'
p7
sS'callid'
p8
L4199L
sS'oid'
p9
L370782L
sS'number'
p10
g2
sS'person_oid'
p11
L22L
sS'contact'
p12
L37L
sS'starttime'
p13
cdatetime
datetime
p14
(S'\x07\xd5\x02\x01\x040$\x00\x00\x00'
p15
tp16
Rp17
sS'duration'
p18
L0L
sS'endtime'
p19
g14
(S'\x07\xd5\x02\x01\x040$\x00\x00\x00'
p20
tp21
Rp22
sS'phonenumber_oid'
p23
L1920L
s.(dp0
S'status'
p1
S''
p2
sS'direction'
p3
S'Missed Call'
p4
sS'remote'
p5
g2
sS'description'
p6
S'Voice Call'
p7
sS'callid'
p8
L4199L
sS'oid'
p9
L370807L
sS'number'
p10
g2
sS'person_oid'
p11
L22L
sS'contact'
p12
L37L
sS'starttime'
p13
cdatetime
datetime
p14
(S'\x07\xd5\x02\x01\x040$\x00\x00\x00'
p15
tp16
Rp17
sS'duration'
p18
L0L
sS'endtime'
p19
g14
(S'\x07\xd5\x02\x01\x040$\x00\x00\x00'
p20
tp21
Rp22
sS'phonenumber_oid'
p23
L1920L
s.(dp0
S'status'
p1
S''
p2
sS'direction'
p3
S'Missed Call'
p4
sS'remote'
p5
g2
sS'description'
p6
S'Voice Call'
p7
sS'callid'
p8
L4199L
sS'oid'
p9
L370833L
sS'number'
p10
g2
sS'person_oid'
p11
L22L
sS'contact'
p12
L37L
sS'starttime'
p13
cdatetime
datetime
p14
(S'\x07\xd5\x02\x01\x040$\x00\x00\x00'
p15
tp16
Rp17
sS'duration'
p18
L0L
sS'endtime'
p19
g14
(S'\x07\xd5\x02\x01\x040$\x00\x00\x00'
p20
tp21
Rp22
sS'phonenumber_oid'
p23
L1920L
s.(dp0
S'status'
p1
S'Delivered'
p2
sS'direction'
p3
S'Incoming'
p4
sS'remote'
p5
S''
p6
sS'description'
p7
S'Short Message'
p8
sS'callid'
p9
L4201L
sS'oid'
p10
L370783L
sS'number'
p11
g6
sS'person_oid'
p12
L22L
sS'contact'
p13
L-1L
sS'starttime'
p14
cdatetime
datetime
p15
(S'\x07\xd5\x02\x01\x06"\x14\x00\x00\x00'
p16
tp17
Rp18
sS'duration'
p19
L0L
sS'endtime'
p20
g15
(S'\x07\xd5\x02\x01\x06"\x14\x00\x00\x00'
p21
tp22
Rp23
sS'phonenumber_oid'
p24
L1890L
s.(dp0
S'status'
p1
S'Delivered'
p2
sS'direction'
p3
S'Incoming'
p4
sS'remote'
p5
S''
p6
sS'description'
p7
S'Short Message'
p8
sS'callid'
p9
L4201L
sS'oid'
p10
L370808L
sS'number'
p11
g6
sS'person_oid'
p12
L22L
sS'contact'
p13
L-1L
sS'starttime'
p14
cdatetime
datetime
p15
(S'\x07\xd5\x02\x01\x06"\x14\x00\x00\x00'
p16
tp17
Rp18
sS'duration'
p19
L0L
sS'endtime'
p20
g15
(S'\x07\xd5\x02\x01\x06"\x14\x00\x00\x00'
p21
tp22
Rp23
sS'phonenumber_oid'
p24
L1890L
s.(dp0
S'status'
p1
S'Delivered'
p2
sS'direction'
p3
S'Incoming'
p4
sS'remote'
p5
S''
p6
sS'description'
p7
S'Short Message'
p8
sS'callid'
p9
L4201L
sS'oid'
p10
L370834L
sS'number'
p11
g6
sS'person_oid'
p12
L22L
sS'contact'
p13
L-1L
sS'starttime'
p14
cdatetime
datetime
p15
(S'\x07\xd5\x02\x01\x06"\x14\x00\x00\x00'
p16
tp17
Rp18
sS'duration'
p19
L0L
sS'endtime'
p20
g15
(S'\x07\xd5\x02\x01\x06"\x14\x00\x00\x00'
p21
tp22
Rp23
sS'phonenumber_oid'
p24
L1890L
s.(dp0
S'status'
p1
S'Sent'
p2
sS'direction'
p3
S'Outgoing'
p4
sS'remote'
p5
S''
p6
sS'description'
p7
S'Short Message'
p8
sS'callid'
p9
L4202L
sS'oid'
p10
L370809L
sS'number'
p11
g6
sS'person_oid'
p12
L22L
sS'contact'
p13
L-1L
sS'starttime'
p14
cdatetime
datetime
p15
(S'\x07\xd5\x02\x01\x0c"\x0f\x00\x00\x00'
p16
tp17
Rp18
sS'duration'
p19
L0L
sS'endtime'
p20
g15
(S'\x07\xd5\x02\x01\x0c"\x0f\x00\x00\x00'
p21
tp22
Rp23
sS'phonenumber_oid'
p24
L1890L
s.(dp0
S'status'
p1
S'Sent'
p2
sS'direction'
p3
S'Outgoing'
p4
sS'remote'
p5
S''
p6
sS'description'
p7
S'Short Message'
p8
sS'callid'
p9
L4202L
sS'oid'
p10
L370835L
sS'number'
p11
g6
sS'person_oid'
p12
L22L
sS'contact'
p13
L-1L
sS'starttime'
p14
cdatetime
datetime
p15
(S'\x07\xd5\x02\x01\x0c"\x0f\x00\x00\x00'
p16
tp17
Rp18
sS'duration'
p19
L0L
sS'endtime'
p20
g15
(S'\x07\xd5\x02\x01\x0c"\x0f\x00\x00\x00'
p21
tp22
Rp23
sS'phonenumber_oid'
p24
L1890L
s.(dp0
S'status'
p1
S''
p2
sS'direction'
p3
S'Outgoing'
p4
sS'remote'
p5
g2
sS'description'
p6
S'Voice Call'
p7
sS'callid'
p8
L4203L
sS'oid'
p9
L370810L
sS'number'
p10
g2
sS'person_oid'
p11
L22L
sS'contact'
p12
L92L
sS'starttime'
p13
cdatetime
datetime
p14
(S'\x07\xd5\x02\x01\x10\x166\x00\x00\x00'
p15
tp16
Rp17
sS'duration'
p18
L96L
sS'endtime'
p19
g14
(S'\x07\xd5\x02\x01\x10\x18\x1e\x00\x00\x00'
p20
tp21
Rp22
sS'phonenumber_oid'
p23
L1923L
s.(dp0
S'status'
p1
S''
p2
sS'direction'
p3
S'Outgoing'
p4
sS'remote'
p5
g2
sS'description'
p6
S'Voice Call'
p7
sS'callid'
p8
L4203L
sS'oid'
p9
L370836L
sS'number'
p10
g2
sS'person_oid'
p11
L22L
sS'contact'
p12
L92L
sS'starttime'
p13
cdatetime
datetime
p14
(S'\x07\xd5\x02\x01\x10\x166\x00\x00\x00'
p15
tp16
Rp17
sS'duration'
p18
L96L
sS'endtime'
p19
g14
(S'\x07\xd5\x02\x01\x10\x18\x1e\x00\x00\x00'
p20
tp21
Rp22
sS'phonenumber_oid'
p23
L1923L
s.(dp0
S'status'
p1
S''
p2
sS'direction'
p3
S'Outgoing'
p4
sS'remote'
p5
g2
sS'description'
p6
S'Voice Call'
p7
sS'callid'
p8
L4206L
sS'oid'
p9
L370811L
sS'number'
p10
g2
sS'person_oid'
p11
L22L
sS'contact'
p12
L74L
sS'starttime'
p13
cdatetime
datetime
p14
(S'\x07\xd5\x02\x01\x10\x1e\x05\x00\x00\x00'
p15
tp16
Rp17
sS'duration'
p18
L13L
sS'endtime'
p19
g14
(S'\x07\xd5\x02\x01\x10\x1e\x12\x00\x00\x00'
p20
tp21
Rp22
sS'phonenumber_oid'
p23
L1894L
s.(dp0
S'status'
p1
S''
p2
sS'direction'
p3
S'Outgoing'
p4
sS'remote'
p5
g2
sS'description'
p6
S'Voice Call'
p7
sS'callid'
p8
L4206L
sS'oid'
p9
L370837L
sS'number'
p10
g2
sS'person_oid'
p11
L22L
sS'contact'
p12
L74L
sS'starttime'
p13
cdatetime
datetime
p14
(S'\x07\xd5\x02\x01\x10\x1e\x05\x00\x00\x00'
p15
tp16
Rp17
sS'duration'
p18
L13L
sS'endtime'
p19
g14
(S'\x07\xd5\x02\x01\x10\x1e\x12\x00\x00\x00'
p20
tp21
Rp22
sS'phonenumber_oid'
p23
L1894L
s.(dp0
S'status'
p1
S''
p2
sS'direction'
p3
S'Outgoing'
p4
sS'remote'
p5
g2
sS'description'
p6
S'Voice Call'
p7
sS'callid'
p8
L4207L
sS'oid'
p9
L370812L
sS'number'
p10
g2
sS'person_oid'
p11
L22L
sS'contact'
p12
L74L
sS'starttime'
p13
cdatetime
datetime
p14
(S'\x07\xd5\x02\x01\x11$\x01\x00\x00\x00'
p15
tp16
Rp17
sS'duration'
p18
L0L
sS'endtime'
p19
g14
(S'\x07\xd5\x02\x01\x11$\x01\x00\x00\x00'
p20
tp21
Rp22
sS'phonenumber_oid'
p23
L1894L
s.(dp0
S'status'
p1
S''
p2
sS'direction'
p3
S'Outgoing'
p4
sS'remote'
p5
g2
sS'description'
p6
S'Voice Call'
p7
sS'callid'
p8
L4207L
sS'oid'
p9
L370838L
sS'number'
p10
g2
sS'person_oid'
p11
L22L
sS'contact'
p12
L74L
sS'starttime'
p13
cdatetime
datetime
p14
(S'\x07\xd5\x02\x01\x11$\x01\x00\x00\x00'
p15
tp16
Rp17
sS'duration'
p18
L0L
sS'endtime'
p19
g14
(S'\x07\xd5\x02\x01\x11$\x01\x00\x00\x00'
p20
tp21
Rp22
sS'phonenumber_oid'
p23
L1894L
s.(dp0
S'status'
p1
S''
p2
sS'direction'
p3
S'Outgoing'
p4
sS'remote'
p5
g2
sS'description'
p6
S'Voice Call'
p7
sS'callid'
p8
L4208L
sS'oid'
p9
L370813L
sS'number'
p10
g2
sS'person_oid'
p11
L22L
sS'contact'
p12
L74L
sS'starttime'
p13
cdatetime
datetime
p14
(S'\x07\xd5\x02\x01\x11$%\x00\x00\x00'
p15
tp16
Rp17
sS'duration'
p18
L52L
sS'endtime'
p19
g14
(S'\x07\xd5\x02\x01\x11%\x1d\x00\x00\x00'
p20
tp21
Rp22
sS'phonenumber_oid'
p23
L1894L
s.(dp0
S'status'
p1
S''
p2
sS'direction'
p3
S'Outgoing'
p4
sS'remote'
p5
g2
sS'description'
p6
S'Voice Call'
p7
sS'callid'
p8
L4208L
sS'oid'
p9
L370839L
sS'number'
p10
g2
sS'person_oid'
p11
L22L
sS'contact'
p12
L74L
sS'starttime'
p13
cdatetime
datetime
p14
(S'\x07\xd5\x02\x01\x11$%\x00\x00\x00'
p15
tp16
Rp17
sS'duration'
p18
L52L
sS'endtime'
p19
g14
(S'\x07\xd5\x02\x01\x11%\x1d\x00\x00\x00'
p20
tp21
Rp22
sS'phonenumber_oid'
p23
L1894L
s.(dp0
S'status'
p1
S''
p2
sS'direction'
p3
S'Outgoing'
p4
sS'remote'
p5
g2
sS'description'
p6
S'Voice Call'
p7
sS'callid'
p8
L4215L
sS'oid'
p9
L370814L
sS'number'
p10
g2
sS'person_oid'
p11
L22L
sS'contact'
p12
L71L
sS'starttime'
p13
cdatetime
datetime
p14
(S'\x07\xd5\x02\x01\x16\x04\x12\x00\x00\x00'
p15
tp16
Rp17
sS'duration'
p18
L90L
sS'endtime'
p19
g14
(S'\x07\xd5\x02\x01\x16\x050\x00\x00\x00'
p20
tp21
Rp22
sS'phonenumber_oid'
p23
L1891L
s.(dp0
S'status'
p1
S''
p2
sS'direction'
p3
S'Outgoing'
p4
sS'remote'
p5
g2
sS'description'
p6
S'Voice Call'
p7
sS'callid'
p8
L4215L
sS'oid'
p9
L370840L
sS'number'
p10
g2
sS'person_oid'
p11
L22L
sS'contact'
p12
L71L
sS'starttime'
p13
cdatetime
datetime
p14
(S'\x07\xd5\x02\x01\x16\x04\x12\x00\x00\x00'
p15
tp16
Rp17
sS'duration'
p18
L90L
sS'endtime'
p19
g14
(S'\x07\xd5\x02\x01\x16\x050\x00\x00\x00'
p20
tp21
Rp22
sS'phonenumber_oid'
p23
L1891L
s.(dp0
S'status'
p1
S'Delivered'
p2
sS'direction'
p3
S'Incoming'
p4
sS'remote'
p5
S''
p6
sS'description'
p7
S'Short Message'
p8
sS'callid'
p9
L4216L
sS'oid'
p10
L370815L
sS'number'
p11
g6
sS'person_oid'
p12
L22L
sS'contact'
p13
L-1L
sS'starttime'
p14
cdatetime
datetime
p15
(S'\x07\xd5\x02\x01\x16\x11 \x00\x00\x00'
p16
tp17
Rp18
sS'duration'
p19
L0L
sS'endtime'
p20
g15
(S'\x07\xd5\x02\x01\x16\x11 \x00\x00\x00'
p21
tp22
Rp23
sS'phonenumber_oid'
p24
L1890L
s.(dp0
S'status'
p1
S'Delivered'
p2
sS'direction'
p3
S'Incoming'
p4
sS'remote'
p5
S''
p6
sS'description'
p7
S'Short Message'
p8
sS'callid'
p9
L4216L
sS'oid'
p10
L370841L
sS'number'
p11
g6
sS'person_oid'
p12
L22L
sS'contact'
p13
L-1L
sS'starttime'
p14
cdatetime
datetime
p15
(S'\x07\xd5\x02\x01\x16\x11 \x00\x00\x00'
p16
tp17
Rp18
sS'duration'
p19
L0L
sS'endtime'
p20
g15
(S'\x07\xd5\x02\x01\x16\x11 \x00\x00\x00'
p21
tp22
Rp23
sS'phonenumber_oid'
p24
L1890L
s.(dp0
S'status'
p1
S'Sent'
p2
sS'direction'
p3
S'Outgoing'
p4
sS'remote'
p5
S''
p6
sS'description'
p7
S'Short Message'
p8
sS'callid'
p9
L4217L
sS'oid'
p10
L370816L
sS'number'
p11
g6
sS'person_oid'
p12
L22L
sS'contact'
p13
L-1L
sS'starttime'
p14
cdatetime
datetime
p15
(S'\x07\xd5\x02\x01\x16\x12\x1b\x00\x00\x00'
p16
tp17
Rp18
sS'duration'
p19
L0L
sS'endtime'
p20
g15
(S'\x07\xd5\x02\x01\x16\x12\x1b\x00\x00\x00'
p21
tp22
Rp23
sS'phonenumber_oid'
p24
L1890L
s.(dp0
S'status'
p1
S'Sent'
p2
sS'direction'
p3
S'Outgoing'
p4
sS'remote'
p5
S''
p6
sS'description'
p7
S'Short Message'
p8
sS'callid'
p9
L4217L
sS'oid'
p10
L370842L
sS'number'
p11
g6
sS'person_oid'
p12
L22L
sS'contact'
p13
L-1L
sS'starttime'
p14
cdatetime
datetime
p15
(S'\x07\xd5\x02\x01\x16\x12\x1b\x00\x00\x00'
p16
tp17
Rp18
sS'duration'
p19
L0L
sS'endtime'
p20
g15
(S'\x07\xd5\x02\x01\x16\x12\x1b\x00\x00\x00'
p21
tp22
Rp23
sS'phonenumber_oid'
p24
L1890L
s.(dp0
S'status'
p1
S'Delivered'
p2
sS'direction'
p3
S'Incoming'
p4
sS'remote'
p5
S''
p6
sS'description'
p7
S'Short Message'
p8
sS'callid'
p9
L4218L
sS'oid'
p10
L370817L
sS'number'
p11
g6
sS'person_oid'
p12
L22L
sS'contact'
p13
L-1L
sS'starttime'
p14
cdatetime
datetime
p15
(S'\x07\xd5\x02\x01\x16\x1a\x05\x00\x00\x00'
p16
tp17
Rp18
sS'duration'
p19
L0L
sS'endtime'
p20
g15
(S'\x07\xd5\x02\x01\x16\x1a\x05\x00\x00\x00'
p21
tp22
Rp23
sS'phonenumber_oid'
p24
L1890L
s.(dp0
S'status'
p1
S'Delivered'
p2
sS'direction'
p3
S'Incoming'
p4
sS'remote'
p5
S''
p6
sS'description'
p7
S'Short Message'
p8
sS'callid'
p9
L4218L
sS'oid'
p10
L370843L
sS'number'
p11
g6
sS'person_oid'
p12
L22L
sS'contact'
p13
L-1L
sS'starttime'
p14
cdatetime
datetime
p15
(S'\x07\xd5\x02\x01\x16\x1a\x05\x00\x00\x00'
p16
tp17
Rp18
sS'duration'
p19
L0L
sS'endtime'
p20
g15
(S'\x07\xd5\x02\x01\x16\x1a\x05\x00\x00\x00'
p21
tp22
Rp23
sS'phonenumber_oid'
p24
L1890L
s.(dp0
S'status'
p1
S'Sent'
p2
sS'direction'
p3
S'Outgoing'
p4
sS'remote'
p5
S''
p6
sS'description'
p7
S'Short Message'
p8
sS'callid'
p9
L4219L
sS'oid'
p10
L370818L
sS'number'
p11
g6
sS'person_oid'
p12
L22L
sS'contact'
p13
L-1L
sS'starttime'
p14
cdatetime
datetime
p15
(S'\x07\xd5\x02\x01\x16\x1b\x03\x00\x00\x00'
p16
tp17
Rp18
sS'duration'
p19
L0L
sS'endtime'
p20
g15
(S'\x07\xd5\x02\x01\x16\x1b\x03\x00\x00\x00'
p21
tp22
Rp23
sS'phonenumber_oid'
p24
L1890L
s.(dp0
S'status'
p1
S'Sent'
p2
sS'direction'
p3
S'Outgoing'
p4
sS'remote'
p5
S''
p6
sS'description'
p7
S'Short Message'
p8
sS'callid'
p9
L4219L
sS'oid'
p10
L370844L
sS'number'
p11
g6
sS'person_oid'
p12
L22L
sS'contact'
p13
L-1L
sS'starttime'
p14
cdatetime
datetime
p15
(S'\x07\xd5\x02\x01\x16\x1b\x03\x00\x00\x00'
p16
tp17
Rp18
sS'duration'
p19
L0L
sS'endtime'
p20
g15
(S'\x07\xd5\x02\x01\x16\x1b\x03\x00\x00\x00'
p21
tp22
Rp23
sS'phonenumber_oid'
p24
L1890L
s.(dp0
S'status'
p1
S'Delivered'
p2
sS'direction'
p3
S'Incoming'
p4
sS'remote'
p5
S''
p6
sS'description'
p7
S'Short Message'
p8
sS'callid'
p9
L4220L
sS'oid'
p10
L370819L
sS'number'
p11
g6
sS'person_oid'
p12
L22L
sS'contact'
p13
L-1L
sS'starttime'
p14
cdatetime
datetime
p15
(S'\x07\xd5\x02\x01\x167\x00\x00\x00\x00'
p16
tp17
Rp18
sS'duration'
p19
L0L
sS'endtime'
p20
g15
(S'\x07\xd5\x02\x01\x167\x00\x00\x00\x00'
p21
tp22
Rp23
sS'phonenumber_oid'
p24
L1890L
s.(dp0
S'status'
p1
S'Delivered'
p2
sS'direction'
p3
S'Incoming'
p4
sS'remote'
p5
S''
p6
sS'description'
p7
S'Short Message'
p8
sS'callid'
p9
L4220L
sS'oid'
p10
L370845L
sS'number'
p11
g6
sS'person_oid'
p12
L22L
sS'contact'
p13
L-1L
sS'starttime'
p14
cdatetime
datetime
p15
(S'\x07\xd5\x02\x01\x167\x00\x00\x00\x00'
p16
tp17
Rp18
sS'duration'
p19
L0L
sS'endtime'
p20
g15
(S'\x07\xd5\x02\x01\x167\x00\x00\x00\x00'
p21
tp22
Rp23
sS'phonenumber_oid'
p24
L1890L
s.(dp0
S'status'
p1
S'Delivered'
p2
sS'direction'
p3
S'Incoming'
p4
sS'remote'
p5
S''
p6
sS'description'
p7
S'Short Message'
p8
sS'callid'
p9
L4221L
sS'oid'
p10
L370820L
sS'number'
p11
g6
sS'person_oid'
p12
L22L
sS'contact'
p13
L-1L
sS'starttime'
p14
cdatetime
datetime
p15
(S'\x07\xd5\x02\x01\x167\x05\x00\x00\x00'
p16
tp17
Rp18
sS'duration'
p19
L0L
sS'endtime'
p20
g15
(S'\x07\xd5\x02\x01\x167\x05\x00\x00\x00'
p21
tp22
Rp23
sS'phonenumber_oid'
p24
L1890L
s.(dp0
S'status'
p1
S'Delivered'
p2
sS'direction'
p3
S'Incoming'
p4
sS'remote'
p5
S''
p6
sS'description'
p7
S'Short Message'
p8
sS'callid'
p9
L4221L
sS'oid'
p10
L370846L
sS'number'
p11
g6
sS'person_oid'
p12
L22L
sS'contact'
p13
L-1L
sS'starttime'
p14
cdatetime
datetime
p15
(S'\x07\xd5\x02\x01\x167\x05\x00\x00\x00'
p16
tp17
Rp18
sS'duration'
p19
L0L
sS'endtime'
p20
g15
(S'\x07\xd5\x02\x01\x167\x05\x00\x00\x00'
p21
tp22
Rp23
sS'phonenumber_oid'
p24
L1890L
s.(dp0
S'status'
p1
S'Sent'
p2
sS'direction'
p3
S'Outgoing'
p4
sS'remote'
p5
S''
p6
sS'description'
p7
S'Short Message'
p8
sS'callid'
p9
L4223L
sS'oid'
p10
L370821L
sS'number'
p11
g6
sS'person_oid'
p12
L22L
sS'contact'
p13
L-1L
sS'starttime'
p14
cdatetime
datetime
p15
(S'\x07\xd5\x02\x01\x167\x1f\x00\x00\x00'
p16
tp17
Rp18
sS'duration'
p19
L0L
sS'endtime'
p20
g15
(S'\x07\xd5\x02\x01\x167\x1f\x00\x00\x00'
p21
tp22
Rp23
sS'phonenumber_oid'
p24
L1890L
s.(dp0
S'status'
p1
S'Sent'
p2
sS'direction'
p3
S'Outgoing'
p4
sS'remote'
p5
S''
p6
sS'description'
p7
S'Short Message'
p8
sS'callid'
p9
L4223L
sS'oid'
p10
L370847L
sS'number'
p11
g6
sS'person_oid'
p12
L22L
sS'contact'
p13
L-1L
sS'starttime'
p14
cdatetime
datetime
p15
(S'\x07\xd5\x02\x01\x167\x1f\x00\x00\x00'
p16
tp17
Rp18
sS'duration'
p19
L0L
sS'endtime'
p20
g15
(S'\x07\xd5\x02\x01\x167\x1f\x00\x00\x00'
p21
tp22
Rp23
sS'phonenumber_oid'
p24
L1890L
s.(dp0
S'status'
p1
S''
p2
sS'direction'
p3
S'Missed Call'
p4
sS'remote'
p5
g2
sS'description'
p6
S'Voice Call'
p7
sS'callid'
p8
L4224L
sS'oid'
p9
L370822L
sS'number'
p10
g2
sS'person_oid'
p11
L22L
sS'contact'
p12
L71L
sS'starttime'
p13
cdatetime
datetime
p14
(S'\x07\xd5\x02\x01\x17\x05\t\x00\x00\x00'
p15
tp16
Rp17
sS'duration'
p18
L0L
sS'endtime'
p19
g14
(S'\x07\xd5\x02\x01\x17\x05\t\x00\x00\x00'
p20
tp21
Rp22
sS'phonenumber_oid'
p23
L1891L
s.(dp0
S'status'
p1
S''
p2
sS'direction'
p3
S'Missed Call'
p4
sS'remote'
p5
g2
sS'description'
p6
S'Voice Call'
p7
sS'callid'
p8
L4224L
sS'oid'
p9
L370848L
sS'number'
p10
g2
sS'person_oid'
p11
L22L
sS'contact'
p12
L71L
sS'starttime'
p13
cdatetime
datetime
p14
(S'\x07\xd5\x02\x01\x17\x05\t\x00\x00\x00'
p15
tp16
Rp17
sS'duration'
p18
L0L
sS'endtime'
p19
g14
(S'\x07\xd5\x02\x01\x17\x05\t\x00\x00\x00'
p20
tp21
Rp22
sS'phonenumber_oid'
p23
L1891L
s.(dp0
S'status'
p1
S''
p2
sS'direction'
p3
S'Outgoing'
p4
sS'remote'
p5
g2
sS'description'
p6
S'Voice Call'
p7
sS'callid'
p8
L4226L
sS'oid'
p9
L370823L
sS'number'
p10
g2
sS'person_oid'
p11
L22L
sS'contact'
p12
L92L
sS'starttime'
p13
cdatetime
datetime
p14
(S'\x07\xd5\x02\x01\x17\x06$\x00\x00\x00'
p15
tp16
Rp17
sS'duration'
p18
L71L
sS'endtime'
p19
g14
(S'\x07\xd5\x02\x01\x17\x07/\x00\x00\x00'
p20
tp21
Rp22
sS'phonenumber_oid'
p23
L1923L
s.(dp0
S'status'
p1
S''
p2
sS'direction'
p3
S'Outgoing'
p4
sS'remote'
p5
g2
sS'description'
p6
S'Voice Call'
p7
sS'callid'
p8
L4226L
sS'oid'
p9
L370849L
sS'number'
p10
g2
sS'person_oid'
p11
L22L
sS'contact'
p12
L92L
sS'starttime'
p13
cdatetime
datetime
p14
(S'\x07\xd5\x02\x01\x17\x06$\x00\x00\x00'
p15
tp16
Rp17
sS'duration'
p18
L71L
sS'endtime'
p19
g14
(S'\x07\xd5\x02\x01\x17\x07/\x00\x00\x00'
p20
tp21
Rp22
sS'phonenumber_oid'
p23
L1923L
s.(dp0
S'status'
p1
S'Delivered'
p2
sS'direction'
p3
S'Incoming'
p4
sS'remote'
p5
S''
p6
sS'description'
p7
S'Short Message'
p8
sS'callid'
p9
L4228L
sS'oid'
p10
L370824L
sS'number'
p11
g6
sS'person_oid'
p12
L22L
sS'contact'
p13
L-1L
sS'starttime'
p14
cdatetime
datetime
p15
(S'\x07\xd5\x02\x01\x17\r2\x00\x00\x00'
p16
tp17
Rp18
sS'duration'
p19
L0L
sS'endtime'
p20
g15
(S'\x07\xd5\x02\x01\x17\r2\x00\x00\x00'
p21
tp22
Rp23
sS'phonenumber_oid'
p24
L1890L
s.(dp0
S'status'
p1
S'Delivered'
p2
sS'direction'
p3
S'Incoming'
p4
sS'remote'
p5
S''
p6
sS'description'
p7
S'Short Message'
p8
sS'callid'
p9
L4228L
sS'oid'
p10
L370850L
sS'number'
p11
g6
sS'person_oid'
p12
L22L
sS'contact'
p13
L-1L
sS'starttime'
p14
cdatetime
datetime
p15
(S'\x07\xd5\x02\x01\x17\r2\x00\x00\x00'
p16
tp17
Rp18
sS'duration'
p19
L0L
sS'endtime'
p20
g15
(S'\x07\xd5\x02\x01\x17\r2\x00\x00\x00'
p21
tp22
Rp23
sS'phonenumber_oid'
p24
L1890L
s.(dp0
S'status'
p1
S''
p2
sS'direction'
p3
S'Incoming'
p4
sS'remote'
p5
g2
sS'description'
p6
S'Voice Call'
p7
sS'callid'
p8
L4230L
sS'oid'
p9
L370825L
sS'number'
p10
g2
sS'person_oid'
p11
L22L
sS'contact'
p12
L33L
sS'starttime'
p13
cdatetime
datetime
p14
(S'\x07\xd5\x02\x01\x177*\x00\x00\x00'
p15
tp16
Rp17
sS'duration'
p18
L8L
sS'endtime'
p19
g14
(S'\x07\xd5\x02\x01\x1772\x00\x00\x00'
p20
tp21
Rp22
sS'phonenumber_oid'
p23
L1906L
s.(dp0
S'status'
p1
S''
p2
sS'direction'
p3
S'Incoming'
p4
sS'remote'
p5
g2
sS'description'
p6
S'Voice Call'
p7
sS'callid'
p8
L4230L
sS'oid'
p9
L370851L
sS'number'
p10
g2
sS'person_oid'
p11
L22L
sS'contact'
p12
L33L
sS'starttime'
p13
cdatetime
datetime
p14
(S'\x07\xd5\x02\x01\x177*\x00\x00\x00'
p15
tp16
Rp17
sS'duration'
p18
L8L
sS'endtime'
p19
g14
(S'\x07\xd5\x02\x01\x1772\x00\x00\x00'
p20
tp21
Rp22
sS'phonenumber_oid'
p23
L1906L
s.(dp0
S'status'
p1
S''
p2
sS'direction'
p3
S'Incoming'
p4
sS'remote'
p5
g2
sS'description'
p6
S'Voice Call'
p7
sS'callid'
p8
L4232L
sS'oid'
p9
L370826L
sS'number'
p10
g2
sS'person_oid'
p11
L22L
sS'contact'
p12
L33L
sS'starttime'
p13
cdatetime
datetime
p14
(S'\x07\xd5\x02\x01\x178\x07\x00\x00\x00'
p15
tp16
Rp17
sS'duration'
p18
L24L
sS'endtime'
p19
g14
(S'\x07\xd5\x02\x01\x178\x1f\x00\x00\x00'
p20
tp21
Rp22
sS'phonenumber_oid'
p23
L1906L
s.(dp0
S'status'
p1
S''
p2
sS'direction'
p3
S'Incoming'
p4
sS'remote'
p5
g2
sS'description'
p6
S'Voice Call'
p7
sS'callid'
p8
L4232L
sS'oid'
p9
L370852L
sS'number'
p10
g2
sS'person_oid'
p11
L22L
sS'contact'
p12
L33L
sS'starttime'
p13
cdatetime
datetime
p14
(S'\x07\xd5\x02\x01\x178\x07\x00\x00\x00'
p15
tp16
Rp17
sS'duration'
p18
L24L
sS'endtime'
p19
g14
(S'\x07\xd5\x02\x01\x178\x1f\x00\x00\x00'
p20
tp21
Rp22
sS'phonenumber_oid'
p23
L1906L
s.(dp0
S'status'
p1
S'Sent'
p2
sS'direction'
p3
S'Outgoing'
p4
sS'remote'
p5
S''
p6
sS'description'
p7
S'Short Message'
p8
sS'callid'
p9
L4233L
sS'oid'
p10
L370827L
sS'number'
p11
g6
sS'person_oid'
p12
L22L
sS'contact'
p13
L-1L
sS'starttime'
p14
cdatetime
datetime
p15
(S'\x07\xd5\x02\x02\x00\x08\x1d\x00\x00\x00'
p16
tp17
Rp18
sS'duration'
p19
L0L
sS'endtime'
p20
g15
(S'\x07\xd5\x02\x02\x00\x08\x1d\x00\x00\x00'
p21
tp22
Rp23
sS'phonenumber_oid'
p24
L1890L
s.(dp0
S'status'
p1
S'Sent'
p2
sS'direction'
p3
S'Outgoing'
p4
sS'remote'
p5
S''
p6
sS'description'
p7
S'Short Message'
p8
sS'callid'
p9
L4233L
sS'oid'
p10
L370853L
sS'number'
p11
g6
sS'person_oid'
p12
L22L
sS'contact'
p13
L-1L
sS'starttime'
p14
cdatetime
datetime
p15
(S'\x07\xd5\x02\x02\x00\x08\x1d\x00\x00\x00'
p16
tp17
Rp18
sS'duration'
p19
L0L
sS'endtime'
p20
g15
(S'\x07\xd5\x02\x02\x00\x08\x1d\x00\x00\x00'
p21
tp22
Rp23
sS'phonenumber_oid'
p24
L1890L
s.(dp0
S'status'
p1
S''
p2
sS'direction'
p3
S'Missed Call'
p4
sS'remote'
p5
g2
sS'description'
p6
S'Voice Call'
p7
sS'callid'
p8
L4236L
sS'oid'
p9
L370828L
sS'number'
p10
g2
sS'person_oid'
p11
L22L
sS'contact'
p12
L3L
sS'starttime'
p13
cdatetime
datetime
p14
(S'\x07\xd5\x02\x02\x00,*\x00\x00\x00'
p15
tp16
Rp17
sS'duration'
p18
L0L
sS'endtime'
p19
g14
(S'\x07\xd5\x02\x02\x00,*\x00\x00\x00'
p20
tp21
Rp22
sS'phonenumber_oid'
p23
L1947L
s.(dp0
S'status'
p1
S''
p2
sS'direction'
p3
S'Missed Call'
p4
sS'remote'
p5
g2
sS'description'
p6
S'Voice Call'
p7
sS'callid'
p8
L4236L
sS'oid'
p9
L370854L
sS'number'
p10
g2
sS'person_oid'
p11
L22L
sS'contact'
p12
L3L
sS'starttime'
p13
cdatetime
datetime
p14
(S'\x07\xd5\x02\x02\x00,*\x00\x00\x00'
p15
tp16
Rp17
sS'duration'
p18
L0L
sS'endtime'
p19
g14
(S'\x07\xd5\x02\x02\x00,*\x00\x00\x00'
p20
tp21
Rp22
sS'phonenumber_oid'
p23
L1947L
s.(dp0
S'status'
p1
S''
p2
sS'direction'
p3
S'Outgoing'
p4
sS'remote'
p5
g2
sS'description'
p6
S'Voice Call'
p7
sS'callid'
p8
L4238L
sS'oid'
p9
L370829L
sS'number'
p10
g2
sS'person_oid'
p11
L22L
sS'contact'
p12
L92L
sS'starttime'
p13
cdatetime
datetime
p14
(S'\x07\xd5\x02\x02\x00.\x05\x00\x00\x00'
p15
tp16
Rp17
sS'duration'
p18
L88L
sS'endtime'
p19
g14
(S'\x07\xd5\x02\x02\x00/!\x00\x00\x00'
p20
tp21
Rp22
sS'phonenumber_oid'
p23
L1923L
s.(dp0
S'status'
p1
S''
p2
sS'direction'
p3
S'Outgoing'
p4
sS'remote'
p5
g2
sS'description'
p6
S'Voice Call'
p7
sS'callid'
p8
L4238L
sS'oid'
p9
L370855L
sS'number'
p10
g2
sS'person_oid'
p11
L22L
sS'contact'
p12
L92L
sS'starttime'
p13
cdatetime
datetime
p14
(S'\x07\xd5\x02\x02\x00.\x05\x00\x00\x00'
p15
tp16
Rp17
sS'duration'
p18
L88L
sS'endtime'
p19
g14
(S'\x07\xd5\x02\x02\x00/!\x00\x00\x00'
p20
tp21
Rp22
sS'phonenumber_oid'
p23
L1923L
s.(dp0
S'status'
p1
S''
p2
sS'direction'
p3
S'Incoming'
p4
sS'remote'
p5
g2
sS'description'
p6
S'Voice Call'
p7
sS'callid'
p8
L4241L
sS'oid'
p9
L370830L
sS'number'
p10
g2
sS'person_oid'
p11
L22L
sS'contact'
p12
L71L
sS'starttime'
p13
cdatetime
datetime
p14
(S'\x07\xd5\x02\x02\x0078\x00\x00\x00'
p15
tp16
Rp17
sS'duration'
p18
L0L
sS'endtime'
p19
g14
(S'\x07\xd5\x02\x02\x0078\x00\x00\x00'
p20
tp21
Rp22
sS'phonenumber_oid'
p23
L1891L
s.(dp0
S'status'
p1
S''
p2
sS'direction'
p3
S'Incoming'
p4
sS'remote'
p5
g2
sS'description'
p6
S'Voice Call'
p7
sS'callid'
p8
L4241L
sS'oid'
p9
L370856L
sS'number'
p10
g2
sS'person_oid'
p11
L22L
sS'contact'
p12
L71L
sS'starttime'
p13
cdatetime
datetime
p14
(S'\x07\xd5\x02\x02\x0078\x00\x00\x00'
p15
tp16
Rp17
sS'duration'
p18
L0L
sS'endtime'
p19
g14
(S'\x07\xd5\x02\x02\x0078\x00\x00\x00'
p20
tp21
Rp22
sS'phonenumber_oid'
p23
L1891L
s.(dp0
S'status'
p1
S''
p2
sS'direction'
p3
S'Outgoing'
p4
sS'remote'
p5
g2
sS'description'
p6
S'Voice Call'
p7
sS'callid'
p8
L4242L
sS'oid'
p9
L370831L
sS'number'
p10
g2
sS'person_oid'
p11
L22L
sS'contact'
p12
L71L
sS'starttime'
p13
cdatetime
datetime
p14
(S'\x07\xd5\x02\x02\x020\x16\x00\x00\x00'
p15
tp16
Rp17
sS'duration'
p18
L79L
sS'endtime'
p19
g14
(S'\x07\xd5\x02\x02\x021)\x00\x00\x00'
p20
tp21
Rp22
sS'phonenumber_oid'
p23
L1891L
s.(dp0
S'status'
p1
S''
p2
sS'direction'
p3
S'Outgoing'
p4
sS'remote'
p5
g2
sS'description'
p6
S'Voice Call'
p7
sS'callid'
p8
L4242L
sS'oid'
p9
L370857L
sS'number'
p10
g2
sS'person_oid'
p11
L22L
sS'contact'
p12
L71L
sS'starttime'
p13
cdatetime
datetime
p14
(S'\x07\xd5\x02\x02\x020\x16\x00\x00\x00'
p15
tp16
Rp17
sS'duration'
p18
L79L
sS'endtime'
p19
g14
(S'\x07\xd5\x02\x02\x021)\x00\x00\x00'
p20
tp21
Rp22
sS'phonenumber_oid'
p23
L1891L
s.(dp0
S'status'
p1
S''
p2
sS'direction'
p3
S'Outgoing'
p4
sS'remote'
p5
g2
sS'description'
p6
S'Voice Call'
p7
sS'callid'
p8
L4243L
sS'oid'
p9
L370832L
sS'number'
p10
g2
sS'person_oid'
p11
L22L
sS'contact'
p12
L37L
sS'starttime'
p13
cdatetime
datetime
p14
(S'\x07\xd5\x02\x02\x022\x15\x00\x00\x00'
p15
tp16
Rp17
sS'duration'
p18
L37L
sS'endtime'
p19
g14
(S'\x07\xd5\x02\x02\x022:\x00\x00\x00'
p20
tp21
Rp22
sS'phonenumber_oid'
p23
L1920L
s.(dp0
S'status'
p1
S''
p2
sS'direction'
p3
S'Outgoing'
p4
sS'remote'
p5
g2
sS'description'
p6
S'Voice Call'
p7
sS'callid'
p8
L4243L
sS'oid'
p9
L370858L
sS'number'
p10
g2
sS'person_oid'
p11
L22L
sS'contact'
p12
L37L
sS'starttime'
p13
cdatetime
datetime
p14
(S'\x07\xd5\x02\x02\x022\x15\x00\x00\x00'
p15
tp16
Rp17
sS'duration'
p18
L37L
sS'endtime'
p19
g14
(S'\x07\xd5\x02\x02\x022:\x00\x00\x00'
p20
tp21
Rp22
sS'phonenumber_oid'
p23
L1920L
s.(dp0
S'status'
p1
S'Delivered'
p2
sS'direction'
p3
S'Incoming'
p4
sS'remote'
p5
S''
p6
sS'description'
p7
S'Short Message'
p8
sS'callid'
p9
L4244L
sS'oid'
p10
L370859L
sS'number'
p11
g6
sS'person_oid'
p12
L22L
sS'contact'
p13
L-1L
sS'starttime'
p14
cdatetime
datetime
p15
(S'\x07\xd5\x02\x02\x10\x06$\x00\x00\x00'
p16
tp17
Rp18
sS'duration'
p19
L0L
sS'endtime'
p20
g15
(S'\x07\xd5\x02\x02\x10\x06$\x00\x00\x00'
p21
tp22
Rp23
sS'phonenumber_oid'
p24
L1920L
s.(dp0
S'status'
p1
S'Delivered'
p2
sS'direction'
p3
S'Incoming'
p4
sS'remote'
p5
S''
p6
sS'description'
p7
S'Short Message'
p8
sS'callid'
p9
L4244L
sS'oid'
p10
L370890L
sS'number'
p11
g6
sS'person_oid'
p12
L22L
sS'contact'
p13
L-1L
sS'starttime'
p14
cdatetime
datetime
p15
(S'\x07\xd5\x02\x02\x10\x06$\x00\x00\x00'
p16
tp17
Rp18
sS'duration'
p19
L0L
sS'endtime'
p20
g15
(S'\x07\xd5\x02\x02\x10\x06$\x00\x00\x00'
p21
tp22
Rp23
sS'phonenumber_oid'
p24
L1920L
s.(dp0
S'status'
p1
S''
p2
sS'direction'
p3
S'Incoming'
p4
sS'remote'
p5
g2
sS'description'
p6
S'Voice Call'
p7
sS'callid'
p8
L4247L
sS'oid'
p9
L370860L
sS'number'
p10
g2
sS'person_oid'
p11
L22L
sS'contact'
p12
L71L
sS'starttime'
p13
cdatetime
datetime
p14
(S'\x07\xd5\x02\x02\x10#\x00\x00\x00\x00'
p15
tp16
Rp17
sS'duration'
p18
L42L
sS'endtime'
p19
g14
(S'\x07\xd5\x02\x02\x10#*\x00\x00\x00'
p20
tp21
Rp22
sS'phonenumber_oid'
p23
L1891L
s.(dp0
S'status'
p1
S''
p2
sS'direction'
p3
S'Incoming'
p4
sS'remote'
p5
g2
sS'description'
p6
S'Voice Call'
p7
sS'callid'
p8
L4247L
sS'oid'
p9
L370891L
sS'number'
p10
g2
sS'person_oid'
p11
L22L
sS'contact'
p12
L71L
sS'starttime'
p13
cdatetime
datetime
p14
(S'\x07\xd5\x02\x02\x10#\x00\x00\x00\x00'
p15
tp16
Rp17
sS'duration'
p18
L42L
sS'endtime'
p19
g14
(S'\x07\xd5\x02\x02\x10#*\x00\x00\x00'
p20
tp21
Rp22
sS'phonenumber_oid'
p23
L1891L
s.(dp0
S'status'
p1
S'Sent'
p2
sS'direction'
p3
S'Outgoing'
p4
sS'remote'
p5
S''
p6
sS'description'
p7
S'Short Message'
p8
sS'callid'
p9
L4248L
sS'oid'
p10
L370861L
sS'number'
p11
g6
sS'person_oid'
p12
L22L
sS'contact'
p13
L-1L
sS'starttime'
p14
cdatetime
datetime
p15
(S'\x07\xd5\x02\x02\x106:\x00\x00\x00'
p16
tp17
Rp18
sS'duration'
p19
L0L
sS'endtime'
p20
g15
(S'\x07\xd5\x02\x02\x106:\x00\x00\x00'
p21
tp22
Rp23
sS'phonenumber_oid'
p24
L1920L
s.(dp0
S'status'
p1
S'Sent'
p2
sS'direction'
p3
S'Outgoing'
p4
sS'remote'
p5
S''
p6
sS'description'
p7
S'Short Message'
p8
sS'callid'
p9
L4248L
sS'oid'
p10
L370892L
sS'number'
p11
g6
sS'person_oid'
p12
L22L
sS'contact'
p13
L-1L
sS'starttime'
p14
cdatetime
datetime
p15
(S'\x07\xd5\x02\x02\x106:\x00\x00\x00'
p16
tp17
Rp18
sS'duration'
p19
L0L
sS'endtime'
p20
g15
(S'\x07\xd5\x02\x02\x106:\x00\x00\x00'
p21
tp22
Rp23
sS'phonenumber_oid'
p24
L1920L
s.(dp0
S'status'
p1
S'Sent'
p2
sS'direction'
p3
S'Outgoing'
p4
sS'remote'
p5
S''
p6
sS'description'
p7
S'Short Message'
p8
sS'callid'
p9
L4249L
sS'oid'
p10
L370862L
sS'number'
p11
g6
sS'person_oid'
p12
L22L
sS'contact'
p13
L-1L
sS'starttime'
p14
cdatetime
datetime
p15
(S'\x07\xd5\x02\x02\x11\x05!\x00\x00\x00'
p16
tp17
Rp18
sS'duration'
p19
L0L
sS'endtime'
p20
g15
(S'\x07\xd5\x02\x02\x11\x05!\x00\x00\x00'
p21
tp22
Rp23
sS'phonenumber_oid'
p24
L1891L
s.(dp0
S'status'
p1
S'Sent'
p2
sS'direction'
p3
S'Outgoing'
p4
sS'remote'
p5
S''
p6
sS'description'
p7
S'Short Message'
p8
sS'callid'
p9
L4249L
sS'oid'
p10
L370893L
sS'number'
p11
g6
sS'person_oid'
p12
L22L
sS'contact'
p13
L-1L
sS'starttime'
p14
cdatetime
datetime
p15
(S'\x07\xd5\x02\x02\x11\x05!\x00\x00\x00'
p16
tp17
Rp18
sS'duration'
p19
L0L
sS'endtime'
p20
g15
(S'\x07\xd5\x02\x02\x11\x05!\x00\x00\x00'
p21
tp22
Rp23
sS'phonenumber_oid'
p24
L1891L
s.(dp0
S'status'
p1
S'Delivered'
p2
sS'direction'
p3
S'Incoming'
p4
sS'remote'
p5
S''
p6
sS'description'
p7
S'Short Message'
p8
sS'callid'
p9
L4250L
sS'oid'
p10
L370863L
sS'number'
p11
g6
sS'person_oid'
p12
L22L
sS'contact'
p13
L-1L
sS'starttime'
p14
cdatetime
datetime
p15
(S'\x07\xd5\x02\x02\x11\x06"\x00\x00\x00'
p16
tp17
Rp18
sS'duration'
p19
L0L
sS'endtime'
p20
g15
(S'\x07\xd5\x02\x02\x11\x06"\x00\x00\x00'
p21
tp22
Rp23
sS'phonenumber_oid'
p24
L1891L
s.(dp0
S'status'
p1
S'Delivered'
p2
sS'direction'
p3
S'Incoming'
p4
sS'remote'
p5
S''
p6
sS'description'
p7
S'Short Message'
p8
sS'callid'
p9
L4250L
sS'oid'
p10
L370894L
sS'number'
p11
g6
sS'person_oid'
p12
L22L
sS'contact'
p13
L-1L
sS'starttime'
p14
cdatetime
datetime
p15
(S'\x07\xd5\x02\x02\x11\x06"\x00\x00\x00'
p16
tp17
Rp18
sS'duration'
p19
L0L
sS'endtime'
p20
g15
(S'\x07\xd5\x02\x02\x11\x06"\x00\x00\x00'
p21
tp22
Rp23
sS'phonenumber_oid'
p24
L1891L
s.(dp0
S'status'
p1
S''
p2
sS'direction'
p3
S'Incoming'
p4
sS'remote'
p5
g2
sS'description'
p6
S'Voice Call'
p7
sS'callid'
p8
L4252L
sS'oid'
p9
L370864L
sS'number'
p10
g2
sS'person_oid'
p11
L22L
sS'contact'
p12
L71L
sS'starttime'
p13
cdatetime
datetime
p14
(S'\x07\xd5\x02\x02\x11\x0b#\x00\x00\x00'
p15
tp16
Rp17
sS'duration'
p18
L4L
sS'endtime'
p19
g14
(S"\x07\xd5\x02\x02\x11\x0b'\x00\x00\x00"
p20
tp21
Rp22
sS'phonenumber_oid'
p23
L1891L
s.(dp0
S'status'
p1
S''
p2
sS'direction'
p3
S'Incoming'
p4
sS'remote'
p5
g2
sS'description'
p6
S'Voice Call'
p7
sS'callid'
p8
L4252L
sS'oid'
p9
L370895L
sS'number'
p10
g2
sS'person_oid'
p11
L22L
sS'contact'
p12
L71L
sS'starttime'
p13
cdatetime
datetime
p14
(S'\x07\xd5\x02\x02\x11\x0b#\x00\x00\x00'
p15
tp16
Rp17
sS'duration'
p18
L4L
sS'endtime'
p19
g14
(S"\x07\xd5\x02\x02\x11\x0b'\x00\x00\x00"
p20
tp21
Rp22
sS'phonenumber_oid'
p23
L1891L
s.(dp0
S'status'
p1
S''
p2
sS'direction'
p3
S'Outgoing'
p4
sS'remote'
p5
g2
sS'description'
p6
S'Voice Call'
p7
sS'callid'
p8
L4253L
sS'oid'
p9
L370865L
sS'number'
p10
g2
sS'person_oid'
p11
L22L
sS'contact'
p12
L111L
sS'starttime'
p13
cdatetime
datetime
p14
(S'\x07\xd5\x02\x02\x112\x05\x00\x00\x00'
p15
tp16
Rp17
sS'duration'
p18
L0L
sS'endtime'
p19
g14
(S'\x07\xd5\x02\x02\x112\x05\x00\x00\x00'
p20
tp21
Rp22
sS'phonenumber_oid'
p23
L1955L
s.(dp0
S'status'
p1
S''
p2
sS'direction'
p3
S'Outgoing'
p4
sS'remote'
p5
g2
sS'description'
p6
S'Voice Call'
p7
sS'callid'
p8
L4253L
sS'oid'
p9
L370896L
sS'number'
p10
g2
sS'person_oid'
p11
L22L
sS'contact'
p12
L111L
sS'starttime'
p13
cdatetime
datetime
p14
(S'\x07\xd5\x02\x02\x112\x05\x00\x00\x00'
p15
tp16
Rp17
sS'duration'
p18
L0L
sS'endtime'
p19
g14
(S'\x07\xd5\x02\x02\x112\x05\x00\x00\x00'
p20
tp21
Rp22
sS'phonenumber_oid'
p23
L1955L
s.(dp0
S'status'
p1
S''
p2
sS'direction'
p3
S'Missed Call'
p4
sS'remote'
p5
g2
sS'description'
p6
S'Voice Call'
p7
sS'callid'
p8
L4262L
sS'oid'
p9
L370866L
sS'number'
p10
g2
sS'person_oid'
p11
L22L
sS'contact'
p12
L71L
sS'starttime'
p13
cdatetime
datetime
p14
(S'\x07\xd5\x02\x02\x14,1\x00\x00\x00'
p15
tp16
Rp17
sS'duration'
p18
L0L
sS'endtime'
p19
g14
(S'\x07\xd5\x02\x02\x14,1\x00\x00\x00'
p20
tp21
Rp22
sS'phonenumber_oid'
p23
L1891L
s.(dp0
S'status'
p1
S''
p2
sS'direction'
p3
S'Missed Call'
p4
sS'remote'
p5
g2
sS'description'
p6
S'Voice Call'
p7
sS'callid'
p8
L4262L
sS'oid'
p9
L370897L
sS'number'
p10
g2
sS'person_oid'
p11
L22L
sS'contact'
p12
L71L
sS'starttime'
p13
cdatetime
datetime
p14
(S'\x07\xd5\x02\x02\x14,1\x00\x00\x00'
p15
tp16
Rp17
sS'duration'
p18
L0L
sS'endtime'
p19
g14
(S'\x07\xd5\x02\x02\x14,1\x00\x00\x00'
p20
tp21
Rp22
sS'phonenumber_oid'
p23
L1891L
s.(dp0
S'status'
p1
S''
p2
sS'direction'
p3
S'Missed Call'
p4
sS'remote'
p5
g2
sS'description'
p6
S'Voice Call'
p7
sS'callid'
p8
L4263L
sS'oid'
p9
L370867L
sS'number'
p10
g2
sS'person_oid'
p11
L22L
sS'contact'
p12
L71L
sS'starttime'
p13
cdatetime
datetime
p14
(S'\x07\xd5\x02\x02\x14-\x08\x00\x00\x00'
p15
tp16
Rp17
sS'duration'
p18
L0L
sS'endtime'
p19
g14
(S'\x07\xd5\x02\x02\x14-\x08\x00\x00\x00'
p20
tp21
Rp22
sS'phonenumber_oid'
p23
L1891L
s.(dp0
S'status'
p1
S''
p2
sS'direction'
p3
S'Missed Call'
p4
sS'remote'
p5
g2
sS'description'
p6
S'Voice Call'
p7
sS'callid'
p8
L4263L
sS'oid'
p9
L370898L
sS'number'
p10
g2
sS'person_oid'
p11
L22L
sS'contact'
p12
L71L
sS'starttime'
p13
cdatetime
datetime
p14
(S'\x07\xd5\x02\x02\x14-\x08\x00\x00\x00'
p15
tp16
Rp17
sS'duration'
p18
L0L
sS'endtime'
p19
g14
(S'\x07\xd5\x02\x02\x14-\x08\x00\x00\x00'
p20
tp21
Rp22
sS'phonenumber_oid'
p23
L1891L
s.(dp0
S'status'
p1
S''
p2
sS'direction'
p3
S'Missed Call'
p4
sS'remote'
p5
g2
sS'description'
p6
S'Voice Call'
p7
sS'callid'
p8
L4264L
sS'oid'
p9
L370868L
sS'number'
p10
g2
sS'person_oid'
p11
L22L
sS'contact'
p12
L71L
sS'starttime'
p13
cdatetime
datetime
p14
(S'\x07\xd5\x02\x02\x14-\x1c\x00\x00\x00'
p15
tp16
Rp17
sS'duration'
p18
L0L
sS'endtime'
p19
g14
(S'\x07\xd5\x02\x02\x14-\x1c\x00\x00\x00'
p20
tp21
Rp22
sS'phonenumber_oid'
p23
L1891L
s.(dp0
S'status'
p1
S''
p2
sS'direction'
p3
S'Missed Call'
p4
sS'remote'
p5
g2
sS'description'
p6
S'Voice Call'
p7
sS'callid'
p8
L4264L
sS'oid'
p9
L370899L
sS'number'
p10
g2
sS'person_oid'
p11
L22L
sS'contact'
p12
L71L
sS'starttime'
p13
cdatetime
datetime
p14
(S'\x07\xd5\x02\x02\x14-\x1c\x00\x00\x00'
p15
tp16
Rp17
sS'duration'
p18
L0L
sS'endtime'
p19
g14
(S'\x07\xd5\x02\x02\x14-\x1c\x00\x00\x00'
p20
tp21
Rp22
sS'phonenumber_oid'
p23
L1891L
s.(dp0
S'status'
p1
S''
p2
sS'direction'
p3
S'Missed Call'
p4
sS'remote'
p5
g2
sS'description'
p6
S'Voice Call'
p7
sS'callid'
p8
L4266L
sS'oid'
p9
L370869L
sS'number'
p10
g2
sS'person_oid'
p11
L22L
sS'contact'
p12
L71L
sS'starttime'
p13
cdatetime
datetime
p14
(S'\x07\xd5\x02\x02\x144\x07\x00\x00\x00'
p15
tp16
Rp17
sS'duration'
p18
L0L
sS'endtime'
p19
g14
(S'\x07\xd5\x02\x02\x144\x07\x00\x00\x00'
p20
tp21
Rp22
sS'phonenumber_oid'
p23
L1891L
s.(dp0
S'status'
p1
S''
p2
sS'direction'
p3
S'Missed Call'
p4
sS'remote'
p5
g2
sS'description'
p6
S'Voice Call'
p7
sS'callid'
p8
L4266L
sS'oid'
p9
L370900L
sS'number'
p10
g2
sS'person_oid'
p11
L22L
sS'contact'
p12
L71L
sS'starttime'
p13
cdatetime
datetime
p14
(S'\x07\xd5\x02\x02\x144\x07\x00\x00\x00'
p15
tp16
Rp17
sS'duration'
p18
L0L
sS'endtime'
p19
g14
(S'\x07\xd5\x02\x02\x144\x07\x00\x00\x00'
p20
tp21
Rp22
sS'phonenumber_oid'
p23
L1891L
s.(dp0
S'status'
p1
S'Delivered'
p2
sS'direction'
p3
S'Incoming'
p4
sS'remote'
p5
S''
p6
sS'description'
p7
S'Short Message'
p8
sS'callid'
p9
L4267L
sS'oid'
p10
L370870L
sS'number'
p11
g6
sS'person_oid'
p12
L22L
sS'contact'
p13
L-1L
sS'starttime'
p14
cdatetime
datetime
p15
(S'\x07\xd5\x02\x02\x1468\x00\x00\x00'
p16
tp17
Rp18
sS'duration'
p19
L0L
sS'endtime'
p20
g15
(S'\x07\xd5\x02\x02\x1468\x00\x00\x00'
p21
tp22
Rp23
sS'phonenumber_oid'
p24
L1891L
s.(dp0
S'status'
p1
S'Delivered'
p2
sS'direction'
p3
S'Incoming'
p4
sS'remote'
p5
S''
p6
sS'description'
p7
S'Short Message'
p8
sS'callid'
p9
L4267L
sS'oid'
p10
L370901L
sS'number'
p11
g6
sS'person_oid'
p12
L22L
sS'contact'
p13
L-1L
sS'starttime'
p14
cdatetime
datetime
p15
(S'\x07\xd5\x02\x02\x1468\x00\x00\x00'
p16
tp17
Rp18
sS'duration'
p19
L0L
sS'endtime'
p20
g15
(S'\x07\xd5\x02\x02\x1468\x00\x00\x00'
p21
tp22
Rp23
sS'phonenumber_oid'
p24
L1891L
s.(dp0
S'status'
p1
S''
p2
sS'direction'
p3
S'Outgoing'
p4
sS'remote'
p5
g2
sS'description'
p6
S'Voice Call'
p7
sS'callid'
p8
L4268L
sS'oid'
p9
L370871L
sS'number'
p10
g2
sS'person_oid'
p11
L22L
sS'contact'
p12
L71L
sS'starttime'
p13
cdatetime
datetime
p14
(S'\x07\xd5\x02\x02\x15\x07"\x00\x00\x00'
p15
tp16
Rp17
sS'duration'
p18
L65L
sS'endtime'
p19
g14
(S"\x07\xd5\x02\x02\x15\x08'\x00\x00\x00"
p20
tp21
Rp22
sS'phonenumber_oid'
p23
L1891L
s.(dp0
S'status'
p1
S''
p2
sS'direction'
p3
S'Outgoing'
p4
sS'remote'
p5
g2
sS'description'
p6
S'Voice Call'
p7
sS'callid'
p8
L4268L
sS'oid'
p9
L370902L
sS'number'
p10
g2
sS'person_oid'
p11
L22L
sS'contact'
p12
L71L
sS'starttime'
p13
cdatetime
datetime
p14
(S'\x07\xd5\x02\x02\x15\x07"\x00\x00\x00'
p15
tp16
Rp17
sS'duration'
p18
L65L
sS'endtime'
p19
g14
(S"\x07\xd5\x02\x02\x15\x08'\x00\x00\x00"
p20
tp21
Rp22
sS'phonenumber_oid'
p23
L1891L
s.(dp0
S'status'
p1
S''
p2
sS'direction'
p3
S'Outgoing'
p4
sS'remote'
p5
g2
sS'description'
p6
S'Voice Call'
p7
sS'callid'
p8
L4270L
sS'oid'
p9
L370872L
sS'number'
p10
g2
sS'person_oid'
p11
L22L
sS'contact'
p12
L110L
sS'starttime'
p13
cdatetime
datetime
p14
(S'\x07\xd5\x02\x02\x15\x0e\x15\x00\x00\x00'
p15
tp16
Rp17
sS'duration'
p18
L41L
sS'endtime'
p19
g14
(S'\x07\xd5\x02\x02\x15\x0f\x02\x00\x00\x00'
p20
tp21
Rp22
sS'phonenumber_oid'
p23
L1954L
s.(dp0
S'status'
p1
S''
p2
sS'direction'
p3
S'Outgoing'
p4
sS'remote'
p5
g2
sS'description'
p6
S'Voice Call'
p7
sS'callid'
p8
L4270L
sS'oid'
p9
L370903L
sS'number'
p10
g2
sS'person_oid'
p11
L22L
sS'contact'
p12
L110L
sS'starttime'
p13
cdatetime
datetime
p14
(S'\x07\xd5\x02\x02\x15\x0e\x15\x00\x00\x00'
p15
tp16
Rp17
sS'duration'
p18
L41L
sS'endtime'
p19
g14
(S'\x07\xd5\x02\x02\x15\x0f\x02\x00\x00\x00'
p20
tp21
Rp22
sS'phonenumber_oid'
p23
L1954L
s.(dp0
S'status'
p1
S'Sent'
p2
sS'direction'
p3
S'Outgoing'
p4
sS'remote'
p5
S''
p6
sS'description'
p7
S'Short Message'
p8
sS'callid'
p9
L4271L
sS'oid'
p10
L370873L
sS'number'
p11
g6
sS'person_oid'
p12
L22L
sS'contact'
p13
L-1L
sS'starttime'
p14
cdatetime
datetime
p15
(S'\x07\xd5\x02\x02\x15\x17\x04\x00\x00\x00'
p16
tp17
Rp18
sS'duration'
p19
L0L
sS'endtime'
p20
g15
(S'\x07\xd5\x02\x02\x15\x17\x04\x00\x00\x00'
p21
tp22
Rp23
sS'phonenumber_oid'
p24
L1890L
s.(dp0
S'status'
p1
S'Sent'
p2
sS'direction'
p3
S'Outgoing'
p4
sS'remote'
p5
S''
p6
sS'description'
p7
S'Short Message'
p8
sS'callid'
p9
L4271L
sS'oid'
p10
L370904L
sS'number'
p11
g6
sS'person_oid'
p12
L22L
sS'contact'
p13
L-1L
sS'starttime'
p14
cdatetime
datetime
p15
(S'\x07\xd5\x02\x02\x15\x17\x04\x00\x00\x00'
p16
tp17
Rp18
sS'duration'
p19
L0L
sS'endtime'
p20
g15
(S'\x07\xd5\x02\x02\x15\x17\x04\x00\x00\x00'
p21
tp22
Rp23
sS'phonenumber_oid'
p24
L1890L
s.(dp0
S'status'
p1
S''
p2
sS'direction'
p3
S'Outgoing'
p4
sS'remote'
p5
g2
sS'description'
p6
S'Voice Call'
p7
sS'callid'
p8
L4272L
sS'oid'
p9
L370874L
sS'number'
p10
g2
sS'person_oid'
p11
L22L
sS'contact'
p12
L80L
sS'starttime'
p13
cdatetime
datetime
p14
(S'\x07\xd5\x02\x02\x15:8\x00\x00\x00'
p15
tp16
Rp17
sS'duration'
p18
L0L
sS'endtime'
p19
g14
(S'\x07\xd5\x02\x02\x15:8\x00\x00\x00'
p20
tp21
Rp22
sS'phonenumber_oid'
p23
L1890L
s.(dp0
S'status'
p1
S''
p2
sS'direction'
p3
S'Outgoing'
p4
sS'remote'
p5
g2
sS'description'
p6
S'Voice Call'
p7
sS'callid'
p8
L4272L
sS'oid'
p9
L370905L
sS'number'
p10
g2
sS'person_oid'
p11
L22L
sS'contact'
p12
L80L
sS'starttime'
p13
cdatetime
datetime
p14
(S'\x07\xd5\x02\x02\x15:8\x00\x00\x00'
p15
tp16
Rp17
sS'duration'
p18
L0L
sS'endtime'
p19
g14
(S'\x07\xd5\x02\x02\x15:8\x00\x00\x00'
p20
tp21
Rp22
sS'phonenumber_oid'
p23
L1890L
s.(dp0
S'status'
p1
S''
p2
sS'direction'
p3
S'Outgoing'
p4
sS'remote'
p5
g2
sS'description'
p6
S'Voice Call'
p7
sS'callid'
p8
L4273L
sS'oid'
p9
L370875L
sS'number'
p10
g2
sS'person_oid'
p11
L22L
sS'contact'
p12
L92L
sS'starttime'
p13
cdatetime
datetime
p14
(S'\x07\xd5\x02\x02\x15;\x0e\x00\x00\x00'
p15
tp16
Rp17
sS'duration'
p18
L31L
sS'endtime'
p19
g14
(S'\x07\xd5\x02\x02\x15;-\x00\x00\x00'
p20
tp21
Rp22
sS'phonenumber_oid'
p23
L1923L
s.(dp0
S'status'
p1
S''
p2
sS'direction'
p3
S'Outgoing'
p4
sS'remote'
p5
g2
sS'description'
p6
S'Voice Call'
p7
sS'callid'
p8
L4273L
sS'oid'
p9
L370906L
sS'number'
p10
g2
sS'person_oid'
p11
L22L
sS'contact'
p12
L92L
sS'starttime'
p13
cdatetime
datetime
p14
(S'\x07\xd5\x02\x02\x15;\x0e\x00\x00\x00'
p15
tp16
Rp17
sS'duration'
p18
L31L
sS'endtime'
p19
g14
(S'\x07\xd5\x02\x02\x15;-\x00\x00\x00'
p20
tp21
Rp22
sS'phonenumber_oid'
p23
L1923L
s.(dp0
S'status'
p1
S''
p2
sS'direction'
p3
S'Missed Call'
p4
sS'remote'
p5
g2
sS'description'
p6
S'Voice Call'
p7
sS'callid'
p8
L4275L
sS'oid'
p9
L370876L
sS'number'
p10
g2
sS'person_oid'
p11
L22L
sS'contact'
p12
L33L
sS'starttime'
p13
cdatetime
datetime
p14
(S'\x07\xd5\x02\x02\x16\n-\x00\x00\x00'
p15
tp16
Rp17
sS'duration'
p18
L0L
sS'endtime'
p19
g14
(S'\x07\xd5\x02\x02\x16\n-\x00\x00\x00'
p20
tp21
Rp22
sS'phonenumber_oid'
p23
L1906L
s.(dp0
S'status'
p1
S''
p2
sS'direction'
p3
S'Missed Call'
p4
sS'remote'
p5
g2
sS'description'
p6
S'Voice Call'
p7
sS'callid'
p8
L4275L
sS'oid'
p9
L370907L
sS'number'
p10
g2
sS'person_oid'
p11
L22L
sS'contact'
p12
L33L
sS'starttime'
p13
cdatetime
datetime
p14
(S'\x07\xd5\x02\x02\x16\n-\x00\x00\x00'
p15
tp16
Rp17
sS'duration'
p18
L0L
sS'endtime'
p19
g14
(S'\x07\xd5\x02\x02\x16\n-\x00\x00\x00'
p20
tp21
Rp22
sS'phonenumber_oid'
p23
L1906L
s.(dp0
S'status'
p1
S'Delivered'
p2
sS'direction'
p3
S'Incoming'
p4
sS'remote'
p5
S''
p6
sS'description'
p7
S'Short Message'
p8
sS'callid'
p9
L4276L
sS'oid'
p10
L370877L
sS'number'
p11
g6
sS'person_oid'
p12
L22L
sS'contact'
p13
L-1L
sS'starttime'
p14
cdatetime
datetime
p15
(S'\x07\xd5\x02\x02\x16\x1a/\x00\x00\x00'
p16
tp17
Rp18
sS'duration'
p19
L0L
sS'endtime'
p20
g15
(S'\x07\xd5\x02\x02\x16\x1a/\x00\x00\x00'
p21
tp22
Rp23
sS'phonenumber_oid'
p24
L1890L
s.(dp0
S'status'
p1
S'Delivered'
p2
sS'direction'
p3
S'Incoming'
p4
sS'remote'
p5
S''
p6
sS'description'
p7
S'Short Message'
p8
sS'callid'
p9
L4276L
sS'oid'
p10
L370908L
sS'number'
p11
g6
sS'person_oid'
p12
L22L
sS'contact'
p13
L-1L
sS'starttime'
p14
cdatetime
datetime
p15
(S'\x07\xd5\x02\x02\x16\x1a/\x00\x00\x00'
p16
tp17
Rp18
sS'duration'
p19
L0L
sS'endtime'
p20
g15
(S'\x07\xd5\x02\x02\x16\x1a/\x00\x00\x00'
p21
tp22
Rp23
sS'phonenumber_oid'
p24
L1890L
s.(dp0
S'status'
p1
S''
p2
sS'direction'
p3
S'Outgoing'
p4
sS'remote'
p5
g2
sS'description'
p6
S'Voice Call'
p7
sS'callid'
p8
L4277L
sS'oid'
p9
L370878L
sS'number'
p10
g2
sS'person_oid'
p11
L22L
sS'contact'
p12
L33L
sS'starttime'
p13
cdatetime
datetime
p14
(S'\x07\xd5\x02\x02\x16\x1c%\x00\x00\x00'
p15
tp16
Rp17
sS'duration'
p18
L0L
sS'endtime'
p19
g14
(S'\x07\xd5\x02\x02\x16\x1c%\x00\x00\x00'
p20
tp21
Rp22
sS'phonenumber_oid'
p23
L1906L
s.(dp0
S'status'
p1
S''
p2
sS'direction'
p3
S'Outgoing'
p4
sS'remote'
p5
g2
sS'description'
p6
S'Voice Call'
p7
sS'callid'
p8
L4277L
sS'oid'
p9
L370909L
sS'number'
p10
g2
sS'person_oid'
p11
L22L
sS'contact'
p12
L33L
sS'starttime'
p13
cdatetime
datetime
p14
(S'\x07\xd5\x02\x02\x16\x1c%\x00\x00\x00'
p15
tp16
Rp17
sS'duration'
p18
L0L
sS'endtime'
p19
g14
(S'\x07\xd5\x02\x02\x16\x1c%\x00\x00\x00'
p20
tp21
Rp22
sS'phonenumber_oid'
p23
L1906L
s.(dp0
S'status'
p1
S''
p2
sS'direction'
p3
S'Incoming'
p4
sS'remote'
p5
g2
sS'description'
p6
S'Voice Call'
p7
sS'callid'
p8
L4280L
sS'oid'
p9
L370879L
sS'number'
p10
g2
sS'person_oid'
p11
L22L
sS'contact'
p12
L71L
sS'starttime'
p13
cdatetime
datetime
p14
(S'\x07\xd5\x02\x02\x17\x1c%\x00\x00\x00'
p15
tp16
Rp17
sS'duration'
p18
L124L
sS'endtime'
p19
g14
(S'\x07\xd5\x02\x02\x17\x1e)\x00\x00\x00'
p20
tp21
Rp22
sS'phonenumber_oid'
p23
L1891L
s.(dp0
S'status'
p1
S''
p2
sS'direction'
p3
S'Incoming'
p4
sS'remote'
p5
g2
sS'description'
p6
S'Voice Call'
p7
sS'callid'
p8
L4280L
sS'oid'
p9
L370910L
sS'number'
p10
g2
sS'person_oid'
p11
L22L
sS'contact'
p12
L71L
sS'starttime'
p13
cdatetime
datetime
p14
(S'\x07\xd5\x02\x02\x17\x1c%\x00\x00\x00'
p15
tp16
Rp17
sS'duration'
p18
L124L
sS'endtime'
p19
g14
(S'\x07\xd5\x02\x02\x17\x1e)\x00\x00\x00'
p20
tp21
Rp22
sS'phonenumber_oid'
p23
L1891L
s.(dp0
S'status'
p1
S''
p2
sS'direction'
p3
S'Missed Call'
p4
sS'remote'
p5
g2
sS'description'
p6
S'Voice Call'
p7
sS'callid'
p8
L4281L
sS'oid'
p9
L370880L
sS'number'
p10
g2
sS'person_oid'
p11
L22L
sS'contact'
p12
L4L
sS'starttime'
p13
cdatetime
datetime
p14
(S'\x07\xd5\x02\x03\x00\x1d\x04\x00\x00\x00'
p15
tp16
Rp17
sS'duration'
p18
L0L
sS'endtime'
p19
g14
(S'\x07\xd5\x02\x03\x00\x1d\x04\x00\x00\x00'
p20
tp21
Rp22
sS'phonenumber_oid'
p23
L1910L
s.(dp0
S'status'
p1
S''
p2
sS'direction'
p3
S'Missed Call'
p4
sS'remote'
p5
g2
sS'description'
p6
S'Voice Call'
p7
sS'callid'
p8
L4281L
sS'oid'
p9
L370911L
sS'number'
p10
g2
sS'person_oid'
p11
L22L
sS'contact'
p12
L4L
sS'starttime'
p13
cdatetime
datetime
p14
(S'\x07\xd5\x02\x03\x00\x1d\x04\x00\x00\x00'
p15
tp16
Rp17
sS'duration'
p18
L0L
sS'endtime'
p19
g14
(S'\x07\xd5\x02\x03\x00\x1d\x04\x00\x00\x00'
p20
tp21
Rp22
sS'phonenumber_oid'
p23
L1910L
s.(dp0
S'status'
p1
S''
p2
sS'direction'
p3
S'Outgoing'
p4
sS'remote'
p5
g2
sS'description'
p6
S'Voice Call'
p7
sS'callid'
p8
L4283L
sS'oid'
p9
L370881L
sS'number'
p10
g2
sS'person_oid'
p11
L22L
sS'contact'
p12
L92L
sS'starttime'
p13
cdatetime
datetime
p14
(S'\x07\xd5\x02\x03\x008\x1c\x00\x00\x00'
p15
tp16
Rp17
sS'duration'
p18
L40L
sS'endtime'
p19
g14
(S'\x07\xd5\x02\x03\x009\x08\x00\x00\x00'
p20
tp21
Rp22
sS'phonenumber_oid'
p23
L1923L
s.(dp0
S'status'
p1
S''
p2
sS'direction'
p3
S'Outgoing'
p4
sS'remote'
p5
g2
sS'description'
p6
S'Voice Call'
p7
sS'callid'
p8
L4283L
sS'oid'
p9
L370912L
sS'number'
p10
g2
sS'person_oid'
p11
L22L
sS'contact'
p12
L92L
sS'starttime'
p13
cdatetime
datetime
p14
(S'\x07\xd5\x02\x03\x008\x1c\x00\x00\x00'
p15
tp16
Rp17
sS'duration'
p18
L40L
sS'endtime'
p19
g14
(S'\x07\xd5\x02\x03\x009\x08\x00\x00\x00'
p20
tp21
Rp22
sS'phonenumber_oid'
p23
L1923L
s.(dp0
S'status'
p1
S''
p2
sS'direction'
p3
S'Missed Call'
p4
sS'remote'
p5
g2
sS'description'
p6
S'Voice Call'
p7
sS'callid'
p8
L4285L
sS'oid'
p9
L370882L
sS'number'
p10
g2
sS'person_oid'
p11
L22L
sS'contact'
p12
L21L
sS'starttime'
p13
cdatetime
datetime
p14
(S'\x07\xd5\x02\x03\x01!7\x00\x00\x00'
p15
tp16
Rp17
sS'duration'
p18
L0L
sS'endtime'
p19
g14
(S'\x07\xd5\x02\x03\x01!7\x00\x00\x00'
p20
tp21
Rp22
sS'phonenumber_oid'
p23
L1898L
s.(dp0
S'status'
p1
S''
p2
sS'direction'
p3
S'Missed Call'
p4
sS'remote'
p5
g2
sS'description'
p6
S'Voice Call'
p7
sS'callid'
p8
L4285L
sS'oid'
p9
L370913L
sS'number'
p10
g2
sS'person_oid'
p11
L22L
sS'contact'
p12
L21L
sS'starttime'
p13
cdatetime
datetime
p14
(S'\x07\xd5\x02\x03\x01!7\x00\x00\x00'
p15
tp16
Rp17
sS'duration'
p18
L0L
sS'endtime'
p19
g14
(S'\x07\xd5\x02\x03\x01!7\x00\x00\x00'
p20
tp21
Rp22
sS'phonenumber_oid'
p23
L1898L
s.(dp0
S'status'
p1
S''
p2
sS'direction'
p3
S'Outgoing'
p4
sS'remote'
p5
g2
sS'description'
p6
S'Voice Call'
p7
sS'callid'
p8
L4287L
sS'oid'
p9
L370883L
sS'number'
p10
g2
sS'person_oid'
p11
L22L
sS'contact'
p12
L84L
sS'starttime'
p13
cdatetime
datetime
p14
(S'\x07\xd5\x02\x03\x01.+\x00\x00\x00'
p15
tp16
Rp17
sS'duration'
p18
L176L
sS'endtime'
p19
g14
(S"\x07\xd5\x02\x03\x011'\x00\x00\x00"
p20
tp21
Rp22
sS'phonenumber_oid'
p23
L1895L
s.(dp0
S'status'
p1
S''
p2
sS'direction'
p3
S'Outgoing'
p4
sS'remote'
p5
g2
sS'description'
p6
S'Voice Call'
p7
sS'callid'
p8
L4287L
sS'oid'
p9
L370914L
sS'number'
p10
g2
sS'person_oid'
p11
L22L
sS'contact'
p12
L84L
sS'starttime'
p13
cdatetime
datetime
p14
(S'\x07\xd5\x02\x03\x01.+\x00\x00\x00'
p15
tp16
Rp17
sS'duration'
p18
L176L
sS'endtime'
p19
g14
(S"\x07\xd5\x02\x03\x011'\x00\x00\x00"
p20
tp21
Rp22
sS'phonenumber_oid'
p23
L1895L
s.(dp0
S'status'
p1
S''
p2
sS'direction'
p3
S'Outgoing'
p4
sS'remote'
p5
g2
sS'description'
p6
S'Voice Call'
p7
sS'callid'
p8
L4288L
sS'oid'
p9
L370884L
sS'number'
p10
g2
sS'person_oid'
p11
L22L
sS'contact'
p12
L4L
sS'starttime'
p13
cdatetime
datetime
p14
(S'\x07\xd5\x02\x03\x02.,\x00\x00\x00'
p15
tp16
Rp17
sS'duration'
p18
L97L
sS'endtime'
p19
g14
(S'\x07\xd5\x02\x03\x020\x15\x00\x00\x00'
p20
tp21
Rp22
sS'phonenumber_oid'
p23
L1910L
s.(dp0
S'status'
p1
S''
p2
sS'direction'
p3
S'Outgoing'
p4
sS'remote'
p5
g2
sS'description'
p6
S'Voice Call'
p7
sS'callid'
p8
L4288L
sS'oid'
p9
L370915L
sS'number'
p10
g2
sS'person_oid'
p11
L22L
sS'contact'
p12
L4L
sS'starttime'
p13
cdatetime
datetime
p14
(S'\x07\xd5\x02\x03\x02.,\x00\x00\x00'
p15
tp16
Rp17
sS'duration'
p18
L97L
sS'endtime'
p19
g14
(S'\x07\xd5\x02\x03\x020\x15\x00\x00\x00'
p20
tp21
Rp22
sS'phonenumber_oid'
p23
L1910L
s.(dp0
S'status'
p1
S''
p2
sS'direction'
p3
S'Outgoing'
p4
sS'remote'
p5
g2
sS'description'
p6
S'Voice Call'
p7
sS'callid'
p8
L4289L
sS'oid'
p9
L370885L
sS'number'
p10
g2
sS'person_oid'
p11
L22L
sS'contact'
p12
L95L
sS'starttime'
p13
cdatetime
datetime
p14
(S'\x07\xd5\x02\x03\x03\x1f\x19\x00\x00\x00'
p15
tp16
Rp17
sS'duration'
p18
L30L
sS'endtime'
p19
g14
(S'\x07\xd5\x02\x03\x03\x1f7\x00\x00\x00'
p20
tp21
Rp22
sS'phonenumber_oid'
p23
L1901L
s.(dp0
S'status'
p1
S''
p2
sS'direction'
p3
S'Outgoing'
p4
sS'remote'
p5
g2
sS'description'
p6
S'Voice Call'
p7
sS'callid'
p8
L4289L
sS'oid'
p9
L370916L
sS'number'
p10
g2
sS'person_oid'
p11
L22L
sS'contact'
p12
L95L
sS'starttime'
p13
cdatetime
datetime
p14
(S'\x07\xd5\x02\x03\x03\x1f\x19\x00\x00\x00'
p15
tp16
Rp17
sS'duration'
p18
L30L
sS'endtime'
p19
g14
(S'\x07\xd5\x02\x03\x03\x1f7\x00\x00\x00'
p20
tp21
Rp22
sS'phonenumber_oid'
p23
L1901L
s.(dp0
S'status'
p1
S''
p2
sS'direction'
p3
S'Outgoing'
p4
sS'remote'
p5
g2
sS'description'
p6
S'Voice Call'
p7
sS'callid'
p8
L4292L
sS'oid'
p9
L370886L
sS'number'
p10
g2
sS'person_oid'
p11
L22L
sS'contact'
p12
L56L
sS'starttime'
p13
cdatetime
datetime
p14
(S'\x07\xd5\x02\x03\x04!"\x00\x00\x00'
p15
tp16
Rp17
sS'duration'
p18
L0L
sS'endtime'
p19
g14
(S'\x07\xd5\x02\x03\x04!"\x00\x00\x00'
p20
tp21
Rp22
sS'phonenumber_oid'
p23
L1892L
s.(dp0
S'status'
p1
S''
p2
sS'direction'
p3
S'Outgoing'
p4
sS'remote'
p5
g2
sS'description'
p6
S'Voice Call'
p7
sS'callid'
p8
L4292L
sS'oid'
p9
L370917L
sS'number'
p10
g2
sS'person_oid'
p11
L22L
sS'contact'
p12
L56L
sS'starttime'
p13
cdatetime
datetime
p14
(S'\x07\xd5\x02\x03\x04!"\x00\x00\x00'
p15
tp16
Rp17
sS'duration'
p18
L0L
sS'endtime'
p19
g14
(S'\x07\xd5\x02\x03\x04!"\x00\x00\x00'
p20
tp21
Rp22
sS'phonenumber_oid'
p23
L1892L
s.(dp0
S'status'
p1
S''
p2
sS'direction'
p3
S'Outgoing'
p4
sS'remote'
p5
g2
sS'description'
p6
S'Voice Call'
p7
sS'callid'
p8
L4294L
sS'oid'
p9
L370887L
sS'number'
p10
g2
sS'person_oid'
p11
L22L
sS'contact'
p12
L92L
sS'starttime'
p13
cdatetime
datetime
p14
(S'\x07\xd5\x02\x03\x04"\x07\x00\x00\x00'
p15
tp16
Rp17
sS'duration'
p18
L98L
sS'endtime'
p19
g14
(S'\x07\xd5\x02\x03\x04#-\x00\x00\x00'
p20
tp21
Rp22
sS'phonenumber_oid'
p23
L1923L
s.(dp0
S'status'
p1
S''
p2
sS'direction'
p3
S'Outgoing'
p4
sS'remote'
p5
g2
sS'description'
p6
S'Voice Call'
p7
sS'callid'
p8
L4294L
sS'oid'
p9
L370918L
sS'number'
p10
g2
sS'person_oid'
p11
L22L
sS'contact'
p12
L92L
sS'starttime'
p13
cdatetime
datetime
p14
(S'\x07\xd5\x02\x03\x04"\x07\x00\x00\x00'
p15
tp16
Rp17
sS'duration'
p18
L98L
sS'endtime'
p19
g14
(S'\x07\xd5\x02\x03\x04#-\x00\x00\x00'
p20
tp21
Rp22
sS'phonenumber_oid'
p23
L1923L
s.(dp0
S'status'
p1
S''
p2
sS'direction'
p3
S'Outgoing'
p4
sS'remote'
p5
g2
sS'description'
p6
S'Voice Call'
p7
sS'callid'
p8
L4296L
sS'oid'
p9
L370888L
sS'number'
p10
g2
sS'person_oid'
p11
L22L
sS'contact'
p12
L71L
sS'starttime'
p13
cdatetime
datetime
p14
(S'\x07\xd5\x02\x03\x06\x0b\x00\x00\x00\x00'
p15
tp16
Rp17
sS'duration'
p18
L32L
sS'endtime'
p19
g14
(S'\x07\xd5\x02\x03\x06\x0b \x00\x00\x00'
p20
tp21
Rp22
sS'phonenumber_oid'
p23
L1891L
s.(dp0
S'status'
p1
S''
p2
sS'direction'
p3
S'Outgoing'
p4
sS'remote'
p5
g2
sS'description'
p6
S'Voice Call'
p7
sS'callid'
p8
L4296L
sS'oid'
p9
L370919L
sS'number'
p10
g2
sS'person_oid'
p11
L22L
sS'contact'
p12
L71L
sS'starttime'
p13
cdatetime
datetime
p14
(S'\x07\xd5\x02\x03\x06\x0b\x00\x00\x00\x00'
p15
tp16
Rp17
sS'duration'
p18
L32L
sS'endtime'
p19
g14
(S'\x07\xd5\x02\x03\x06\x0b \x00\x00\x00'
p20
tp21
Rp22
sS'phonenumber_oid'
p23
L1891L
s.(dp0
S'status'
p1
S'Sent'
p2
sS'direction'
p3
S'Outgoing'
p4
sS'remote'
p5
S''
p6
sS'description'
p7
S'Short Message'
p8
sS'callid'
p9
L4297L
sS'oid'
p10
L370889L
sS'number'
p11
g6
sS'person_oid'
p12
L22L
sS'contact'
p13
L-1L
sS'starttime'
p14
cdatetime
datetime
p15
(S'\x07\xd5\x02\x03\x07\x1f\x02\x00\x00\x00'
p16
tp17
Rp18
sS'duration'
p19
L0L
sS'endtime'
p20
g15
(S'\x07\xd5\x02\x03\x07\x1f\x02\x00\x00\x00'
p21
tp22
Rp23
sS'phonenumber_oid'
p24
L1891L
s.(dp0
S'status'
p1
S'Sent'
p2
sS'direction'
p3
S'Outgoing'
p4
sS'remote'
p5
S''
p6
sS'description'
p7
S'Short Message'
p8
sS'callid'
p9
L4297L
sS'oid'
p10
L370920L
sS'number'
p11
g6
sS'person_oid'
p12
L22L
sS'contact'
p13
L-1L
sS'starttime'
p14
cdatetime
datetime
p15
(S'\x07\xd5\x02\x03\x07\x1f\x02\x00\x00\x00'
p16
tp17
Rp18
sS'duration'
p19
L0L
sS'endtime'
p20
g15
(S'\x07\xd5\x02\x03\x07\x1f\x02\x00\x00\x00'
p21
tp22
Rp23
sS'phonenumber_oid'
p24
L1891L
s.(dp0
S'status'
p1
S''
p2
sS'direction'
p3
S'Incoming'
p4
sS'remote'
p5
g2
sS'description'
p6
S'Voice Call'
p7
sS'callid'
p8
L4299L
sS'oid'
p9
L370921L
sS'number'
p10
g2
sS'person_oid'
p11
L22L
sS'contact'
p12
L84L
sS'starttime'
p13
cdatetime
datetime
p14
(S'\x07\xd5\x02\x03\x0c9\x03\x00\x00\x00'
p15
tp16
Rp17
sS'duration'
p18
L37L
sS'endtime'
p19
g14
(S'\x07\xd5\x02\x03\x0c9(\x00\x00\x00'
p20
tp21
Rp22
sS'phonenumber_oid'
p23
L1895L
s.(dp0
S'status'
p1
S''
p2
sS'direction'
p3
S'Outgoing'
p4
sS'remote'
p5
g2
sS'description'
p6
S'Voice Call'
p7
sS'callid'
p8
L4300L
sS'oid'
p9
L370922L
sS'number'
p10
g2
sS'person_oid'
p11
L22L
sS'contact'
p12
L71L
sS'starttime'
p13
cdatetime
datetime
p14
(S'\x07\xd5\x02\x03\r\x03\x00\x00\x00\x00'
p15
tp16
Rp17
sS'duration'
p18
L10L
sS'endtime'
p19
g14
(S'\x07\xd5\x02\x03\r\x03\n\x00\x00\x00'
p20
tp21
Rp22
sS'phonenumber_oid'
p23
L1891L
s.(dp0
S'status'
p1
S'Sent'
p2
sS'direction'
p3
S'Outgoing'
p4
sS'remote'
p5
S''
p6
sS'description'
p7
S'Short Message'
p8
sS'callid'
p9
L4303L
sS'oid'
p10
L370923L
sS'number'
p11
g6
sS'person_oid'
p12
L22L
sS'contact'
p13
L-1L
sS'starttime'
p14
cdatetime
datetime
p15
(S'\x07\xd5\x02\x03\x10\x03\x05\x00\x00\x00'
p16
tp17
Rp18
sS'duration'
p19
L0L
sS'endtime'
p20
g15
(S'\x07\xd5\x02\x03\x10\x03\x05\x00\x00\x00'
p21
tp22
Rp23
sS'phonenumber_oid'
p24
L1890L
s.(dp0
S'status'
p1
S''
p2
sS'direction'
p3
S'Outgoing'
p4
sS'remote'
p5
g2
sS'description'
p6
S'Voice Call'
p7
sS'callid'
p8
L4304L
sS'oid'
p9
L370924L
sS'number'
p10
g2
sS'person_oid'
p11
L22L
sS'contact'
p12
L71L
sS'starttime'
p13
cdatetime
datetime
p14
(S'\x07\xd5\x02\x03\x10\x1c\x1f\x00\x00\x00'
p15
tp16
Rp17
sS'duration'
p18
L0L
sS'endtime'
p19
g14
(S'\x07\xd5\x02\x03\x10\x1c\x1f\x00\x00\x00'
p20
tp21
Rp22
sS'phonenumber_oid'
p23
L1891L
s.(dp0
S'status'
p1
S'Sent'
p2
sS'direction'
p3
S'Outgoing'
p4
sS'remote'
p5
S''
p6
sS'description'
p7
S'Short Message'
p8
sS'callid'
p9
L4305L
sS'oid'
p10
L370925L
sS'number'
p11
g6
sS'person_oid'
p12
L22L
sS'contact'
p13
L-1L
sS'starttime'
p14
cdatetime
datetime
p15
(S'\x07\xd5\x02\x03\x10\x1d1\x00\x00\x00'
p16
tp17
Rp18
sS'duration'
p19
L0L
sS'endtime'
p20
g15
(S'\x07\xd5\x02\x03\x10\x1d1\x00\x00\x00'
p21
tp22
Rp23
sS'phonenumber_oid'
p24
L1891L
s.(dp0
S'status'
p1
S'Delivered'
p2
sS'direction'
p3
S'Incoming'
p4
sS'remote'
p5
S''
p6
sS'description'
p7
S'Short Message'
p8
sS'callid'
p9
L4306L
sS'oid'
p10
L370926L
sS'number'
p11
g6
sS'person_oid'
p12
L22L
sS'contact'
p13
L-1L
sS'starttime'
p14
cdatetime
datetime
p15
(S'\x07\xd5\x02\x03\x11)1\x00\x00\x00'
p16
tp17
Rp18
sS'duration'
p19
L0L
sS'endtime'
p20
g15
(S'\x07\xd5\x02\x03\x11)1\x00\x00\x00'
p21
tp22
Rp23
sS'phonenumber_oid'
p24
L1890L
s.(dp0
S'status'
p1
S'Sent'
p2
sS'direction'
p3
S'Outgoing'
p4
sS'remote'
p5
S''
p6
sS'description'
p7
S'Short Message'
p8
sS'callid'
p9
L4307L
sS'oid'
p10
L370927L
sS'number'
p11
g6
sS'person_oid'
p12
L22L
sS'contact'
p13
L-1L
sS'starttime'
p14
cdatetime
datetime
p15
(S'\x07\xd5\x02\x03\x11.\x0b\x00\x00\x00'
p16
tp17
Rp18
sS'duration'
p19
L0L
sS'endtime'
p20
g15
(S'\x07\xd5\x02\x03\x11.\x0b\x00\x00\x00'
p21
tp22
Rp23
sS'phonenumber_oid'
p24
L1890L
s.(dp0
S'status'
p1
S'Sent'
p2
sS'direction'
p3
S'Outgoing'
p4
sS'remote'
p5
S''
p6
sS'description'
p7
S'Short Message'
p8
sS'callid'
p9
L4308L
sS'oid'
p10
L370928L
sS'number'
p11
g6
sS'person_oid'
p12
L22L
sS'contact'
p13
L-1L
sS'starttime'
p14
cdatetime
datetime
p15
(S'\x07\xd5\x02\x03\x11;)\x00\x00\x00'
p16
tp17
Rp18
sS'duration'
p19
L0L
sS'endtime'
p20
g15
(S'\x07\xd5\x02\x03\x11;)\x00\x00\x00'
p21
tp22
Rp23
sS'phonenumber_oid'
p24
L1890L
s.(dp0
S'status'
p1
S'Delivered'
p2
sS'direction'
p3
S'Incoming'
p4
sS'remote'
p5
S''
p6
sS'description'
p7
S'Short Message'
p8
sS'callid'
p9
L4309L
sS'oid'
p10
L370929L
sS'number'
p11
g6
sS'person_oid'
p12
L22L
sS'contact'
p13
L-1L
sS'starttime'
p14
cdatetime
datetime
p15
(S'\x07\xd5\x02\x03\x12\x01-\x00\x00\x00'
p16
tp17
Rp18
sS'duration'
p19
L0L
sS'endtime'
p20
g15
(S'\x07\xd5\x02\x03\x12\x01-\x00\x00\x00'
p21
tp22
Rp23
sS'phonenumber_oid'
p24
L1890L
s.(dp0
S'status'
p1
S'Sent'
p2
sS'direction'
p3
S'Outgoing'
p4
sS'remote'
p5
S''
p6
sS'description'
p7
S'Short Message'
p8
sS'callid'
p9
L4310L
sS'oid'
p10
L370930L
sS'number'
p11
g6
sS'person_oid'
p12
L22L
sS'contact'
p13
L-1L
sS'starttime'
p14
cdatetime
datetime
p15
(S'\x07\xd5\x02\x03\x12\x03\x1a\x00\x00\x00'
p16
tp17
Rp18
sS'duration'
p19
L0L
sS'endtime'
p20
g15
(S'\x07\xd5\x02\x03\x12\x03\x1a\x00\x00\x00'
p21
tp22
Rp23
sS'phonenumber_oid'
p24
L1890L
s.(dp0
S'status'
p1
S'Delivered'
p2
sS'direction'
p3
S'Incoming'
p4
sS'remote'
p5
S''
p6
sS'description'
p7
S'Short Message'
p8
sS'callid'
p9
L4311L
sS'oid'
p10
L370931L
sS'number'
p11
g6
sS'person_oid'
p12
L22L
sS'contact'
p13
L-1L
sS'starttime'
p14
cdatetime
datetime
p15
(S'\x07\xd5\x02\x03\x12\x07\x1f\x00\x00\x00'
p16
tp17
Rp18
sS'duration'
p19
L0L
sS'endtime'
p20
g15
(S'\x07\xd5\x02\x03\x12\x07\x1f\x00\x00\x00'
p21
tp22
Rp23
sS'phonenumber_oid'
p24
L1890L
s.(dp0
S'status'
p1
S'Sent'
p2
sS'direction'
p3
S'Outgoing'
p4
sS'remote'
p5
S''
p6
sS'description'
p7
S'Short Message'
p8
sS'callid'
p9
L4312L
sS'oid'
p10
L370932L
sS'number'
p11
g6
sS'person_oid'
p12
L22L
sS'contact'
p13
L-1L
sS'starttime'
p14
cdatetime
datetime
p15
(S'\x07\xd5\x02\x03\x12\t;\x00\x00\x00'
p16
tp17
Rp18
sS'duration'
p19
L0L
sS'endtime'
p20
g15
(S'\x07\xd5\x02\x03\x12\t;\x00\x00\x00'
p21
tp22
Rp23
sS'phonenumber_oid'
p24
L1890L
s.(dp0
S'status'
p1
S''
p2
sS'direction'
p3
S'Outgoing'
p4
sS'remote'
p5
g2
sS'description'
p6
S'Voice Call'
p7
sS'callid'
p8
L4313L
sS'oid'
p9
L370933L
sS'number'
p10
g2
sS'person_oid'
p11
L22L
sS'contact'
p12
L71L
sS'starttime'
p13
cdatetime
datetime
p14
(S'\x07\xd5\x02\x03\x13\x193\x00\x00\x00'
p15
tp16
Rp17
sS'duration'
p18
L12L
sS'endtime'
p19
g14
(S'\x07\xd5\x02\x03\x13\x1a\x03\x00\x00\x00'
p20
tp21
Rp22
sS'phonenumber_oid'
p23
L1891L
s.(dp0
S'status'
p1
S''
p2
sS'direction'
p3
S'Outgoing'
p4
sS'remote'
p5
g2
sS'description'
p6
S'Voice Call'
p7
sS'callid'
p8
L4314L
sS'oid'
p9
L370934L
sS'number'
p10
g2
sS'person_oid'
p11
L22L
sS'contact'
p12
L105L
sS'starttime'
p13
cdatetime
datetime
p14
(S'\x07\xd5\x02\x03\x14\x1f\x1a\x00\x00\x00'
p15
tp16
Rp17
sS'duration'
p18
L0L
sS'endtime'
p19
g14
(S'\x07\xd5\x02\x03\x14\x1f\x1a\x00\x00\x00'
p20
tp21
Rp22
sS'phonenumber_oid'
p23
L1944L
s.(dp0
S'status'
p1
S''
p2
sS'direction'
p3
S'Outgoing'
p4
sS'remote'
p5
g2
sS'description'
p6
S'Voice Call'
p7
sS'callid'
p8
L4315L
sS'oid'
p9
L370935L
sS'number'
p10
g2
sS'person_oid'
p11
L22L
sS'contact'
p12
L105L
sS'starttime'
p13
cdatetime
datetime
p14
(S'\x07\xd5\x02\x03\x14(%\x00\x00\x00'
p15
tp16
Rp17
sS'duration'
p18
L23L
sS'endtime'
p19
g14
(S'\x07\xd5\x02\x03\x14)\x00\x00\x00\x00'
p20
tp21
Rp22
sS'phonenumber_oid'
p23
L1944L
s.(dp0
S'status'
p1
S''
p2
sS'direction'
p3
S'Outgoing'
p4
sS'remote'
p5
g2
sS'description'
p6
S'Voice Call'
p7
sS'callid'
p8
L4316L
sS'oid'
p9
L370936L
sS'number'
p10
g2
sS'person_oid'
p11
L22L
sS'contact'
p12
L105L
sS'starttime'
p13
cdatetime
datetime
p14
(S'\x07\xd5\x02\x03\x14)\x00\x00\x00\x00'
p15
tp16
Rp17
sS'duration'
p18
L0L
sS'endtime'
p19
g14
(S'\x07\xd5\x02\x03\x14)\x00\x00\x00\x00'
p20
tp21
Rp22
sS'phonenumber_oid'
p23
L1944L
s.(dp0
S'status'
p1
S''
p2
sS'direction'
p3
S'Outgoing'
p4
sS'remote'
p5
g2
sS'description'
p6
S'Voice Call'
p7
sS'callid'
p8
L4317L
sS'oid'
p9
L370937L
sS'number'
p10
g2
sS'person_oid'
p11
L22L
sS'contact'
p12
L105L
sS'starttime'
p13
cdatetime
datetime
p14
(S'\x07\xd5\x02\x03\x14)\x07\x00\x00\x00'
p15
tp16
Rp17
sS'duration'
p18
L0L
sS'endtime'
p19
g14
(S'\x07\xd5\x02\x03\x14)\x07\x00\x00\x00'
p20
tp21
Rp22
sS'phonenumber_oid'
p23
L1944L
s.(dp0
S'status'
p1
S'Delivered'
p2
sS'direction'
p3
S'Incoming'
p4
sS'remote'
p5
S''
p6
sS'description'
p7
S'Short Message'
p8
sS'callid'
p9
L4321L
sS'oid'
p10
L370938L
sS'number'
p11
g6
sS'person_oid'
p12
L22L
sS'contact'
p13
L-1L
sS'starttime'
p14
cdatetime
datetime
p15
(S'\x07\xd5\x02\x03\x149#\x00\x00\x00'
p16
tp17
Rp18
sS'duration'
p19
L0L
sS'endtime'
p20
g15
(S'\x07\xd5\x02\x03\x149#\x00\x00\x00'
p21
tp22
Rp23
sS'phonenumber_oid'
p24
L1890L
s.(dp0
S'status'
p1
S'Sent'
p2
sS'direction'
p3
S'Outgoing'
p4
sS'remote'
p5
S''
p6
sS'description'
p7
S'Short Message'
p8
sS'callid'
p9
L4322L
sS'oid'
p10
L370939L
sS'number'
p11
g6
sS'person_oid'
p12
L22L
sS'contact'
p13
L-1L
sS'starttime'
p14
cdatetime
datetime
p15
(S'\x07\xd5\x02\x03\x15\x03\n\x00\x00\x00'
p16
tp17
Rp18
sS'duration'
p19
L0L
sS'endtime'
p20
g15
(S'\x07\xd5\x02\x03\x15\x03\n\x00\x00\x00'
p21
tp22
Rp23
sS'phonenumber_oid'
p24
L1890L
s.(dp0
S'status'
p1
S''
p2
sS'direction'
p3
S'Incoming'
p4
sS'remote'
p5
g2
sS'description'
p6
S'Voice Call'
p7
sS'callid'
p8
L4325L
sS'oid'
p9
L370940L
sS'number'
p10
g2
sS'person_oid'
p11
L22L
sS'contact'
p12
L112L
sS'starttime'
p13
cdatetime
datetime
p14
(S'\x07\xd5\x02\x03\x16\x1f\x01\x00\x00\x00'
p15
tp16
Rp17
sS'duration'
p18
L1L
sS'endtime'
p19
g14
(S'\x07\xd5\x02\x03\x16\x1f\x02\x00\x00\x00'
p20
tp21
Rp22
sS'phonenumber_oid'
p23
L1956L
s.(dp0
S'status'
p1
S'Delivered'
p2
sS'direction'
p3
S'Incoming'
p4
sS'remote'
p5
S''
p6
sS'description'
p7
S'Short Message'
p8
sS'callid'
p9
L4326L
sS'oid'
p10
L370941L
sS'number'
p11
g6
sS'person_oid'
p12
L22L
sS'contact'
p13
L-1L
sS'starttime'
p14
cdatetime
datetime
p15
(S'\x07\xd5\x02\x03\x16\x1f\x12\x00\x00\x00'
p16
tp17
Rp18
sS'duration'
p19
L0L
sS'endtime'
p20
g15
(S'\x07\xd5\x02\x03\x16\x1f\x12\x00\x00\x00'
p21
tp22
Rp23
sS'phonenumber_oid'
p24
L1891L
s.(dp0
S'status'
p1
S''
p2
sS'direction'
p3
S'Outgoing'
p4
sS'remote'
p5
g2
sS'description'
p6
S'Voice Call'
p7
sS'callid'
p8
L4327L
sS'oid'
p9
L370942L
sS'number'
p10
g2
sS'person_oid'
p11
L22L
sS'contact'
p12
L113L
sS'starttime'
p13
cdatetime
datetime
p14
(S'\x07\xd5\x02\x03\x16 \x0c\x00\x00\x00'
p15
tp16
Rp17
sS'duration'
p18
L0L
sS'endtime'
p19
g14
(S'\x07\xd5\x02\x03\x16 \x0c\x00\x00\x00'
p20
tp21
Rp22
sS'phonenumber_oid'
p23
L1957L
s.(dp0
S'status'
p1
S'Sent'
p2
sS'direction'
p3
S'Outgoing'
p4
sS'remote'
p5
S''
p6
sS'description'
p7
S'Short Message'
p8
sS'callid'
p9
L4328L
sS'oid'
p10
L370943L
sS'number'
p11
g6
sS'person_oid'
p12
L22L
sS'contact'
p13
L-1L
sS'starttime'
p14
cdatetime
datetime
p15
(S'\x07\xd5\x02\x03\x16!%\x00\x00\x00'
p16
tp17
Rp18
sS'duration'
p19
L0L
sS'endtime'
p20
g15
(S'\x07\xd5\x02\x03\x16!%\x00\x00\x00'
p21
tp22
Rp23
sS'phonenumber_oid'
p24
L1891L
s.(dp0
S'status'
p1
S''
p2
sS'direction'
p3
S'Outgoing'
p4
sS'remote'
p5
g2
sS'description'
p6
S'Voice Call'
p7
sS'callid'
p8
L4329L
sS'oid'
p9
L370944L
sS'number'
p10
g2
sS'person_oid'
p11
L22L
sS'contact'
p12
L92L
sS'starttime'
p13
cdatetime
datetime
p14
(S'\x07\xd5\x02\x03\x16!1\x00\x00\x00'
p15
tp16
Rp17
sS'duration'
p18
L30L
sS'endtime'
p19
g14
(S'\x07\xd5\x02\x03\x16"\x13\x00\x00\x00'
p20
tp21
Rp22
sS'phonenumber_oid'
p23
L1923L
s.(dp0
S'status'
p1
S''
p2
sS'direction'
p3
S'Incoming'
p4
sS'remote'
p5
g2
sS'description'
p6
S'Voice Call'
p7
sS'callid'
p8
L4331L
sS'oid'
p9
L370945L
sS'number'
p10
g2
sS'person_oid'
p11
L22L
sS'contact'
p12
L71L
sS'starttime'
p13
cdatetime
datetime
p14
(S'\x07\xd5\x02\x03\x16"\x16\x00\x00\x00'
p15
tp16
Rp17
sS'duration'
p18
L103L
sS'endtime'
p19
g14
(S'\x07\xd5\x02\x03\x16$\x05\x00\x00\x00'
p20
tp21
Rp22
sS'phonenumber_oid'
p23
L1891L
s.(dp0
S'status'
p1
S'Sent'
p2
sS'direction'
p3
S'Outgoing'
p4
sS'remote'
p5
S''
p6
sS'description'
p7
S'Short Message'
p8
sS'callid'
p9
L4333L
sS'oid'
p10
L370946L
sS'number'
p11
g6
sS'person_oid'
p12
L22L
sS'contact'
p13
L-1L
sS'starttime'
p14
cdatetime
datetime
p15
(S'\x07\xd5\x02\x03\x16&\x15\x00\x00\x00'
p16
tp17
Rp18
sS'duration'
p19
L0L
sS'endtime'
p20
g15
(S'\x07\xd5\x02\x03\x16&\x15\x00\x00\x00'
p21
tp22
Rp23
sS'phonenumber_oid'
p24
L1890L
s.(dp0
S'status'
p1
S''
p2
sS'direction'
p3
S'Missed Call'
p4
sS'remote'
p5
g2
sS'description'
p6
S'Voice Call'
p7
sS'callid'
p8
L4334L
sS'oid'
p9
L370947L
sS'number'
p10
g2
sS'person_oid'
p11
L22L
sS'contact'
p12
L114L
sS'starttime'
p13
cdatetime
datetime
p14
(S'\x07\xd5\x02\x03\x16*-\x00\x00\x00'
p15
tp16
Rp17
sS'duration'
p18
L0L
sS'endtime'
p19
g14
(S'\x07\xd5\x02\x03\x16*-\x00\x00\x00'
p20
tp21
Rp22
sS'phonenumber_oid'
p23
L1958L
s.(dp0
S'status'
p1
S''
p2
sS'direction'
p3
S'Outgoing'
p4
sS'remote'
p5
g2
sS'description'
p6
S'Voice Call'
p7
sS'callid'
p8
L4337L
sS'oid'
p9
L370948L
sS'number'
p10
g2
sS'person_oid'
p11
L22L
sS'contact'
p12
L71L
sS'starttime'
p13
cdatetime
datetime
p14
(S'\x07\xd5\x02\x03\x162%\x00\x00\x00'
p15
tp16
Rp17
sS'duration'
p18
L605L
sS'endtime'
p19
g14
(S'\x07\xd5\x02\x03\x17\x00*\x00\x00\x00'
p20
tp21
Rp22
sS'phonenumber_oid'
p23
L1891L
s.(dp0
S'status'
p1
S''
p2
sS'direction'
p3
S'Outgoing'
p4
sS'remote'
p5
g2
sS'description'
p6
S'Voice Call'
p7
sS'callid'
p8
L4338L
sS'oid'
p9
L370949L
sS'number'
p10
g2
sS'person_oid'
p11
L22L
sS'contact'
p12
L92L
sS'starttime'
p13
cdatetime
datetime
p14
(S'\x07\xd5\x02\x03\x17\x007\x00\x00\x00'
p15
tp16
Rp17
sS'duration'
p18
L20L
sS'endtime'
p19
g14
(S'\x07\xd5\x02\x03\x17\x01\x0f\x00\x00\x00'
p20
tp21
Rp22
sS'phonenumber_oid'
p23
L1923L
s.(dp0
S'status'
p1
S''
p2
sS'direction'
p3
S'Incoming'
p4
sS'remote'
p5
g2
sS'description'
p6
S'Voice Call'
p7
sS'callid'
p8
L4341L
sS'oid'
p9
L370950L
sS'number'
p10
g2
sS'person_oid'
p11
L22L
sS'contact'
p12
L4L
sS'starttime'
p13
cdatetime
datetime
p14
(S'\x07\xd5\x02\x03\x17\x06\x1b\x00\x00\x00'
p15
tp16
Rp17
sS'duration'
p18
L77L
sS'endtime'
p19
g14
(S'\x07\xd5\x02\x03\x17\x07,\x00\x00\x00'
p20
tp21
Rp22
sS'phonenumber_oid'
p23
L1910L
s.(dp0
S'status'
p1
S''
p2
sS'direction'
p3
S'Incoming'
p4
sS'remote'
p5
g2
sS'description'
p6
S'Voice Call'
p7
sS'callid'
p8
L4343L
sS'oid'
p9
L370951L
sS'number'
p10
g2
sS'person_oid'
p11
L22L
sS'contact'
p12
L80L
sS'starttime'
p13
cdatetime
datetime
p14
(S'\x07\xd5\x02\x04\x00\x02\x01\x00\x00\x00'
p15
tp16
Rp17
sS'duration'
p18
L66L
sS'endtime'
p19
g14
(S'\x07\xd5\x02\x04\x00\x03\x07\x00\x00\x00'
p20
tp21
Rp22
sS'phonenumber_oid'
p23
L1890L
s.(dp0
S'status'
p1
S''
p2
sS'direction'
p3
S'Missed Call'
p4
sS'remote'
p5
g2
sS'description'
p6
S'Voice Call'
p7
sS'callid'
p8
L4344L
sS'oid'
p9
L370952L
sS'number'
p10
g2
sS'person_oid'
p11
L22L
sS'contact'
p12
L34L
sS'starttime'
p13
cdatetime
datetime
p14
(S'\x07\xd5\x02\x04\x00\x02-\x00\x00\x00'
p15
tp16
Rp17
sS'duration'
p18
L0L
sS'endtime'
p19
g14
(S'\x07\xd5\x02\x04\x00\x02-\x00\x00\x00'
p20
tp21
Rp22
sS'phonenumber_oid'
p23
L1899L
s.(dp0
S'status'
p1
S''
p2
sS'direction'
p3
S'Outgoing'
p4
sS'remote'
p5
g2
sS'description'
p6
S'Voice Call'
p7
sS'callid'
p8
L4345L
sS'oid'
p9
L370953L
sS'number'
p10
g2
sS'person_oid'
p11
L22L
sS'contact'
p12
L34L
sS'starttime'
p13
cdatetime
datetime
p14
(S'\x07\xd5\x02\x04\x00\x03\x1c\x00\x00\x00'
p15
tp16
Rp17
sS'duration'
p18
L103L
sS'endtime'
p19
g14
(S'\x07\xd5\x02\x04\x00\x05\x0b\x00\x00\x00'
p20
tp21
Rp22
sS'phonenumber_oid'
p23
L1899L
s.(dp0
S'status'
p1
S''
p2
sS'direction'
p3
S'Outgoing'
p4
sS'remote'
p5
g2
sS'description'
p6
S'Voice Call'
p7
sS'callid'
p8
L4346L
sS'oid'
p9
L370954L
sS'number'
p10
g2
sS'person_oid'
p11
L22L
sS'contact'
p12
L84L
sS'starttime'
p13
cdatetime
datetime
p14
(S'\x07\xd5\x02\x04\x00\x05/\x00\x00\x00'
p15
tp16
Rp17
sS'duration'
p18
L73L
sS'endtime'
p19
g14
(S'\x07\xd5\x02\x04\x00\x07\x00\x00\x00\x00'
p20
tp21
Rp22
sS'phonenumber_oid'
p23
L1895L
s.(dp0
S'status'
p1
S''
p2
sS'direction'
p3
S'Outgoing'
p4
sS'remote'
p5
g2
sS'description'
p6
S'Voice Call'
p7
sS'callid'
p8
L4347L
sS'oid'
p9
L370955L
sS'number'
p10
g2
sS'person_oid'
p11
L22L
sS'contact'
p12
L56L
sS'starttime'
p13
cdatetime
datetime
p14
(S'\x07\xd5\x02\x04\x002/\x00\x00\x00'
p15
tp16
Rp17
sS'duration'
p18
L27L
sS'endtime'
p19
g14
(S'\x07\xd5\x02\x04\x003\x0e\x00\x00\x00'
p20
tp21
Rp22
sS'phonenumber_oid'
p23
L1892L
s.(dp0
S'status'
p1
S''
p2
sS'direction'
p3
S'Incoming'
p4
sS'remote'
p5
g2
sS'description'
p6
S'Voice Call'
p7
sS'callid'
p8
L4349L
sS'oid'
p9
L370956L
sS'number'
p10
g2
sS'person_oid'
p11
L22L
sS'contact'
p12
L109L
sS'starttime'
p13
cdatetime
datetime
p14
(S'\x07\xd5\x02\x04\x01\x02\x1c\x00\x00\x00'
p15
tp16
Rp17
sS'duration'
p18
L21L
sS'endtime'
p19
g14
(S'\x07\xd5\x02\x04\x01\x021\x00\x00\x00'
p20
tp21
Rp22
sS'phonenumber_oid'
p23
L1951L
s.(dp0
S'status'
p1
S''
p2
sS'direction'
p3
S'Outgoing'
p4
sS'remote'
p5
g2
sS'description'
p6
S'Voice Call'
p7
sS'callid'
p8
L4350L
sS'oid'
p9
L370957L
sS'number'
p10
g2
sS'person_oid'
p11
L22L
sS'contact'
p12
L4L
sS'starttime'
p13
cdatetime
datetime
p14
(S'\x07\xd5\x02\x04\x01\x03 \x00\x00\x00'
p15
tp16
Rp17
sS'duration'
p18
L47L
sS'endtime'
p19
g14
(S'\x07\xd5\x02\x04\x01\x04\x13\x00\x00\x00'
p20
tp21
Rp22
sS'phonenumber_oid'
p23
L1910L
s.(dp0
S'status'
p1
S''
p2
sS'direction'
p3
S'Incoming'
p4
sS'remote'
p5
g2
sS'description'
p6
S'Voice Call'
p7
sS'callid'
p8
L4352L
sS'oid'
p9
L370958L
sS'number'
p10
g2
sS'person_oid'
p11
L22L
sS'contact'
p12
L84L
sS'starttime'
p13
cdatetime
datetime
p14
(S'\x07\xd5\x02\x04\x01\x15\x1a\x00\x00\x00'
p15
tp16
Rp17
sS'duration'
p18
L60L
sS'endtime'
p19
g14
(S'\x07\xd5\x02\x04\x01\x16\x1a\x00\x00\x00'
p20
tp21
Rp22
sS'phonenumber_oid'
p23
L1895L
s.(dp0
S'status'
p1
S''
p2
sS'direction'
p3
S'Incoming'
p4
sS'remote'
p5
g2
sS'description'
p6
S'Voice Call'
p7
sS'callid'
p8
L4354L
sS'oid'
p9
L370959L
sS'number'
p10
g2
sS'person_oid'
p11
L22L
sS'contact'
p12
L56L
sS'starttime'
p13
cdatetime
datetime
p14
(S'\x07\xd5\x02\x04\x01!3\x00\x00\x00'
p15
tp16
Rp17
sS'duration'
p18
L238L
sS'endtime'
p19
g14
(S'\x07\xd5\x02\x04\x01%1\x00\x00\x00'
p20
tp21
Rp22
sS'phonenumber_oid'
p23
L1892L
s.(dp0
S'status'
p1
S''
p2
sS'direction'
p3
S'Incoming'
p4
sS'remote'
p5
g2
sS'description'
p6
S'Voice Call'
p7
sS'callid'
p8
L4356L
sS'oid'
p9
L370960L
sS'number'
p10
g2
sS'person_oid'
p11
L22L
sS'contact'
p12
L34L
sS'starttime'
p13
cdatetime
datetime
p14
(S'\x07\xd5\x02\x04\x01+(\x00\x00\x00'
p15
tp16
Rp17
sS'duration'
p18
L33L
sS'endtime'
p19
g14
(S'\x07\xd5\x02\x04\x01,\r\x00\x00\x00'
p20
tp21
Rp22
sS'phonenumber_oid'
p23
L1899L
s.(dp0
S'status'
p1
S''
p2
sS'direction'
p3
S'Incoming'
p4
sS'remote'
p5
g2
sS'description'
p6
S'Voice Call'
p7
sS'callid'
p8
L4358L
sS'oid'
p9
L370961L
sS'number'
p10
g2
sS'person_oid'
p11
L22L
sS'contact'
p12
L4L
sS'starttime'
p13
cdatetime
datetime
p14
(S'\x07\xd5\x02\x04\x02\x048\x00\x00\x00'
p15
tp16
Rp17
sS'duration'
p18
L20L
sS'endtime'
p19
g14
(S'\x07\xd5\x02\x04\x02\x05\x10\x00\x00\x00'
p20
tp21
Rp22
sS'phonenumber_oid'
p23
L1910L
s.(dp0
S'status'
p1
S''
p2
sS'direction'
p3
S'Outgoing'
p4
sS'remote'
p5
g2
sS'description'
p6
S'Voice Call'
p7
sS'callid'
p8
L4359L
sS'oid'
p9
L370962L
sS'number'
p10
g2
sS'person_oid'
p11
L22L
sS'contact'
p12
L95L
sS'starttime'
p13
cdatetime
datetime
p14
(S'\x07\xd5\x02\x04\x02\x08\x07\x00\x00\x00'
p15
tp16
Rp17
sS'duration'
p18
L26L
sS'endtime'
p19
g14
(S'\x07\xd5\x02\x04\x02\x08!\x00\x00\x00'
p20
tp21
Rp22
sS'phonenumber_oid'
p23
L1901L
s.(dp0
S'status'
p1
S''
p2
sS'direction'
p3
S'Outgoing'
p4
sS'remote'
p5
g2
sS'description'
p6
S'Voice Call'
p7
sS'callid'
p8
L4362L
sS'oid'
p9
L370963L
sS'number'
p10
g2
sS'person_oid'
p11
L22L
sS'contact'
p12
L95L
sS'starttime'
p13
cdatetime
datetime
p14
(S'\x07\xd5\x02\x04\x02\x10\x1b\x00\x00\x00'
p15
tp16
Rp17
sS'duration'
p18
L0L
sS'endtime'
p19
g14
(S'\x07\xd5\x02\x04\x02\x10\x1b\x00\x00\x00'
p20
tp21
Rp22
sS'phonenumber_oid'
p23
L1901L
s.(dp0
S'status'
p1
S''
p2
sS'direction'
p3
S'Incoming'
p4
sS'remote'
p5
g2
sS'description'
p6
S'Voice Call'
p7
sS'callid'
p8
L4364L
sS'oid'
p9
L370964L
sS'number'
p10
g2
sS'person_oid'
p11
L22L
sS'contact'
p12
L109L
sS'starttime'
p13
cdatetime
datetime
p14
(S'\x07\xd5\x02\x04\x02\x15\x1b\x00\x00\x00'
p15
tp16
Rp17
sS'duration'
p18
L12L
sS'endtime'
p19
g14
(S"\x07\xd5\x02\x04\x02\x15'\x00\x00\x00"
p20
tp21
Rp22
sS'phonenumber_oid'
p23
L1951L
s.(dp0
S'status'
p1
S'Delivered'
p2
sS'direction'
p3
S'Incoming'
p4
sS'remote'
p5
S''
p6
sS'description'
p7
S'Short Message'
p8
sS'callid'
p9
L4365L
sS'oid'
p10
L370965L
sS'number'
p11
g6
sS'person_oid'
p12
L22L
sS'contact'
p13
L-1L
sS'starttime'
p14
cdatetime
datetime
p15
(S'\x07\xd5\x02\x04\x02\x16\n\x00\x00\x00'
p16
tp17
Rp18
sS'duration'
p19
L0L
sS'endtime'
p20
g15
(S'\x07\xd5\x02\x04\x02\x16\n\x00\x00\x00'
p21
tp22
Rp23
sS'phonenumber_oid'
p24
L1890L
s.(dp0
S'status'
p1
S'Sent'
p2
sS'direction'
p3
S'Outgoing'
p4
sS'remote'
p5
S''
p6
sS'description'
p7
S'Short Message'
p8
sS'callid'
p9
L4366L
sS'oid'
p10
L370966L
sS'number'
p11
g6
sS'person_oid'
p12
L22L
sS'contact'
p13
L-1L
sS'starttime'
p14
cdatetime
datetime
p15
(S'\x07\xd5\x02\x04\x02\x16:\x00\x00\x00'
p16
tp17
Rp18
sS'duration'
p19
L0L
sS'endtime'
p20
g15
(S'\x07\xd5\x02\x04\x02\x16:\x00\x00\x00'
p21
tp22
Rp23
sS'phonenumber_oid'
p24
L1890L
s.(dp0
S'status'
p1
S'Delivered'
p2
sS'direction'
p3
S'Incoming'
p4
sS'remote'
p5
S''
p6
sS'description'
p7
S'Short Message'
p8
sS'callid'
p9
L4367L
sS'oid'
p10
L370967L
sS'number'
p11
g6
sS'person_oid'
p12
L22L
sS'contact'
p13
L-1L
sS'starttime'
p14
cdatetime
datetime
p15
(S'\x07\xd5\x02\x04\x02\x1b\x17\x00\x00\x00'
p16
tp17
Rp18
sS'duration'
p19
L0L
sS'endtime'
p20
g15
(S'\x07\xd5\x02\x04\x02\x1b\x17\x00\x00\x00'
p21
tp22
Rp23
sS'phonenumber_oid'
p24
L1890L
s.(dp0
S'status'
p1
S'Sent'
p2
sS'direction'
p3
S'Outgoing'
p4
sS'remote'
p5
S''
p6
sS'description'
p7
S'Short Message'
p8
sS'callid'
p9
L4368L
sS'oid'
p10
L370968L
sS'number'
p11
g6
sS'person_oid'
p12
L22L
sS'contact'
p13
L-1L
sS'starttime'
p14
cdatetime
datetime
p15
(S'\x07\xd5\x02\x04\x02\x1e\x0f\x00\x00\x00'
p16
tp17
Rp18
sS'duration'
p19
L0L
sS'endtime'
p20
g15
(S'\x07\xd5\x02\x04\x02\x1e\x0f\x00\x00\x00'
p21
tp22
Rp23
sS'phonenumber_oid'
p24
L1890L
s.(dp0
S'status'
p1
S'Delivered'
p2
sS'direction'
p3
S'Incoming'
p4
sS'remote'
p5
S''
p6
sS'description'
p7
S'Short Message'
p8
sS'callid'
p9
L4369L
sS'oid'
p10
L370969L
sS'number'
p11
g6
sS'person_oid'
p12
L22L
sS'contact'
p13
L-1L
sS'starttime'
p14
cdatetime
datetime
p15
(S'\x07\xd5\x02\x04\x02 \x11\x00\x00\x00'
p16
tp17
Rp18
sS'duration'
p19
L0L
sS'endtime'
p20
g15
(S'\x07\xd5\x02\x04\x02 \x11\x00\x00\x00'
p21
tp22
Rp23
sS'phonenumber_oid'
p24
L1890L
s.(dp0
S'status'
p1
S'Sent'
p2
sS'direction'
p3
S'Outgoing'
p4
sS'remote'
p5
S''
p6
sS'description'
p7
S'Short Message'
p8
sS'callid'
p9
L4370L
sS'oid'
p10
L370970L
sS'number'
p11
g6
sS'person_oid'
p12
L22L
sS'contact'
p13
L-1L
sS'starttime'
p14
cdatetime
datetime
p15
(S'\x07\xd5\x02\x04\x02!\x08\x00\x00\x00'
p16
tp17
Rp18
sS'duration'
p19
L0L
sS'endtime'
p20
g15
(S'\x07\xd5\x02\x04\x02!\x08\x00\x00\x00'
p21
tp22
Rp23
sS'phonenumber_oid'
p24
L1890L
s.(dp0
S'status'
p1
S''
p2
sS'direction'
p3
S'Incoming'
p4
sS'remote'
p5
g2
sS'description'
p6
S'Voice Call'
p7
sS'callid'
p8
L4372L
sS'oid'
p9
L370971L
sS'number'
p10
g2
sS'person_oid'
p11
L22L
sS'contact'
p12
L10L
sS'starttime'
p13
cdatetime
datetime
p14
(S'\x07\xd5\x02\x04\x028\x06\x00\x00\x00'
p15
tp16
Rp17
sS'duration'
p18
L0L
sS'endtime'
p19
g14
(S'\x07\xd5\x02\x04\x028\x06\x00\x00\x00'
p20
tp21
Rp22
sS'phonenumber_oid'
p23
L1905L
s.(dp0
S'status'
p1
S''
p2
sS'direction'
p3
S'Outgoing'
p4
sS'remote'
p5
g2
sS'description'
p6
S'Voice Call'
p7
sS'callid'
p8
L4377L
sS'oid'
p9
L370972L
sS'number'
p10
g2
sS'person_oid'
p11
L22L
sS'contact'
p12
L92L
sS'starttime'
p13
cdatetime
datetime
p14
(S'\x07\xd5\x02\x04\x04\x13\x1a\x00\x00\x00'
p15
tp16
Rp17
sS'duration'
p18
L27L
sS'endtime'
p19
g14
(S'\x07\xd5\x02\x04\x04\x135\x00\x00\x00'
p20
tp21
Rp22
sS'phonenumber_oid'
p23
L1923L
s.(dp0
S'status'
p1
S''
p2
sS'direction'
p3
S'Outgoing'
p4
sS'remote'
p5
g2
sS'description'
p6
S'Voice Call'
p7
sS'callid'
p8
L4379L
sS'oid'
p9
L370973L
sS'number'
p10
g2
sS'person_oid'
p11
L22L
sS'contact'
p12
L90L
sS'starttime'
p13
cdatetime
datetime
p14
(S'\x07\xd5\x02\x04\x04\x16\n\x00\x00\x00'
p15
tp16
Rp17
sS'duration'
p18
L19L
sS'endtime'
p19
g14
(S'\x07\xd5\x02\x04\x04\x16\x1d\x00\x00\x00'
p20
tp21
Rp22
sS'phonenumber_oid'
p23
L1931L
s.(dp0
S'status'
p1
S''
p2
sS'direction'
p3
S'Outgoing'
p4
sS'remote'
p5
g2
sS'description'
p6
S'Voice Call'
p7
sS'callid'
p8
L4380L
sS'oid'
p9
L370974L
sS'number'
p10
g2
sS'person_oid'
p11
L22L
sS'contact'
p12
L4L
sS'starttime'
p13
cdatetime
datetime
p14
(S'\x07\xd5\x02\x04\x04\x17#\x00\x00\x00'
p15
tp16
Rp17
sS'duration'
p18
L6L
sS'endtime'
p19
g14
(S'\x07\xd5\x02\x04\x04\x17)\x00\x00\x00'
p20
tp21
Rp22
sS'phonenumber_oid'
p23
L1910L
s.(dp0
S'status'
p1
S''
p2
sS'direction'
p3
S'Missed Call'
p4
sS'remote'
p5
g2
sS'description'
p6
S'Voice Call'
p7
sS'callid'
p8
L4381L
sS'oid'
p9
L370975L
sS'number'
p10
g2
sS'person_oid'
p11
L22L
sS'contact'
p12
L80L
sS'starttime'
p13
cdatetime
datetime
p14
(S'\x07\xd5\x02\x04\x04+\x15\x00\x00\x00'
p15
tp16
Rp17
sS'duration'
p18
L0L
sS'endtime'
p19
g14
(S'\x07\xd5\x02\x04\x04+\x15\x00\x00\x00'
p20
tp21
Rp22
sS'phonenumber_oid'
p23
L1890L
s.(dp0
S'status'
p1
S'Delivered'
p2
sS'direction'
p3
S'Incoming'
p4
sS'remote'
p5
S''
p6
sS'description'
p7
S'Short Message'
p8
sS'callid'
p9
L4382L
sS'oid'
p10
L370976L
sS'number'
p11
g6
sS'person_oid'
p12
L22L
sS'contact'
p13
L-1L
sS'starttime'
p14
cdatetime
datetime
p15
(S'\x07\xd5\x02\x04\x040\x04\x00\x00\x00'
p16
tp17
Rp18
sS'duration'
p19
L0L
sS'endtime'
p20
g15
(S'\x07\xd5\x02\x04\x040\x04\x00\x00\x00'
p21
tp22
Rp23
sS'phonenumber_oid'
p24
L1890L
s.(dp0
S'status'
p1
S''
p2
sS'direction'
p3
S'Outgoing'
p4
sS'remote'
p5
g2
sS'description'
p6
S'Voice Call'
p7
sS'callid'
p8
L4383L
sS'oid'
p9
L370977L
sS'number'
p10
g2
sS'person_oid'
p11
L22L
sS'contact'
p12
L80L
sS'starttime'
p13
cdatetime
datetime
p14
(S'\x07\xd5\x02\x04\x040*\x00\x00\x00'
p15
tp16
Rp17
sS'duration'
p18
L16L
sS'endtime'
p19
g14
(S'\x07\xd5\x02\x04\x040:\x00\x00\x00'
p20
tp21
Rp22
sS'phonenumber_oid'
p23
L1890L
s.(dp0
S'status'
p1
S'Sent'
p2
sS'direction'
p3
S'Outgoing'
p4
sS'remote'
p5
S''
p6
sS'description'
p7
S'Short Message'
p8
sS'callid'
p9
L4384L
sS'oid'
p10
L370978L
sS'number'
p11
g6
sS'person_oid'
p12
L22L
sS'contact'
p13
L-1L
sS'starttime'
p14
cdatetime
datetime
p15
(S'\x07\xd5\x02\x04\x041*\x00\x00\x00'
p16
tp17
Rp18
sS'duration'
p19
L0L
sS'endtime'
p20
g15
(S'\x07\xd5\x02\x04\x041*\x00\x00\x00'
p21
tp22
Rp23
sS'phonenumber_oid'
p24
L1890L
s.(dp0
S'status'
p1
S''
p2
sS'direction'
p3
S'Incoming'
p4
sS'remote'
p5
g2
sS'description'
p6
S'Voice Call'
p7
sS'callid'
p8
L4386L
sS'oid'
p9
L370979L
sS'number'
p10
g2
sS'person_oid'
p11
L22L
sS'contact'
p12
L80L
sS'starttime'
p13
cdatetime
datetime
p14
(S'\x07\xd5\x02\x04\x0418\x00\x00\x00'
p15
tp16
Rp17
sS'duration'
p18
L51L
sS'endtime'
p19
g14
(S'\x07\xd5\x02\x04\x042/\x00\x00\x00'
p20
tp21
Rp22
sS'phonenumber_oid'
p23
L1890L
s.(dp0
S'status'
p1
S''
p2
sS'direction'
p3
S'Outgoing'
p4
sS'remote'
p5
g2
sS'description'
p6
S'Voice Call'
p7
sS'callid'
p8
L4388L
sS'oid'
p9
L370980L
sS'number'
p10
g2
sS'person_oid'
p11
L22L
sS'contact'
p12
L80L
sS'starttime'
p13
cdatetime
datetime
p14
(S'\x07\xd5\x02\x04\x049(\x00\x00\x00'
p15
tp16
Rp17
sS'duration'
p18
L64L
sS'endtime'
p19
g14
(S'\x07\xd5\x02\x04\x04:,\x00\x00\x00'
p20
tp21
Rp22
sS'phonenumber_oid'
p23
L1890L
s.(dp0
S'status'
p1
S'Delivered'
p2
sS'direction'
p3
S'Incoming'
p4
sS'remote'
p5
S''
p6
sS'description'
p7
S'Short Message'
p8
sS'callid'
p9
L4389L
sS'oid'
p10
L370981L
sS'number'
p11
g6
sS'person_oid'
p12
L22L
sS'contact'
p13
L-1L
sS'starttime'
p14
cdatetime
datetime
p15
(S'\x07\xd5\x02\x04\x05.3\x00\x00\x00'
p16
tp17
Rp18
sS'duration'
p19
L0L
sS'endtime'
p20
g15
(S'\x07\xd5\x02\x04\x05.3\x00\x00\x00'
p21
tp22
Rp23
sS'phonenumber_oid'
p24
L1910L
s.