(dp0
S'status'
p1
S''
p2
sS'direction'
p3
S'Incoming'
p4
sS'remote'
p5
g2
sS'description'
p6
S'Voice Call'
p7
sS'callid'
p8
L2484L
sS'oid'
p9
L231945L
sS'number'
p10
g2
sS'person_oid'
p11
L18L
sS'contact'
p12
L-1L
sS'starttime'
p13
cdatetime
datetime
p14
(S'\x07\xd4\t\x02\x1378\x00\x00\x00'
p15
tp16
Rp17
sS'duration'
p18
L6L
sS'endtime'
p19
g14
(S'\x07\xd4\t\x02\x138\x02\x00\x00\x00'
p20
tp21
Rp22
sS'phonenumber_oid'
p23
L3L
s.(dp0
S'status'
p1
S''
p2
sS'direction'
p3
S'Outgoing'
p4
sS'remote'
p5
g2
sS'description'
p6
S'Voice Call'
p7
sS'callid'
p8
L2485L
sS'oid'
p9
L231946L
sS'number'
p10
g2
sS'person_oid'
p11
L18L
sS'contact'
p12
L22L
sS'starttime'
p13
cdatetime
datetime
p14
(S'\x07\xd4\t\x02\x138#\x00\x00\x00'
p15
tp16
Rp17
sS'duration'
p18
L5L
sS'endtime'
p19
g14
(S'\x07\xd4\t\x02\x138(\x00\x00\x00'
p20
tp21
Rp22
sS'phonenumber_oid'
p23
L1091L
s.(dp0
S'status'
p1
S''
p2
sS'direction'
p3
S'Outgoing'
p4
sS'remote'
p5
g2
sS'description'
p6
S'Voice Call'
p7
sS'callid'
p8
L2486L
sS'oid'
p9
L231947L
sS'number'
p10
g2
sS'person_oid'
p11
L18L
sS'contact'
p12
L22L
sS'starttime'
p13
cdatetime
datetime
p14
(S'\x07\xd4\t\x02\x1388\x00\x00\x00'
p15
tp16
Rp17
sS'duration'
p18
L1L
sS'endtime'
p19
g14
(S'\x07\xd4\t\x02\x1389\x00\x00\x00'
p20
tp21
Rp22
sS'phonenumber_oid'
p23
L1091L
s.(dp0
S'status'
p1
S''
p2
sS'direction'
p3
S'Outgoing'
p4
sS'remote'
p5
g2
sS'description'
p6
S'Voice Call'
p7
sS'callid'
p8
L3726L
sS'oid'
p9
L231948L
sS'number'
p10
g2
sS'person_oid'
p11
L18L
sS'contact'
p12
L75L
sS'starttime'
p13
cdatetime
datetime
p14
(S'\x07\xd4\x0b\x15\x0b\x02\x0f\x00\x00\x00'
p15
tp16
Rp17
sS'duration'
p18
L0L
sS'endtime'
p19
g14
(S'\x07\xd4\x0b\x15\x0b\x02\x0f\x00\x00\x00'
p20
tp21
Rp22
sS'phonenumber_oid'
p23
L1131L
s.(dp0
S'status'
p1
S''
p2
sS'direction'
p3
S'Missed Call'
p4
sS'remote'
p5
g2
sS'description'
p6
S'Voice Call'
p7
sS'callid'
p8
L3735L
sS'oid'
p9
L231949L
sS'number'
p10
g2
sS'person_oid'
p11
L18L
sS'contact'
p12
L95L
sS'starttime'
p13
cdatetime
datetime
p14
(S'\x07\xd4\x0b\x15\x0f\x04\n\x00\x00\x00'
p15
tp16
Rp17
sS'duration'
p18
L0L
sS'endtime'
p19
g14
(S'\x07\xd4\x0b\x15\x0f\x04\n\x00\x00\x00'
p20
tp21
Rp22
sS'phonenumber_oid'
p23
L1132L
s.(dp0
S'status'
p1
S''
p2
sS'direction'
p3
S'Missed Call'
p4
sS'remote'
p5
g2
sS'description'
p6
S'Voice Call'
p7
sS'callid'
p8
L3735L
sS'oid'
p9
L231980L
sS'number'
p10
g2
sS'person_oid'
p11
L18L
sS'contact'
p12
L95L
sS'starttime'
p13
cdatetime
datetime
p14
(S'\x07\xd4\x0b\x15\x0f\x04\n\x00\x00\x00'
p15
tp16
Rp17
sS'duration'
p18
L0L
sS'endtime'
p19
g14
(S'\x07\xd4\x0b\x15\x0f\x04\n\x00\x00\x00'
p20
tp21
Rp22
sS'phonenumber_oid'
p23
L1132L
s.(dp0
S'status'
p1
S''
p2
sS'direction'
p3
S'Missed Call'
p4
sS'remote'
p5
g2
sS'description'
p6
S'Voice Call'
p7
sS'callid'
p8
L3735L
sS'oid'
p9
L232012L
sS'number'
p10
g2
sS'person_oid'
p11
L18L
sS'contact'
p12
L95L
sS'starttime'
p13
cdatetime
datetime
p14
(S'\x07\xd4\x0b\x15\x0f\x04\n\x00\x00\x00'
p15
tp16
Rp17
sS'duration'
p18
L0L
sS'endtime'
p19
g14
(S'\x07\xd4\x0b\x15\x0f\x04\n\x00\x00\x00'
p20
tp21
Rp22
sS'phonenumber_oid'
p23
L1132L
s.(dp0
S'status'
p1
S''
p2
sS'direction'
p3
S'Missed Call'
p4
sS'remote'
p5
g2
sS'description'
p6
S'Voice Call'
p7
sS'callid'
p8
L3735L
sS'oid'
p9
L232044L
sS'number'
p10
g2
sS'person_oid'
p11
L18L
sS'contact'
p12
L95L
sS'starttime'
p13
cdatetime
datetime
p14
(S'\x07\xd4\x0b\x15\x0f\x04\n\x00\x00\x00'
p15
tp16
Rp17
sS'duration'
p18
L0L
sS'endtime'
p19
g14
(S'\x07\xd4\x0b\x15\x0f\x04\n\x00\x00\x00'
p20
tp21
Rp22
sS'phonenumber_oid'
p23
L1132L
s.(dp0
S'status'
p1
S''
p2
sS'direction'
p3
S'Outgoing'
p4
sS'remote'
p5
g2
sS'description'
p6
S'Voice Call'
p7
sS'callid'
p8
L3736L
sS'oid'
p9
L231950L
sS'number'
p10
g2
sS'person_oid'
p11
L18L
sS'contact'
p12
L95L
sS'starttime'
p13
cdatetime
datetime
p14
(S'\x07\xd4\x0b\x15\x0f\x05\x1b\x00\x00\x00'
p15
tp16
Rp17
sS'duration'
p18
L86L
sS'endtime'
p19
g14
(S'\x07\xd4\x0b\x15\x0f\x065\x00\x00\x00'
p20
tp21
Rp22
sS'phonenumber_oid'
p23
L1132L
s.(dp0
S'status'
p1
S''
p2
sS'direction'
p3
S'Outgoing'
p4
sS'remote'
p5
g2
sS'description'
p6
S'Voice Call'
p7
sS'callid'
p8
L3736L
sS'oid'
p9
L231981L
sS'number'
p10
g2
sS'person_oid'
p11
L18L
sS'contact'
p12
L95L
sS'starttime'
p13
cdatetime
datetime
p14
(S'\x07\xd4\x0b\x15\x0f\x05\x1b\x00\x00\x00'
p15
tp16
Rp17
sS'duration'
p18
L86L
sS'endtime'
p19
g14
(S'\x07\xd4\x0b\x15\x0f\x065\x00\x00\x00'
p20
tp21
Rp22
sS'phonenumber_oid'
p23
L1132L
s.(dp0
S'status'
p1
S''
p2
sS'direction'
p3
S'Outgoing'
p4
sS'remote'
p5
g2
sS'description'
p6
S'Voice Call'
p7
sS'callid'
p8
L3736L
sS'oid'
p9
L232013L
sS'number'
p10
g2
sS'person_oid'
p11
L18L
sS'contact'
p12
L95L
sS'starttime'
p13
cdatetime
datetime
p14
(S'\x07\xd4\x0b\x15\x0f\x05\x1b\x00\x00\x00'
p15
tp16
Rp17
sS'duration'
p18
L86L
sS'endtime'
p19
g14
(S'\x07\xd4\x0b\x15\x0f\x065\x00\x00\x00'
p20
tp21
Rp22
sS'phonenumber_oid'
p23
L1132L
s.(dp0
S'status'
p1
S''
p2
sS'direction'
p3
S'Outgoing'
p4
sS'remote'
p5
g2
sS'description'
p6
S'Voice Call'
p7
sS'callid'
p8
L3736L
sS'oid'
p9
L232045L
sS'number'
p10
g2
sS'person_oid'
p11
L18L
sS'contact'
p12
L95L
sS'starttime'
p13
cdatetime
datetime
p14
(S'\x07\xd4\x0b\x15\x0f\x05\x1b\x00\x00\x00'
p15
tp16
Rp17
sS'duration'
p18
L86L
sS'endtime'
p19
g14
(S'\x07\xd4\x0b\x15\x0f\x065\x00\x00\x00'
p20
tp21
Rp22
sS'phonenumber_oid'
p23
L1132L
s.(dp0
S'status'
p1
S''
p2
sS'direction'
p3
S'Outgoing'
p4
sS'remote'
p5
g2
sS'description'
p6
S'Voice Call'
p7
sS'callid'
p8
L3737L
sS'oid'
p9
L231951L
sS'number'
p10
g2
sS'person_oid'
p11
L18L
sS'contact'
p12
L95L
sS'starttime'
p13
cdatetime
datetime
p14
(S'\x07\xd4\x0b\x15\x10,\x06\x00\x00\x00'
p15
tp16
Rp17
sS'duration'
p18
L385L
sS'endtime'
p19
g14
(S'\x07\xd4\x0b\x15\x102\x1f\x00\x00\x00'
p20
tp21
Rp22
sS'phonenumber_oid'
p23
L1132L
s.(dp0
S'status'
p1
S''
p2
sS'direction'
p3
S'Outgoing'
p4
sS'remote'
p5
g2
sS'description'
p6
S'Voice Call'
p7
sS'callid'
p8
L3737L
sS'oid'
p9
L231982L
sS'number'
p10
g2
sS'person_oid'
p11
L18L
sS'contact'
p12
L95L
sS'starttime'
p13
cdatetime
datetime
p14
(S'\x07\xd4\x0b\x15\x10,\x06\x00\x00\x00'
p15
tp16
Rp17
sS'duration'
p18
L385L
sS'endtime'
p19
g14
(S'\x07\xd4\x0b\x15\x102\x1f\x00\x00\x00'
p20
tp21
Rp22
sS'phonenumber_oid'
p23
L1132L
s.(dp0
S'status'
p1
S''
p2
sS'direction'
p3
S'Outgoing'
p4
sS'remote'
p5
g2
sS'description'
p6
S'Voice Call'
p7
sS'callid'
p8
L3737L
sS'oid'
p9
L232014L
sS'number'
p10
g2
sS'person_oid'
p11
L18L
sS'contact'
p12
L95L
sS'starttime'
p13
cdatetime
datetime
p14
(S'\x07\xd4\x0b\x15\x10,\x06\x00\x00\x00'
p15
tp16
Rp17
sS'duration'
p18
L385L
sS'endtime'
p19
g14
(S'\x07\xd4\x0b\x15\x102\x1f\x00\x00\x00'
p20
tp21
Rp22
sS'phonenumber_oid'
p23
L1132L
s.(dp0
S'status'
p1
S''
p2
sS'direction'
p3
S'Outgoing'
p4
sS'remote'
p5
g2
sS'description'
p6
S'Voice Call'
p7
sS'callid'
p8
L3737L
sS'oid'
p9
L232046L
sS'number'
p10
g2
sS'person_oid'
p11
L18L
sS'contact'
p12
L95L
sS'starttime'
p13
cdatetime
datetime
p14
(S'\x07\xd4\x0b\x15\x10,\x06\x00\x00\x00'
p15
tp16
Rp17
sS'duration'
p18
L385L
sS'endtime'
p19
g14
(S'\x07\xd4\x0b\x15\x102\x1f\x00\x00\x00'
p20
tp21
Rp22
sS'phonenumber_oid'
p23
L1132L
s.(dp0
S'status'
p1
S''
p2
sS'direction'
p3
S'Missed Call'
p4
sS'remote'
p5
g2
sS'description'
p6
S'Voice Call'
p7
sS'callid'
p8
L3740L
sS'oid'
p9
L231952L
sS'number'
p10
g2
sS'person_oid'
p11
L18L
sS'contact'
p12
L95L
sS'starttime'
p13
cdatetime
datetime
p14
(S'\x07\xd4\x0b\x15\x14\x08\x11\x00\x00\x00'
p15
tp16
Rp17
sS'duration'
p18
L0L
sS'endtime'
p19
g14
(S'\x07\xd4\x0b\x15\x14\x08\x11\x00\x00\x00'
p20
tp21
Rp22
sS'phonenumber_oid'
p23
L1132L
s.(dp0
S'status'
p1
S''
p2
sS'direction'
p3
S'Missed Call'
p4
sS'remote'
p5
g2
sS'description'
p6
S'Voice Call'
p7
sS'callid'
p8
L3740L
sS'oid'
p9
L231983L
sS'number'
p10
g2
sS'person_oid'
p11
L18L
sS'contact'
p12
L95L
sS'starttime'
p13
cdatetime
datetime
p14
(S'\x07\xd4\x0b\x15\x14\x08\x11\x00\x00\x00'
p15
tp16
Rp17
sS'duration'
p18
L0L
sS'endtime'
p19
g14
(S'\x07\xd4\x0b\x15\x14\x08\x11\x00\x00\x00'
p20
tp21
Rp22
sS'phonenumber_oid'
p23
L1132L
s.(dp0
S'status'
p1
S''
p2
sS'direction'
p3
S'Missed Call'
p4
sS'remote'
p5
g2
sS'description'
p6
S'Voice Call'
p7
sS'callid'
p8
L3740L
sS'oid'
p9
L232015L
sS'number'
p10
g2
sS'person_oid'
p11
L18L
sS'contact'
p12
L95L
sS'starttime'
p13
cdatetime
datetime
p14
(S'\x07\xd4\x0b\x15\x14\x08\x11\x00\x00\x00'
p15
tp16
Rp17
sS'duration'
p18
L0L
sS'endtime'
p19
g14
(S'\x07\xd4\x0b\x15\x14\x08\x11\x00\x00\x00'
p20
tp21
Rp22
sS'phonenumber_oid'
p23
L1132L
s.(dp0
S'status'
p1
S''
p2
sS'direction'
p3
S'Missed Call'
p4
sS'remote'
p5
g2
sS'description'
p6
S'Voice Call'
p7
sS'callid'
p8
L3740L
sS'oid'
p9
L232047L
sS'number'
p10
g2
sS'person_oid'
p11
L18L
sS'contact'
p12
L95L
sS'starttime'
p13
cdatetime
datetime
p14
(S'\x07\xd4\x0b\x15\x14\x08\x11\x00\x00\x00'
p15
tp16
Rp17
sS'duration'
p18
L0L
sS'endtime'
p19
g14
(S'\x07\xd4\x0b\x15\x14\x08\x11\x00\x00\x00'
p20
tp21
Rp22
sS'phonenumber_oid'
p23
L1132L
s.(dp0
S'status'
p1
S''
p2
sS'direction'
p3
S'Incoming'
p4
sS'remote'
p5
g2
sS'description'
p6
S'Voice Call'
p7
sS'callid'
p8
L3742L
sS'oid'
p9
L231953L
sS'number'
p10
g2
sS'person_oid'
p11
L18L
sS'contact'
p12
L95L
sS'starttime'
p13
cdatetime
datetime
p14
(S'\x07\xd4\x0b\x15\x14\t\x08\x00\x00\x00'
p15
tp16
Rp17
sS'duration'
p18
L42L
sS'endtime'
p19
g14
(S'\x07\xd4\x0b\x15\x14\t2\x00\x00\x00'
p20
tp21
Rp22
sS'phonenumber_oid'
p23
L1132L
s.(dp0
S'status'
p1
S''
p2
sS'direction'
p3
S'Incoming'
p4
sS'remote'
p5
g2
sS'description'
p6
S'Voice Call'
p7
sS'callid'
p8
L3742L
sS'oid'
p9
L231984L
sS'number'
p10
g2
sS'person_oid'
p11
L18L
sS'contact'
p12
L95L
sS'starttime'
p13
cdatetime
datetime
p14
(S'\x07\xd4\x0b\x15\x14\t\x08\x00\x00\x00'
p15
tp16
Rp17
sS'duration'
p18
L42L
sS'endtime'
p19
g14
(S'\x07\xd4\x0b\x15\x14\t2\x00\x00\x00'
p20
tp21
Rp22
sS'phonenumber_oid'
p23
L1132L
s.(dp0
S'status'
p1
S''
p2
sS'direction'
p3
S'Incoming'
p4
sS'remote'
p5
g2
sS'description'
p6
S'Voice Call'
p7
sS'callid'
p8
L3742L
sS'oid'
p9
L232016L
sS'number'
p10
g2
sS'person_oid'
p11
L18L
sS'contact'
p12
L95L
sS'starttime'
p13
cdatetime
datetime
p14
(S'\x07\xd4\x0b\x15\x14\t\x08\x00\x00\x00'
p15
tp16
Rp17
sS'duration'
p18
L42L
sS'endtime'
p19
g14
(S'\x07\xd4\x0b\x15\x14\t2\x00\x00\x00'
p20
tp21
Rp22
sS'phonenumber_oid'
p23
L1132L
s.(dp0
S'status'
p1
S''
p2
sS'direction'
p3
S'Incoming'
p4
sS'remote'
p5
g2
sS'description'
p6
S'Voice Call'
p7
sS'callid'
p8
L3742L
sS'oid'
p9
L232048L
sS'number'
p10
g2
sS'person_oid'
p11
L18L
sS'contact'
p12
L95L
sS'starttime'
p13
cdatetime
datetime
p14
(S'\x07\xd4\x0b\x15\x14\t\x08\x00\x00\x00'
p15
tp16
Rp17
sS'duration'
p18
L42L
sS'endtime'
p19
g14
(S'\x07\xd4\x0b\x15\x14\t2\x00\x00\x00'
p20
tp21
Rp22
sS'phonenumber_oid'
p23
L1132L
s.(dp0
S'status'
p1
S''
p2
sS'direction'
p3
S'Incoming'
p4
sS'remote'
p5
g2
sS'description'
p6
S'Voice Call'
p7
sS'callid'
p8
L3744L
sS'oid'
p9
L231954L
sS'number'
p10
g2
sS'person_oid'
p11
L18L
sS'contact'
p12
L95L
sS'starttime'
p13
cdatetime
datetime
p14
(S'\x07\xd4\x0b\x15\x14\x11#\x00\x00\x00'
p15
tp16
Rp17
sS'duration'
p18
L46L
sS'endtime'
p19
g14
(S'\x07\xd4\x0b\x15\x14\x12\x15\x00\x00\x00'
p20
tp21
Rp22
sS'phonenumber_oid'
p23
L1132L
s.(dp0
S'status'
p1
S''
p2
sS'direction'
p3
S'Incoming'
p4
sS'remote'
p5
g2
sS'description'
p6
S'Voice Call'
p7
sS'callid'
p8
L3744L
sS'oid'
p9
L231985L
sS'number'
p10
g2
sS'person_oid'
p11
L18L
sS'contact'
p12
L95L
sS'starttime'
p13
cdatetime
datetime
p14
(S'\x07\xd4\x0b\x15\x14\x11#\x00\x00\x00'
p15
tp16
Rp17
sS'duration'
p18
L46L
sS'endtime'
p19
g14
(S'\x07\xd4\x0b\x15\x14\x12\x15\x00\x00\x00'
p20
tp21
Rp22
sS'phonenumber_oid'
p23
L1132L
s.(dp0
S'status'
p1
S''
p2
sS'direction'
p3
S'Incoming'
p4
sS'remote'
p5
g2
sS'description'
p6
S'Voice Call'
p7
sS'callid'
p8
L3744L
sS'oid'
p9
L232017L
sS'number'
p10
g2
sS'person_oid'
p11
L18L
sS'contact'
p12
L95L
sS'starttime'
p13
cdatetime
datetime
p14
(S'\x07\xd4\x0b\x15\x14\x11#\x00\x00\x00'
p15
tp16
Rp17
sS'duration'
p18
L46L
sS'endtime'
p19
g14
(S'\x07\xd4\x0b\x15\x14\x12\x15\x00\x00\x00'
p20
tp21
Rp22
sS'phonenumber_oid'
p23
L1132L
s.(dp0
S'status'
p1
S''
p2
sS'direction'
p3
S'Incoming'
p4
sS'remote'
p5
g2
sS'description'
p6
S'Voice Call'
p7
sS'callid'
p8
L3744L
sS'oid'
p9
L232049L
sS'number'
p10
g2
sS'person_oid'
p11
L18L
sS'contact'
p12
L95L
sS'starttime'
p13
cdatetime
datetime
p14
(S'\x07\xd4\x0b\x15\x14\x11#\x00\x00\x00'
p15
tp16
Rp17
sS'duration'
p18
L46L
sS'endtime'
p19
g14
(S'\x07\xd4\x0b\x15\x14\x12\x15\x00\x00\x00'
p20
tp21
Rp22
sS'phonenumber_oid'
p23
L1132L
s.(dp0
S'status'
p1
S''
p2
sS'direction'
p3
S'Outgoing'
p4
sS'remote'
p5
g2
sS'description'
p6
S'Voice Call'
p7
sS'callid'
p8
L3745L
sS'oid'
p9
L231955L
sS'number'
p10
g2
sS'person_oid'
p11
L18L
sS'contact'
p12
L104L
sS'starttime'
p13
cdatetime
datetime
p14
(S'\x07\xd4\x0b\x15\x14\x15#\x00\x00\x00'
p15
tp16
Rp17
sS'duration'
p18
L0L
sS'endtime'
p19
g14
(S'\x07\xd4\x0b\x15\x14\x15#\x00\x00\x00'
p20
tp21
Rp22
sS'phonenumber_oid'
p23
L1133L
s.(dp0
S'status'
p1
S''
p2
sS'direction'
p3
S'Outgoing'
p4
sS'remote'
p5
g2
sS'description'
p6
S'Voice Call'
p7
sS'callid'
p8
L3745L
sS'oid'
p9
L231986L
sS'number'
p10
g2
sS'person_oid'
p11
L18L
sS'contact'
p12
L104L
sS'starttime'
p13
cdatetime
datetime
p14
(S'\x07\xd4\x0b\x15\x14\x15#\x00\x00\x00'
p15
tp16
Rp17
sS'duration'
p18
L0L
sS'endtime'
p19
g14
(S'\x07\xd4\x0b\x15\x14\x15#\x00\x00\x00'
p20
tp21
Rp22
sS'phonenumber_oid'
p23
L1133L
s.(dp0
S'status'
p1
S''
p2
sS'direction'
p3
S'Outgoing'
p4
sS'remote'
p5
g2
sS'description'
p6
S'Voice Call'
p7
sS'callid'
p8
L3745L
sS'oid'
p9
L232018L
sS'number'
p10
g2
sS'person_oid'
p11
L18L
sS'contact'
p12
L104L
sS'starttime'
p13
cdatetime
datetime
p14
(S'\x07\xd4\x0b\x15\x14\x15#\x00\x00\x00'
p15
tp16
Rp17
sS'duration'
p18
L0L
sS'endtime'
p19
g14
(S'\x07\xd4\x0b\x15\x14\x15#\x00\x00\x00'
p20
tp21
Rp22
sS'phonenumber_oid'
p23
L1133L
s.(dp0
S'status'
p1
S''
p2
sS'direction'
p3
S'Outgoing'
p4
sS'remote'
p5
g2
sS'description'
p6
S'Voice Call'
p7
sS'callid'
p8
L3745L
sS'oid'
p9
L232050L
sS'number'
p10
g2
sS'person_oid'
p11
L18L
sS'contact'
p12
L104L
sS'starttime'
p13
cdatetime
datetime
p14
(S'\x07\xd4\x0b\x15\x14\x15#\x00\x00\x00'
p15
tp16
Rp17
sS'duration'
p18
L0L
sS'endtime'
p19
g14
(S'\x07\xd4\x0b\x15\x14\x15#\x00\x00\x00'
p20
tp21
Rp22
sS'phonenumber_oid'
p23
L1133L
s.(dp0
S'status'
p1
S''
p2
sS'direction'
p3
S'Outgoing'
p4
sS'remote'
p5
g2
sS'description'
p6
S'Voice Call'
p7
sS'callid'
p8
L3746L
sS'oid'
p9
L231956L
sS'number'
p10
g2
sS'person_oid'
p11
L18L
sS'contact'
p12
L104L
sS'starttime'
p13
cdatetime
datetime
p14
(S'\x07\xd4\x0b\x15\x14\x164\x00\x00\x00'
p15
tp16
Rp17
sS'duration'
p18
L8L
sS'endtime'
p19
g14
(S'\x07\xd4\x0b\x15\x14\x17\x00\x00\x00\x00'
p20
tp21
Rp22
sS'phonenumber_oid'
p23
L1133L
s.(dp0
S'status'
p1
S''
p2
sS'direction'
p3
S'Outgoing'
p4
sS'remote'
p5
g2
sS'description'
p6
S'Voice Call'
p7
sS'callid'
p8
L3746L
sS'oid'
p9
L231987L
sS'number'
p10
g2
sS'person_oid'
p11
L18L
sS'contact'
p12
L104L
sS'starttime'
p13
cdatetime
datetime
p14
(S'\x07\xd4\x0b\x15\x14\x164\x00\x00\x00'
p15
tp16
Rp17
sS'duration'
p18
L8L
sS'endtime'
p19
g14
(S'\x07\xd4\x0b\x15\x14\x17\x00\x00\x00\x00'
p20
tp21
Rp22
sS'phonenumber_oid'
p23
L1133L
s.(dp0
S'status'
p1
S''
p2
sS'direction'
p3
S'Outgoing'
p4
sS'remote'
p5
g2
sS'description'
p6
S'Voice Call'
p7
sS'callid'
p8
L3746L
sS'oid'
p9
L232019L
sS'number'
p10
g2
sS'person_oid'
p11
L18L
sS'contact'
p12
L104L
sS'starttime'
p13
cdatetime
datetime
p14
(S'\x07\xd4\x0b\x15\x14\x164\x00\x00\x00'
p15
tp16
Rp17
sS'duration'
p18
L8L
sS'endtime'
p19
g14
(S'\x07\xd4\x0b\x15\x14\x17\x00\x00\x00\x00'
p20
tp21
Rp22
sS'phonenumber_oid'
p23
L1133L
s.(dp0
S'status'
p1
S''
p2
sS'direction'
p3
S'Outgoing'
p4
sS'remote'
p5
g2
sS'description'
p6
S'Voice Call'
p7
sS'callid'
p8
L3746L
sS'oid'
p9
L232051L
sS'number'
p10
g2
sS'person_oid'
p11
L18L
sS'contact'
p12
L104L
sS'starttime'
p13
cdatetime
datetime
p14
(S'\x07\xd4\x0b\x15\x14\x164\x00\x00\x00'
p15
tp16
Rp17
sS'duration'
p18
L8L
sS'endtime'
p19
g14
(S'\x07\xd4\x0b\x15\x14\x17\x00\x00\x00\x00'
p20
tp21
Rp22
sS'phonenumber_oid'
p23
L1133L
s.(dp0
S'status'
p1
S''
p2
sS'direction'
p3
S'Outgoing'
p4
sS'remote'
p5
g2
sS'description'
p6
S'Voice Call'
p7
sS'callid'
p8
L3747L
sS'oid'
p9
L231957L
sS'number'
p10
g2
sS'person_oid'
p11
L18L
sS'contact'
p12
L22L
sS'starttime'
p13
cdatetime
datetime
p14
(S'\x07\xd4\x0b\x15\x14\x17\x19\x00\x00\x00'
p15
tp16
Rp17
sS'duration'
p18
L17L
sS'endtime'
p19
g14
(S'\x07\xd4\x0b\x15\x14\x17*\x00\x00\x00'
p20
tp21
Rp22
sS'phonenumber_oid'
p23
L1091L
s.(dp0
S'status'
p1
S''
p2
sS'direction'
p3
S'Outgoing'
p4
sS'remote'
p5
g2
sS'description'
p6
S'Voice Call'
p7
sS'callid'
p8
L3747L
sS'oid'
p9
L231988L
sS'number'
p10
g2
sS'person_oid'
p11
L18L
sS'contact'
p12
L22L
sS'starttime'
p13
cdatetime
datetime
p14
(S'\x07\xd4\x0b\x15\x14\x17\x19\x00\x00\x00'
p15
tp16
Rp17
sS'duration'
p18
L17L
sS'endtime'
p19
g14
(S'\x07\xd4\x0b\x15\x14\x17*\x00\x00\x00'
p20
tp21
Rp22
sS'phonenumber_oid'
p23
L1091L
s.(dp0
S'status'
p1
S''
p2
sS'direction'
p3
S'Outgoing'
p4
sS'remote'
p5
g2
sS'description'
p6
S'Voice Call'
p7
sS'callid'
p8
L3747L
sS'oid'
p9
L232020L
sS'number'
p10
g2
sS'person_oid'
p11
L18L
sS'contact'
p12
L22L
sS'starttime'
p13
cdatetime
datetime
p14
(S'\x07\xd4\x0b\x15\x14\x17\x19\x00\x00\x00'
p15
tp16
Rp17
sS'duration'
p18
L17L
sS'endtime'
p19
g14
(S'\x07\xd4\x0b\x15\x14\x17*\x00\x00\x00'
p20
tp21
Rp22
sS'phonenumber_oid'
p23
L1091L
s.(dp0
S'status'
p1
S''
p2
sS'direction'
p3
S'Outgoing'
p4
sS'remote'
p5
g2
sS'description'
p6
S'Voice Call'
p7
sS'callid'
p8
L3747L
sS'oid'
p9
L232052L
sS'number'
p10
g2
sS'person_oid'
p11
L18L
sS'contact'
p12
L22L
sS'starttime'
p13
cdatetime
datetime
p14
(S'\x07\xd4\x0b\x15\x14\x17\x19\x00\x00\x00'
p15
tp16
Rp17
sS'duration'
p18
L17L
sS'endtime'
p19
g14
(S'\x07\xd4\x0b\x15\x14\x17*\x00\x00\x00'
p20
tp21
Rp22
sS'phonenumber_oid'
p23
L1091L
s.(dp0
S'status'
p1
S''
p2
sS'direction'
p3
S'Incoming'
p4
sS'remote'
p5
g2
sS'description'
p6
S'Voice Call'
p7
sS'callid'
p8
L3749L
sS'oid'
p9
L231958L
sS'number'
p10
g2
sS'person_oid'
p11
L18L
sS'contact'
p12
L95L
sS'starttime'
p13
cdatetime
datetime
p14
(S'\x07\xd4\x0b\x15\x14\x19+\x00\x00\x00'
p15
tp16
Rp17
sS'duration'
p18
L75L
sS'endtime'
p19
g14
(S'\x07\xd4\x0b\x15\x14\x1a:\x00\x00\x00'
p20
tp21
Rp22
sS'phonenumber_oid'
p23
L1132L
s.(dp0
S'status'
p1
S''
p2
sS'direction'
p3
S'Incoming'
p4
sS'remote'
p5
g2
sS'description'
p6
S'Voice Call'
p7
sS'callid'
p8
L3749L
sS'oid'
p9
L231989L
sS'number'
p10
g2
sS'person_oid'
p11
L18L
sS'contact'
p12
L95L
sS'starttime'
p13
cdatetime
datetime
p14
(S'\x07\xd4\x0b\x15\x14\x19+\x00\x00\x00'
p15
tp16
Rp17
sS'duration'
p18
L75L
sS'endtime'
p19
g14
(S'\x07\xd4\x0b\x15\x14\x1a:\x00\x00\x00'
p20
tp21
Rp22
sS'phonenumber_oid'
p23
L1132L
s.(dp0
S'status'
p1
S''
p2
sS'direction'
p3
S'Incoming'
p4
sS'remote'
p5
g2
sS'description'
p6
S'Voice Call'
p7
sS'callid'
p8
L3749L
sS'oid'
p9
L232021L
sS'number'
p10
g2
sS'person_oid'
p11
L18L
sS'contact'
p12
L95L
sS'starttime'
p13
cdatetime
datetime
p14
(S'\x07\xd4\x0b\x15\x14\x19+\x00\x00\x00'
p15
tp16
Rp17
sS'duration'
p18
L75L
sS'endtime'
p19
g14
(S'\x07\xd4\x0b\x15\x14\x1a:\x00\x00\x00'
p20
tp21
Rp22
sS'phonenumber_oid'
p23
L1132L
s.(dp0
S'status'
p1
S''
p2
sS'direction'
p3
S'Incoming'
p4
sS'remote'
p5
g2
sS'description'
p6
S'Voice Call'
p7
sS'callid'
p8
L3749L
sS'oid'
p9
L232053L
sS'number'
p10
g2
sS'person_oid'
p11
L18L
sS'contact'
p12
L95L
sS'starttime'
p13
cdatetime
datetime
p14
(S'\x07\xd4\x0b\x15\x14\x19+\x00\x00\x00'
p15
tp16
Rp17
sS'duration'
p18
L75L
sS'endtime'
p19
g14
(S'\x07\xd4\x0b\x15\x14\x1a:\x00\x00\x00'
p20
tp21
Rp22
sS'phonenumber_oid'
p23
L1132L
s.(dp0
S'status'
p1
S''
p2
sS'direction'
p3
S'Incoming'
p4
sS'remote'
p5
g2
sS'description'
p6
S'Voice Call'
p7
sS'callid'
p8
L3751L
sS'oid'
p9
L231959L
sS'number'
p10
g2
sS'person_oid'
p11
L18L
sS'contact'
p12
L-1L
sS'starttime'
p13
cdatetime
datetime
p14
(S'\x07\xd4\x0b\x15\x14!\r\x00\x00\x00'
p15
tp16
Rp17
sS'duration'
p18
L100L
sS'endtime'
p19
g14
(S'\x07\xd4\x0b\x15\x14"5\x00\x00\x00'
p20
tp21
Rp22
sS'phonenumber_oid'
p23
L3L
s.(dp0
S'status'
p1
S''
p2
sS'direction'
p3
S'Incoming'
p4
sS'remote'
p5
g2
sS'description'
p6
S'Voice Call'
p7
sS'callid'
p8
L3751L
sS'oid'
p9
L231990L
sS'number'
p10
g2
sS'person_oid'
p11
L18L
sS'contact'
p12
L-1L
sS'starttime'
p13
cdatetime
datetime
p14
(S'\x07\xd4\x0b\x15\x14!\r\x00\x00\x00'
p15
tp16
Rp17
sS'duration'
p18
L100L
sS'endtime'
p19
g14
(S'\x07\xd4\x0b\x15\x14"5\x00\x00\x00'
p20
tp21
Rp22
sS'phonenumber_oid'
p23
L3L
s.(dp0
S'status'
p1
S''
p2
sS'direction'
p3
S'Incoming'
p4
sS'remote'
p5
g2
sS'description'
p6
S'Voice Call'
p7
sS'callid'
p8
L3751L
sS'oid'
p9
L232022L
sS'number'
p10
g2
sS'person_oid'
p11
L18L
sS'contact'
p12
L-1L
sS'starttime'
p13
cdatetime
datetime
p14
(S'\x07\xd4\x0b\x15\x14!\r\x00\x00\x00'
p15
tp16
Rp17
sS'duration'
p18
L100L
sS'endtime'
p19
g14
(S'\x07\xd4\x0b\x15\x14"5\x00\x00\x00'
p20
tp21
Rp22
sS'phonenumber_oid'
p23
L3L
s.(dp0
S'status'
p1
S''
p2
sS'direction'
p3
S'Incoming'
p4
sS'remote'
p5
g2
sS'description'
p6
S'Voice Call'
p7
sS'callid'
p8
L3751L
sS'oid'
p9
L232054L
sS'number'
p10
g2
sS'person_oid'
p11
L18L
sS'contact'
p12
L-1L
sS'starttime'
p13
cdatetime
datetime
p14
(S'\x07\xd4\x0b\x15\x14!\r\x00\x00\x00'
p15
tp16
Rp17
sS'duration'
p18
L100L
sS'endtime'
p19
g14
(S'\x07\xd4\x0b\x15\x14"5\x00\x00\x00'
p20
tp21
Rp22
sS'phonenumber_oid'
p23
L3L
s.(dp0
S'status'
p1
S''
p2
sS'direction'
p3
S'Missed Call'
p4
sS'remote'
p5
g2
sS'description'
p6
S'Voice Call'
p7
sS'callid'
p8
L3752L
sS'oid'
p9
L231960L
sS'number'
p10
g2
sS'person_oid'
p11
L18L
sS'contact'
p12
L95L
sS'starttime'
p13
cdatetime
datetime
p14
(S'\x07\xd4\x0b\x15\x14"\x02\x00\x00\x00'
p15
tp16
Rp17
sS'duration'
p18
L0L
sS'endtime'
p19
g14
(S'\x07\xd4\x0b\x15\x14"\x02\x00\x00\x00'
p20
tp21
Rp22
sS'phonenumber_oid'
p23
L1132L
s.(dp0
S'status'
p1
S''
p2
sS'direction'
p3
S'Missed Call'
p4
sS'remote'
p5
g2
sS'description'
p6
S'Voice Call'
p7
sS'callid'
p8
L3752L
sS'oid'
p9
L231991L
sS'number'
p10
g2
sS'person_oid'
p11
L18L
sS'contact'
p12
L95L
sS'starttime'
p13
cdatetime
datetime
p14
(S'\x07\xd4\x0b\x15\x14"\x02\x00\x00\x00'
p15
tp16
Rp17
sS'duration'
p18
L0L
sS'endtime'
p19
g14
(S'\x07\xd4\x0b\x15\x14"\x02\x00\x00\x00'
p20
tp21
Rp22
sS'phonenumber_oid'
p23
L1132L
s.(dp0
S'status'
p1
S''
p2
sS'direction'
p3
S'Missed Call'
p4
sS'remote'
p5
g2
sS'description'
p6
S'Voice Call'
p7
sS'callid'
p8
L3752L
sS'oid'
p9
L232023L
sS'number'
p10
g2
sS'person_oid'
p11
L18L
sS'contact'
p12
L95L
sS'starttime'
p13
cdatetime
datetime
p14
(S'\x07\xd4\x0b\x15\x14"\x02\x00\x00\x00'
p15
tp16
Rp17
sS'duration'
p18
L0L
sS'endtime'
p19
g14
(S'\x07\xd4\x0b\x15\x14"\x02\x00\x00\x00'
p20
tp21
Rp22
sS'phonenumber_oid'
p23
L1132L
s.(dp0
S'status'
p1
S''
p2
sS'direction'
p3
S'Missed Call'
p4
sS'remote'
p5
g2
sS'description'
p6
S'Voice Call'
p7
sS'callid'
p8
L3752L
sS'oid'
p9
L232055L
sS'number'
p10
g2
sS'person_oid'
p11
L18L
sS'contact'
p12
L95L
sS'starttime'
p13
cdatetime
datetime
p14
(S'\x07\xd4\x0b\x15\x14"\x02\x00\x00\x00'
p15
tp16
Rp17
sS'duration'
p18
L0L
sS'endtime'
p19
g14
(S'\x07\xd4\x0b\x15\x14"\x02\x00\x00\x00'
p20
tp21
Rp22
sS'phonenumber_oid'
p23
L1132L
s.(dp0
S'status'
p1
S''
p2
sS'direction'
p3
S'Incoming'
p4
sS'remote'
p5
g2
sS'description'
p6
S'Voice Call'
p7
sS'callid'
p8
L3754L
sS'oid'
p9
L231961L
sS'number'
p10
g2
sS'person_oid'
p11
L18L
sS'contact'
p12
L95L
sS'starttime'
p13
cdatetime
datetime
p14
(S'\x07\xd4\x0b\x15\x14":\x00\x00\x00'
p15
tp16
Rp17
sS'duration'
p18
L0L
sS'endtime'
p19
g14
(S'\x07\xd4\x0b\x15\x14":\x00\x00\x00'
p20
tp21
Rp22
sS'phonenumber_oid'
p23
L1132L
s.(dp0
S'status'
p1
S''
p2
sS'direction'
p3
S'Incoming'
p4
sS'remote'
p5
g2
sS'description'
p6
S'Voice Call'
p7
sS'callid'
p8
L3754L
sS'oid'
p9
L231992L
sS'number'
p10
g2
sS'person_oid'
p11
L18L
sS'contact'
p12
L95L
sS'starttime'
p13
cdatetime
datetime
p14
(S'\x07\xd4\x0b\x15\x14":\x00\x00\x00'
p15
tp16
Rp17
sS'duration'
p18
L0L
sS'endtime'
p19
g14
(S'\x07\xd4\x0b\x15\x14":\x00\x00\x00'
p20
tp21
Rp22
sS'phonenumber_oid'
p23
L1132L
s.(dp0
S'status'
p1
S''
p2
sS'direction'
p3
S'Incoming'
p4
sS'remote'
p5
g2
sS'description'
p6
S'Voice Call'
p7
sS'callid'
p8
L3754L
sS'oid'
p9
L232024L
sS'number'
p10
g2
sS'person_oid'
p11
L18L
sS'contact'
p12
L95L
sS'starttime'
p13
cdatetime
datetime
p14
(S'\x07\xd4\x0b\x15\x14":\x00\x00\x00'
p15
tp16
Rp17
sS'duration'
p18
L0L
sS'endtime'
p19
g14
(S'\x07\xd4\x0b\x15\x14":\x00\x00\x00'
p20
tp21
Rp22
sS'phonenumber_oid'
p23
L1132L
s.(dp0
S'status'
p1
S''
p2
sS'direction'
p3
S'Incoming'
p4
sS'remote'
p5
g2
sS'description'
p6
S'Voice Call'
p7
sS'callid'
p8
L3754L
sS'oid'
p9
L232056L
sS'number'
p10
g2
sS'person_oid'
p11
L18L
sS'contact'
p12
L95L
sS'starttime'
p13
cdatetime
datetime
p14
(S'\x07\xd4\x0b\x15\x14":\x00\x00\x00'
p15
tp16
Rp17
sS'duration'
p18
L0L
sS'endtime'
p19
g14
(S'\x07\xd4\x0b\x15\x14":\x00\x00\x00'
p20
tp21
Rp22
sS'phonenumber_oid'
p23
L1132L
s.(dp0
S'status'
p1
S''
p2
sS'direction'
p3
S'Outgoing'
p4
sS'remote'
p5
g2
sS'description'
p6
S'Voice Call'
p7
sS'callid'
p8
L3755L
sS'oid'
p9
L231962L
sS'number'
p10
g2
sS'person_oid'
p11
L18L
sS'contact'
p12
L95L
sS'starttime'
p13
cdatetime
datetime
p14
(S'\x07\xd4\x0b\x15\x14#\x13\x00\x00\x00'
p15
tp16
Rp17
sS'duration'
p18
L177L
sS'endtime'
p19
g14
(S'\x07\xd4\x0b\x15\x14&\x10\x00\x00\x00'
p20
tp21
Rp22
sS'phonenumber_oid'
p23
L1132L
s.(dp0
S'status'
p1
S''
p2
sS'direction'
p3
S'Outgoing'
p4
sS'remote'
p5
g2
sS'description'
p6
S'Voice Call'
p7
sS'callid'
p8
L3755L
sS'oid'
p9
L231993L
sS'number'
p10
g2
sS'person_oid'
p11
L18L
sS'contact'
p12
L95L
sS'starttime'
p13
cdatetime
datetime
p14
(S'\x07\xd4\x0b\x15\x14#\x13\x00\x00\x00'
p15
tp16
Rp17
sS'duration'
p18
L177L
sS'endtime'
p19
g14
(S'\x07\xd4\x0b\x15\x14&\x10\x00\x00\x00'
p20
tp21
Rp22
sS'phonenumber_oid'
p23
L1132L
s.(dp0
S'status'
p1
S''
p2
sS'direction'
p3
S'Outgoing'
p4
sS'remote'
p5
g2
sS'description'
p6
S'Voice Call'
p7
sS'callid'
p8
L3755L
sS'oid'
p9
L232025L
sS'number'
p10
g2
sS'person_oid'
p11
L18L
sS'contact'
p12
L95L
sS'starttime'
p13
cdatetime
datetime
p14
(S'\x07\xd4\x0b\x15\x14#\x13\x00\x00\x00'
p15
tp16
Rp17
sS'duration'
p18
L177L
sS'endtime'
p19
g14
(S'\x07\xd4\x0b\x15\x14&\x10\x00\x00\x00'
p20
tp21
Rp22
sS'phonenumber_oid'
p23
L1132L
s.(dp0
S'status'
p1
S''
p2
sS'direction'
p3
S'Outgoing'
p4
sS'remote'
p5
g2
sS'description'
p6
S'Voice Call'
p7
sS'callid'
p8
L3755L
sS'oid'
p9
L232057L
sS'number'
p10
g2
sS'person_oid'
p11
L18L
sS'contact'
p12
L95L
sS'starttime'
p13
cdatetime
datetime
p14
(S'\x07\xd4\x0b\x15\x14#\x13\x00\x00\x00'
p15
tp16
Rp17
sS'duration'
p18
L177L
sS'endtime'
p19
g14
(S'\x07\xd4\x0b\x15\x14&\x10\x00\x00\x00'
p20
tp21
Rp22
sS'phonenumber_oid'
p23
L1132L
s.(dp0
S'status'
p1
S''
p2
sS'direction'
p3
S'Outgoing'
p4
sS'remote'
p5
g2
sS'description'
p6
S'Voice Call'
p7
sS'callid'
p8
L3756L
sS'oid'
p9
L231963L
sS'number'
p10
g2
sS'person_oid'
p11
L18L
sS'contact'
p12
L95L
sS'starttime'
p13
cdatetime
datetime
p14
(S'\x07\xd4\x0b\x15\x14+\n\x00\x00\x00'
p15
tp16
Rp17
sS'duration'
p18
L97L
sS'endtime'
p19
g14
(S'\x07\xd4\x0b\x15\x14,/\x00\x00\x00'
p20
tp21
Rp22
sS'phonenumber_oid'
p23
L1132L
s.(dp0
S'status'
p1
S''
p2
sS'direction'
p3
S'Outgoing'
p4
sS'remote'
p5
g2
sS'description'
p6
S'Voice Call'
p7
sS'callid'
p8
L3756L
sS'oid'
p9
L231994L
sS'number'
p10
g2
sS'person_oid'
p11
L18L
sS'contact'
p12
L95L
sS'starttime'
p13
cdatetime
datetime
p14
(S'\x07\xd4\x0b\x15\x14+\n\x00\x00\x00'
p15
tp16
Rp17
sS'duration'
p18
L97L
sS'endtime'
p19
g14
(S'\x07\xd4\x0b\x15\x14,/\x00\x00\x00'
p20
tp21
Rp22
sS'phonenumber_oid'
p23
L1132L
s.(dp0
S'status'
p1
S''
p2
sS'direction'
p3
S'Outgoing'
p4
sS'remote'
p5
g2
sS'description'
p6
S'Voice Call'
p7
sS'callid'
p8
L3756L
sS'oid'
p9
L232026L
sS'number'
p10
g2
sS'person_oid'
p11
L18L
sS'contact'
p12
L95L
sS'starttime'
p13
cdatetime
datetime
p14
(S'\x07\xd4\x0b\x15\x14+\n\x00\x00\x00'
p15
tp16
Rp17
sS'duration'
p18
L97L
sS'endtime'
p19
g14
(S'\x07\xd4\x0b\x15\x14,/\x00\x00\x00'
p20
tp21
Rp22
sS'phonenumber_oid'
p23
L1132L
s.(dp0
S'status'
p1
S''
p2
sS'direction'
p3
S'Outgoing'
p4
sS'remote'
p5
g2
sS'description'
p6
S'Voice Call'
p7
sS'callid'
p8
L3756L
sS'oid'
p9
L232058L
sS'number'
p10
g2
sS'person_oid'
p11
L18L
sS'contact'
p12
L95L
sS'starttime'
p13
cdatetime
datetime
p14
(S'\x07\xd4\x0b\x15\x14+\n\x00\x00\x00'
p15
tp16
Rp17
sS'duration'
p18
L97L
sS'endtime'
p19
g14
(S'\x07\xd4\x0b\x15\x14,/\x00\x00\x00'
p20
tp21
Rp22
sS'phonenumber_oid'
p23
L1132L
s.(dp0
S'status'
p1
S''
p2
sS'direction'
p3
S'Outgoing'
p4
sS'remote'
p5
g2
sS'description'
p6
S'Voice Call'
p7
sS'callid'
p8
L3757L
sS'oid'
p9
L231964L
sS'number'
p10
g2
sS'person_oid'
p11
L18L
sS'contact'
p12
L95L
sS'starttime'
p13
cdatetime
datetime
p14
(S'\x07\xd4\x0b\x15\x140.\x00\x00\x00'
p15
tp16
Rp17
sS'duration'
p18
L82L
sS'endtime'
p19
g14
(S'\x07\xd4\x0b\x15\x142\x08\x00\x00\x00'
p20
tp21
Rp22
sS'phonenumber_oid'
p23
L1132L
s.(dp0
S'status'
p1
S''
p2
sS'direction'
p3
S'Outgoing'
p4
sS'remote'
p5
g2
sS'description'
p6
S'Voice Call'
p7
sS'callid'
p8
L3757L
sS'oid'
p9
L231995L
sS'number'
p10
g2
sS'person_oid'
p11
L18L
sS'contact'
p12
L95L
sS'starttime'
p13
cdatetime
datetime
p14
(S'\x07\xd4\x0b\x15\x140.\x00\x00\x00'
p15
tp16
Rp17
sS'duration'
p18
L82L
sS'endtime'
p19
g14
(S'\x07\xd4\x0b\x15\x142\x08\x00\x00\x00'
p20
tp21
Rp22
sS'phonenumber_oid'
p23
L1132L
s.(dp0
S'status'
p1
S''
p2
sS'direction'
p3
S'Outgoing'
p4
sS'remote'
p5
g2
sS'description'
p6
S'Voice Call'
p7
sS'callid'
p8
L3757L
sS'oid'
p9
L232027L
sS'number'
p10
g2
sS'person_oid'
p11
L18L
sS'contact'
p12
L95L
sS'starttime'
p13
cdatetime
datetime
p14
(S'\x07\xd4\x0b\x15\x140.\x00\x00\x00'
p15
tp16
Rp17
sS'duration'
p18
L82L
sS'endtime'
p19
g14
(S'\x07\xd4\x0b\x15\x142\x08\x00\x00\x00'
p20
tp21
Rp22
sS'phonenumber_oid'
p23
L1132L
s.(dp0
S'status'
p1
S''
p2
sS'direction'
p3
S'Outgoing'
p4
sS'remote'
p5
g2
sS'description'
p6
S'Voice Call'
p7
sS'callid'
p8
L3757L
sS'oid'
p9
L232059L
sS'number'
p10
g2
sS'person_oid'
p11
L18L
sS'contact'
p12
L95L
sS'starttime'
p13
cdatetime
datetime
p14
(S'\x07\xd4\x0b\x15\x140.\x00\x00\x00'
p15
tp16
Rp17
sS'duration'
p18
L82L
sS'endtime'
p19
g14
(S'\x07\xd4\x0b\x15\x142\x08\x00\x00\x00'
p20
tp21
Rp22
sS'phonenumber_oid'
p23
L1132L
s.(dp0
S'status'
p1
S''
p2
sS'direction'
p3
S'Missed Call'
p4
sS'remote'
p5
g2
sS'description'
p6
S'Voice Call'
p7
sS'callid'
p8
L3758L
sS'oid'
p9
L231965L
sS'number'
p10
g2
sS'person_oid'
p11
L18L
sS'contact'
p12
L95L
sS'starttime'
p13
cdatetime
datetime
p14
(S'\x07\xd4\x0b\x15\x14;-\x00\x00\x00'
p15
tp16
Rp17
sS'duration'
p18
L0L
sS'endtime'
p19
g14
(S'\x07\xd4\x0b\x15\x14;-\x00\x00\x00'
p20
tp21
Rp22
sS'phonenumber_oid'
p23
L1132L
s.(dp0
S'status'
p1
S''
p2
sS'direction'
p3
S'Missed Call'
p4
sS'remote'
p5
g2
sS'description'
p6
S'Voice Call'
p7
sS'callid'
p8
L3758L
sS'oid'
p9
L231996L
sS'number'
p10
g2
sS'person_oid'
p11
L18L
sS'contact'
p12
L95L
sS'starttime'
p13
cdatetime
datetime
p14
(S'\x07\xd4\x0b\x15\x14;-\x00\x00\x00'
p15
tp16
Rp17
sS'duration'
p18
L0L
sS'endtime'
p19
g14
(S'\x07\xd4\x0b\x15\x14;-\x00\x00\x00'
p20
tp21
Rp22
sS'phonenumber_oid'
p23
L1132L
s.(dp0
S'status'
p1
S''
p2
sS'direction'
p3
S'Missed Call'
p4
sS'remote'
p5
g2
sS'description'
p6
S'Voice Call'
p7
sS'callid'
p8
L3758L
sS'oid'
p9
L232028L
sS'number'
p10
g2
sS'person_oid'
p11
L18L
sS'contact'
p12
L95L
sS'starttime'
p13
cdatetime
datetime
p14
(S'\x07\xd4\x0b\x15\x14;-\x00\x00\x00'
p15
tp16
Rp17
sS'duration'
p18
L0L
sS'endtime'
p19
g14
(S'\x07\xd4\x0b\x15\x14;-\x00\x00\x00'
p20
tp21
Rp22
sS'phonenumber_oid'
p23
L1132L
s.(dp0
S'status'
p1
S''
p2
sS'direction'
p3
S'Missed Call'
p4
sS'remote'
p5
g2
sS'description'
p6
S'Voice Call'
p7
sS'callid'
p8
L3758L
sS'oid'
p9
L232060L
sS'number'
p10
g2
sS'person_oid'
p11
L18L
sS'contact'
p12
L95L
sS'starttime'
p13
cdatetime
datetime
p14
(S'\x07\xd4\x0b\x15\x14;-\x00\x00\x00'
p15
tp16
Rp17
sS'duration'
p18
L0L
sS'endtime'
p19
g14
(S'\x07\xd4\x0b\x15\x14;-\x00\x00\x00'
p20
tp21
Rp22
sS'phonenumber_oid'
p23
L1132L
s.(dp0
S'status'
p1
S''
p2
sS'direction'
p3
S'Outgoing'
p4
sS'remote'
p5
g2
sS'description'
p6
S'Voice Call'
p7
sS'callid'
p8
L3759L
sS'oid'
p9
L231966L
sS'number'
p10
g2
sS'person_oid'
p11
L18L
sS'contact'
p12
L95L
sS'starttime'
p13
cdatetime
datetime
p14
(S'\x07\xd4\x0b\x15\x15\x01\x08\x00\x00\x00'
p15
tp16
Rp17
sS'duration'
p18
L62L
sS'endtime'
p19
g14
(S'\x07\xd4\x0b\x15\x15\x02\n\x00\x00\x00'
p20
tp21
Rp22
sS'phonenumber_oid'
p23
L1132L
s.(dp0
S'status'
p1
S''
p2
sS'direction'
p3
S'Outgoing'
p4
sS'remote'
p5
g2
sS'description'
p6
S'Voice Call'
p7
sS'callid'
p8
L3759L
sS'oid'
p9
L231997L
sS'number'
p10
g2
sS'person_oid'
p11
L18L
sS'contact'
p12
L95L
sS'starttime'
p13
cdatetime
datetime
p14
(S'\x07\xd4\x0b\x15\x15\x01\x08\x00\x00\x00'
p15
tp16
Rp17
sS'duration'
p18
L62L
sS'endtime'
p19
g14
(S'\x07\xd4\x0b\x15\x15\x02\n\x00\x00\x00'
p20
tp21
Rp22
sS'phonenumber_oid'
p23
L1132L
s.(dp0
S'status'
p1
S''
p2
sS'direction'
p3
S'Outgoing'
p4
sS'remote'
p5
g2
sS'description'
p6
S'Voice Call'
p7
sS'callid'
p8
L3759L
sS'oid'
p9
L232029L
sS'number'
p10
g2
sS'person_oid'
p11
L18L
sS'contact'
p12
L95L
sS'starttime'
p13
cdatetime
datetime
p14
(S'\x07\xd4\x0b\x15\x15\x01\x08\x00\x00\x00'
p15
tp16
Rp17
sS'duration'
p18
L62L
sS'endtime'
p19
g14
(S'\x07\xd4\x0b\x15\x15\x02\n\x00\x00\x00'
p20
tp21
Rp22
sS'phonenumber_oid'
p23
L1132L
s.(dp0
S'status'
p1
S''
p2
sS'direction'
p3
S'Outgoing'
p4
sS'remote'
p5
g2
sS'description'
p6
S'Voice Call'
p7
sS'callid'
p8
L3759L
sS'oid'
p9
L232061L
sS'number'
p10
g2
sS'person_oid'
p11
L18L
sS'contact'
p12
L95L
sS'starttime'
p13
cdatetime
datetime
p14
(S'\x07\xd4\x0b\x15\x15\x01\x08\x00\x00\x00'
p15
tp16
Rp17
sS'duration'
p18
L62L
sS'endtime'
p19
g14
(S'\x07\xd4\x0b\x15\x15\x02\n\x00\x00\x00'
p20
tp21
Rp22
sS'phonenumber_oid'
p23
L1132L
s.(dp0
S'status'
p1
S''
p2
sS'direction'
p3
S'Incoming'
p4
sS'remote'
p5
g2
sS'description'
p6
S'Voice Call'
p7
sS'callid'
p8
L3761L
sS'oid'
p9
L231967L
sS'number'
p10
g2
sS'person_oid'
p11
L18L
sS'contact'
p12
L95L
sS'starttime'
p13
cdatetime
datetime
p14
(S'\x07\xd4\x0b\x15\x15\x08\x0e\x00\x00\x00'
p15
tp16
Rp17
sS'duration'
p18
L13L
sS'endtime'
p19
g14
(S'\x07\xd4\x0b\x15\x15\x08\x1b\x00\x00\x00'
p20
tp21
Rp22
sS'phonenumber_oid'
p23
L1132L
s.(dp0
S'status'
p1
S''
p2
sS'direction'
p3
S'Incoming'
p4
sS'remote'
p5
g2
sS'description'
p6
S'Voice Call'
p7
sS'callid'
p8
L3761L
sS'oid'
p9
L231998L
sS'number'
p10
g2
sS'person_oid'
p11
L18L
sS'contact'
p12
L95L
sS'starttime'
p13
cdatetime
datetime
p14
(S'\x07\xd4\x0b\x15\x15\x08\x0e\x00\x00\x00'
p15
tp16
Rp17
sS'duration'
p18
L13L
sS'endtime'
p19
g14
(S'\x07\xd4\x0b\x15\x15\x08\x1b\x00\x00\x00'
p20
tp21
Rp22
sS'phonenumber_oid'
p23
L1132L
s.(dp0
S'status'
p1
S''
p2
sS'direction'
p3
S'Incoming'
p4
sS'remote'
p5
g2
sS'description'
p6
S'Voice Call'
p7
sS'callid'
p8
L3761L
sS'oid'
p9
L232030L
sS'number'
p10
g2
sS'person_oid'
p11
L18L
sS'contact'
p12
L95L
sS'starttime'
p13
cdatetime
datetime
p14
(S'\x07\xd4\x0b\x15\x15\x08\x0e\x00\x00\x00'
p15
tp16
Rp17
sS'duration'
p18
L13L
sS'endtime'
p19
g14
(S'\x07\xd4\x0b\x15\x15\x08\x1b\x00\x00\x00'
p20
tp21
Rp22
sS'phonenumber_oid'
p23
L1132L
s.(dp0
S'status'
p1
S''
p2
sS'direction'
p3
S'Incoming'
p4
sS'remote'
p5
g2
sS'description'
p6
S'Voice Call'
p7
sS'callid'
p8
L3761L
sS'oid'
p9
L232062L
sS'number'
p10
g2
sS'person_oid'
p11
L18L
sS'contact'
p12
L95L
sS'starttime'
p13
cdatetime
datetime
p14
(S'\x07\xd4\x0b\x15\x15\x08\x0e\x00\x00\x00'
p15
tp16
Rp17
sS'duration'
p18
L13L
sS'endtime'
p19
g14
(S'\x07\xd4\x0b\x15\x15\x08\x1b\x00\x00\x00'
p20
tp21
Rp22
sS'phonenumber_oid'
p23
L1132L
s.(dp0
S'status'
p1
S''
p2
sS'direction'
p3
S'Outgoing'
p4
sS'remote'
p5
g2
sS'description'
p6
S'Voice Call'
p7
sS'callid'
p8
L3762L
sS'oid'
p9
L231968L
sS'number'
p10
g2
sS'person_oid'
p11
L18L
sS'contact'
p12
L95L
sS'starttime'
p13
cdatetime
datetime
p14
(S'\x07\xd4\x0b\x15\x15\x0c\x1a\x00\x00\x00'
p15
tp16
Rp17
sS'duration'
p18
L12L
sS'endtime'
p19
g14
(S'\x07\xd4\x0b\x15\x15\x0c&\x00\x00\x00'
p20
tp21
Rp22
sS'phonenumber_oid'
p23
L1132L
s.(dp0
S'status'
p1
S''
p2
sS'direction'
p3
S'Outgoing'
p4
sS'remote'
p5
g2
sS'description'
p6
S'Voice Call'
p7
sS'callid'
p8
L3762L
sS'oid'
p9
L231999L
sS'number'
p10
g2
sS'person_oid'
p11
L18L
sS'contact'
p12
L95L
sS'starttime'
p13
cdatetime
datetime
p14
(S'\x07\xd4\x0b\x15\x15\x0c\x1a\x00\x00\x00'
p15
tp16
Rp17
sS'duration'
p18
L12L
sS'endtime'
p19
g14
(S'\x07\xd4\x0b\x15\x15\x0c&\x00\x00\x00'
p20
tp21
Rp22
sS'phonenumber_oid'
p23
L1132L
s.(dp0
S'status'
p1
S''
p2
sS'direction'
p3
S'Outgoing'
p4
sS'remote'
p5
g2
sS'description'
p6
S'Voice Call'
p7
sS'callid'
p8
L3762L
sS'oid'
p9
L232031L
sS'number'
p10
g2
sS'person_oid'
p11
L18L
sS'contact'
p12
L95L
sS'starttime'
p13
cdatetime
datetime
p14
(S'\x07\xd4\x0b\x15\x15\x0c\x1a\x00\x00\x00'
p15
tp16
Rp17
sS'duration'
p18
L12L
sS'endtime'
p19
g14
(S'\x07\xd4\x0b\x15\x15\x0c&\x00\x00\x00'
p20
tp21
Rp22
sS'phonenumber_oid'
p23
L1132L
s.(dp0
S'status'
p1
S''
p2
sS'direction'
p3
S'Outgoing'
p4
sS'remote'
p5
g2
sS'description'
p6
S'Voice Call'
p7
sS'callid'
p8
L3762L
sS'oid'
p9
L232063L
sS'number'
p10
g2
sS'person_oid'
p11
L18L
sS'contact'
p12
L95L
sS'starttime'
p13
cdatetime
datetime
p14
(S'\x07\xd4\x0b\x15\x15\x0c\x1a\x00\x00\x00'
p15
tp16
Rp17
sS'duration'
p18
L12L
sS'endtime'
p19
g14
(S'\x07\xd4\x0b\x15\x15\x0c&\x00\x00\x00'
p20
tp21
Rp22
sS'phonenumber_oid'
p23
L1132L
s.(dp0
S'status'
p1
S''
p2
sS'direction'
p3
S'Incoming'
p4
sS'remote'
p5
g2
sS'description'
p6
S'Voice Call'
p7
sS'callid'
p8
L3764L
sS'oid'
p9
L231969L
sS'number'
p10
g2
sS'person_oid'
p11
L18L
sS'contact'
p12
L-1L
sS'starttime'
p13
cdatetime
datetime
p14
(S'\x07\xd4\x0b\x15\x15\x1d\x07\x00\x00\x00'
p15
tp16
Rp17
sS'duration'
p18
L125L
sS'endtime'
p19
g14
(S'\x07\xd4\x0b\x15\x15\x1f\x0c\x00\x00\x00'
p20
tp21
Rp22
sS'phonenumber_oid'
p23
L3L
s.(dp0
S'status'
p1
S''
p2
sS'direction'
p3
S'Incoming'
p4
sS'remote'
p5
g2
sS'description'
p6
S'Voice Call'
p7
sS'callid'
p8
L3764L
sS'oid'
p9
L232000L
sS'number'
p10
g2
sS'person_oid'
p11
L18L
sS'contact'
p12
L-1L
sS'starttime'
p13
cdatetime
datetime
p14
(S'\x07\xd4\x0b\x15\x15\x1d\x07\x00\x00\x00'
p15
tp16
Rp17
sS'duration'
p18
L125L
sS'endtime'
p19
g14
(S'\x07\xd4\x0b\x15\x15\x1f\x0c\x00\x00\x00'
p20
tp21
Rp22
sS'phonenumber_oid'
p23
L3L
s.(dp0
S'status'
p1
S''
p2
sS'direction'
p3
S'Incoming'
p4
sS'remote'
p5
g2
sS'description'
p6
S'Voice Call'
p7
sS'callid'
p8
L3764L
sS'oid'
p9
L232032L
sS'number'
p10
g2
sS'person_oid'
p11
L18L
sS'contact'
p12
L-1L
sS'starttime'
p13
cdatetime
datetime
p14
(S'\x07\xd4\x0b\x15\x15\x1d\x07\x00\x00\x00'
p15
tp16
Rp17
sS'duration'
p18
L125L
sS'endtime'
p19
g14
(S'\x07\xd4\x0b\x15\x15\x1f\x0c\x00\x00\x00'
p20
tp21
Rp22
sS'phonenumber_oid'
p23
L3L
s.(dp0
S'status'
p1
S''
p2
sS'direction'
p3
S'Incoming'
p4
sS'remote'
p5
g2
sS'description'
p6
S'Voice Call'
p7
sS'callid'
p8
L3764L
sS'oid'
p9
L232064L
sS'number'
p10
g2
sS'person_oid'
p11
L18L
sS'contact'
p12
L-1L
sS'starttime'
p13
cdatetime
datetime
p14
(S'\x07\xd4\x0b\x15\x15\x1d\x07\x00\x00\x00'
p15
tp16
Rp17
sS'duration'
p18
L125L
sS'endtime'
p19
g14
(S'\x07\xd4\x0b\x15\x15\x1f\x0c\x00\x00\x00'
p20
tp21
Rp22
sS'phonenumber_oid'
p23
L3L
s.(dp0
S'status'
p1
S''
p2
sS'direction'
p3
S'Outgoing'
p4
sS'remote'
p5
g2
sS'description'
p6
S'Voice Call'
p7
sS'callid'
p8
L3765L
sS'oid'
p9
L231970L
sS'number'
p10
g2
sS'person_oid'
p11
L18L
sS'contact'
p12
L95L
sS'starttime'
p13
cdatetime
datetime
p14
(S'\x07\xd4\x0b\x15\x15"\x0f\x00\x00\x00'
p15
tp16
Rp17
sS'duration'
p18
L10L
sS'endtime'
p19
g14
(S'\x07\xd4\x0b\x15\x15"\x19\x00\x00\x00'
p20
tp21
Rp22
sS'phonenumber_oid'
p23
L1132L
s.(dp0
S'status'
p1
S''
p2
sS'direction'
p3
S'Outgoing'
p4
sS'remote'
p5
g2
sS'description'
p6
S'Voice Call'
p7
sS'callid'
p8
L3765L
sS'oid'
p9
L232001L
sS'number'
p10
g2
sS'person_oid'
p11
L18L
sS'contact'
p12
L95L
sS'starttime'
p13
cdatetime
datetime
p14
(S'\x07\xd4\x0b\x15\x15"\x0f\x00\x00\x00'
p15
tp16
Rp17
sS'duration'
p18
L10L
sS'endtime'
p19
g14
(S'\x07\xd4\x0b\x15\x15"\x19\x00\x00\x00'
p20
tp21
Rp22
sS'phonenumber_oid'
p23
L1132L
s.(dp0
S'status'
p1
S''
p2
sS'direction'
p3
S'Outgoing'
p4
sS'remote'
p5
g2
sS'description'
p6
S'Voice Call'
p7
sS'callid'
p8
L3765L
sS'oid'
p9
L232033L
sS'number'
p10
g2
sS'person_oid'
p11
L18L
sS'contact'
p12
L95L
sS'starttime'
p13
cdatetime
datetime
p14
(S'\x07\xd4\x0b\x15\x15"\x0f\x00\x00\x00'
p15
tp16
Rp17
sS'duration'
p18
L10L
sS'endtime'
p19
g14
(S'\x07\xd4\x0b\x15\x15"\x19\x00\x00\x00'
p20
tp21
Rp22
sS'phonenumber_oid'
p23
L1132L
s.(dp0
S'status'
p1
S''
p2
sS'direction'
p3
S'Outgoing'
p4
sS'remote'
p5
g2
sS'description'
p6
S'Voice Call'
p7
sS'callid'
p8
L3765L
sS'oid'
p9
L232065L
sS'number'
p10
g2
sS'person_oid'
p11
L18L
sS'contact'
p12
L95L
sS'starttime'
p13
cdatetime
datetime
p14
(S'\x07\xd4\x0b\x15\x15"\x0f\x00\x00\x00'
p15
tp16
Rp17
sS'duration'
p18
L10L
sS'endtime'
p19
g14
(S'\x07\xd4\x0b\x15\x15"\x19\x00\x00\x00'
p20
tp21
Rp22
sS'phonenumber_oid'
p23
L1132L
s.(dp0
S'status'
p1
S''
p2
sS'direction'
p3
S'Outgoing'
p4
sS'remote'
p5
g2
sS'description'
p6
S'Voice Call'
p7
sS'callid'
p8
L3766L
sS'oid'
p9
L231971L
sS'number'
p10
g2
sS'person_oid'
p11
L18L
sS'contact'
p12
L22L
sS'starttime'
p13
cdatetime
datetime
p14
(S'\x07\xd4\x0b\x15\x15"\x1f\x00\x00\x00'
p15
tp16
Rp17
sS'duration'
p18
L0L
sS'endtime'
p19
g14
(S'\x07\xd4\x0b\x15\x15"\x1f\x00\x00\x00'
p20
tp21
Rp22
sS'phonenumber_oid'
p23
L1091L
s.(dp0
S'status'
p1
S''
p2
sS'direction'
p3
S'Outgoing'
p4
sS'remote'
p5
g2
sS'description'
p6
S'Voice Call'
p7
sS'callid'
p8
L3766L
sS'oid'
p9
L232002L
sS'number'
p10
g2
sS'person_oid'
p11
L18L
sS'contact'
p12
L22L
sS'starttime'
p13
cdatetime
datetime
p14
(S'\x07\xd4\x0b\x15\x15"\x1f\x00\x00\x00'
p15
tp16
Rp17
sS'duration'
p18
L0L
sS'endtime'
p19
g14
(S'\x07\xd4\x0b\x15\x15"\x1f\x00\x00\x00'
p20
tp21
Rp22
sS'phonenumber_oid'
p23
L1091L
s.(dp0
S'status'
p1
S''
p2
sS'direction'
p3
S'Outgoing'
p4
sS'remote'
p5
g2
sS'description'
p6
S'Voice Call'
p7
sS'callid'
p8
L3766L
sS'oid'
p9
L232034L
sS'number'
p10
g2
sS'person_oid'
p11
L18L
sS'contact'
p12
L22L
sS'starttime'
p13
cdatetime
datetime
p14
(S'\x07\xd4\x0b\x15\x15"\x1f\x00\x00\x00'
p15
tp16
Rp17
sS'duration'
p18
L0L
sS'endtime'
p19
g14
(S'\x07\xd4\x0b\x15\x15"\x1f\x00\x00\x00'
p20
tp21
Rp22
sS'phonenumber_oid'
p23
L1091L
s.(dp0
S'status'
p1
S''
p2
sS'direction'
p3
S'Outgoing'
p4
sS'remote'
p5
g2
sS'description'
p6
S'Voice Call'
p7
sS'callid'
p8
L3766L
sS'oid'
p9
L232066L
sS'number'
p10
g2
sS'person_oid'
p11
L18L
sS'contact'
p12
L22L
sS'starttime'
p13
cdatetime
datetime
p14
(S'\x07\xd4\x0b\x15\x15"\x1f\x00\x00\x00'
p15
tp16
Rp17
sS'duration'
p18
L0L
sS'endtime'
p19
g14
(S'\x07\xd4\x0b\x15\x15"\x1f\x00\x00\x00'
p20
tp21
Rp22
sS'phonenumber_oid'
p23
L1091L
s.(dp0
S'status'
p1
S''
p2
sS'direction'
p3
S'Outgoing'
p4
sS'remote'
p5
g2
sS'description'
p6
S'Voice Call'
p7
sS'callid'
p8
L3767L
sS'oid'
p9
L231972L
sS'number'
p10
g2
sS'person_oid'
p11
L18L
sS'contact'
p12
L22L
sS'starttime'
p13
cdatetime
datetime
p14
(S'\x07\xd4\x0b\x15\x15#\x02\x00\x00\x00'
p15
tp16
Rp17
sS'duration'
p18
L44L
sS'endtime'
p19
g14
(S'\x07\xd4\x0b\x15\x15#.\x00\x00\x00'
p20
tp21
Rp22
sS'phonenumber_oid'
p23
L1091L
s.(dp0
S'status'
p1
S''
p2
sS'direction'
p3
S'Outgoing'
p4
sS'remote'
p5
g2
sS'description'
p6
S'Voice Call'
p7
sS'callid'
p8
L3767L
sS'oid'
p9
L232003L
sS'number'
p10
g2
sS'person_oid'
p11
L18L
sS'contact'
p12
L22L
sS'starttime'
p13
cdatetime
datetime
p14
(S'\x07\xd4\x0b\x15\x15#\x02\x00\x00\x00'
p15
tp16
Rp17
sS'duration'
p18
L44L
sS'endtime'
p19
g14
(S'\x07\xd4\x0b\x15\x15#.\x00\x00\x00'
p20
tp21
Rp22
sS'phonenumber_oid'
p23
L1091L
s.(dp0
S'status'
p1
S''
p2
sS'direction'
p3
S'Outgoing'
p4
sS'remote'
p5
g2
sS'description'
p6
S'Voice Call'
p7
sS'callid'
p8
L3767L
sS'oid'
p9
L232035L
sS'number'
p10
g2
sS'person_oid'
p11
L18L
sS'contact'
p12
L22L
sS'starttime'
p13
cdatetime
datetime
p14
(S'\x07\xd4\x0b\x15\x15#\x02\x00\x00\x00'
p15
tp16
Rp17
sS'duration'
p18
L44L
sS'endtime'
p19
g14
(S'\x07\xd4\x0b\x15\x15#.\x00\x00\x00'
p20
tp21
Rp22
sS'phonenumber_oid'
p23
L1091L
s.(dp0
S'status'
p1
S''
p2
sS'direction'
p3
S'Outgoing'
p4
sS'remote'
p5
g2
sS'description'
p6
S'Voice Call'
p7
sS'callid'
p8
L3767L
sS'oid'
p9
L232067L
sS'number'
p10
g2
sS'person_oid'
p11
L18L
sS'contact'
p12
L22L
sS'starttime'
p13
cdatetime
datetime
p14
(S'\x07\xd4\x0b\x15\x15#\x02\x00\x00\x00'
p15
tp16
Rp17
sS'duration'
p18
L44L
sS'endtime'
p19
g14
(S'\x07\xd4\x0b\x15\x15#.\x00\x00\x00'
p20
tp21
Rp22
sS'phonenumber_oid'
p23
L1091L
s.(dp0
S'status'
p1
S''
p2
sS'direction'
p3
S'Missed Call'
p4
sS'remote'
p5
g2
sS'description'
p6
S'Voice Call'
p7
sS'callid'
p8
L3768L
sS'oid'
p9
L231973L
sS'number'
p10
g2
sS'person_oid'
p11
L18L
sS'contact'
p12
L87L
sS'starttime'
p13
cdatetime
datetime
p14
(S'\x07\xd4\x0b\x16\n./\x00\x00\x00'
p15
tp16
Rp17
sS'duration'
p18
L0L
sS'endtime'
p19
g14
(S'\x07\xd4\x0b\x16\n./\x00\x00\x00'
p20
tp21
Rp22
sS'phonenumber_oid'
p23
L1134L
s.(dp0
S'status'
p1
S''
p2
sS'direction'
p3
S'Missed Call'
p4
sS'remote'
p5
g2
sS'description'
p6
S'Voice Call'
p7
sS'callid'
p8
L3768L
sS'oid'
p9
L232004L
sS'number'
p10
g2
sS'person_oid'
p11
L18L
sS'contact'
p12
L87L
sS'starttime'
p13
cdatetime
datetime
p14
(S'\x07\xd4\x0b\x16\n./\x00\x00\x00'
p15
tp16
Rp17
sS'duration'
p18
L0L
sS'endtime'
p19
g14
(S'\x07\xd4\x0b\x16\n./\x00\x00\x00'
p20
tp21
Rp22
sS'phonenumber_oid'
p23
L1134L
s.(dp0
S'status'
p1
S''
p2
sS'direction'
p3
S'Missed Call'
p4
sS'remote'
p5
g2
sS'description'
p6
S'Voice Call'
p7
sS'callid'
p8
L3768L
sS'oid'
p9
L232036L
sS'number'
p10
g2
sS'person_oid'
p11
L18L
sS'contact'
p12
L87L
sS'starttime'
p13
cdatetime
datetime
p14
(S'\x07\xd4\x0b\x16\n./\x00\x00\x00'
p15
tp16
Rp17
sS'duration'
p18
L0L
sS'endtime'
p19
g14
(S'\x07\xd4\x0b\x16\n./\x00\x00\x00'
p20
tp21
Rp22
sS'phonenumber_oid'
p23
L1134L
s.(dp0
S'status'
p1
S''
p2
sS'direction'
p3
S'Missed Call'
p4
sS'remote'
p5
g2
sS'description'
p6
S'Voice Call'
p7
sS'callid'
p8
L3768L
sS'oid'
p9
L232068L
sS'number'
p10
g2
sS'person_oid'
p11
L18L
sS'contact'
p12
L87L
sS'starttime'
p13
cdatetime
datetime
p14
(S'\x07\xd4\x0b\x16\n./\x00\x00\x00'
p15
tp16
Rp17
sS'duration'
p18
L0L
sS'endtime'
p19
g14
(S'\x07\xd4\x0b\x16\n./\x00\x00\x00'
p20
tp21
Rp22
sS'phonenumber_oid'
p23
L1134L
s.(dp0
S'status'
p1
S''
p2
sS'direction'
p3
S'Missed Call'
p4
sS'remote'
p5
g2
sS'description'
p6
S'Voice Call'
p7
sS'callid'
p8
L3769L
sS'oid'
p9
L231974L
sS'number'
p10
g2
sS'person_oid'
p11
L18L
sS'contact'
p12
L87L
sS'starttime'
p13
cdatetime
datetime
p14
(S'\x07\xd4\x0b\x16\n31\x00\x00\x00'
p15
tp16
Rp17
sS'duration'
p18
L0L
sS'endtime'
p19
g14
(S'\x07\xd4\x0b\x16\n31\x00\x00\x00'
p20
tp21
Rp22
sS'phonenumber_oid'
p23
L1134L
s.(dp0
S'status'
p1
S''
p2
sS'direction'
p3
S'Missed Call'
p4
sS'remote'
p5
g2
sS'description'
p6
S'Voice Call'
p7
sS'callid'
p8
L3769L
sS'oid'
p9
L232005L
sS'number'
p10
g2
sS'person_oid'
p11
L18L
sS'contact'
p12
L87L
sS'starttime'
p13
cdatetime
datetime
p14
(S'\x07\xd4\x0b\x16\n31\x00\x00\x00'
p15
tp16
Rp17
sS'duration'
p18
L0L
sS'endtime'
p19
g14
(S'\x07\xd4\x0b\x16\n31\x00\x00\x00'
p20
tp21
Rp22
sS'phonenumber_oid'
p23
L1134L
s.(dp0
S'status'
p1
S''
p2
sS'direction'
p3
S'Missed Call'
p4
sS'remote'
p5
g2
sS'description'
p6
S'Voice Call'
p7
sS'callid'
p8
L3769L
sS'oid'
p9
L232037L
sS'number'
p10
g2
sS'person_oid'
p11
L18L
sS'contact'
p12
L87L
sS'starttime'
p13
cdatetime
datetime
p14
(S'\x07\xd4\x0b\x16\n31\x00\x00\x00'
p15
tp16
Rp17
sS'duration'
p18
L0L
sS'endtime'
p19
g14
(S'\x07\xd4\x0b\x16\n31\x00\x00\x00'
p20
tp21
Rp22
sS'phonenumber_oid'
p23
L1134L
s.(dp0
S'status'
p1
S''
p2
sS'direction'
p3
S'Missed Call'
p4
sS'remote'
p5
g2
sS'description'
p6
S'Voice Call'
p7
sS'callid'
p8
L3769L
sS'oid'
p9
L232069L
sS'number'
p10
g2
sS'person_oid'
p11
L18L
sS'contact'
p12
L87L
sS'starttime'
p13
cdatetime
datetime
p14
(S'\x07\xd4\x0b\x16\n31\x00\x00\x00'
p15
tp16
Rp17
sS'duration'
p18
L0L
sS'endtime'
p19
g14
(S'\x07\xd4\x0b\x16\n31\x00\x00\x00'
p20
tp21
Rp22
sS'phonenumber_oid'
p23
L1134L
s.(dp0
S'status'
p1
S''
p2
sS'direction'
p3
S'Outgoing'
p4
sS'remote'
p5
g2
sS'description'
p6
S'Voice Call'
p7
sS'callid'
p8
L3770L
sS'oid'
p9
L231975L
sS'number'
p10
g2
sS'person_oid'
p11
L18L
sS'contact'
p12
L87L
sS'starttime'
p13
cdatetime
datetime
p14
(S'\x07\xd4\x0b\x16\x0b\x06\r\x00\x00\x00'
p15
tp16
Rp17
sS'duration'
p18
L18L
sS'endtime'
p19
g14
(S'\x07\xd4\x0b\x16\x0b\x06\x1f\x00\x00\x00'
p20
tp21
Rp22
sS'phonenumber_oid'
p23
L1134L
s.(dp0
S'status'
p1
S''
p2
sS'direction'
p3
S'Outgoing'
p4
sS'remote'
p5
g2
sS'description'
p6
S'Voice Call'
p7
sS'callid'
p8
L3770L
sS'oid'
p9
L232006L
sS'number'
p10
g2
sS'person_oid'
p11
L18L
sS'contact'
p12
L87L
sS'starttime'
p13
cdatetime
datetime
p14
(S'\x07\xd4\x0b\x16\x0b\x06\r\x00\x00\x00'
p15
tp16
Rp17
sS'duration'
p18
L18L
sS'endtime'
p19
g14
(S'\x07\xd4\x0b\x16\x0b\x06\x1f\x00\x00\x00'
p20
tp21
Rp22
sS'phonenumber_oid'
p23
L1134L
s.(dp0
S'status'
p1
S''
p2
sS'direction'
p3
S'Outgoing'
p4
sS'remote'
p5
g2
sS'description'
p6
S'Voice Call'
p7
sS'callid'
p8
L3770L
sS'oid'
p9
L232038L
sS'number'
p10
g2
sS'person_oid'
p11
L18L
sS'contact'
p12
L87L
sS'starttime'
p13
cdatetime
datetime
p14
(S'\x07\xd4\x0b\x16\x0b\x06\r\x00\x00\x00'
p15
tp16
Rp17
sS'duration'
p18
L18L
sS'endtime'
p19
g14
(S'\x07\xd4\x0b\x16\x0b\x06\x1f\x00\x00\x00'
p20
tp21
Rp22
sS'phonenumber_oid'
p23
L1134L
s.(dp0
S'status'
p1
S''
p2
sS'direction'
p3
S'Outgoing'
p4
sS'remote'
p5
g2
sS'description'
p6
S'Voice Call'
p7
sS'callid'
p8
L3770L
sS'oid'
p9
L232070L
sS'number'
p10
g2
sS'person_oid'
p11
L18L
sS'contact'
p12
L87L
sS'starttime'
p13
cdatetime
datetime
p14
(S'\x07\xd4\x0b\x16\x0b\x06\r\x00\x00\x00'
p15
tp16
Rp17
sS'duration'
p18
L18L
sS'endtime'
p19
g14
(S'\x07\xd4\x0b\x16\x0b\x06\x1f\x00\x00\x00'
p20
tp21
Rp22
sS'phonenumber_oid'
p23
L1134L
s.(dp0
S'status'
p1
S''
p2
sS'direction'
p3
S'Outgoing'
p4
sS'remote'
p5
g2
sS'description'
p6
S'Voice Call'
p7
sS'callid'
p8
L3771L
sS'oid'
p9
L231976L
sS'number'
p10
g2
sS'person_oid'
p11
L18L
sS'contact'
p12
L87L
sS'starttime'
p13
cdatetime
datetime
p14
(S'\x07\xd4\x0b\x16\x0b\n\x1f\x00\x00\x00'
p15
tp16
Rp17
sS'duration'
p18
L24L
sS'endtime'
p19
g14
(S'\x07\xd4\x0b\x16\x0b\n7\x00\x00\x00'
p20
tp21
Rp22
sS'phonenumber_oid'
p23
L1134L
s.(dp0
S'status'
p1
S''
p2
sS'direction'
p3
S'Outgoing'
p4
sS'remote'
p5
g2
sS'description'
p6
S'Voice Call'
p7
sS'callid'
p8
L3771L
sS'oid'
p9
L232007L
sS'number'
p10
g2
sS'person_oid'
p11
L18L
sS'contact'
p12
L87L
sS'starttime'
p13
cdatetime
datetime
p14
(S'\x07\xd4\x0b\x16\x0b\n\x1f\x00\x00\x00'
p15
tp16
Rp17
sS'duration'
p18
L24L
sS'endtime'
p19
g14
(S'\x07\xd4\x0b\x16\x0b\n7\x00\x00\x00'
p20
tp21
Rp22
sS'phonenumber_oid'
p23
L1134L
s.(dp0
S'status'
p1
S''
p2
sS'direction'
p3
S'Outgoing'
p4
sS'remote'
p5
g2
sS'description'
p6
S'Voice Call'
p7
sS'callid'
p8
L3771L
sS'oid'
p9
L232039L
sS'number'
p10
g2
sS'person_oid'
p11
L18L
sS'contact'
p12
L87L
sS'starttime'
p13
cdatetime
datetime
p14
(S'\x07\xd4\x0b\x16\x0b\n\x1f\x00\x00\x00'
p15
tp16
Rp17
sS'duration'
p18
L24L
sS'endtime'
p19
g14
(S'\x07\xd4\x0b\x16\x0b\n7\x00\x00\x00'
p20
tp21
Rp22
sS'phonenumber_oid'
p23
L1134L
s.(dp0
S'status'
p1
S''
p2
sS'direction'
p3
S'Outgoing'
p4
sS'remote'
p5
g2
sS'description'
p6
S'Voice Call'
p7
sS'callid'
p8
L3771L
sS'oid'
p9
L232071L
sS'number'
p10
g2
sS'person_oid'
p11
L18L
sS'contact'
p12
L87L
sS'starttime'
p13
cdatetime
datetime
p14
(S'\x07\xd4\x0b\x16\x0b\n\x1f\x00\x00\x00'
p15
tp16
Rp17
sS'duration'
p18
L24L
sS'endtime'
p19
g14
(S'\x07\xd4\x0b\x16\x0b\n7\x00\x00\x00'
p20
tp21
Rp22
sS'phonenumber_oid'
p23
L1134L
s.(dp0
S'status'
p1
S''
p2
sS'direction'
p3
S'Outgoing'
p4
sS'remote'
p5
g2
sS'description'
p6
S'Voice Call'
p7
sS'callid'
p8
L3772L
sS'oid'
p9
L231977L
sS'number'
p10
g2
sS'person_oid'
p11
L18L
sS'contact'
p12
L87L
sS'starttime'
p13
cdatetime
datetime
p14
(S'\x07\xd4\x0b\x16\x0b\x0e\x06\x00\x00\x00'
p15
tp16
Rp17
sS'duration'
p18
L0L
sS'endtime'
p19
g14
(S'\x07\xd4\x0b\x16\x0b\x0e\x06\x00\x00\x00'
p20
tp21
Rp22
sS'phonenumber_oid'
p23
L1134L
s.(dp0
S'status'
p1
S''
p2
sS'direction'
p3
S'Outgoing'
p4
sS'remote'
p5
g2
sS'description'
p6
S'Voice Call'
p7
sS'callid'
p8
L3772L
sS'oid'
p9
L232008L
sS'number'
p10
g2
sS'person_oid'
p11
L18L
sS'contact'
p12
L87L
sS'starttime'
p13
cdatetime
datetime
p14
(S'\x07\xd4\x0b\x16\x0b\x0e\x06\x00\x00\x00'
p15
tp16
Rp17
sS'duration'
p18
L0L
sS'endtime'
p19
g14
(S'\x07\xd4\x0b\x16\x0b\x0e\x06\x00\x00\x00'
p20
tp21
Rp22
sS'phonenumber_oid'
p23
L1134L
s.(dp0
S'status'
p1
S''
p2
sS'direction'
p3
S'Outgoing'
p4
sS'remote'
p5
g2
sS'description'
p6
S'Voice Call'
p7
sS'callid'
p8
L3772L
sS'oid'
p9
L232040L
sS'number'
p10
g2
sS'person_oid'
p11
L18L
sS'contact'
p12
L87L
sS'starttime'
p13
cdatetime
datetime
p14
(S'\x07\xd4\x0b\x16\x0b\x0e\x06\x00\x00\x00'
p15
tp16
Rp17
sS'duration'
p18
L0L
sS'endtime'
p19
g14
(S'\x07\xd4\x0b\x16\x0b\x0e\x06\x00\x00\x00'
p20
tp21
Rp22
sS'phonenumber_oid'
p23
L1134L
s.(dp0
S'status'
p1
S''
p2
sS'direction'
p3
S'Outgoing'
p4
sS'remote'
p5
g2
sS'description'
p6
S'Voice Call'
p7
sS'callid'
p8
L3772L
sS'oid'
p9
L232072L
sS'number'
p10
g2
sS'person_oid'
p11
L18L
sS'contact'
p12
L87L
sS'starttime'
p13
cdatetime
datetime
p14
(S'\x07\xd4\x0b\x16\x0b\x0e\x06\x00\x00\x00'
p15
tp16
Rp17
sS'duration'
p18
L0L
sS'endtime'
p19
g14
(S'\x07\xd4\x0b\x16\x0b\x0e\x06\x00\x00\x00'
p20
tp21
Rp22
sS'phonenumber_oid'
p23
L1134L
s.(dp0
S'status'
p1
S''
p2
sS'direction'
p3
S'Incoming'
p4
sS'remote'
p5
g2
sS'description'
p6
S'Voice Call'
p7
sS'callid'
p8
L3774L
sS'oid'
p9
L231978L
sS'number'
p10
g2
sS'person_oid'
p11
L18L
sS'contact'
p12
L-1L
sS'starttime'
p13
cdatetime
datetime
p14
(S'\x07\xd4\x0b\x16\x0b\x11\x05\x00\x00\x00'
p15
tp16
Rp17
sS'duration'
p18
L11L
sS'endtime'
p19
g14
(S'\x07\xd4\x0b\x16\x0b\x11\x10\x00\x00\x00'
p20
tp21
Rp22
sS'phonenumber_oid'
p23
L3L
s.(dp0
S'status'
p1
S''
p2
sS'direction'
p3
S'Incoming'
p4
sS'remote'
p5
g2
sS'description'
p6
S'Voice Call'
p7
sS'callid'
p8
L3774L
sS'oid'
p9
L232009L
sS'number'
p10
g2
sS'person_oid'
p11
L18L
sS'contact'
p12
L-1L
sS'starttime'
p13
cdatetime
datetime
p14
(S'\x07\xd4\x0b\x16\x0b\x11\x05\x00\x00\x00'
p15
tp16
Rp17
sS'duration'
p18
L11L
sS'endtime'
p19
g14
(S'\x07\xd4\x0b\x16\x0b\x11\x10\x00\x00\x00'
p20
tp21
Rp22
sS'phonenumber_oid'
p23
L3L
s.(dp0
S'status'
p1
S''
p2
sS'direction'
p3
S'Incoming'
p4
sS'remote'
p5
g2
sS'description'
p6
S'Voice Call'
p7
sS'callid'
p8
L3774L
sS'oid'
p9
L232041L
sS'number'
p10
g2
sS'person_oid'
p11
L18L
sS'contact'
p12
L-1L
sS'starttime'
p13
cdatetime
datetime
p14
(S'\x07\xd4\x0b\x16\x0b\x11\x05\x00\x00\x00'
p15
tp16
Rp17
sS'duration'
p18
L11L
sS'endtime'
p19
g14
(S'\x07\xd4\x0b\x16\x0b\x11\x10\x00\x00\x00'
p20
tp21
Rp22
sS'phonenumber_oid'
p23
L3L
s.(dp0
S'status'
p1
S''
p2
sS'direction'
p3
S'Incoming'
p4
sS'remote'
p5
g2
sS'description'
p6
S'Voice Call'
p7
sS'callid'
p8
L3774L
sS'oid'
p9
L232073L
sS'number'
p10
g2
sS'person_oid'
p11
L18L
sS'contact'
p12
L-1L
sS'starttime'
p13
cdatetime
datetime
p14
(S'\x07\xd4\x0b\x16\x0b\x11\x05\x00\x00\x00'
p15
tp16
Rp17
sS'duration'
p18
L11L
sS'endtime'
p19
g14
(S'\x07\xd4\x0b\x16\x0b\x11\x10\x00\x00\x00'
p20
tp21
Rp22
sS'phonenumber_oid'
p23
L3L
s.(dp0
S'status'
p1
S''
p2
sS'direction'
p3
S'Outgoing'
p4
sS'remote'
p5
g2
sS'description'
p6
S'Voice Call'
p7
sS'callid'
p8
L3775L
sS'oid'
p9
L231979L
sS'number'
p10
g2
sS'person_oid'
p11
L18L
sS'contact'
p12
L95L
sS'starttime'
p13
cdatetime
datetime
p14
(S'\x07\xd4\x0b\x16\x0b\x11"\x00\x00\x00'
p15
tp16
Rp17
sS'duration'
p18
L7L
sS'endtime'
p19
g14
(S'\x07\xd4\x0b\x16\x0b\x11)\x00\x00\x00'
p20
tp21
Rp22
sS'phonenumber_oid'
p23
L1132L
s.(dp0
S'status'
p1
S''
p2
sS'direction'
p3
S'Outgoing'
p4
sS'remote'
p5
g2
sS'description'
p6
S'Voice Call'
p7
sS'callid'
p8
L3775L
sS'oid'
p9
L232010L
sS'number'
p10
g2
sS'person_oid'
p11
L18L
sS'contact'
p12
L95L
sS'starttime'
p13
cdatetime
datetime
p14
(S'\x07\xd4\x0b\x16\x0b\x11"\x00\x00\x00'
p15
tp16
Rp17
sS'duration'
p18
L7L
sS'endtime'
p19
g14
(S'\x07\xd4\x0b\x16\x0b\x11)\x00\x00\x00'
p20
tp21
Rp22
sS'phonenumber_oid'
p23
L1132L
s.(dp0
S'status'
p1
S''
p2
sS'direction'
p3
S'Outgoing'
p4
sS'remote'
p5
g2
sS'description'
p6
S'Voice Call'
p7
sS'callid'
p8
L3775L
sS'oid'
p9
L232042L
sS'number'
p10
g2
sS'person_oid'
p11
L18L
sS'contact'
p12
L95L
sS'starttime'
p13
cdatetime
datetime
p14
(S'\x07\xd4\x0b\x16\x0b\x11"\x00\x00\x00'
p15
tp16
Rp17
sS'duration'
p18
L7L
sS'endtime'
p19
g14
(S'\x07\xd4\x0b\x16\x0b\x11)\x00\x00\x00'
p20
tp21
Rp22
sS'phonenumber_oid'
p23
L1132L
s.(dp0
S'status'
p1
S''
p2
sS'direction'
p3
S'Outgoing'
p4
sS'remote'
p5
g2
sS'description'
p6
S'Voice Call'
p7
sS'callid'
p8
L3775L
sS'oid'
p9
L232074L
sS'number'
p10
g2
sS'person_oid'
p11
L18L
sS'contact'
p12
L95L
sS'starttime'
p13
cdatetime
datetime
p14
(S'\x07\xd4\x0b\x16\x0b\x11"\x00\x00\x00'
p15
tp16
Rp17
sS'duration'
p18
L7L
sS'endtime'
p19
g14
(S'\x07\xd4\x0b\x16\x0b\x11)\x00\x00\x00'
p20
tp21
Rp22
sS'phonenumber_oid'
p23
L1132L
s.(dp0
S'status'
p1
S'Disconnected'
p2
sS'direction'
p3
S'Outgoing'
p4
sS'remote'
p5
S''
p6
sS'description'
p7
S'Packet Data'
p8
sS'callid'
p9
L3778L
sS'oid'
p10
L232011L
sS'number'
p11
g6
sS'person_oid'
p12
L18L
sS'contact'
p13
L-1L
sS'starttime'
p14
cdatetime
datetime
p15
(S'\x07\xd4\x0b\x16\x0f\x15\x1e\x00\x00\x00'
p16
tp17
Rp18
sS'duration'
p19
L29L
sS'endtime'
p20
g15
(S'\x07\xd4\x0b\x16\x0f\x15;\x00\x00\x00'
p21
tp22
Rp23
sS'phonenumber_oid'
p24
L3L
s.(dp0
S'status'
p1
S'Disconnected'
p2
sS'direction'
p3
S'Outgoing'
p4
sS'remote'
p5
S''
p6
sS'description'
p7
S'Packet Data'
p8
sS'callid'
p9
L3778L
sS'oid'
p10
L232043L
sS'number'
p11
g6
sS'person_oid'
p12
L18L
sS'contact'
p13
L-1L
sS'starttime'
p14
cdatetime
datetime
p15
(S'\x07\xd4\x0b\x16\x0f\x15\x1e\x00\x00\x00'
p16
tp17
Rp18
sS'duration'
p19
L29L
sS'endtime'
p20
g15
(S'\x07\xd4\x0b\x16\x0f\x15;\x00\x00\x00'
p21
tp22
Rp23
sS'phonenumber_oid'
p24
L3L
s.(dp0
S'status'
p1
S'Disconnected'
p2
sS'direction'
p3
S'Outgoing'
p4
sS'remote'
p5
S''
p6
sS'description'
p7
S'Packet Data'
p8
sS'callid'
p9
L3778L
sS'oid'
p10
L232075L
sS'number'
p11
g6
sS'person_oid'
p12
L18L
sS'contact'
p13
L-1L
sS'starttime'
p14
cdatetime
datetime
p15
(S'\x07\xd4\x0b\x16\x0f\x15\x1e\x00\x00\x00'
p16
tp17
Rp18
sS'duration'
p19
L29L
sS'endtime'
p20
g15
(S'\x07\xd4\x0b\x16\x0f\x15;\x00\x00\x00'
p21
tp22
Rp23
sS'phonenumber_oid'
p24
L3L
s.(dp0
S'status'
p1
S'Disconnected'
p2
sS'direction'
p3
S'Outgoing'
p4
sS'remote'
p5
S''
p6
sS'description'
p7
S'Packet Data'
p8
sS'callid'
p9
L3779L
sS'oid'
p10
L232076L
sS'number'
p11
g6
sS'person_oid'
p12
L18L
sS'contact'
p13
L-1L
sS'starttime'
p14
cdatetime
datetime
p15
(S'\x07\xd4\x0b\x16\x0f\x16)\x00\x00\x00'
p16
tp17
Rp18
sS'duration'
p19
L3662L
sS'endtime'
p20
g15
(S'\x07\xd4\x0b\x16\x10\x17+\x00\x00\x00'
p21
tp22
Rp23
sS'phonenumber_oid'
p24
L3L
s.(dp0
S'status'
p1
S''
p2
sS'direction'
p3
S'Outgoing'
p4
sS'remote'
p5
g2
sS'description'
p6
S'Voice Call'
p7
sS'callid'
p8
L3781L
sS'oid'
p9
L232077L
sS'number'
p10
g2
sS'person_oid'
p11
L18L
sS'contact'
p12
L95L
sS'starttime'
p13
cdatetime
datetime
p14
(S'\x07\xd4\x0b\x16\x14\x04\x0e\x00\x00\x00'
p15
tp16
Rp17
sS'duration'
p18
L11L
sS'endtime'
p19
g14
(S'\x07\xd4\x0b\x16\x14\x04\x19\x00\x00\x00'
p20
tp21
Rp22
sS'phonenumber_oid'
p23
L1132L
s.(dp0
S'status'
p1
S''
p2
sS'direction'
p3
S'Incoming'
p4
sS'remote'
p5
g2
sS'description'
p6
S'Voice Call'
p7
sS'callid'
p8
L3783L
sS'oid'
p9
L232078L
sS'number'
p10
g2
sS'person_oid'
p11
L18L
sS'contact'
p12
L95L
sS'starttime'
p13
cdatetime
datetime
p14
(S'\x07\xd4\x0b\x16\x14\x0b\r\x00\x00\x00'
p15
tp16
Rp17
sS'duration'
p18
L35L
sS'endtime'
p19
g14
(S'\x07\xd4\x0b\x16\x14\x0b0\x00\x00\x00'
p20
tp21
Rp22
sS'phonenumber_oid'
p23
L1135L
s.(dp0
S'status'
p1
S''
p2
sS'direction'
p3
S'Outgoing'
p4
sS'remote'
p5
g2
sS'description'
p6
S'Voice Call'
p7
sS'callid'
p8
L3784L
sS'oid'
p9
L232079L
sS'number'
p10
g2
sS'person_oid'
p11
L18L
sS'contact'
p12
L95L
sS'starttime'
p13
cdatetime
datetime
p14
(S'\x07\xd4\x0b\x16\x15\x17\x1f\x00\x00\x00'
p15
tp16
Rp17
sS'duration'
p18
L6L
sS'endtime'
p19
g14
(S'\x07\xd4\x0b\x16\x15\x17%\x00\x00\x00'
p20
tp21
Rp22
sS'phonenumber_oid'
p23
L1132L
s.(dp0
S'status'
p1
S''
p2
sS'direction'
p3
S'Outgoing'
p4
sS'remote'
p5
g2
sS'description'
p6
S'Voice Call'
p7
sS'callid'
p8
L4078L
sS'oid'
p9
L232080L
sS'number'
p10
g2
sS'person_oid'
p11
L18L
sS'contact'
p12
L104L
sS'starttime'
p13
cdatetime
datetime
p14
(S'\x07\xd4\x0c\t\x0c\x16\x04\x00\x00\x00'
p15
tp16
Rp17
sS'duration'
p18
L16L
sS'endtime'
p19
g14
(S'\x07\xd4\x0c\t\x0c\x16\x14\x00\x00\x00'
p20
tp21
Rp22
sS'phonenumber_oid'
p23
L1133L
s.(dp0
S'status'
p1
S''
p2
sS'direction'
p3
S'Incoming'
p4
sS'remote'
p5
g2
sS'description'
p6
S'Voice Call'
p7
sS'callid'
p8
L4080L
sS'oid'
p9
L232081L
sS'number'
p10
g2
sS'person_oid'
p11
L18L
sS'contact'
p12
L104L
sS'starttime'
p13
cdatetime
datetime
p14
(S'\x07\xd4\x0c\t\r/\x07\x00\x00\x00'
p15
tp16
Rp17
sS'duration'
p18
L10L
sS'endtime'
p19
g14
(S'\x07\xd4\x0c\t\r/\x11\x00\x00\x00'
p20
tp21
Rp22
sS'phonenumber_oid'
p23
L1133L
s.(dp0
S'status'
p1
S'Sent'
p2
sS'direction'
p3
S'Outgoing'
p4
sS'remote'
p5
S''
p6
sS'description'
p7
S'Short Message'
p8
sS'callid'
p9
L4081L
sS'oid'
p10
L232082L
sS'number'
p11
g6
sS'person_oid'
p12
L18L
sS'contact'
p13
L-1L
sS'starttime'
p14
cdatetime
datetime
p15
(S'\x07\xd4\x0c\t\r8\x08\x00\x00\x00'
p16
tp17
Rp18
sS'duration'
p19
L0L
sS'endtime'
p20
g15
(S'\x07\xd4\x0c\t\r8\x08\x00\x00\x00'
p21
tp22
Rp23
sS'phonenumber_oid'
p24
L1133L
s.(dp0
S'status'
p1
S'Disconnected'
p2
sS'direction'
p3
S'Outgoing'
p4
sS'remote'
p5
S''
p6
sS'description'
p7
S'Packet Data'
p8
sS'callid'
p9
L4082L
sS'oid'
p10
L232083L
sS'number'
p11
g6
sS'person_oid'
p12
L18L
sS'contact'
p13
L-1L
sS'starttime'
p14
cdatetime
datetime
p15
(S'\x07\xd4\x0c\t\r9\x0b\x00\x00\x00'
p16
tp17
Rp18
sS'duration'
p19
L2331L
sS'endtime'
p20
g15
(S'\x07\xd4\x0c\t\x0e$\x02\x00\x00\x00'
p21
tp22
Rp23
sS'phonenumber_oid'
p24
L3L
s.(dp0
S'status'
p1
S'Delivered'
p2
sS'direction'
p3
S'Incoming'
p4
sS'remote'
p5
S''
p6
sS'description'
p7
S'Short Message'
p8
sS'callid'
p9
L4084L
sS'oid'
p10
L232084L
sS'number'
p11
g6
sS'person_oid'
p12
L18L
sS'contact'
p13
L-1L
sS'starttime'
p14
cdatetime
datetime
p15
(S'\x07\xd4\x0c\n\x04\x06\x06\x00\x00\x00'
p16
tp17
Rp18
sS'duration'
p19
L0L
sS'endtime'
p20
g15
(S'\x07\xd4\x0c\n\x04\x06\x06\x00\x00\x00'
p21
tp22
Rp23
sS'phonenumber_oid'
p24
L1133L
s.(dp0
S'status'
p1
S'Delivered'
p2
sS'direction'
p3
S'Incoming'
p4
sS'remote'
p5
S''
p6
sS'description'
p7
S'Short Message'
p8
sS'callid'
p9
L4085L
sS'oid'
p10
L232085L
sS'number'
p11
g6
sS'person_oid'
p12
L18L
sS'contact'
p13
L-1L
sS'starttime'
p14
cdatetime
datetime
p15
(S'\x07\xd4\x0c\n\x04\x08$\x00\x00\x00'
p16
tp17
Rp18
sS'duration'
p19
L0L
sS'endtime'
p20
g15
(S'\x07\xd4\x0c\n\x04\x08$\x00\x00\x00'
p21
tp22
Rp23
sS'phonenumber_oid'
p24
L1133L
s.(dp0
S'status'
p1
S'Delivered'
p2
sS'direction'
p3
S'Incoming'
p4
sS'remote'
p5
S''
p6
sS'description'
p7
S'Short Message'
p8
sS'callid'
p9
L4086L
sS'oid'
p10
L232086L
sS'number'
p11
g6
sS'person_oid'
p12
L18L
sS'contact'
p13
L-1L
sS'starttime'
p14
cdatetime
datetime
p15
(S'\x07\xd4\x0c\n\x04*\x17\x00\x00\x00'
p16
tp17
Rp18
sS'duration'
p19
L0L
sS'endtime'
p20
g15
(S'\x07\xd4\x0c\n\x04*\x17\x00\x00\x00'
p21
tp22
Rp23
sS'phonenumber_oid'
p24
L1133L
s.(dp0
S'status'
p1
S''
p2
sS'direction'
p3
S'Incoming'
p4
sS'remote'
p5
g2
sS'description'
p6
S'Voice Call'
p7
sS'callid'
p8
L4088L
sS'oid'
p9
L232087L
sS'number'
p10
g2
sS'person_oid'
p11
L18L
sS'contact'
p12
L-1L
sS'starttime'
p13
cdatetime
datetime
p14
(S'\x07\xd4\x0c\n\x07:6\x00\x00\x00'
p15
tp16
Rp17
sS'duration'
p18
L897L
sS'endtime'
p19
g14
(S'\x07\xd4\x0c\n\x08\r3\x00\x00\x00'
p20
tp21
Rp22
sS'phonenumber_oid'
p23
L3L
s.(dp0
S'status'
p1
S''
p2
sS'direction'
p3
S'Incoming'
p4
sS'remote'
p5
g2
sS'description'
p6
S'Voice Call'
p7
sS'callid'
p8
L4090L
sS'oid'
p9
L232088L
sS'number'
p10
g2
sS'person_oid'
p11
L18L
sS'contact'
p12
L-1L
sS'starttime'
p13
cdatetime
datetime
p14
(S"\x07\xd4\x0c\n\n'3\x00\x00\x00"
p15
tp16
Rp17
sS'duration'
p18
L62L
sS'endtime'
p19
g14
(S'\x07\xd4\x0c\n\n(5\x00\x00\x00'
p20
tp21
Rp22
sS'phonenumber_oid'
p23
L3L
s.(dp0
S'status'
p1
S''
p2
sS'direction'
p3
S'Outgoing'
p4
sS'remote'
p5
g2
sS'description'
p6
S'Voice Call'
p7
sS'callid'
p8
L4091L
sS'oid'
p9
L232089L
sS'number'
p10
g2
sS'person_oid'
p11
L18L
sS'contact'
p12
L135L
sS'starttime'
p13
cdatetime
datetime
p14
(S'\x07\xd4\x0c\n\x0b\x1d\x1f\x00\x00\x00'
p15
tp16
Rp17
sS'duration'
p18
L47L
sS'endtime'
p19
g14
(S'\x07\xd4\x0c\n\x0b\x1e\x12\x00\x00\x00'
p20
tp21
Rp22
sS'phonenumber_oid'
p23
L1136L
s.(dp0
S'status'
p1
S''
p2
sS'direction'
p3
S'Incoming'
p4
sS'remote'
p5
g2
sS'description'
p6
S'Voice Call'
p7
sS'callid'
p8
L4093L
sS'oid'
p9
L232090L
sS'number'
p10
g2
sS'person_oid'
p11
L18L
sS'contact'
p12
L95L
sS'starttime'
p13
cdatetime
datetime
p14
(S'\x07\xd4\x0c\n\x0b \x03\x00\x00\x00'
p15
tp16
Rp17
sS'duration'
p18
L19L
sS'endtime'
p19
g14
(S'\x07\xd4\x0c\n\x0b \x16\x00\x00\x00'
p20
tp21
Rp22
sS'phonenumber_oid'
p23
L1132L
s.(dp0
S'status'
p1
S''
p2
sS'direction'
p3
S'Outgoing'
p4
sS'remote'
p5
g2
sS'description'
p6
S'Voice Call'
p7
sS'callid'
p8
L4094L
sS'oid'
p9
L232091L
sS'number'
p10
g2
sS'person_oid'
p11
L18L
sS'contact'
p12
L135L
sS'starttime'
p13
cdatetime
datetime
p14
(S'\x07\xd4\x0c\n\x0b!\x17\x00\x00\x00'
p15
tp16
Rp17
sS'duration'
p18
L7L
sS'endtime'
p19
g14
(S'\x07\xd4\x0c\n\x0b!\x1e\x00\x00\x00'
p20
tp21
Rp22
sS'phonenumber_oid'
p23
L1136L
s.(dp0
S'status'
p1
S''
p2
sS'direction'
p3
S'Incoming'
p4
sS'remote'
p5
g2
sS'description'
p6
S'Voice Call'
p7
sS'callid'
p8
L4096L
sS'oid'
p9
L232092L
sS'number'
p10
g2
sS'person_oid'
p11
L18L
sS'contact'
p12
L-1L
sS'starttime'
p13
cdatetime
datetime
p14
(S'\x07\xd4\x0c\n\x0b&\x19\x00\x00\x00'
p15
tp16
Rp17
sS'duration'
p18
L47L
sS'endtime'
p19
g14
(S"\x07\xd4\x0c\n\x0b'\x0c\x00\x00\x00"
p20
tp21
Rp22
sS'phonenumber_oid'
p23
L3L
s.(dp0
S'status'
p1
S''
p2
sS'direction'
p3
S'Missed Call'
p4
sS'remote'
p5
g2
sS'description'
p6
S'Voice Call'
p7
sS'callid'
p8
L4097L
sS'oid'
p9
L232093L
sS'number'
p10
g2
sS'person_oid'
p11
L18L
sS'contact'
p12
L-1L
sS'starttime'
p13
cdatetime
datetime
p14
(S'\x07\xd4\x0c\n\x0e#6\x00\x00\x00'
p15
tp16
Rp17
sS'duration'
p18
L0L
sS'endtime'
p19
g14
(S'\x07\xd4\x0c\n\x0e#6\x00\x00\x00'
p20
tp21
Rp22
sS'phonenumber_oid'
p23
L3L
s.(dp0
S'status'
p1
S''
p2
sS'direction'
p3
S'Incoming'
p4
sS'remote'
p5
g2
sS'description'
p6
S'Voice Call'
p7
sS'callid'
p8
L4099L
sS'oid'
p9
L232094L
sS'number'
p10
g2
sS'person_oid'
p11
L18L
sS'contact'
p12
L-1L
sS'starttime'
p13
cdatetime
datetime
p14
(S'\x07\xd4\x0c\n\x0e$5\x00\x00\x00'
p15
tp16
Rp17
sS'duration'
p18
L39L
sS'endtime'
p19
g14
(S'\x07\xd4\x0c\n\x0e% \x00\x00\x00'
p20
tp21
Rp22
sS'phonenumber_oid'
p23
L3L
s.(dp0
S'status'
p1
S''
p2
sS'direction'
p3
S'Missed Call'
p4
sS'remote'
p5
g2
sS'description'
p6
S'Voice Call'
p7
sS'callid'
p8
L4100L
sS'oid'
p9
L232095L
sS'number'
p10
g2
sS'person_oid'
p11
L18L
sS'contact'
p12
L-1L
sS'starttime'
p13
cdatetime
datetime
p14
(S'\x07\xd4\x0c\n\x0f\x08\x07\x00\x00\x00'
p15
tp16
Rp17
sS'duration'
p18
L0L
sS'endtime'
p19
g14
(S'\x07\xd4\x0c\n\x0f\x08\x07\x00\x00\x00'
p20
tp21
Rp22
sS'phonenumber_oid'
p23
L3L
s.(dp0
S'status'
p1
S''
p2
sS'direction'
p3
S'Missed Call'
p4
sS'remote'
p5
g2
sS'description'
p6
S'Voice Call'
p7
sS'callid'
p8
L4101L
sS'oid'
p9
L232096L
sS'number'
p10
g2
sS'person_oid'
p11
L18L
sS'contact'
p12
L-1L
sS'starttime'
p13
cdatetime
datetime
p14
(S'\x07\xd4\x0c\n\x0f\x10"\x00\x00\x00'
p15
tp16
Rp17
sS'duration'
p18
L0L
sS'endtime'
p19
g14
(S'\x07\xd4\x0c\n\x0f\x10"\x00\x00\x00'
p20
tp21
Rp22
sS'phonenumber_oid'
p23
L3L
s.(dp0
S'status'
p1
S''
p2
sS'direction'
p3
S'Missed Call'
p4
sS'remote'
p5
g2
sS'description'
p6
S'Voice Call'
p7
sS'callid'
p8
L4102L
sS'oid'
p9
L232097L
sS'number'
p10
g2
sS'person_oid'
p11
L18L
sS'contact'
p12
L-1L
sS'starttime'
p13
cdatetime
datetime
p14
(S'\x07\xd4\x0c\n\x0f\x18.\x00\x00\x00'
p15
tp16
Rp17
sS'duration'
p18
L0L
sS'endtime'
p19
g14
(S'\x07\xd4\x0c\n\x0f\x18.\x00\x00\x00'
p20
tp21
Rp22
sS'phonenumber_oid'
p23
L3L
s.(dp0
S'status'
p1
S''
p2
sS'direction'
p3
S'Missed Call'
p4
sS'remote'
p5
g2
sS'description'
p6
S'Voice Call'
p7
sS'callid'
p8
L4103L
sS'oid'
p9
L232098L
sS'number'
p10
g2
sS'person_oid'
p11
L18L
sS'contact'
p12
L-1L
sS'starttime'
p13
cdatetime
datetime
p14
(S'\x07\xd4\x0c\n\x0f\x1c%\x00\x00\x00'
p15
tp16
Rp17
sS'duration'
p18
L0L
sS'endtime'
p19
g14
(S'\x07\xd4\x0c\n\x0f\x1c%\x00\x00\x00'
p20
tp21
Rp22
sS'phonenumber_oid'
p23
L3L
s.(dp0
S'status'
p1
S''
p2
sS'direction'
p3
S'Outgoing'
p4
sS'remote'
p5
g2
sS'description'
p6
S'Voice Call'
p7
sS'callid'
p8
L4105L
sS'oid'
p9
L232099L
sS'number'
p10
g2
sS'person_oid'
p11
L18L
sS'contact'
p12
L135L
sS'starttime'
p13
cdatetime
datetime
p14
(S'\x07\xd4\x0c\x0b\x02;\x1c\x00\x00\x00'
p15
tp16
Rp17
sS'duration'
p18
L347L
sS'endtime'
p19
g14
(S'\x07\xd4\x0c\x0b\x03\x05\x0f\x00\x00\x00'
p20
tp21
Rp22
sS'phonenumber_oid'
p23
L1136L
s.(dp0
S'status'
p1
S''
p2
sS'direction'
p3
S'Missed Call'
p4
sS'remote'
p5
g2
sS'description'
p6
S'Voice Call'
p7
sS'callid'
p8
L4106L
sS'oid'
p9
L232100L
sS'number'
p10
g2
sS'person_oid'
p11
L18L
sS'contact'
p12
L95L
sS'starttime'
p13
cdatetime
datetime
p14
(S'\x07\xd4\x0c\x0b\x05)0\x00\x00\x00'
p15
tp16
Rp17
sS'duration'
p18
L0L
sS'endtime'
p19
g14
(S'\x07\xd4\x0c\x0b\x05)0\x00\x00\x00'
p20
tp21
Rp22
sS'phonenumber_oid'
p23
L1135L
s.(dp0
S'status'
p1
S''
p2
sS'direction'
p3
S'Outgoing'
p4
sS'remote'
p5
g2
sS'description'
p6
S'Voice Call'
p7
sS'callid'
p8
L4108L
sS'oid'
p9
L232101L
sS'number'
p10
g2
sS'person_oid'
p11
L18L
sS'contact'
p12
L108L
sS'starttime'
p13
cdatetime
datetime
p14
(S'\x07\xd4\x0c\x0b\x07-\x12\x00\x00\x00'
p15
tp16
Rp17
sS'duration'
p18
L4L
sS'endtime'
p19
g14
(S'\x07\xd4\x0c\x0b\x07-\x16\x00\x00\x00'
p20
tp21
Rp22
sS'phonenumber_oid'
p23
L1137L
s.(dp0
S'status'
p1
S''
p2
sS'direction'
p3
S'Incoming'
p4
sS'remote'
p5
g2
sS'description'
p6
S'Voice Call'
p7
sS'callid'
p8
L4110L
sS'oid'
p9
L232102L
sS'number'
p10
g2
sS'person_oid'
p11
L18L
sS'contact'
p12
L-1L
sS'starttime'
p13
cdatetime
datetime
p14
(S'\x07\xd4\x0c\x0b\x08\x18\x0f\x00\x00\x00'
p15
tp16
Rp17
sS'duration'
p18
L13L
sS'endtime'
p19
g14
(S'\x07\xd4\x0c\x0b\x08\x18\x1c\x00\x00\x00'
p20
tp21
Rp22
sS'phonenumber_oid'
p23
L3L
s.(dp0
S'status'
p1
S''
p2
sS'direction'
p3
S'Incoming'
p4
sS'remote'
p5
g2
sS'description'
p6
S'Voice Call'
p7
sS'callid'
p8
L4112L
sS'oid'
p9
L232103L
sS'number'
p10
g2
sS'person_oid'
p11
L18L
sS'contact'
p12
L104L
sS'starttime'
p13
cdatetime
datetime
p14
(S'\x07\xd4\x0c\x0b\x08\x19-\x00\x00\x00'
p15
tp16
Rp17
sS'duration'
p18
L0L
sS'endtime'
p19
g14
(S'\x07\xd4\x0c\x0b\x08\x19-\x00\x00\x00'
p20
tp21
Rp22
sS'phonenumber_oid'
p23
L1133L
s.(dp0
S'status'
p1
S''
p2
sS'direction'
p3
S'Incoming'
p4
sS'remote'
p5
g2
sS'description'
p6
S'Voice Call'
p7
sS'callid'
p8
L4116L
sS'oid'
p9
L232104L
sS'number'
p10
g2
sS'person_oid'
p11
L18L
sS'contact'
p12
L104L
sS'starttime'
p13
cdatetime
datetime
p14
(S'\x07\xd4\x0c\x0b\x084\x00\x00\x00\x00'
p15
tp16
Rp17
sS'duration'
p18
L70L
sS'endtime'
p19
g14
(S'\x07\xd4\x0c\x0b\x085\n\x00\x00\x00'
p20
tp21
Rp22
sS'phonenumber_oid'
p23
L1133L
s.(dp0
S'status'
p1
S''
p2
sS'direction'
p3
S'Incoming'
p4
sS'remote'
p5
g2
sS'description'
p6
S'Voice Call'
p7
sS'callid'
p8
L4118L
sS'oid'
p9
L232105L
sS'number'
p10
g2
sS'person_oid'
p11
L18L
sS'contact'
p12
L-1L
sS'starttime'
p13
cdatetime
datetime
p14
(S'\x07\xd4\x0c\x0b\n\x11\r\x00\x00\x00'
p15
tp16
Rp17
sS'duration'
p18
L127L
sS'endtime'
p19
g14
(S'\x07\xd4\x0c\x0b\n\x13\x14\x00\x00\x00'
p20
tp21
Rp22
sS'phonenumber_oid'
p23
L3L
s.(dp0
S'status'
p1
S''
p2
sS'direction'
p3
S'Outgoing'
p4
sS'remote'
p5
g2
sS'description'
p6
S'Voice Call'
p7
sS'callid'
p8
L4119L
sS'oid'
p9
L232106L
sS'number'
p10
g2
sS'person_oid'
p11
L18L
sS'contact'
p12
L104L
sS'starttime'
p13
cdatetime
datetime
p14
(S'\x07\xd4\x0c\x0b\x0e"6\x00\x00\x00'
p15
tp16
Rp17
sS'duration'
p18
L29L
sS'endtime'
p19
g14
(S'\x07\xd4\x0c\x0b\x0e#\x17\x00\x00\x00'
p20
tp21
Rp22
sS'phonenumber_oid'
p23
L1133L
s.(dp0
S'status'
p1
S''
p2
sS'direction'
p3
S'Incoming'
p4
sS'remote'
p5
g2
sS'description'
p6
S'Voice Call'
p7
sS'callid'
p8
L4123L
sS'oid'
p9
L232107L
sS'number'
p10
g2
sS'person_oid'
p11
L18L
sS'contact'
p12
L95L
sS'starttime'
p13
cdatetime
datetime
p14
(S'\x07\xd4\x0c\x0b\x0e8\x01\x00\x00\x00'
p15
tp16
Rp17
sS'duration'
p18
L18L
sS'endtime'
p19
g14
(S'\x07\xd4\x0c\x0b\x0e8\x13\x00\x00\x00'
p20
tp21
Rp22
sS'phonenumber_oid'
p23
L1132L
s.(dp0
S'status'
p1
S''
p2
sS'direction'
p3
S'Missed Call'
p4
sS'remote'
p5
g2
sS'description'
p6
S'Voice Call'
p7
sS'callid'
p8
L4124L
sS'oid'
p9
L232108L
sS'number'
p10
g2
sS'person_oid'
p11
L18L
sS'contact'
p12
L95L
sS'starttime'
p13
cdatetime
datetime
p14
(S'\x07\xd4\x0c\x0b\x0f\x05(\x00\x00\x00'
p15
tp16
Rp17
sS'duration'
p18
L0L
sS'endtime'
p19
g14
(S'\x07\xd4\x0c\x0b\x0f\x05(\x00\x00\x00'
p20
tp21
Rp22
sS'phonenumber_oid'
p23
L1132L
s.(dp0
S'status'
p1
S''
p2
sS'direction'
p3
S'Missed Call'
p4
sS'remote'
p5
g2
sS'description'
p6
S'Voice Call'
p7
sS'callid'
p8
L4125L
sS'oid'
p9
L232109L
sS'number'
p10
g2
sS'person_oid'
p11
L18L
sS'contact'
p12
L95L
sS'starttime'
p13
cdatetime
datetime
p14
(S'\x07\xd4\x0c\x0b\x0f\x06\x14\x00\x00\x00'
p15
tp16
Rp17
sS'duration'
p18
L0L
sS'endtime'
p19
g14
(S'\x07\xd4\x0c\x0b\x0f\x06\x14\x00\x00\x00'
p20
tp21
Rp22
sS'phonenumber_oid'
p23
L1132L
s.(dp0
S'status'
p1
S''
p2
sS'direction'
p3
S'Missed Call'
p4
sS'remote'
p5
g2
sS'description'
p6
S'Voice Call'
p7
sS'callid'
p8
L4126L
sS'oid'
p9
L232110L
sS'number'
p10
g2
sS'person_oid'
p11
L18L
sS'contact'
p12
L95L
sS'starttime'
p13
cdatetime
datetime
p14
(S'\x07\xd4\x0c\x0b\x0f\x07\x01\x00\x00\x00'
p15
tp16
Rp17
sS'duration'
p18
L0L
sS'endtime'
p19
g14
(S'\x07\xd4\x0c\x0b\x0f\x07\x01\x00\x00\x00'
p20
tp21
Rp22
sS'phonenumber_oid'
p23
L1132L
s.(dp0
S'status'
p1
S''
p2
sS'direction'
p3
S'Outgoing'
p4
sS'remote'
p5
g2
sS'description'
p6
S'Voice Call'
p7
sS'callid'
p8
L4127L
sS'oid'
p9
L232111L
sS'number'
p10
g2
sS'person_oid'
p11
L18L
sS'contact'
p12
L95L
sS'starttime'
p13
cdatetime
datetime
p14
(S'\x07\xd4\x0c\x0b\x0f\x08\x02\x00\x00\x00'
p15
tp16
Rp17
sS'duration'
p18
L38L
sS'endtime'
p19
g14
(S'\x07\xd4\x0c\x0b\x0f\x08(\x00\x00\x00'
p20
tp21
Rp22
sS'phonenumber_oid'
p23
L1132L
s.(dp0
S'status'
p1
S''
p2
sS'direction'
p3
S'Outgoing'
p4
sS'remote'
p5
g2
sS'description'
p6
S'Voice Call'
p7
sS'callid'
p8
L4128L
sS'oid'
p9
L232112L
sS'number'
p10
g2
sS'person_oid'
p11
L18L
sS'contact'
p12
L104L
sS'starttime'
p13
cdatetime
datetime
p14
(S'\x07\xd4\x0c\x0b\x0f\x08\x0f\x00\x00\x00'
p15
tp16
Rp17
sS'duration'
p18
L194L
sS'endtime'
p19
g14
(S'\x07\xd4\x0c\x0b\x0f\x0b\x1d\x00\x00\x00'
p20
tp21
Rp22
sS'phonenumber_oid'
p23
L1133L
s.(dp0
S'status'
p1
S''
p2
sS'direction'
p3
S'Outgoing'
p4
sS'remote'
p5
g2
sS'description'
p6
S'Voice Call'
p7
sS'callid'
p8
L4129L
sS'oid'
p9
L232113L
sS'number'
p10
g2
sS'person_oid'
p11
L18L
sS'contact'
p12
L104L
sS'starttime'
p13
cdatetime
datetime
p14
(S'\x07\xd4\x0c\x0b\x0f\x0e\x05\x00\x00\x00'
p15
tp16
Rp17
sS'duration'
p18
L6L
sS'endtime'
p19
g14
(S'\x07\xd4\x0c\x0b\x0f\x0e\x0b\x00\x00\x00'
p20
tp21
Rp22
sS'phonenumber_oid'
p23
L1133L
s.(dp0
S'status'
p1
S''
p2
sS'direction'
p3
S'Outgoing'
p4
sS'remote'
p5
g2
sS'description'
p6
S'Voice Call'
p7
sS'callid'
p8
L4130L
sS'oid'
p9
L232114L
sS'number'
p10
g2
sS'person_oid'
p11
L18L
sS'contact'
p12
L104L
sS'starttime'
p13
cdatetime
datetime
p14
(S'\x07\xd4\x0c\x0c\x0e\x0e0\x00\x00\x00'
p15
tp16
Rp17
sS'duration'
p18
L7L
sS'endtime'
p19
g14
(S'\x07\xd4\x0c\x0c\x0e\x0e7\x00\x00\x00'
p20
tp21
Rp22
sS'phonenumber_oid'
p23
L1133L
s.(dp0
S'status'
p1
S''
p2
sS'direction'
p3
S'Outgoing'
p4
sS'remote'
p5
g2
sS'description'
p6
S'Voice Call'
p7
sS'callid'
p8
L4131L
sS'oid'
p9
L232115L
sS'number'
p10
g2
sS'person_oid'
p11
L18L
sS'contact'
p12
L95L
sS'starttime'
p13
cdatetime
datetime
p14
(S'\x07\xd4\x0c\x0c\x0e\x0f\x08\x00\x00\x00'
p15
tp16
Rp17
sS'duration'
p18
L0L
sS'endtime'
p19
g14
(S'\x07\xd4\x0c\x0c\x0e\x0f\x08\x00\x00\x00'
p20
tp21
Rp22
sS'phonenumber_oid'
p23
L1132L
s.(dp0
S'status'
p1
S''
p2
sS'direction'
p3
S'Incoming'
p4
sS'remote'
p5
g2
sS'description'
p6
S'Voice Call'
p7
sS'callid'
p8
L4133L
sS'oid'
p9
L232116L
sS'number'
p10
g2
sS'person_oid'
p11
L18L
sS'contact'
p12
L107L
sS'starttime'
p13
cdatetime
datetime
p14
(S'\x07\xd4\x0c\x0c\x11\x17)\x00\x00\x00'
p15
tp16
Rp17
sS'duration'
p18
L0L
sS'endtime'
p19
g14
(S'\x07\xd4\x0c\x0c\x11\x17)\x00\x00\x00'
p20
tp21
Rp22
sS'phonenumber_oid'
p23
L1138L
s.(dp0
S'status'
p1
S''
p2
sS'direction'
p3
S'Incoming'
p4
sS'remote'
p5
g2
sS'description'
p6
S'Voice Call'
p7
sS'callid'
p8
L4136L
sS'oid'
p9
L232117L
sS'number'
p10
g2
sS'person_oid'
p11
L18L
sS'contact'
p12
L104L
sS'starttime'
p13
cdatetime
datetime
p14
(S'\x07\xd4\x0c\r\x03\x1b*\x00\x00\x00'
p15
tp16
Rp17
sS'duration'
p18
L0L
sS'endtime'
p19
g14
(S'\x07\xd4\x0c\r\x03\x1b*\x00\x00\x00'
p20
tp21
Rp22
sS'phonenumber_oid'
p23
L1133L
s.(dp0
S'status'
p1
S''
p2
sS'direction'
p3
S'Outgoing'
p4
sS'remote'
p5
g2
sS'description'
p6
S'Voice Call'
p7
sS'callid'
p8
L4137L
sS'oid'
p9
L232118L
sS'number'
p10
g2
sS'person_oid'
p11
L18L
sS'contact'
p12
L104L
sS'starttime'
p13
cdatetime
datetime
p14
(S'\x07\xd4\x0c\r\x03\x1d\t\x00\x00\x00'
p15
tp16
Rp17
sS'duration'
p18
L28L
sS'endtime'
p19
g14
(S'\x07\xd4\x0c\r\x03\x1d%\x00\x00\x00'
p20
tp21
Rp22
sS'phonenumber_oid'
p23
L1133L
s.(dp0
S'status'
p1
S''
p2
sS'direction'
p3
S'Outgoing'
p4
sS'remote'
p5
g2
sS'description'
p6
S'Voice Call'
p7
sS'callid'
p8
L4138L
sS'oid'
p9
L232119L
sS'number'
p10
g2
sS'person_oid'
p11
L18L
sS'contact'
p12
L95L
sS'starttime'
p13
cdatetime
datetime
p14
(S'\x07\xd4\x0c\r\n\x17\x00\x00\x00\x00'
p15
tp16
Rp17
sS'duration'
p18
L44L
sS'endtime'
p19
g14
(S'\x07\xd4\x0c\r\n\x17,\x00\x00\x00'
p20
tp21
Rp22
sS'phonenumber_oid'
p23
L1132L
s.(dp0
S'status'
p1
S''
p2
sS'direction'
p3
S'Incoming'
p4
sS'remote'
p5
g2
sS'description'
p6
S'Voice Call'
p7
sS'callid'
p8
L4140L
sS'oid'
p9
L232120L
sS'number'
p10
g2
sS'person_oid'
p11
L18L
sS'contact'
p12
L104L
sS'starttime'
p13
cdatetime
datetime
p14
(S'\x07\xd4\x0c\r\x0c\x1a\x1a\x00\x00\x00'
p15
tp16
Rp17
sS'duration'
p18
L8L
sS'endtime'
p19
g14
(S'\x07\xd4\x0c\r\x0c\x1a"\x00\x00\x00'
p20
tp21
Rp22
sS'phonenumber_oid'
p23
L1133L
s.(dp0
S'status'
p1
S''
p2
sS'direction'
p3
S'Outgoing'
p4
sS'remote'
p5
g2
sS'description'
p6
S'Voice Call'
p7
sS'callid'
p8
L4141L
sS'oid'
p9
L232121L
sS'number'
p10
g2
sS'person_oid'
p11
L18L
sS'contact'
p12
L100L
sS'starttime'
p13
cdatetime
datetime
p14
(S'\x07\xd4\x0c\r\x0c\x1c\x00\x00\x00\x00'
p15
tp16
Rp17
sS'duration'
p18
L17L
sS'endtime'
p19
g14
(S'\x07\xd4\x0c\r\x0c\x1c\x11\x00\x00\x00'
p20
tp21
Rp22
sS'phonenumber_oid'
p23
L1139L
s.(dp0
S'status'
p1
S''
p2
sS'direction'
p3
S'Outgoing'
p4
sS'remote'
p5
g2
sS'description'
p6
S'Voice Call'
p7
sS'callid'
p8
L4142L
sS'oid'
p9
L232122L
sS'number'
p10
g2
sS'person_oid'
p11
L18L
sS'contact'
p12
L104L
sS'starttime'
p13
cdatetime
datetime
p14
(S'\x07\xd4\x0c\r\x0c\x1f\x10\x00\x00\x00'
p15
tp16
Rp17
sS'duration'
p18
L5L
sS'endtime'
p19
g14
(S'\x07\xd4\x0c\r\x0c\x1f\x15\x00\x00\x00'
p20
tp21
Rp22
sS'phonenumber_oid'
p23
L1133L
s.(dp0
S'status'
p1
S''
p2
sS'direction'
p3
S'Outgoing'
p4
sS'remote'
p5
g2
sS'description'
p6
S'Voice Call'
p7
sS'callid'
p8
L4143L
sS'oid'
p9
L232123L
sS'number'
p10
g2
sS'person_oid'
p11
L18L
sS'contact'
p12
L135L
sS'starttime'
p13
cdatetime
datetime
p14
(S'\x07\xd4\x0c\x0e\x01.\x14\x00\x00\x00'
p15
tp16
Rp17
sS'duration'
p18
L64L
sS'endtime'
p19
g14
(S'\x07\xd4\x0c\x0e\x01/\x18\x00\x00\x00'
p20
tp21
Rp22
sS'phonenumber_oid'
p23
L1136L
s.(dp0
S'status'
p1
S''
p2
sS'direction'
p3
S'Outgoing'
p4
sS'remote'
p5
g2
sS'description'
p6
S'Voice Call'
p7
sS'callid'
p8
L4144L
sS'oid'
p9
L232124L
sS'number'
p10
g2
sS'person_oid'
p11
L18L
sS'contact'
p12
L110L
sS'starttime'
p13
cdatetime
datetime
p14
(S'\x07\xd4\x0c\x0e\x06\x01\t\x00\x00\x00'
p15
tp16
Rp17
sS'duration'
p18
L0L
sS'endtime'
p19
g14
(S'\x07\xd4\x0c\x0e\x06\x01\t\x00\x00\x00'
p20
tp21
Rp22
sS'phonenumber_oid'
p23
L1140L
s.(dp0
S'status'
p1
S''
p2
sS'direction'
p3
S'Outgoing'
p4
sS'remote'
p5
g2
sS'description'
p6
S'Voice Call'
p7
sS'callid'
p8
L4145L
sS'oid'
p9
L232125L
sS'number'
p10
g2
sS'person_oid'
p11
L18L
sS'contact'
p12
L110L
sS'starttime'
p13
cdatetime
datetime
p14
(S'\x07\xd4\x0c\x0e\x06\x12)\x00\x00\x00'
p15
tp16
Rp17
sS'duration'
p18
L0L
sS'endtime'
p19
g14
(S'\x07\xd4\x0c\x0e\x06\x12)\x00\x00\x00'
p20
tp21
Rp22
sS'phonenumber_oid'
p23
L1140L
s.(dp0
S'status'
p1
S''
p2
sS'direction'
p3
S'Outgoing'
p4
sS'remote'
p5
g2
sS'description'
p6
S'Voice Call'
p7
sS'callid'
p8
L4146L
sS'oid'
p9
L232126L
sS'number'
p10
g2
sS'person_oid'
p11
L18L
sS'contact'
p12
L99L
sS'starttime'
p13
cdatetime
datetime
p14
(S'\x07\xd4\x0c\x0e\x06\x14\x1e\x00\x00\x00'
p15
tp16
Rp17
sS'duration'
p18
L118L
sS'endtime'
p19
g14
(S'\x07\xd4\x0c\x0e\x06\x16\x1c\x00\x00\x00'
p20
tp21
Rp22
sS'phonenumber_oid'
p23
L1141L
s.(dp0
S'status'
p1
S''
p2
sS'direction'
p3
S'Outgoing'
p4
sS'remote'
p5
g2
sS'description'
p6
S'Voice Call'
p7
sS'callid'
p8
L4147L
sS'oid'
p9
L232127L
sS'number'
p10
g2
sS'person_oid'
p11
L18L
sS'contact'
p12
L88L
sS'starttime'
p13
cdatetime
datetime
p14
(S'\x07\xd4\x0c\x0e\x06\x17\r\x00\x00\x00'
p15
tp16
Rp17
sS'duration'
p18
L40L
sS'endtime'
p19
g14
(S'\x07\xd4\x0c\x0e\x06\x175\x00\x00\x00'
p20
tp21
Rp22
sS'phonenumber_oid'
p23
L1142L
s.(dp0
S'status'
p1
S''
p2
sS'direction'
p3
S'Missed Call'
p4
sS'remote'
p5
g2
sS'description'
p6
S'Voice Call'
p7
sS'callid'
p8
L4148L
sS'oid'
p9
L232128L
sS'number'
p10
g2
sS'person_oid'
p11
L18L
sS'contact'
p12
L-1L
sS'starttime'
p13
cdatetime
datetime
p14
(S'\x07\xd4\x0c\x0e\x06. \x00\x00\x00'
p15
tp16
Rp17
sS'duration'
p18
L0L
sS'endtime'
p19
g14
(S'\x07\xd4\x0c\x0e\x06. \x00\x00\x00'
p20
tp21
Rp22
sS'phonenumber_oid'
p23
L3L
s.(dp0
S'status'
p1
S''
p2
sS'direction'
p3
S'Outgoing'
p4
sS'remote'
p5
g2
sS'description'
p6
S'Voice Call'
p7
sS'callid'
p8
L4149L
sS'oid'
p9
L232129L
sS'number'
p10
g2
sS'person_oid'
p11
L18L
sS'contact'
p12
L88L
sS'starttime'
p13
cdatetime
datetime
p14
(S'\x07\xd4\x0c\x0e\x07\x0e\x02\x00\x00\x00'
p15
tp16
Rp17
sS'duration'
p18
L0L
sS'endtime'
p19
g14
(S'\x07\xd4\x0c\x0e\x07\x0e\x02\x00\x00\x00'
p20
tp21
Rp22
sS'phonenumber_oid'
p23
L1142L
s.(dp0
S'status'
p1
S''
p2
sS'direction'
p3
S'Outgoing'
p4
sS'remote'
p5
g2
sS'description'
p6
S'Voice Call'
p7
sS'callid'
p8
L4150L
sS'oid'
p9
L232130L
sS'number'
p10
g2
sS'person_oid'
p11
L18L
sS'contact'
p12
L88L
sS'starttime'
p13
cdatetime
datetime
p14
(S'\x07\xd4\x0c\x0e\x07\x0e,\x00\x00\x00'
p15
tp16
Rp17
sS'duration'
p18
L0L
sS'endtime'
p19
g14
(S'\x07\xd4\x0c\x0e\x07\x0e,\x00\x00\x00'
p20
tp21
Rp22
sS'phonenumber_oid'
p23
L1142L
s.(dp0
S'status'
p1
S''
p2
sS'direction'
p3
S'Outgoing'
p4
sS'remote'
p5
g2
sS'description'
p6
S'Voice Call'
p7
sS'callid'
p8
L4151L
sS'oid'
p9
L232131L
sS'number'
p10
g2
sS'person_oid'
p11
L18L
sS'contact'
p12
L88L
sS'starttime'
p13
cdatetime
datetime
p14
(S'\x07\xd4\x0c\x0e\x07\x10-\x00\x00\x00'
p15
tp16
Rp17
sS'duration'
p18
L2L
sS'endtime'
p19
g14
(S'\x07\xd4\x0c\x0e\x07\x10/\x00\x00\x00'
p20
tp21
Rp22
sS'phonenumber_oid'
p23
L1143L
s.(dp0
S'status'
p1
S''
p2
sS'direction'
p3
S'Outgoing'
p4
sS'remote'
p5
g2
sS'description'
p6
S'Voice Call'
p7
sS'callid'
p8
L4152L
sS'oid'
p9
L232132L
sS'number'
p10
g2
sS'person_oid'
p11
L18L
sS'contact'
p12
L88L
sS'starttime'
p13
cdatetime
datetime
p14
(S'\x07\xd4\x0c\x0e\x08\x10\x1b\x00\x00\x00'
p15
tp16
Rp17
sS'duration'
p18
L1234L
sS'endtime'
p19
g14
(S'\x07\xd4\x0c\x0e\x08%\x01\x00\x00\x00'
p20
tp21
Rp22
sS'phonenumber_oid'
p23
L1143L
s.(dp0
S'status'
p1
S''
p2
sS'direction'
p3
S'Outgoing'
p4
sS'remote'
p5
g2
sS'description'
p6
S'Voice Call'
p7
sS'callid'
p8
L4153L
sS'oid'
p9
L232133L
sS'number'
p10
g2
sS'person_oid'
p11
L18L
sS'contact'
p12
L95L
sS'starttime'
p13
cdatetime
datetime
p14
(S'\x07\xd4\x0c\x0e\t93\x00\x00\x00'
p15
tp16
Rp17
sS'duration'
p18
L71L
sS'endtime'
p19
g14
(S'\x07\xd4\x0c\x0e\t;\x02\x00\x00\x00'
p20
tp21
Rp22
sS'phonenumber_oid'
p23
L1132L
s.(dp0
S'status'
p1
S''
p2
sS'direction'
p3
S'Incoming'
p4
sS'remote'
p5
g2
sS'description'
p6
S'Voice Call'
p7
sS'callid'
p8
L4155L
sS'oid'
p9
L232134L
sS'number'
p10
g2
sS'person_oid'
p11
L18L
sS'contact'
p12
L-1L
sS'starttime'
p13
cdatetime
datetime
p14
(S'\x07\xd4\x0c\x0e\t;\x07\x00\x00\x00'
p15
tp16
Rp17
sS'duration'
p18
L28L
sS'endtime'
p19
g14
(S'\x07\xd4\x0c\x0e\t;#\x00\x00\x00'
p20
tp21
Rp22
sS'phonenumber_oid'
p23
L3L
s.(dp0
S'status'
p1
S''
p2
sS'direction'
p3
S'Outgoing'
p4
sS'remote'
p5
g2
sS'description'
p6
S'Voice Call'
p7
sS'callid'
p8
L4156L
sS'oid'
p9
L232135L
sS'number'
p10
g2
sS'person_oid'
p11
L18L
sS'contact'
p12
L134L
sS'starttime'
p13
cdatetime
datetime
p14
(S'\x07\xd4\x0c\x0e\n\x01\x12\x00\x00\x00'
p15
tp16
Rp17
sS'duration'
p18
L28L
sS'endtime'
p19
g14
(S'\x07\xd4\x0c\x0e\n\x01.\x00\x00\x00'
p20
tp21
Rp22
sS'phonenumber_oid'
p23
L1144L
s.(dp0
S'status'
p1
S''
p2
sS'direction'
p3
S'Incoming'
p4
sS'remote'
p5
g2
sS'description'
p6
S'Voice Call'
p7
sS'callid'
p8
L4158L
sS'oid'
p9
L232136L
sS'number'
p10
g2
sS'person_oid'
p11
L18L
sS'contact'
p12
L-1L
sS'starttime'
p13
cdatetime
datetime
p14
(S'\x07\xd4\x0c\x0e\n\x07\x15\x00\x00\x00'
p15
tp16
Rp17
sS'duration'
p18
L54L
sS'endtime'
p19
g14
(S'\x07\xd4\x0c\x0e\n\x08\x0f\x00\x00\x00'
p20
tp21
Rp22
sS'phonenumber_oid'
p23
L3L
s.(dp0
S'status'
p1
S''
p2
sS'direction'
p3
S'Incoming'
p4
sS'remote'
p5
g2
sS'description'
p6
S'Voice Call'
p7
sS'callid'
p8
L4160L
sS'oid'
p9
L232137L
sS'number'
p10
g2
sS'person_oid'
p11
L18L
sS'contact'
p12
L95L
sS'starttime'
p13
cdatetime
datetime
p14
(S'\x07\xd4\x0c\x0e\n\r0\x00\x00\x00'
p15
tp16
Rp17
sS'duration'
p18
L69L
sS'endtime'
p19
g14
(S'\x07\xd4\x0c\x0e\n\x0e9\x00\x00\x00'
p20
tp21
Rp22
sS'phonenumber_oid'
p23
L1132L
s.(dp0
S'status'
p1
S''
p2
sS'direction'
p3
S'Incoming'
p4
sS'remote'
p5
g2
sS'description'
p6
S'Voice Call'
p7
sS'callid'
p8
L4162L
sS'oid'
p9
L232138L
sS'number'
p10
g2
sS'person_oid'
p11
L18L
sS'contact'
p12
L104L
sS'starttime'
p13
cdatetime
datetime
p14
(S'\x07\xd4\x0c\x0e\n\x18\x10\x00\x00\x00'
p15
tp16
Rp17
sS'duration'
p18
L33L
sS'endtime'
p19
g14
(S'\x07\xd4\x0c\x0e\n\x181\x00\x00\x00'
p20
tp21
Rp22
sS'phonenumber_oid'
p23
L1133L
s.(dp0
S'status'
p1
S''
p2
sS'direction'
p3
S'Incoming'
p4
sS'remote'
p5
g2
sS'description'
p6
S'Voice Call'
p7
sS'callid'
p8
L4164L
sS'oid'
p9
L232139L
sS'number'
p10
g2
sS'person_oid'
p11
L18L
sS'contact'
p12
L134L
sS'starttime'
p13
cdatetime
datetime
p14
(S'\x07\xd4\x0c\x0e\n4\x10\x00\x00\x00'
p15
tp16
Rp17
sS'duration'
p18
L98L
sS'endtime'
p19
g14
(S'\x07\xd4\x0c\x0e\n56\x00\x00\x00'
p20
tp21
Rp22
sS'phonenumber_oid'
p23
L1144L
s.(dp0
S'status'
p1
S''
p2
sS'direction'
p3
S'Outgoing'
p4
sS'remote'
p5
g2
sS'description'
p6
S'Voice Call'
p7
sS'callid'
p8
L4165L
sS'oid'
p9
L232140L
sS'number'
p10
g2
sS'person_oid'
p11
L18L
sS'contact'
p12
L95L
sS'starttime'
p13
cdatetime
datetime
p14
(S'\x07\xd4\x0c\x0e\x0b\x11,\x00\x00\x00'
p15
tp16
Rp17
sS'duration'
p18
L28L
sS'endtime'
p19
g14
(S'\x07\xd4\x0c\x0e\x0b\x12\x0c\x00\x00\x00'
p20
tp21
Rp22
sS'phonenumber_oid'
p23
L1132L
s.(dp0
S'status'
p1
S''
p2
sS'direction'
p3
S'Incoming'
p4
sS'remote'
p5
g2
sS'description'
p6
S'Voice Call'
p7
sS'callid'
p8
L4167L
sS'oid'
p9
L232141L
sS'number'
p10
g2
sS'person_oid'
p11
L18L
sS'contact'
p12
L134L
sS'starttime'
p13
cdatetime
datetime
p14
(S'\x07\xd4\x0c\x0e\x0b7\x18\x00\x00\x00'
p15
tp16
Rp17
sS'duration'
p18
L0L
sS'endtime'
p19
g14
(S'\x07\xd4\x0c\x0e\x0b7\x18\x00\x00\x00'
p20
tp21
Rp22
sS'phonenumber_oid'
p23
L1144L
s.(dp0
S'status'
p1
S''
p2
sS'direction'
p3
S'Outgoing'
p4
sS'remote'
p5
g2
sS'description'
p6
S'Voice Call'
p7
sS'callid'
p8
L4168L
sS'oid'
p9
L232142L
sS'number'
p10
g2
sS'person_oid'
p11
L18L
sS'contact'
p12
L134L
sS'starttime'
p13
cdatetime
datetime
p14
(S'\x07\xd4\x0c\x0e\x0b7+\x00\x00\x00'
p15
tp16
Rp17
sS'duration'
p18
L0L
sS'endtime'
p19
g14
(S'\x07\xd4\x0c\x0e\x0b7+\x00\x00\x00'
p20
tp21
Rp22
sS'phonenumber_oid'
p23
L1144L
s.(dp0
S'status'
p1
S''
p2
sS'direction'
p3
S'Outgoing'
p4
sS'remote'
p5
g2
sS'description'
p6
S'Voice Call'
p7
sS'callid'
p8
L4170L
sS'oid'
p9
L232143L
sS'number'
p10
g2
sS'person_oid'
p11
L18L
sS'contact'
p12
L134L
sS'starttime'
p13
cdatetime
datetime
p14
(S'\x07\xd4\x0c\x0e\x0b9\x04\x00\x00\x00'
p15
tp16
Rp17
sS'duration'
p18
L22L
sS'endtime'
p19
g14
(S'\x07\xd4\x0c\x0e\x0b9\x1a\x00\x00\x00'
p20
tp21
Rp22
sS'phonenumber_oid'
p23
L1144L
s.(dp0
S'status'
p1
S''
p2
sS'direction'
p3
S'Incoming'
p4
sS'remote'
p5
g2
sS'description'
p6
S'Voice Call'
p7
sS'callid'
p8
L4172L
sS'oid'
p9
L232144L
sS'number'
p10
g2
sS'person_oid'
p11
L18L
sS'contact'
p12
L104L
sS'starttime'
p13
cdatetime
datetime
p14
(S'\x07\xd4\x0c\x0e\x0c\x16\x10\x00\x00\x00'
p15
tp16
Rp17
sS'duration'
p18
L70L
sS'endtime'
p19
g14
(S'\x07\xd4\x0c\x0e\x0c\x17\x1a\x00\x00\x00'
p20
tp21
Rp22
sS'phonenumber_oid'
p23
L1133L
s.(dp0
S'status'
p1
S''
p2
sS'direction'
p3
S'Incoming'
p4
sS'remote'
p5
g2
sS'description'
p6
S'Voice Call'
p7
sS'callid'
p8
L4174L
sS'oid'
p9
L232145L
sS'number'
p10
g2
sS'person_oid'
p11
L18L
sS'contact'
p12
L-1L
sS'starttime'
p13
cdatetime
datetime
p14
(S'\x07\xd4\x0c\x0e\x0c\x17-\x00\x00\x00'
p15
tp16
Rp17
sS'duration'
p18
L17L
sS'endtime'
p19
g14
(S'\x07\xd4\x0c\x0e\x0c\x18\x02\x00\x00\x00'
p20
tp21
Rp22
sS'phonenumber_oid'
p23
L3L
s.(dp0
S'status'
p1
S''
p2
sS'direction'
p3
S'Incoming'
p4
sS'remote'
p5
g2
sS'description'
p6
S'Voice Call'
p7
sS'callid'
p8
L4176L
sS'oid'
p9
L232146L
sS'number'
p10
g2
sS'person_oid'
p11
L18L
sS'contact'
p12
L104L
sS'starttime'
p13
cdatetime
datetime
p14
(S'\x07\xd4\x0c\x0e\x0e\x18 \x00\x00\x00'
p15
tp16
Rp17
sS'duration'
p18
L14L
sS'endtime'
p19
g14
(S'\x07\xd4\x0c\x0e\x0e\x18.\x00\x00\x00'
p20
tp21
Rp22
sS'phonenumber_oid'
p23
L1133L
s.(dp0
S'status'
p1
S''
p2
sS'direction'
p3
S'Incoming'
p4
sS'remote'
p5
g2
sS'description'
p6
S'Voice Call'
p7
sS'callid'
p8
L4178L
sS'oid'
p9
L232147L
sS'number'
p10
g2
sS'person_oid'
p11
L18L
sS'contact'
p12
L104L
sS'starttime'
p13
cdatetime
datetime
p14
(S'\x07\xd4\x0c\x0e\x0e\x19\x05\x00\x00\x00'
p15
tp16
Rp17
sS'duration'
p18
L5L
sS'endtime'
p19
g14
(S'\x07\xd4\x0c\x0e\x0e\x19\n\x00\x00\x00'
p20
tp21
Rp22
sS'phonenumber_oid'
p23
L1133L
s.(dp0
S'status'
p1
S''
p2
sS'direction'
p3
S'Incoming'
p4
sS'remote'
p5
g2
sS'description'
p6
S'Voice Call'
p7
sS'callid'
p8
L4180L
sS'oid'
p9
L232148L
sS'number'
p10
g2
sS'person_oid'
p11
L18L
sS'contact'
p12
L104L
sS'starttime'
p13
cdatetime
datetime
p14
(S'\x07\xd4\x0c\x0e\x0e\x19 \x00\x00\x00'
p15
tp16
Rp17
sS'duration'
p18
L21L
sS'endtime'
p19
g14
(S'\x07\xd4\x0c\x0e\x0e\x195\x00\x00\x00'
p20
tp21
Rp22
sS'phonenumber_oid'
p23
L1133L
s.(dp0
S'status'
p1
S''
p2
sS'direction'
p3
S'Outgoing'
p4
sS'remote'
p5
g2
sS'description'
p6
S'Voice Call'
p7
sS'callid'
p8
L4181L
sS'oid'
p9
L232149L
sS'number'
p10
g2
sS'person_oid'
p11
L18L
sS'contact'
p12
L135L
sS'starttime'
p13
cdatetime
datetime
p14
(S"\x07\xd4\x0c\x0e\x0e-'\x00\x00\x00"
p15
tp16
Rp17
sS'duration'
p18
L128L
sS'endtime'
p19
g14
(S'\x07\xd4\x0c\x0e\x0e//\x00\x00\x00'
p20
tp21
Rp22
sS'phonenumber_oid'
p23
L1136L
s.(dp0
S'status'
p1
S''
p2
sS'direction'
p3
S'Incoming'
p4
sS'remote'
p5
g2
sS'description'
p6
S'Voice Call'
p7
sS'callid'
p8
L4183L
sS'oid'
p9
L232150L
sS'number'
p10
g2
sS'person_oid'
p11
L18L
sS'contact'
p12
L134L
sS'starttime'
p13
cdatetime
datetime
p14
(S'\x07\xd4\x0c\x0f\r\x1a\x17\x00\x00\x00'
p15
tp16
Rp17
sS'duration'
p18
L158L
sS'endtime'
p19
g14
(S'\x07\xd4\x0c\x0f\r\x1d\x01\x00\x00\x00'
p20
tp21
Rp22
sS'phonenumber_oid'
p23
L1144L
s.(dp0
S'status'
p1
S''
p2
sS'direction'
p3
S'Outgoing'
p4
sS'remote'
p5
g2
sS'description'
p6
S'Voice Call'
p7
sS'callid'
p8
L4184L
sS'oid'
p9
L232151L
sS'number'
p10
g2
sS'person_oid'
p11
L18L
sS'contact'
p12
L135L
sS'starttime'
p13
cdatetime
datetime
p14
(S'\x07\xd4\x0c\x0f\r(7\x00\x00\x00'
p15
tp16
Rp17
sS'duration'
p18
L132L
sS'endtime'
p19
g14
(S'\x07\xd4\x0c\x0f\r+\x07\x00\x00\x00'
p20
tp21
Rp22
sS'phonenumber_oid'
p23
L1136L
s.(dp0
S'status'
p1
S''
p2
sS'direction'
p3
S'Missed Call'
p4
sS'remote'
p5
g2
sS'description'
p6
S'Voice Call'
p7
sS'callid'
p8
L4185L
sS'oid'
p9
L232152L
sS'number'
p10
g2
sS'person_oid'
p11
L18L
sS'contact'
p12
L-1L
sS'starttime'
p13
cdatetime
datetime
p14
(S'\x07\xd4\x0c\x0f\r)\x06\x00\x00\x00'
p15
tp16
Rp17
sS'duration'
p18
L0L
sS'endtime'
p19
g14
(S'\x07\xd4\x0c\x0f\r)\x06\x00\x00\x00'
p20
tp21
Rp22
sS'phonenumber_oid'
p23
L3L
s.(dp0
S'status'
p1
S''
p2
sS'direction'
p3
S'Outgoing'
p4
sS'remote'
p5
g2
sS'description'
p6
S'Voice Call'
p7
sS'callid'
p8
L4186L
sS'oid'
p9
L232153L
sS'number'
p10
g2
sS'person_oid'
p11
L18L
sS'contact'
p12
L95L
sS'starttime'
p13
cdatetime
datetime
p14
(S'\x07\xd4\x0c\x0f\r,%\x00\x00\x00'
p15
tp16
Rp17
sS'duration'
p18
L8L
sS'endtime'
p19
g14
(S'\x07\xd4\x0c\x0f\r,-\x00\x00\x00'
p20
tp21
Rp22
sS'phonenumber_oid'
p23
L1132L
s.(dp0
S'status'
p1
S''
p2
sS'direction'
p3
S'Outgoing'
p4
sS'remote'
p5
g2
sS'description'
p6
S'Voice Call'
p7
sS'callid'
p8
L4187L
sS'oid'
p9
L232154L
sS'number'
p10
g2
sS'person_oid'
p11
L18L
sS'contact'
p12
L22L
sS'starttime'
p13
cdatetime
datetime
p14
(S'\x07\xd4\x0c\x0f\r-\x1b\x00\x00\x00'
p15
tp16
Rp17
sS'duration'
p18
L69L
sS'endtime'
p19
g14
(S'\x07\xd4\x0c\x0f\r.$\x00\x00\x00'
p20
tp21
Rp22
sS'phonenumber_oid'
p23
L1091L
s.(dp0
S'status'
p1
S''
p2
sS'direction'
p3
S'Incoming'
p4
sS'remote'
p5
g2
sS'description'
p6
S'Voice Call'
p7
sS'callid'
p8
L4189L
sS'oid'
p9
L232155L
sS'number'
p10
g2
sS'person_oid'
p11
L18L
sS'contact'
p12
L95L
sS'starttime'
p13
cdatetime
datetime
p14
(S'\x07\xd4\x0c\x0f\x0e\x0f(\x00\x00\x00'
p15
tp16
Rp17
sS'duration'
p18
L50L
sS'endtime'
p19
g14
(S'\x07\xd4\x0c\x0f\x0e\x10\x1e\x00\x00\x00'
p20
tp21
Rp22
sS'phonenumber_oid'
p23
L1132L
s.(dp0
S'status'
p1
S''
p2
sS'direction'
p3
S'Missed Call'
p4
sS'remote'
p5
g2
sS'description'
p6
S'Voice Call'
p7
sS'callid'
p8
L4190L
sS'oid'
p9
L232156L
sS'number'
p10
g2
sS'person_oid'
p11
L18L
sS'contact'
p12
L134L
sS'starttime'
p13
cdatetime
datetime
p14
(S'\x07\xd4\x0c\x10\x07\x0b)\x00\x00\x00'
p15
tp16
Rp17
sS'duration'
p18
L0L
sS'endtime'
p19
g14
(S'\x07\xd4\x0c\x10\x07\x0b)\x00\x00\x00'
p20
tp21
Rp22
sS'phonenumber_oid'
p23
L1144L
s.(dp0
S'status'
p1
S''
p2
sS'direction'
p3
S'Outgoing'
p4
sS'remote'
p5
g2
sS'description'
p6
S'Voice Call'
p7
sS'callid'
p8
L4191L
sS'oid'
p9
L232157L
sS'number'
p10
g2
sS'person_oid'
p11
L18L
sS'contact'
p12
L134L
sS'starttime'
p13
cdatetime
datetime
p14
(S'\x07\xd4\x0c\x10\x07\x0c\x12\x00\x00\x00'
p15
tp16
Rp17
sS'duration'
p18
L26L
sS'endtime'
p19
g14
(S'\x07\xd4\x0c\x10\x07\x0c,\x00\x00\x00'
p20
tp21
Rp22
sS'phonenumber_oid'
p23
L1144L
s.(dp0
S'status'
p1
S''
p2
sS'direction'
p3
S'Incoming'
p4
sS'remote'
p5
g2
sS'description'
p6
S'Voice Call'
p7
sS'callid'
p8
L4193L
sS'oid'
p9
L232158L
sS'number'
p10
g2
sS'person_oid'
p11
L18L
sS'contact'
p12
L134L
sS'starttime'
p13
cdatetime
datetime
p14
(S'\x07\xd4\x0c\x10\x08\x1a\x15\x00\x00\x00'
p15
tp16
Rp17
sS'duration'
p18
L86L
sS'endtime'
p19
g14
(S'\x07\xd4\x0c\x10\x08\x1b/\x00\x00\x00'
p20
tp21
Rp22
sS'phonenumber_oid'
p23
L1144L
s.(dp0
S'status'
p1
S''
p2
sS'direction'
p3
S'Incoming'
p4
sS'remote'
p5
g2
sS'description'
p6
S'Voice Call'
p7
sS'callid'
p8
L4195L
sS'oid'
p9
L232159L
sS'number'
p10
g2
sS'person_oid'
p11
L18L
sS'contact'
p12
L134L
sS'starttime'
p13
cdatetime
datetime
p14
(S'\x07\xd4\x0c\x10\x089$\x00\x00\x00'
p15
tp16
Rp17
sS'duration'
p18
L29L
sS'endtime'
p19
g14
(S'\x07\xd4\x0c\x10\x08:\x05\x00\x00\x00'
p20
tp21
Rp22
sS'phonenumber_oid'
p23
L1144L
s.(dp0
S'status'
p1
S''
p2
sS'direction'
p3
S'Missed Call'
p4
sS'remote'
p5
g2
sS'description'
p6
S'Voice Call'
p7
sS'callid'
p8
L4198L
sS'oid'
p9
L232160L
sS'number'
p10
g2
sS'person_oid'
p11
L18L
sS'contact'
p12
L134L
sS'starttime'
p13
cdatetime
datetime
p14
(S'\x07\xd4\x0c\x10\t\x0c\x0c\x00\x00\x00'
p15
tp16
Rp17
sS'duration'
p18
L0L
sS'endtime'
p19
g14
(S'\x07\xd4\x0c\x10\t\x0c\x0c\x00\x00\x00'
p20
tp21
Rp22
sS'phonenumber_oid'
p23
L1144L
s.(dp0
S'status'
p1
S''
p2
sS'direction'
p3
S'Missed Call'
p4
sS'remote'
p5
g2
sS'description'
p6
S'Voice Call'
p7
sS'callid'
p8
L4200L
sS'oid'
p9
L232161L
sS'number'
p10
g2
sS'person_oid'
p11
L18L
sS'contact'
p12
L95L
sS'starttime'
p13
cdatetime
datetime
p14
(S'\x07\xd4\x0c\x11\x01\x17\x10\x00\x00\x00'
p15
tp16
Rp17
sS'duration'
p18
L0L
sS'endtime'
p19
g14
(S'\x07\xd4\x0c\x11\x01\x17\x10\x00\x00\x00'
p20
tp21
Rp22
sS'phonenumber_oid'
p23
L1135L
s.(dp0
S'status'
p1
S''
p2
sS'direction'
p3
S'Incoming'
p4
sS'remote'
p5
g2
sS'description'
p6
S'Voice Call'
p7
sS'callid'
p8
L4202L
sS'oid'
p9
L232162L
sS'number'
p10
g2
sS'person_oid'
p11
L18L
sS'contact'
p12
L95L
sS'starttime'
p13
cdatetime
datetime
p14
(S'\x07\xd4\x0c\x11\x010\x1c\x00\x00\x00'
p15
tp16
Rp17
sS'duration'
p18
L28L
sS'endtime'
p19
g14
(S'\x07\xd4\x0c\x11\x0108\x00\x00\x00'
p20
tp21
Rp22
sS'phonenumber_oid'
p23
L1135L
s.(dp0
S'status'
p1
S''
p2
sS'direction'
p3
S'Outgoing'
p4
sS'remote'
p5
g2
sS'description'
p6
S'Voice Call'
p7
sS'callid'
p8
L4203L
sS'oid'
p9
L232163L
sS'number'
p10
g2
sS'person_oid'
p11
L18L
sS'contact'
p12
L95L
sS'starttime'
p13
cdatetime
datetime
p14
(S'\x07\xd4\x0c\x11\x02\x1c\x0c\x00\x00\x00'
p15
tp16
Rp17
sS'duration'
p18
L0L
sS'endtime'
p19
g14
(S'\x07\xd4\x0c\x11\x02\x1c\x0c\x00\x00\x00'
p20
tp21
Rp22
sS'phonenumber_oid'
p23
L1132L
s.(dp0
S'status'
p1
S''
p2
sS'direction'
p3
S'Outgoing'
p4
sS'remote'
p5
g2
sS'description'
p6
S'Voice Call'
p7
sS'callid'
p8
L4204L
sS'oid'
p9
L232164L
sS'number'
p10
g2
sS'person_oid'
p11
L18L
sS'contact'
p12
L95L
sS'starttime'
p13
cdatetime
datetime
p14
(S'\x07\xd4\x0c\x11\x02\x1c.\x00\x00\x00'
p15
tp16
Rp17
sS'duration'
p18
L0L
sS'endtime'
p19
g14
(S'\x07\xd4\x0c\x11\x02\x1c.\x00\x00\x00'
p20
tp21
Rp22
sS'phonenumber_oid'
p23
L1135L
s.(dp0
S'status'
p1
S''
p2
sS'direction'
p3
S'Incoming'
p4
sS'remote'
p5
g2
sS'description'
p6
S'Voice Call'
p7
sS'callid'
p8
L4206L
sS'oid'
p9
L232165L
sS'number'
p10
g2
sS'person_oid'
p11
L18L
sS'contact'
p12
L95L
sS'starttime'
p13
cdatetime
datetime
p14
(S'\x07\xd4\x0c\x11\x02\x1e\x1a\x00\x00\x00'
p15
tp16
Rp17
sS'duration'
p18
L490L
sS'endtime'
p19
g14
(S'\x07\xd4\x0c\x11\x02&$\x00\x00\x00'
p20
tp21
Rp22
sS'phonenumber_oid'
p23
L1135L
s.(dp0
S'status'
p1
S''
p2
sS'direction'
p3
S'Incoming'
p4
sS'remote'
p5
g2
sS'description'
p6
S'Voice Call'
p7
sS'callid'
p8
L4208L
sS'oid'
p9
L232166L
sS'number'
p10
g2
sS'person_oid'
p11
L18L
sS'contact'
p12
L95L
sS'starttime'
p13
cdatetime
datetime
p14
(S"\x07\xd4\x0c\x11\x02'\t\x00\x00\x00"
p15
tp16
Rp17
sS'duration'
p18
L1322L
sS'endtime'
p19
g14
(S'\x07\xd4\x0c\x11\x03\x01\x0b\x00\x00\x00'
p20
tp21
Rp22
sS'phonenumber_oid'
p23
L1135L
s.(dp0
S'status'
p1
S''
p2
sS'direction'
p3
S'Outgoing'
p4
sS'remote'
p5
g2
sS'description'
p6
S'Voice Call'
p7
sS'callid'
p8
L4209L
sS'oid'
p9
L232167L
sS'number'
p10
g2
sS'person_oid'
p11
L18L
sS'contact'
p12
L95L
sS'starttime'
p13
cdatetime
datetime
p14
(S'\x07\xd4\x0c\x11\x03\x01\x10\x00\x00\x00'
p15
tp16
Rp17
sS'duration'
p18
L0L
sS'endtime'
p19
g14
(S'\x07\xd4\x0c\x11\x03\x01\x10\x00\x00\x00'
p20
tp21
Rp22
sS'phonenumber_oid'
p23
L1135L
s.(dp0
S'status'
p1
S''
p2
sS'direction'
p3
S'Outgoing'
p4
sS'remote'
p5
g2
sS'description'
p6
S'Voice Call'
p7
sS'callid'
p8
L4210L
sS'oid'
p9
L232168L
sS'number'
p10
g2
sS'person_oid'
p11
L18L
sS'contact'
p12
L95L
sS'starttime'
p13
cdatetime
datetime
p14
(S'\x07\xd4\x0c\x11\x03\x01$\x00\x00\x00'
p15
tp16
Rp17
sS'duration'
p18
L53L
sS'endtime'
p19
g14
(S'\x07\xd4\x0c\x11\x03\x02\x1d\x00\x00\x00'
p20
tp21
Rp22
sS'phonenumber_oid'
p23
L1132L
s.(dp0
S'status'
p1
S''
p2
sS'direction'
p3
S'Outgoing'
p4
sS'remote'
p5
g2
sS'description'
p6
S'Voice Call'
p7
sS'callid'
p8
L4211L
sS'oid'
p9
L232169L
sS'number'
p10
g2
sS'person_oid'
p11
L18L
sS'contact'
p12
L95L
sS'starttime'
p13
cdatetime
datetime
p14
(S'\x07\xd4\x0c\x11\x04\x19\t\x00\x00\x00'
p15
tp16
Rp17
sS'duration'
p18
L0L
sS'endtime'
p19
g14
(S'\x07\xd4\x0c\x11\x04\x19\t\x00\x00\x00'
p20
tp21
Rp22
sS'phonenumber_oid'
p23
L1132L
s.(dp0
S'status'
p1
S''
p2
sS'direction'
p3
S'Incoming'
p4
sS'remote'
p5
g2
sS'description'
p6
S'Voice Call'
p7
sS'callid'
p8
L4213L
sS'oid'
p9
L232170L
sS'number'
p10
g2
sS'person_oid'
p11
L18L
sS'contact'
p12
L95L
sS'starttime'
p13
cdatetime
datetime
p14
(S'\x07\xd4\x0c\x11\x04\x1a\x0c\x00\x00\x00'
p15
tp16
Rp17
sS'duration'
p18
L21L
sS'endtime'
p19
g14
(S'\x07\xd4\x0c\x11\x04\x1a!\x00\x00\x00'
p20
tp21
Rp22
sS'phonenumber_oid'
p23
L1135L
s.(dp0
S'status'
p1
S''
p2
sS'direction'
p3
S'Incoming'
p4
sS'remote'
p5
g2
sS'description'
p6
S'Voice Call'
p7
sS'callid'
p8
L4215L
sS'oid'
p9
L232171L
sS'number'
p10
g2
sS'person_oid'
p11
L18L
sS'contact'
p12
L95L
sS'starttime'
p13
cdatetime
datetime
p14
(S'\x07\xd4\x0c\x11\x04\x1b"\x00\x00\x00'
p15
tp16
Rp17
sS'duration'
p18
L0L
sS'endtime'
p19
g14
(S'\x07\xd4\x0c\x11\x04\x1b"\x00\x00\x00'
p20
tp21
Rp22
sS'phonenumber_oid'
p23
L1135L
s.(dp0
S'status'
p1
S''
p2
sS'direction'
p3
S'Missed Call'
p4
sS'remote'
p5
g2
sS'description'
p6
S'Voice Call'
p7
sS'callid'
p8
L4216L
sS'oid'
p9
L232172L
sS'number'
p10
g2
sS'person_oid'
p11
L18L
sS'contact'
p12
L95L
sS'starttime'
p13
cdatetime
datetime
p14
(S'\x07\xd4\x0c\x11\x04\x1b5\x00\x00\x00'
p15
tp16
Rp17
sS'duration'
p18
L0L
sS'endtime'
p19
g14
(S'\x07\xd4\x0c\x11\x04\x1b5\x00\x00\x00'
p20
tp21
Rp22
sS'phonenumber_oid'
p23
L1135L
s.(dp0
S'status'
p1
S''
p2
sS'direction'
p3
S'Outgoing'
p4
sS'remote'
p5
g2
sS'description'
p6
S'Voice Call'
p7
sS'callid'
p8
L4218L
sS'oid'
p9
L232173L
sS'number'
p10
g2
sS'person_oid'
p11
L18L
sS'contact'
p12
L95L
sS'starttime'
p13
cdatetime
datetime
p14
(S"\x07\xd4\x0c\x11\x04\x1f'\x00\x00\x00"
p15
tp16
Rp17
sS'duration'
p18
L68L
sS'endtime'
p19
g14
(S'\x07\xd4\x0c\x11\x04 /\x00\x00\x00'
p20
tp21
Rp22
sS'phonenumber_oid'
p23
L1135L
s.(dp0
S'status'
p1
S''
p2
sS'direction'
p3
S'Outgoing'
p4
sS'remote'
p5
g2
sS'description'
p6
S'Voice Call'
p7
sS'callid'
p8
L4223L
sS'oid'
p9
L232174L
sS'number'
p10
g2
sS'person_oid'
p11
L18L
sS'contact'
p12
L70L
sS'starttime'
p13
cdatetime
datetime
p14
(S'\x07\xd4\x0c\x11\x08"\x0e\x00\x00\x00'
p15
tp16
Rp17
sS'duration'
p18
L0L
sS'endtime'
p19
g14
(S'\x07\xd4\x0c\x11\x08"\x0e\x00\x00\x00'
p20
tp21
Rp22
sS'phonenumber_oid'
p23
L1145L
s.(dp0
S'status'
p1
S''
p2
sS'direction'
p3
S'Outgoing'
p4
sS'remote'
p5
g2
sS'description'
p6
S'Voice Call'
p7
sS'callid'
p8
L4224L
sS'oid'
p9
L232175L
sS'number'
p10
g2
sS'person_oid'
p11
L18L
sS'contact'
p12
L70L
sS'starttime'
p13
cdatetime
datetime
p14
(S'\x07\xd4\x0c\x11\x08"\x16\x00\x00\x00'
p15
tp16
Rp17
sS'duration'
p18
L0L
sS'endtime'
p19
g14
(S'\x07\xd4\x0c\x11\x08"\x16\x00\x00\x00'
p20
tp21
Rp22
sS'phonenumber_oid'
p23
L1145L
s.(dp0
S'status'
p1
S''
p2
sS'direction'
p3
S'Outgoing'
p4
sS'remote'
p5
g2
sS'description'
p6
S'Voice Call'
p7
sS'callid'
p8
L4227L
sS'oid'
p9
L232176L
sS'number'
p10
g2
sS'person_oid'
p11
L18L
sS'contact'
p12
L99L
sS'starttime'
p13
cdatetime
datetime
p14
(S'\x07\xd4\x0c\x11\t\x07\x0c\x00\x00\x00'
p15
tp16
Rp17
sS'duration'
p18
L6L
sS'endtime'
p19
g14
(S'\x07\xd4\x0c\x11\t\x07\x12\x00\x00\x00'
p20
tp21
Rp22
sS'phonenumber_oid'
p23
L1141L
s.(dp0
S'status'
p1
S''
p2
sS'direction'
p3
S'Outgoing'
p4
sS'remote'
p5
g2
sS'description'
p6
S'Voice Call'
p7
sS'callid'
p8
L4228L
sS'oid'
p9
L232177L
sS'number'
p10
g2
sS'person_oid'
p11
L18L
sS'contact'
p12
L88L
sS'starttime'
p13
cdatetime
datetime
p14
(S'\x07\xd4\x0c\x11\t\x08\x1c\x00\x00\x00'
p15
tp16
Rp17
sS'duration'
p18
L15L
sS'endtime'
p19
g14
(S'\x07\xd4\x0c\x11\t\x08+\x00\x00\x00'
p20
tp21
Rp22
sS'phonenumber_oid'
p23
L1142L
s.(dp0
S'status'
p1
S''
p2
sS'direction'
p3
S'Outgoing'
p4
sS'remote'
p5
g2
sS'description'
p6
S'Voice Call'
p7
sS'callid'
p8
L4229L
sS'oid'
p9
L232178L
sS'number'
p10
g2
sS'person_oid'
p11
L18L
sS'contact'
p12
L134L
sS'starttime'
p13
cdatetime
datetime
p14
(S'\x07\xd4\x0c\x11\x0b9\x12\x00\x00\x00'
p15
tp16
Rp17
sS'duration'
p18
L3L
sS'endtime'
p19
g14
(S'\x07\xd4\x0c\x11\x0b9\x15\x00\x00\x00'
p20
tp21
Rp22
sS'phonenumber_oid'
p23
L1144L
s.(dp0
S'status'
p1
S''
p2
sS'direction'
p3
S'Outgoing'
p4
sS'remote'
p5
g2
sS'description'
p6
S'Voice Call'
p7
sS'callid'
p8
L4230L
sS'oid'
p9
L232179L
sS'number'
p10
g2
sS'person_oid'
p11
L18L
sS'contact'
p12
L95L
sS'starttime'
p13
cdatetime
datetime
p14
(S'\x07\xd4\x0c\x11\x0b99\x00\x00\x00'
p15
tp16
Rp17
sS'duration'
p18
L84L
sS'endtime'
p19
g14
(S'\x07\xd4\x0c\x11\x0b;\x15\x00\x00\x00'
p20
tp21
Rp22
sS'phonenumber_oid'
p23
L1132L
s.