(dp0
S'status'
p1
S'Disconnected'
p2
sS'direction'
p3
S'Outgoing'
p4
sS'remote'
p5
S''
p6
sS'description'
p7
S'Packet Data'
p8
sS'callid'
p9
L5358L
sS'oid'
p10
L232649L
sS'number'
p11
g6
sS'person_oid'
p12
L18L
sS'contact'
p13
L-1L
sS'starttime'
p14
cdatetime
datetime
p15
(S'\x07\xd5\x02\n\x067\x17\x00\x00\x00'
p16
tp17
Rp18
sS'duration'
p19
L5320L
sS'endtime'
p20
g15
(S'\x07\xd5\x02\n\x08\x18\x03\x00\x00\x00'
p21
tp22
Rp23
sS'phonenumber_oid'
p24
L3L
s.(dp0
S'status'
p1
S''
p2
sS'direction'
p3
S'Outgoing'
p4
sS'remote'
p5
g2
sS'description'
p6
S'Voice Call'
p7
sS'callid'
p8
L5359L
sS'oid'
p9
L232650L
sS'number'
p10
g2
sS'person_oid'
p11
L18L
sS'contact'
p12
L151L
sS'starttime'
p13
cdatetime
datetime
p14
(S'\x07\xd5\x02\n\r\x02\x16\x00\x00\x00'
p15
tp16
Rp17
sS'duration'
p18
L10L
sS'endtime'
p19
g14
(S'\x07\xd5\x02\n\r\x02 \x00\x00\x00'
p20
tp21
Rp22
sS'phonenumber_oid'
p23
L1164L
s.(dp0
S'status'
p1
S''
p2
sS'direction'
p3
S'Outgoing'
p4
sS'remote'
p5
g2
sS'description'
p6
S'Voice Call'
p7
sS'callid'
p8
L5361L
sS'oid'
p9
L232651L
sS'number'
p10
g2
sS'person_oid'
p11
L18L
sS'contact'
p12
L151L
sS'starttime'
p13
cdatetime
datetime
p14
(S'\x07\xd5\x02\n\x0f)2\x00\x00\x00'
p15
tp16
Rp17
sS'duration'
p18
L21L
sS'endtime'
p19
g14
(S'\x07\xd5\x02\n\x0f*\x0b\x00\x00\x00'
p20
tp21
Rp22
sS'phonenumber_oid'
p23
L1164L
s.(dp0
S'status'
p1
S''
p2
sS'direction'
p3
S'Outgoing'
p4
sS'remote'
p5
g2
sS'description'
p6
S'Voice Call'
p7
sS'callid'
p8
L5362L
sS'oid'
p9
L232652L
sS'number'
p10
g2
sS'person_oid'
p11
L18L
sS'contact'
p12
L151L
sS'starttime'
p13
cdatetime
datetime
p14
(S'\x07\xd5\x02\n\x0f*\x17\x00\x00\x00'
p15
tp16
Rp17
sS'duration'
p18
L0L
sS'endtime'
p19
g14
(S'\x07\xd5\x02\n\x0f*\x17\x00\x00\x00'
p20
tp21
Rp22
sS'phonenumber_oid'
p23
L1164L
s.(dp0
S'status'
p1
S''
p2
sS'direction'
p3
S'Outgoing'
p4
sS'remote'
p5
g2
sS'description'
p6
S'Voice Call'
p7
sS'callid'
p8
L5363L
sS'oid'
p9
L232653L
sS'number'
p10
g2
sS'person_oid'
p11
L18L
sS'contact'
p12
L151L
sS'starttime'
p13
cdatetime
datetime
p14
(S'\x07\xd5\x02\n\x0f+-\x00\x00\x00'
p15
tp16
Rp17
sS'duration'
p18
L28L
sS'endtime'
p19
g14
(S'\x07\xd5\x02\n\x0f,\r\x00\x00\x00'
p20
tp21
Rp22
sS'phonenumber_oid'
p23
L1164L
s.(dp0
S'status'
p1
S''
p2
sS'direction'
p3
S'Outgoing'
p4
sS'remote'
p5
g2
sS'description'
p6
S'Voice Call'
p7
sS'callid'
p8
L5364L
sS'oid'
p9
L232654L
sS'number'
p10
g2
sS'person_oid'
p11
L18L
sS'contact'
p12
L151L
sS'starttime'
p13
cdatetime
datetime
p14
(S'\x07\xd5\x02\n\x0f-\x17\x00\x00\x00'
p15
tp16
Rp17
sS'duration'
p18
L15L
sS'endtime'
p19
g14
(S'\x07\xd5\x02\n\x0f-&\x00\x00\x00'
p20
tp21
Rp22
sS'phonenumber_oid'
p23
L1164L
s.(dp0
S'status'
p1
S''
p2
sS'direction'
p3
S'Outgoing'
p4
sS'remote'
p5
g2
sS'description'
p6
S'Voice Call'
p7
sS'callid'
p8
L5365L
sS'oid'
p9
L232655L
sS'number'
p10
g2
sS'person_oid'
p11
L18L
sS'contact'
p12
L151L
sS'starttime'
p13
cdatetime
datetime
p14
(S'\x07\xd5\x02\n\x0f.)\x00\x00\x00'
p15
tp16
Rp17
sS'duration'
p18
L32L
sS'endtime'
p19
g14
(S'\x07\xd5\x02\n\x0f/\r\x00\x00\x00'
p20
tp21
Rp22
sS'phonenumber_oid'
p23
L1164L
s.(dp0
S'status'
p1
S''
p2
sS'direction'
p3
S'Outgoing'
p4
sS'remote'
p5
g2
sS'description'
p6
S'Voice Call'
p7
sS'callid'
p8
L5367L
sS'oid'
p9
L232656L
sS'number'
p10
g2
sS'person_oid'
p11
L18L
sS'contact'
p12
L151L
sS'starttime'
p13
cdatetime
datetime
p14
(S'\x07\xd5\x02\n\x0f/:\x00\x00\x00'
p15
tp16
Rp17
sS'duration'
p18
L10L
sS'endtime'
p19
g14
(S'\x07\xd5\x02\n\x0f0\x08\x00\x00\x00'
p20
tp21
Rp22
sS'phonenumber_oid'
p23
L1164L
s.(dp0
S'status'
p1
S''
p2
sS'direction'
p3
S'Outgoing'
p4
sS'remote'
p5
g2
sS'description'
p6
S'Voice Call'
p7
sS'callid'
p8
L5368L
sS'oid'
p9
L232657L
sS'number'
p10
g2
sS'person_oid'
p11
L18L
sS'contact'
p12
L151L
sS'starttime'
p13
cdatetime
datetime
p14
(S'\x07\xd5\x02\n\x0f0.\x00\x00\x00'
p15
tp16
Rp17
sS'duration'
p18
L0L
sS'endtime'
p19
g14
(S'\x07\xd5\x02\n\x0f0.\x00\x00\x00'
p20
tp21
Rp22
sS'phonenumber_oid'
p23
L1164L
s.(dp0
S'status'
p1
S''
p2
sS'direction'
p3
S'Outgoing'
p4
sS'remote'
p5
g2
sS'description'
p6
S'Voice Call'
p7
sS'callid'
p8
L5369L
sS'oid'
p9
L232658L
sS'number'
p10
g2
sS'person_oid'
p11
L18L
sS'contact'
p12
L90L
sS'starttime'
p13
cdatetime
datetime
p14
(S'\x07\xd5\x02\n\x0f1+\x00\x00\x00'
p15
tp16
Rp17
sS'duration'
p18
L0L
sS'endtime'
p19
g14
(S'\x07\xd5\x02\n\x0f1+\x00\x00\x00'
p20
tp21
Rp22
sS'phonenumber_oid'
p23
L1162L
s.(dp0
S'status'
p1
S''
p2
sS'direction'
p3
S'Outgoing'
p4
sS'remote'
p5
g2
sS'description'
p6
S'Voice Call'
p7
sS'callid'
p8
L5370L
sS'oid'
p9
L232659L
sS'number'
p10
g2
sS'person_oid'
p11
L18L
sS'contact'
p12
L90L
sS'starttime'
p13
cdatetime
datetime
p14
(S'\x07\xd5\x02\n\x0f14\x00\x00\x00'
p15
tp16
Rp17
sS'duration'
p18
L0L
sS'endtime'
p19
g14
(S'\x07\xd5\x02\n\x0f14\x00\x00\x00'
p20
tp21
Rp22
sS'phonenumber_oid'
p23
L1162L
s.(dp0
S'status'
p1
S''
p2
sS'direction'
p3
S'Outgoing'
p4
sS'remote'
p5
g2
sS'description'
p6
S'Voice Call'
p7
sS'callid'
p8
L5371L
sS'oid'
p9
L232660L
sS'number'
p10
g2
sS'person_oid'
p11
L18L
sS'contact'
p12
L90L
sS'starttime'
p13
cdatetime
datetime
p14
(S'\x07\xd5\x02\n\x0f2\x03\x00\x00\x00'
p15
tp16
Rp17
sS'duration'
p18
L0L
sS'endtime'
p19
g14
(S'\x07\xd5\x02\n\x0f2\x03\x00\x00\x00'
p20
tp21
Rp22
sS'phonenumber_oid'
p23
L1162L
s.(dp0
S'status'
p1
S''
p2
sS'direction'
p3
S'Outgoing'
p4
sS'remote'
p5
g2
sS'description'
p6
S'Voice Call'
p7
sS'callid'
p8
L5372L
sS'oid'
p9
L232661L
sS'number'
p10
g2
sS'person_oid'
p11
L18L
sS'contact'
p12
L90L
sS'starttime'
p13
cdatetime
datetime
p14
(S'\x07\xd5\x02\n\x0f2\x18\x00\x00\x00'
p15
tp16
Rp17
sS'duration'
p18
L0L
sS'endtime'
p19
g14
(S'\x07\xd5\x02\n\x0f2\x18\x00\x00\x00'
p20
tp21
Rp22
sS'phonenumber_oid'
p23
L1162L
s.(dp0
S'status'
p1
S''
p2
sS'direction'
p3
S'Outgoing'
p4
sS'remote'
p5
g2
sS'description'
p6
S'Voice Call'
p7
sS'callid'
p8
L5373L
sS'oid'
p9
L232662L
sS'number'
p10
g2
sS'person_oid'
p11
L18L
sS'contact'
p12
L90L
sS'starttime'
p13
cdatetime
datetime
p14
(S'\x07\xd5\x02\n\x0f2*\x00\x00\x00'
p15
tp16
Rp17
sS'duration'
p18
L8L
sS'endtime'
p19
g14
(S'\x07\xd5\x02\n\x0f22\x00\x00\x00'
p20
tp21
Rp22
sS'phonenumber_oid'
p23
L1155L
s.(dp0
S'status'
p1
S''
p2
sS'direction'
p3
S'Outgoing'
p4
sS'remote'
p5
g2
sS'description'
p6
S'Voice Call'
p7
sS'callid'
p8
L5374L
sS'oid'
p9
L232663L
sS'number'
p10
g2
sS'person_oid'
p11
L18L
sS'contact'
p12
L90L
sS'starttime'
p13
cdatetime
datetime
p14
(S'\x07\xd5\x02\n\x0f29\x00\x00\x00'
p15
tp16
Rp17
sS'duration'
p18
L0L
sS'endtime'
p19
g14
(S'\x07\xd5\x02\n\x0f29\x00\x00\x00'
p20
tp21
Rp22
sS'phonenumber_oid'
p23
L1162L
s.(dp0
S'status'
p1
S''
p2
sS'direction'
p3
S'Outgoing'
p4
sS'remote'
p5
g2
sS'description'
p6
S'Voice Call'
p7
sS'callid'
p8
L5375L
sS'oid'
p9
L232664L
sS'number'
p10
g2
sS'person_oid'
p11
L18L
sS'contact'
p12
L90L
sS'starttime'
p13
cdatetime
datetime
p14
(S'\x07\xd5\x02\n\x0f32\x00\x00\x00'
p15
tp16
Rp17
sS'duration'
p18
L0L
sS'endtime'
p19
g14
(S'\x07\xd5\x02\n\x0f32\x00\x00\x00'
p20
tp21
Rp22
sS'phonenumber_oid'
p23
L1162L
s.(dp0
S'status'
p1
S''
p2
sS'direction'
p3
S'Outgoing'
p4
sS'remote'
p5
g2
sS'description'
p6
S'Voice Call'
p7
sS'callid'
p8
L5376L
sS'oid'
p9
L232665L
sS'number'
p10
g2
sS'person_oid'
p11
L18L
sS'contact'
p12
L151L
sS'starttime'
p13
cdatetime
datetime
p14
(S'\x07\xd5\x02\n\x0f4"\x00\x00\x00'
p15
tp16
Rp17
sS'duration'
p18
L105L
sS'endtime'
p19
g14
(S'\x07\xd5\x02\n\x0f6\x13\x00\x00\x00'
p20
tp21
Rp22
sS'phonenumber_oid'
p23
L1164L
s.(dp0
S'status'
p1
S''
p2
sS'direction'
p3
S'Outgoing'
p4
sS'remote'
p5
g2
sS'description'
p6
S'Voice Call'
p7
sS'callid'
p8
L5377L
sS'oid'
p9
L232666L
sS'number'
p10
g2
sS'person_oid'
p11
L18L
sS'contact'
p12
L95L
sS'starttime'
p13
cdatetime
datetime
p14
(S'\x07\xd5\x02\n\x10+7\x00\x00\x00'
p15
tp16
Rp17
sS'duration'
p18
L81L
sS'endtime'
p19
g14
(S'\x07\xd5\x02\n\x10-\x10\x00\x00\x00'
p20
tp21
Rp22
sS'phonenumber_oid'
p23
L1132L
s.(dp0
S'status'
p1
S''
p2
sS'direction'
p3
S'Outgoing'
p4
sS'remote'
p5
g2
sS'description'
p6
S'Voice Call'
p7
sS'callid'
p8
L5378L
sS'oid'
p9
L232667L
sS'number'
p10
g2
sS'person_oid'
p11
L18L
sS'contact'
p12
L95L
sS'starttime'
p13
cdatetime
datetime
p14
(S'\x07\xd5\x02\n\x10/-\x00\x00\x00'
p15
tp16
Rp17
sS'duration'
p18
L0L
sS'endtime'
p19
g14
(S'\x07\xd5\x02\n\x10/-\x00\x00\x00'
p20
tp21
Rp22
sS'phonenumber_oid'
p23
L1132L
s.(dp0
S'status'
p1
S''
p2
sS'direction'
p3
S'Outgoing'
p4
sS'remote'
p5
g2
sS'description'
p6
S'Voice Call'
p7
sS'callid'
p8
L5379L
sS'oid'
p9
L232668L
sS'number'
p10
g2
sS'person_oid'
p11
L18L
sS'contact'
p12
L95L
sS'starttime'
p13
cdatetime
datetime
p14
(S'\x07\xd5\x02\n\x100.\x00\x00\x00'
p15
tp16
Rp17
sS'duration'
p18
L0L
sS'endtime'
p19
g14
(S'\x07\xd5\x02\n\x100.\x00\x00\x00'
p20
tp21
Rp22
sS'phonenumber_oid'
p23
L1132L
s.(dp0
S'status'
p1
S''
p2
sS'direction'
p3
S'Outgoing'
p4
sS'remote'
p5
g2
sS'description'
p6
S'Voice Call'
p7
sS'callid'
p8
L5380L
sS'oid'
p9
L232669L
sS'number'
p10
g2
sS'person_oid'
p11
L18L
sS'contact'
p12
L95L
sS'starttime'
p13
cdatetime
datetime
p14
(S"\x07\xd5\x02\n\x101'\x00\x00\x00"
p15
tp16
Rp17
sS'duration'
p18
L0L
sS'endtime'
p19
g14
(S"\x07\xd5\x02\n\x101'\x00\x00\x00"
p20
tp21
Rp22
sS'phonenumber_oid'
p23
L1132L
s.(dp0
S'status'
p1
S''
p2
sS'direction'
p3
S'Outgoing'
p4
sS'remote'
p5
g2
sS'description'
p6
S'Voice Call'
p7
sS'callid'
p8
L5381L
sS'oid'
p9
L232670L
sS'number'
p10
g2
sS'person_oid'
p11
L18L
sS'contact'
p12
L95L
sS'starttime'
p13
cdatetime
datetime
p14
(S'\x07\xd5\x02\n\x103\x02\x00\x00\x00'
p15
tp16
Rp17
sS'duration'
p18
L4L
sS'endtime'
p19
g14
(S'\x07\xd5\x02\n\x103\x06\x00\x00\x00'
p20
tp21
Rp22
sS'phonenumber_oid'
p23
L1132L
s.(dp0
S'status'
p1
S''
p2
sS'direction'
p3
S'Outgoing'
p4
sS'remote'
p5
g2
sS'description'
p6
S'Voice Call'
p7
sS'callid'
p8
L5382L
sS'oid'
p9
L232671L
sS'number'
p10
g2
sS'person_oid'
p11
L18L
sS'contact'
p12
L95L
sS'starttime'
p13
cdatetime
datetime
p14
(S'\x07\xd5\x02\n\x103\x16\x00\x00\x00'
p15
tp16
Rp17
sS'duration'
p18
L70L
sS'endtime'
p19
g14
(S'\x07\xd5\x02\n\x104 \x00\x00\x00'
p20
tp21
Rp22
sS'phonenumber_oid'
p23
L1132L
s.(dp0
S'status'
p1
S''
p2
sS'direction'
p3
S'Incoming'
p4
sS'remote'
p5
g2
sS'description'
p6
S'Voice Call'
p7
sS'callid'
p8
L5384L
sS'oid'
p9
L232672L
sS'number'
p10
g2
sS'person_oid'
p11
L18L
sS'contact'
p12
L95L
sS'starttime'
p13
cdatetime
datetime
p14
(S'\x07\xd5\x02\n\x11-*\x00\x00\x00'
p15
tp16
Rp17
sS'duration'
p18
L136L
sS'endtime'
p19
g14
(S'\x07\xd5\x02\n\x11/:\x00\x00\x00'
p20
tp21
Rp22
sS'phonenumber_oid'
p23
L1132L
s.(dp0
S'status'
p1
S''
p2
sS'direction'
p3
S'Outgoing'
p4
sS'remote'
p5
g2
sS'description'
p6
S'Voice Call'
p7
sS'callid'
p8
L5385L
sS'oid'
p9
L232673L
sS'number'
p10
g2
sS'person_oid'
p11
L18L
sS'contact'
p12
L95L
sS'starttime'
p13
cdatetime
datetime
p14
(S'\x07\xd5\x02\n\x112\x1a\x00\x00\x00'
p15
tp16
Rp17
sS'duration'
p18
L110L
sS'endtime'
p19
g14
(S'\x07\xd5\x02\n\x114\x10\x00\x00\x00'
p20
tp21
Rp22
sS'phonenumber_oid'
p23
L1132L
s.(dp0
S'status'
p1
S'Delivered'
p2
sS'direction'
p3
S'Incoming'
p4
sS'remote'
p5
S''
p6
sS'description'
p7
S'Short Message'
p8
sS'callid'
p9
L5386L
sS'oid'
p10
L232674L
sS'number'
p11
g6
sS'person_oid'
p12
L18L
sS'contact'
p13
L-1L
sS'starttime'
p14
cdatetime
datetime
p15
(S'\x07\xd5\x02\x0b\x01\x0c\x08\x00\x00\x00'
p16
tp17
Rp18
sS'duration'
p19
L0L
sS'endtime'
p20
g15
(S'\x07\xd5\x02\x0b\x01\x0c\x08\x00\x00\x00'
p21
tp22
Rp23
sS'phonenumber_oid'
p24
L1132L
s.(dp0
S'status'
p1
S''
p2
sS'direction'
p3
S'Incoming'
p4
sS'remote'
p5
g2
sS'description'
p6
S'Voice Call'
p7
sS'callid'
p8
L5388L
sS'oid'
p9
L232675L
sS'number'
p10
g2
sS'person_oid'
p11
L18L
sS'contact'
p12
L95L
sS'starttime'
p13
cdatetime
datetime
p14
(S'\x07\xd5\x02\x0b\x01%7\x00\x00\x00'
p15
tp16
Rp17
sS'duration'
p18
L26L
sS'endtime'
p19
g14
(S'\x07\xd5\x02\x0b\x01&\x15\x00\x00\x00'
p20
tp21
Rp22
sS'phonenumber_oid'
p23
L1132L
s.(dp0
S'status'
p1
S''
p2
sS'direction'
p3
S'Incoming'
p4
sS'remote'
p5
g2
sS'description'
p6
S'Voice Call'
p7
sS'callid'
p8
L5390L
sS'oid'
p9
L232676L
sS'number'
p10
g2
sS'person_oid'
p11
L18L
sS'contact'
p12
L95L
sS'starttime'
p13
cdatetime
datetime
p14
(S'\x07\xd5\x02\x0b\x01,\x02\x00\x00\x00'
p15
tp16
Rp17
sS'duration'
p18
L26L
sS'endtime'
p19
g14
(S'\x07\xd5\x02\x0b\x01,\x1c\x00\x00\x00'
p20
tp21
Rp22
sS'phonenumber_oid'
p23
L1132L
s.(dp0
S'status'
p1
S'Disconnected'
p2
sS'direction'
p3
S'Outgoing'
p4
sS'remote'
p5
S''
p6
sS'description'
p7
S'Packet Data'
p8
sS'callid'
p9
L5391L
sS'oid'
p10
L232677L
sS'number'
p11
g6
sS'person_oid'
p12
L18L
sS'contact'
p13
L-1L
sS'starttime'
p14
cdatetime
datetime
p15
(S'\x07\xd5\x02\x0b\x01;\x12\x00\x00\x00'
p16
tp17
Rp18
sS'duration'
p19
L328L
sS'endtime'
p20
g15
(S'\x07\xd5\x02\x0b\x02\x04.\x00\x00\x00'
p21
tp22
Rp23
sS'phonenumber_oid'
p24
L3L
s.(dp0
S'status'
p1
S''
p2
sS'direction'
p3
S'Outgoing'
p4
sS'remote'
p5
g2
sS'description'
p6
S'Voice Call'
p7
sS'callid'
p8
L5392L
sS'oid'
p9
L232678L
sS'number'
p10
g2
sS'person_oid'
p11
L18L
sS'contact'
p12
L95L
sS'starttime'
p13
cdatetime
datetime
p14
(S'\x07\xd5\x02\x0b\x02*\n\x00\x00\x00'
p15
tp16
Rp17
sS'duration'
p18
L0L
sS'endtime'
p19
g14
(S'\x07\xd5\x02\x0b\x02*\n\x00\x00\x00'
p20
tp21
Rp22
sS'phonenumber_oid'
p23
L1132L
s.(dp0
S'status'
p1
S''
p2
sS'direction'
p3
S'Outgoing'
p4
sS'remote'
p5
g2
sS'description'
p6
S'Voice Call'
p7
sS'callid'
p8
L5392L
sS'oid'
p9
L232698L
sS'number'
p10
g2
sS'person_oid'
p11
L18L
sS'contact'
p12
L95L
sS'starttime'
p13
cdatetime
datetime
p14
(S'\x07\xd5\x02\x0b\x02*\n\x00\x00\x00'
p15
tp16
Rp17
sS'duration'
p18
L0L
sS'endtime'
p19
g14
(S'\x07\xd5\x02\x0b\x02*\n\x00\x00\x00'
p20
tp21
Rp22
sS'phonenumber_oid'
p23
L1132L
s.(dp0
S'status'
p1
S''
p2
sS'direction'
p3
S'Outgoing'
p4
sS'remote'
p5
g2
sS'description'
p6
S'Voice Call'
p7
sS'callid'
p8
L5393L
sS'oid'
p9
L232679L
sS'number'
p10
g2
sS'person_oid'
p11
L18L
sS'contact'
p12
L95L
sS'starttime'
p13
cdatetime
datetime
p14
(S'\x07\xd5\x02\x0b\x02*\x1d\x00\x00\x00'
p15
tp16
Rp17
sS'duration'
p18
L0L
sS'endtime'
p19
g14
(S'\x07\xd5\x02\x0b\x02*\x1d\x00\x00\x00'
p20
tp21
Rp22
sS'phonenumber_oid'
p23
L1132L
s.(dp0
S'status'
p1
S''
p2
sS'direction'
p3
S'Outgoing'
p4
sS'remote'
p5
g2
sS'description'
p6
S'Voice Call'
p7
sS'callid'
p8
L5393L
sS'oid'
p9
L232699L
sS'number'
p10
g2
sS'person_oid'
p11
L18L
sS'contact'
p12
L95L
sS'starttime'
p13
cdatetime
datetime
p14
(S'\x07\xd5\x02\x0b\x02*\x1d\x00\x00\x00'
p15
tp16
Rp17
sS'duration'
p18
L0L
sS'endtime'
p19
g14
(S'\x07\xd5\x02\x0b\x02*\x1d\x00\x00\x00'
p20
tp21
Rp22
sS'phonenumber_oid'
p23
L1132L
s.(dp0
S'status'
p1
S''
p2
sS'direction'
p3
S'Outgoing'
p4
sS'remote'
p5
g2
sS'description'
p6
S'Voice Call'
p7
sS'callid'
p8
L5394L
sS'oid'
p9
L232680L
sS'number'
p10
g2
sS'person_oid'
p11
L18L
sS'contact'
p12
L95L
sS'starttime'
p13
cdatetime
datetime
p14
(S'\x07\xd5\x02\x0b\x02*4\x00\x00\x00'
p15
tp16
Rp17
sS'duration'
p18
L0L
sS'endtime'
p19
g14
(S'\x07\xd5\x02\x0b\x02*4\x00\x00\x00'
p20
tp21
Rp22
sS'phonenumber_oid'
p23
L1132L
s.(dp0
S'status'
p1
S''
p2
sS'direction'
p3
S'Outgoing'
p4
sS'remote'
p5
g2
sS'description'
p6
S'Voice Call'
p7
sS'callid'
p8
L5394L
sS'oid'
p9
L232700L
sS'number'
p10
g2
sS'person_oid'
p11
L18L
sS'contact'
p12
L95L
sS'starttime'
p13
cdatetime
datetime
p14
(S'\x07\xd5\x02\x0b\x02*4\x00\x00\x00'
p15
tp16
Rp17
sS'duration'
p18
L0L
sS'endtime'
p19
g14
(S'\x07\xd5\x02\x0b\x02*4\x00\x00\x00'
p20
tp21
Rp22
sS'phonenumber_oid'
p23
L1132L
s.(dp0
S'status'
p1
S''
p2
sS'direction'
p3
S'Outgoing'
p4
sS'remote'
p5
g2
sS'description'
p6
S'Voice Call'
p7
sS'callid'
p8
L5395L
sS'oid'
p9
L232681L
sS'number'
p10
g2
sS'person_oid'
p11
L18L
sS'contact'
p12
L95L
sS'starttime'
p13
cdatetime
datetime
p14
(S'\x07\xd5\x02\x0b\x02.3\x00\x00\x00'
p15
tp16
Rp17
sS'duration'
p18
L0L
sS'endtime'
p19
g14
(S'\x07\xd5\x02\x0b\x02.3\x00\x00\x00'
p20
tp21
Rp22
sS'phonenumber_oid'
p23
L1132L
s.(dp0
S'status'
p1
S''
p2
sS'direction'
p3
S'Outgoing'
p4
sS'remote'
p5
g2
sS'description'
p6
S'Voice Call'
p7
sS'callid'
p8
L5395L
sS'oid'
p9
L232701L
sS'number'
p10
g2
sS'person_oid'
p11
L18L
sS'contact'
p12
L95L
sS'starttime'
p13
cdatetime
datetime
p14
(S'\x07\xd5\x02\x0b\x02.3\x00\x00\x00'
p15
tp16
Rp17
sS'duration'
p18
L0L
sS'endtime'
p19
g14
(S'\x07\xd5\x02\x0b\x02.3\x00\x00\x00'
p20
tp21
Rp22
sS'phonenumber_oid'
p23
L1132L
s.(dp0
S'status'
p1
S''
p2
sS'direction'
p3
S'Outgoing'
p4
sS'remote'
p5
g2
sS'description'
p6
S'Voice Call'
p7
sS'callid'
p8
L5396L
sS'oid'
p9
L232682L
sS'number'
p10
g2
sS'person_oid'
p11
L18L
sS'contact'
p12
L95L
sS'starttime'
p13
cdatetime
datetime
p14
(S'\x07\xd5\x02\x0b\x02/6\x00\x00\x00'
p15
tp16
Rp17
sS'duration'
p18
L2L
sS'endtime'
p19
g14
(S'\x07\xd5\x02\x0b\x02/8\x00\x00\x00'
p20
tp21
Rp22
sS'phonenumber_oid'
p23
L1132L
s.(dp0
S'status'
p1
S''
p2
sS'direction'
p3
S'Outgoing'
p4
sS'remote'
p5
g2
sS'description'
p6
S'Voice Call'
p7
sS'callid'
p8
L5396L
sS'oid'
p9
L232702L
sS'number'
p10
g2
sS'person_oid'
p11
L18L
sS'contact'
p12
L95L
sS'starttime'
p13
cdatetime
datetime
p14
(S'\x07\xd5\x02\x0b\x02/6\x00\x00\x00'
p15
tp16
Rp17
sS'duration'
p18
L2L
sS'endtime'
p19
g14
(S'\x07\xd5\x02\x0b\x02/8\x00\x00\x00'
p20
tp21
Rp22
sS'phonenumber_oid'
p23
L1132L
s.(dp0
S'status'
p1
S''
p2
sS'direction'
p3
S'Outgoing'
p4
sS'remote'
p5
g2
sS'description'
p6
S'Voice Call'
p7
sS'callid'
p8
L5397L
sS'oid'
p9
L232683L
sS'number'
p10
g2
sS'person_oid'
p11
L18L
sS'contact'
p12
L22L
sS'starttime'
p13
cdatetime
datetime
p14
(S'\x07\xd5\x02\x0b\x020&\x00\x00\x00'
p15
tp16
Rp17
sS'duration'
p18
L26L
sS'endtime'
p19
g14
(S'\x07\xd5\x02\x0b\x021\x04\x00\x00\x00'
p20
tp21
Rp22
sS'phonenumber_oid'
p23
L1091L
s.(dp0
S'status'
p1
S''
p2
sS'direction'
p3
S'Outgoing'
p4
sS'remote'
p5
g2
sS'description'
p6
S'Voice Call'
p7
sS'callid'
p8
L5397L
sS'oid'
p9
L232703L
sS'number'
p10
g2
sS'person_oid'
p11
L18L
sS'contact'
p12
L22L
sS'starttime'
p13
cdatetime
datetime
p14
(S'\x07\xd5\x02\x0b\x020&\x00\x00\x00'
p15
tp16
Rp17
sS'duration'
p18
L26L
sS'endtime'
p19
g14
(S'\x07\xd5\x02\x0b\x021\x04\x00\x00\x00'
p20
tp21
Rp22
sS'phonenumber_oid'
p23
L1091L
s.(dp0
S'status'
p1
S'Disconnected'
p2
sS'direction'
p3
S'Outgoing'
p4
sS'remote'
p5
S''
p6
sS'description'
p7
S'Packet Data'
p8
sS'callid'
p9
L5398L
sS'oid'
p10
L232684L
sS'number'
p11
g6
sS'person_oid'
p12
L18L
sS'contact'
p13
L-1L
sS'starttime'
p14
cdatetime
datetime
p15
(S'\x07\xd5\x02\x0b\x03\x05\x18\x00\x00\x00'
p16
tp17
Rp18
sS'duration'
p19
L29L
sS'endtime'
p20
g15
(S'\x07\xd5\x02\x0b\x03\x055\x00\x00\x00'
p21
tp22
Rp23
sS'phonenumber_oid'
p24
L3L
s.(dp0
S'status'
p1
S'Disconnected'
p2
sS'direction'
p3
S'Outgoing'
p4
sS'remote'
p5
S''
p6
sS'description'
p7
S'Packet Data'
p8
sS'callid'
p9
L5398L
sS'oid'
p10
L232704L
sS'number'
p11
g6
sS'person_oid'
p12
L18L
sS'contact'
p13
L-1L
sS'starttime'
p14
cdatetime
datetime
p15
(S'\x07\xd5\x02\x0b\x03\x05\x18\x00\x00\x00'
p16
tp17
Rp18
sS'duration'
p19
L29L
sS'endtime'
p20
g15
(S'\x07\xd5\x02\x0b\x03\x055\x00\x00\x00'
p21
tp22
Rp23
sS'phonenumber_oid'
p24
L3L
s.(dp0
S'status'
p1
S'Disconnected'
p2
sS'direction'
p3
S'Outgoing'
p4
sS'remote'
p5
S''
p6
sS'description'
p7
S'Packet Data'
p8
sS'callid'
p9
L5399L
sS'oid'
p10
L232685L
sS'number'
p11
g6
sS'person_oid'
p12
L18L
sS'contact'
p13
L-1L
sS'starttime'
p14
cdatetime
datetime
p15
(S'\x07\xd5\x02\x0b\x04\x06\x1f\x00\x00\x00'
p16
tp17
Rp18
sS'duration'
p19
L31L
sS'endtime'
p20
g15
(S'\x07\xd5\x02\x0b\x04\x07\x02\x00\x00\x00'
p21
tp22
Rp23
sS'phonenumber_oid'
p24
L3L
s.(dp0
S'status'
p1
S'Disconnected'
p2
sS'direction'
p3
S'Outgoing'
p4
sS'remote'
p5
S''
p6
sS'description'
p7
S'Packet Data'
p8
sS'callid'
p9
L5399L
sS'oid'
p10
L232705L
sS'number'
p11
g6
sS'person_oid'
p12
L18L
sS'contact'
p13
L-1L
sS'starttime'
p14
cdatetime
datetime
p15
(S'\x07\xd5\x02\x0b\x04\x06\x1f\x00\x00\x00'
p16
tp17
Rp18
sS'duration'
p19
L31L
sS'endtime'
p20
g15
(S'\x07\xd5\x02\x0b\x04\x07\x02\x00\x00\x00'
p21
tp22
Rp23
sS'phonenumber_oid'
p24
L3L
s.(dp0
S'status'
p1
S'Disconnected'
p2
sS'direction'
p3
S'Outgoing'
p4
sS'remote'
p5
S''
p6
sS'description'
p7
S'Packet Data'
p8
sS'callid'
p9
L5399L
sS'oid'
p10
L232719L
sS'number'
p11
g6
sS'person_oid'
p12
L18L
sS'contact'
p13
L-1L
sS'starttime'
p14
cdatetime
datetime
p15
(S'\x07\xd5\x02\x0b\x04\x06\x1f\x00\x00\x00'
p16
tp17
Rp18
sS'duration'
p19
L31L
sS'endtime'
p20
g15
(S'\x07\xd5\x02\x0b\x04\x07\x02\x00\x00\x00'
p21
tp22
Rp23
sS'phonenumber_oid'
p24
L3L
s.(dp0
S'status'
p1
S'Disconnected'
p2
sS'direction'
p3
S'Outgoing'
p4
sS'remote'
p5
S''
p6
sS'description'
p7
S'Packet Data'
p8
sS'callid'
p9
L5400L
sS'oid'
p10
L232686L
sS'number'
p11
g6
sS'person_oid'
p12
L18L
sS'contact'
p13
L-1L
sS'starttime'
p14
cdatetime
datetime
p15
(S'\x07\xd5\x02\x0b\x05\x07&\x00\x00\x00'
p16
tp17
Rp18
sS'duration'
p19
L31L
sS'endtime'
p20
g15
(S'\x07\xd5\x02\x0b\x05\x08\t\x00\x00\x00'
p21
tp22
Rp23
sS'phonenumber_oid'
p24
L3L
s.(dp0
S'status'
p1
S'Disconnected'
p2
sS'direction'
p3
S'Outgoing'
p4
sS'remote'
p5
S''
p6
sS'description'
p7
S'Packet Data'
p8
sS'callid'
p9
L5400L
sS'oid'
p10
L232706L
sS'number'
p11
g6
sS'person_oid'
p12
L18L
sS'contact'
p13
L-1L
sS'starttime'
p14
cdatetime
datetime
p15
(S'\x07\xd5\x02\x0b\x05\x07&\x00\x00\x00'
p16
tp17
Rp18
sS'duration'
p19
L31L
sS'endtime'
p20
g15
(S'\x07\xd5\x02\x0b\x05\x08\t\x00\x00\x00'
p21
tp22
Rp23
sS'phonenumber_oid'
p24
L3L
s.(dp0
S'status'
p1
S'Disconnected'
p2
sS'direction'
p3
S'Outgoing'
p4
sS'remote'
p5
S''
p6
sS'description'
p7
S'Packet Data'
p8
sS'callid'
p9
L5400L
sS'oid'
p10
L232720L
sS'number'
p11
g6
sS'person_oid'
p12
L18L
sS'contact'
p13
L-1L
sS'starttime'
p14
cdatetime
datetime
p15
(S'\x07\xd5\x02\x0b\x05\x07&\x00\x00\x00'
p16
tp17
Rp18
sS'duration'
p19
L31L
sS'endtime'
p20
g15
(S'\x07\xd5\x02\x0b\x05\x08\t\x00\x00\x00'
p21
tp22
Rp23
sS'phonenumber_oid'
p24
L3L
s.(dp0
S'status'
p1
S'Disconnected'
p2
sS'direction'
p3
S'Outgoing'
p4
sS'remote'
p5
S''
p6
sS'description'
p7
S'Packet Data'
p8
sS'callid'
p9
L5400L
sS'oid'
p10
L232734L
sS'number'
p11
g6
sS'person_oid'
p12
L18L
sS'contact'
p13
L-1L
sS'starttime'
p14
cdatetime
datetime
p15
(S'\x07\xd5\x02\x0b\x05\x07&\x00\x00\x00'
p16
tp17
Rp18
sS'duration'
p19
L31L
sS'endtime'
p20
g15
(S'\x07\xd5\x02\x0b\x05\x08\t\x00\x00\x00'
p21
tp22
Rp23
sS'phonenumber_oid'
p24
L3L
s.(dp0
S'status'
p1
S'Disconnected'
p2
sS'direction'
p3
S'Outgoing'
p4
sS'remote'
p5
S''
p6
sS'description'
p7
S'Packet Data'
p8
sS'callid'
p9
L5401L
sS'oid'
p10
L232687L
sS'number'
p11
g6
sS'person_oid'
p12
L18L
sS'contact'
p13
L-1L
sS'starttime'
p14
cdatetime
datetime
p15
(S'\x07\xd5\x02\x0b\x06\x08/\x00\x00\x00'
p16
tp17
Rp18
sS'duration'
p19
L66L
sS'endtime'
p20
g15
(S'\x07\xd5\x02\x0b\x06\t5\x00\x00\x00'
p21
tp22
Rp23
sS'phonenumber_oid'
p24
L3L
s.(dp0
S'status'
p1
S'Disconnected'
p2
sS'direction'
p3
S'Outgoing'
p4
sS'remote'
p5
S''
p6
sS'description'
p7
S'Packet Data'
p8
sS'callid'
p9
L5401L
sS'oid'
p10
L232707L
sS'number'
p11
g6
sS'person_oid'
p12
L18L
sS'contact'
p13
L-1L
sS'starttime'
p14
cdatetime
datetime
p15
(S'\x07\xd5\x02\x0b\x06\x08/\x00\x00\x00'
p16
tp17
Rp18
sS'duration'
p19
L66L
sS'endtime'
p20
g15
(S'\x07\xd5\x02\x0b\x06\t5\x00\x00\x00'
p21
tp22
Rp23
sS'phonenumber_oid'
p24
L3L
s.(dp0
S'status'
p1
S'Disconnected'
p2
sS'direction'
p3
S'Outgoing'
p4
sS'remote'
p5
S''
p6
sS'description'
p7
S'Packet Data'
p8
sS'callid'
p9
L5401L
sS'oid'
p10
L232721L
sS'number'
p11
g6
sS'person_oid'
p12
L18L
sS'contact'
p13
L-1L
sS'starttime'
p14
cdatetime
datetime
p15
(S'\x07\xd5\x02\x0b\x06\x08/\x00\x00\x00'
p16
tp17
Rp18
sS'duration'
p19
L66L
sS'endtime'
p20
g15
(S'\x07\xd5\x02\x0b\x06\t5\x00\x00\x00'
p21
tp22
Rp23
sS'phonenumber_oid'
p24
L3L
s.(dp0
S'status'
p1
S'Disconnected'
p2
sS'direction'
p3
S'Outgoing'
p4
sS'remote'
p5
S''
p6
sS'description'
p7
S'Packet Data'
p8
sS'callid'
p9
L5401L
sS'oid'
p10
L232735L
sS'number'
p11
g6
sS'person_oid'
p12
L18L
sS'contact'
p13
L-1L
sS'starttime'
p14
cdatetime
datetime
p15
(S'\x07\xd5\x02\x0b\x06\x08/\x00\x00\x00'
p16
tp17
Rp18
sS'duration'
p19
L66L
sS'endtime'
p20
g15
(S'\x07\xd5\x02\x0b\x06\t5\x00\x00\x00'
p21
tp22
Rp23
sS'phonenumber_oid'
p24
L3L
s.(dp0
S'status'
p1
S'Disconnected'
p2
sS'direction'
p3
S'Outgoing'
p4
sS'remote'
p5
S''
p6
sS'description'
p7
S'Packet Data'
p8
sS'callid'
p9
L5402L
sS'oid'
p10
L232688L
sS'number'
p11
g6
sS'person_oid'
p12
L18L
sS'contact'
p13
L-1L
sS'starttime'
p14
cdatetime
datetime
p15
(S'\x07\xd5\x02\x0b\x07\n\x1f\x00\x00\x00'
p16
tp17
Rp18
sS'duration'
p19
L122L
sS'endtime'
p20
g15
(S'\x07\xd5\x02\x0b\x07\x0c!\x00\x00\x00'
p21
tp22
Rp23
sS'phonenumber_oid'
p24
L3L
s.(dp0
S'status'
p1
S'Disconnected'
p2
sS'direction'
p3
S'Outgoing'
p4
sS'remote'
p5
S''
p6
sS'description'
p7
S'Packet Data'
p8
sS'callid'
p9
L5402L
sS'oid'
p10
L232708L
sS'number'
p11
g6
sS'person_oid'
p12
L18L
sS'contact'
p13
L-1L
sS'starttime'
p14
cdatetime
datetime
p15
(S'\x07\xd5\x02\x0b\x07\n\x1f\x00\x00\x00'
p16
tp17
Rp18
sS'duration'
p19
L122L
sS'endtime'
p20
g15
(S'\x07\xd5\x02\x0b\x07\x0c!\x00\x00\x00'
p21
tp22
Rp23
sS'phonenumber_oid'
p24
L3L
s.(dp0
S'status'
p1
S'Disconnected'
p2
sS'direction'
p3
S'Outgoing'
p4
sS'remote'
p5
S''
p6
sS'description'
p7
S'Packet Data'
p8
sS'callid'
p9
L5402L
sS'oid'
p10
L232722L
sS'number'
p11
g6
sS'person_oid'
p12
L18L
sS'contact'
p13
L-1L
sS'starttime'
p14
cdatetime
datetime
p15
(S'\x07\xd5\x02\x0b\x07\n\x1f\x00\x00\x00'
p16
tp17
Rp18
sS'duration'
p19
L122L
sS'endtime'
p20
g15
(S'\x07\xd5\x02\x0b\x07\x0c!\x00\x00\x00'
p21
tp22
Rp23
sS'phonenumber_oid'
p24
L3L
s.(dp0
S'status'
p1
S'Disconnected'
p2
sS'direction'
p3
S'Outgoing'
p4
sS'remote'
p5
S''
p6
sS'description'
p7
S'Packet Data'
p8
sS'callid'
p9
L5402L
sS'oid'
p10
L232736L
sS'number'
p11
g6
sS'person_oid'
p12
L18L
sS'contact'
p13
L-1L
sS'starttime'
p14
cdatetime
datetime
p15
(S'\x07\xd5\x02\x0b\x07\n\x1f\x00\x00\x00'
p16
tp17
Rp18
sS'duration'
p19
L122L
sS'endtime'
p20
g15
(S'\x07\xd5\x02\x0b\x07\x0c!\x00\x00\x00'
p21
tp22
Rp23
sS'phonenumber_oid'
p24
L3L
s.(dp0
S'status'
p1
S'Disconnected'
p2
sS'direction'
p3
S'Outgoing'
p4
sS'remote'
p5
S''
p6
sS'description'
p7
S'Packet Data'
p8
sS'callid'
p9
L5403L
sS'oid'
p10
L232689L
sS'number'
p11
g6
sS'person_oid'
p12
L18L
sS'contact'
p13
L-1L
sS'starttime'
p14
cdatetime
datetime
p15
(S'\x07\xd5\x02\x0b\x08\r\x0b\x00\x00\x00'
p16
tp17
Rp18
sS'duration'
p19
L40L
sS'endtime'
p20
g15
(S'\x07\xd5\x02\x0b\x08\r3\x00\x00\x00'
p21
tp22
Rp23
sS'phonenumber_oid'
p24
L3L
s.(dp0
S'status'
p1
S'Disconnected'
p2
sS'direction'
p3
S'Outgoing'
p4
sS'remote'
p5
S''
p6
sS'description'
p7
S'Packet Data'
p8
sS'callid'
p9
L5403L
sS'oid'
p10
L232709L
sS'number'
p11
g6
sS'person_oid'
p12
L18L
sS'contact'
p13
L-1L
sS'starttime'
p14
cdatetime
datetime
p15
(S'\x07\xd5\x02\x0b\x08\r\x0b\x00\x00\x00'
p16
tp17
Rp18
sS'duration'
p19
L40L
sS'endtime'
p20
g15
(S'\x07\xd5\x02\x0b\x08\r3\x00\x00\x00'
p21
tp22
Rp23
sS'phonenumber_oid'
p24
L3L
s.(dp0
S'status'
p1
S'Disconnected'
p2
sS'direction'
p3
S'Outgoing'
p4
sS'remote'
p5
S''
p6
sS'description'
p7
S'Packet Data'
p8
sS'callid'
p9
L5403L
sS'oid'
p10
L232723L
sS'number'
p11
g6
sS'person_oid'
p12
L18L
sS'contact'
p13
L-1L
sS'starttime'
p14
cdatetime
datetime
p15
(S'\x07\xd5\x02\x0b\x08\r\x0b\x00\x00\x00'
p16
tp17
Rp18
sS'duration'
p19
L40L
sS'endtime'
p20
g15
(S'\x07\xd5\x02\x0b\x08\r3\x00\x00\x00'
p21
tp22
Rp23
sS'phonenumber_oid'
p24
L3L
s.(dp0
S'status'
p1
S'Disconnected'
p2
sS'direction'
p3
S'Outgoing'
p4
sS'remote'
p5
S''
p6
sS'description'
p7
S'Packet Data'
p8
sS'callid'
p9
L5403L
sS'oid'
p10
L232737L
sS'number'
p11
g6
sS'person_oid'
p12
L18L
sS'contact'
p13
L-1L
sS'starttime'
p14
cdatetime
datetime
p15
(S'\x07\xd5\x02\x0b\x08\r\x0b\x00\x00\x00'
p16
tp17
Rp18
sS'duration'
p19
L40L
sS'endtime'
p20
g15
(S'\x07\xd5\x02\x0b\x08\r3\x00\x00\x00'
p21
tp22
Rp23
sS'phonenumber_oid'
p24
L3L
s.(dp0
S'status'
p1
S'Disconnected'
p2
sS'direction'
p3
S'Outgoing'
p4
sS'remote'
p5
S''
p6
sS'description'
p7
S'Packet Data'
p8
sS'callid'
p9
L5404L
sS'oid'
p10
L232690L
sS'number'
p11
g6
sS'person_oid'
p12
L18L
sS'contact'
p13
L-1L
sS'starttime'
p14
cdatetime
datetime
p15
(S'\x07\xd5\x02\x0b\x08\x0e\x0b\x00\x00\x00'
p16
tp17
Rp18
sS'duration'
p19
L39L
sS'endtime'
p20
g15
(S'\x07\xd5\x02\x0b\x08\x0e2\x00\x00\x00'
p21
tp22
Rp23
sS'phonenumber_oid'
p24
L3L
s.(dp0
S'status'
p1
S'Disconnected'
p2
sS'direction'
p3
S'Outgoing'
p4
sS'remote'
p5
S''
p6
sS'description'
p7
S'Packet Data'
p8
sS'callid'
p9
L5404L
sS'oid'
p10
L232710L
sS'number'
p11
g6
sS'person_oid'
p12
L18L
sS'contact'
p13
L-1L
sS'starttime'
p14
cdatetime
datetime
p15
(S'\x07\xd5\x02\x0b\x08\x0e\x0b\x00\x00\x00'
p16
tp17
Rp18
sS'duration'
p19
L39L
sS'endtime'
p20
g15
(S'\x07\xd5\x02\x0b\x08\x0e2\x00\x00\x00'
p21
tp22
Rp23
sS'phonenumber_oid'
p24
L3L
s.(dp0
S'status'
p1
S'Disconnected'
p2
sS'direction'
p3
S'Outgoing'
p4
sS'remote'
p5
S''
p6
sS'description'
p7
S'Packet Data'
p8
sS'callid'
p9
L5404L
sS'oid'
p10
L232724L
sS'number'
p11
g6
sS'person_oid'
p12
L18L
sS'contact'
p13
L-1L
sS'starttime'
p14
cdatetime
datetime
p15
(S'\x07\xd5\x02\x0b\x08\x0e\x0b\x00\x00\x00'
p16
tp17
Rp18
sS'duration'
p19
L39L
sS'endtime'
p20
g15
(S'\x07\xd5\x02\x0b\x08\x0e2\x00\x00\x00'
p21
tp22
Rp23
sS'phonenumber_oid'
p24
L3L
s.(dp0
S'status'
p1
S'Disconnected'
p2
sS'direction'
p3
S'Outgoing'
p4
sS'remote'
p5
S''
p6
sS'description'
p7
S'Packet Data'
p8
sS'callid'
p9
L5404L
sS'oid'
p10
L232738L
sS'number'
p11
g6
sS'person_oid'
p12
L18L
sS'contact'
p13
L-1L
sS'starttime'
p14
cdatetime
datetime
p15
(S'\x07\xd5\x02\x0b\x08\x0e\x0b\x00\x00\x00'
p16
tp17
Rp18
sS'duration'
p19
L39L
sS'endtime'
p20
g15
(S'\x07\xd5\x02\x0b\x08\x0e2\x00\x00\x00'
p21
tp22
Rp23
sS'phonenumber_oid'
p24
L3L
s.(dp0
S'status'
p1
S'Disconnected'
p2
sS'direction'
p3
S'Outgoing'
p4
sS'remote'
p5
S''
p6
sS'description'
p7
S'Packet Data'
p8
sS'callid'
p9
L5405L
sS'oid'
p10
L232691L
sS'number'
p11
g6
sS'person_oid'
p12
L18L
sS'contact'
p13
L-1L
sS'starttime'
p14
cdatetime
datetime
p15
(S'\x07\xd5\x02\x0b\t\x1e\x03\x00\x00\x00'
p16
tp17
Rp18
sS'duration'
p19
L135L
sS'endtime'
p20
g15
(S'\x07\xd5\x02\x0b\t \x12\x00\x00\x00'
p21
tp22
Rp23
sS'phonenumber_oid'
p24
L3L
s.(dp0
S'status'
p1
S'Disconnected'
p2
sS'direction'
p3
S'Outgoing'
p4
sS'remote'
p5
S''
p6
sS'description'
p7
S'Packet Data'
p8
sS'callid'
p9
L5405L
sS'oid'
p10
L232711L
sS'number'
p11
g6
sS'person_oid'
p12
L18L
sS'contact'
p13
L-1L
sS'starttime'
p14
cdatetime
datetime
p15
(S'\x07\xd5\x02\x0b\t\x1e\x03\x00\x00\x00'
p16
tp17
Rp18
sS'duration'
p19
L135L
sS'endtime'
p20
g15
(S'\x07\xd5\x02\x0b\t \x12\x00\x00\x00'
p21
tp22
Rp23
sS'phonenumber_oid'
p24
L3L
s.(dp0
S'status'
p1
S'Disconnected'
p2
sS'direction'
p3
S'Outgoing'
p4
sS'remote'
p5
S''
p6
sS'description'
p7
S'Packet Data'
p8
sS'callid'
p9
L5405L
sS'oid'
p10
L232725L
sS'number'
p11
g6
sS'person_oid'
p12
L18L
sS'contact'
p13
L-1L
sS'starttime'
p14
cdatetime
datetime
p15
(S'\x07\xd5\x02\x0b\t\x1e\x03\x00\x00\x00'
p16
tp17
Rp18
sS'duration'
p19
L135L
sS'endtime'
p20
g15
(S'\x07\xd5\x02\x0b\t \x12\x00\x00\x00'
p21
tp22
Rp23
sS'phonenumber_oid'
p24
L3L
s.(dp0
S'status'
p1
S'Disconnected'
p2
sS'direction'
p3
S'Outgoing'
p4
sS'remote'
p5
S''
p6
sS'description'
p7
S'Packet Data'
p8
sS'callid'
p9
L5405L
sS'oid'
p10
L232739L
sS'number'
p11
g6
sS'person_oid'
p12
L18L
sS'contact'
p13
L-1L
sS'starttime'
p14
cdatetime
datetime
p15
(S'\x07\xd5\x02\x0b\t\x1e\x03\x00\x00\x00'
p16
tp17
Rp18
sS'duration'
p19
L135L
sS'endtime'
p20
g15
(S'\x07\xd5\x02\x0b\t \x12\x00\x00\x00'
p21
tp22
Rp23
sS'phonenumber_oid'
p24
L3L
s.(dp0
S'status'
p1
S''
p2
sS'direction'
p3
S'Outgoing'
p4
sS'remote'
p5
g2
sS'description'
p6
S'Voice Call'
p7
sS'callid'
p8
L5406L
sS'oid'
p9
L232692L
sS'number'
p10
g2
sS'person_oid'
p11
L18L
sS'contact'
p12
L95L
sS'starttime'
p13
cdatetime
datetime
p14
(S'\x07\xd5\x02\x0b\x0e4&\x00\x00\x00'
p15
tp16
Rp17
sS'duration'
p18
L88L
sS'endtime'
p19
g14
(S'\x07\xd5\x02\x0b\x0e6\x06\x00\x00\x00'
p20
tp21
Rp22
sS'phonenumber_oid'
p23
L1132L
s.(dp0
S'status'
p1
S''
p2
sS'direction'
p3
S'Outgoing'
p4
sS'remote'
p5
g2
sS'description'
p6
S'Voice Call'
p7
sS'callid'
p8
L5406L
sS'oid'
p9
L232712L
sS'number'
p10
g2
sS'person_oid'
p11
L18L
sS'contact'
p12
L95L
sS'starttime'
p13
cdatetime
datetime
p14
(S'\x07\xd5\x02\x0b\x0e4&\x00\x00\x00'
p15
tp16
Rp17
sS'duration'
p18
L88L
sS'endtime'
p19
g14
(S'\x07\xd5\x02\x0b\x0e6\x06\x00\x00\x00'
p20
tp21
Rp22
sS'phonenumber_oid'
p23
L1132L
s.(dp0
S'status'
p1
S''
p2
sS'direction'
p3
S'Outgoing'
p4
sS'remote'
p5
g2
sS'description'
p6
S'Voice Call'
p7
sS'callid'
p8
L5406L
sS'oid'
p9
L232726L
sS'number'
p10
g2
sS'person_oid'
p11
L18L
sS'contact'
p12
L95L
sS'starttime'
p13
cdatetime
datetime
p14
(S'\x07\xd5\x02\x0b\x0e4&\x00\x00\x00'
p15
tp16
Rp17
sS'duration'
p18
L88L
sS'endtime'
p19
g14
(S'\x07\xd5\x02\x0b\x0e6\x06\x00\x00\x00'
p20
tp21
Rp22
sS'phonenumber_oid'
p23
L1132L
s.(dp0
S'status'
p1
S''
p2
sS'direction'
p3
S'Outgoing'
p4
sS'remote'
p5
g2
sS'description'
p6
S'Voice Call'
p7
sS'callid'
p8
L5406L
sS'oid'
p9
L232740L
sS'number'
p10
g2
sS'person_oid'
p11
L18L
sS'contact'
p12
L95L
sS'starttime'
p13
cdatetime
datetime
p14
(S'\x07\xd5\x02\x0b\x0e4&\x00\x00\x00'
p15
tp16
Rp17
sS'duration'
p18
L88L
sS'endtime'
p19
g14
(S'\x07\xd5\x02\x0b\x0e6\x06\x00\x00\x00'
p20
tp21
Rp22
sS'phonenumber_oid'
p23
L1132L
s.(dp0
S'status'
p1
S''
p2
sS'direction'
p3
S'Incoming'
p4
sS'remote'
p5
g2
sS'description'
p6
S'Voice Call'
p7
sS'callid'
p8
L5408L
sS'oid'
p9
L232693L
sS'number'
p10
g2
sS'person_oid'
p11
L18L
sS'contact'
p12
L95L
sS'starttime'
p13
cdatetime
datetime
p14
(S'\x07\xd5\x02\x0b\x0f\n:\x00\x00\x00'
p15
tp16
Rp17
sS'duration'
p18
L170L
sS'endtime'
p19
g14
(S'\x07\xd5\x02\x0b\x0f\r0\x00\x00\x00'
p20
tp21
Rp22
sS'phonenumber_oid'
p23
L1135L
s.(dp0
S'status'
p1
S''
p2
sS'direction'
p3
S'Incoming'
p4
sS'remote'
p5
g2
sS'description'
p6
S'Voice Call'
p7
sS'callid'
p8
L5408L
sS'oid'
p9
L232713L
sS'number'
p10
g2
sS'person_oid'
p11
L18L
sS'contact'
p12
L95L
sS'starttime'
p13
cdatetime
datetime
p14
(S'\x07\xd5\x02\x0b\x0f\n:\x00\x00\x00'
p15
tp16
Rp17
sS'duration'
p18
L170L
sS'endtime'
p19
g14
(S'\x07\xd5\x02\x0b\x0f\r0\x00\x00\x00'
p20
tp21
Rp22
sS'phonenumber_oid'
p23
L1135L
s.(dp0
S'status'
p1
S''
p2
sS'direction'
p3
S'Incoming'
p4
sS'remote'
p5
g2
sS'description'
p6
S'Voice Call'
p7
sS'callid'
p8
L5408L
sS'oid'
p9
L232727L
sS'number'
p10
g2
sS'person_oid'
p11
L18L
sS'contact'
p12
L95L
sS'starttime'
p13
cdatetime
datetime
p14
(S'\x07\xd5\x02\x0b\x0f\n:\x00\x00\x00'
p15
tp16
Rp17
sS'duration'
p18
L170L
sS'endtime'
p19
g14
(S'\x07\xd5\x02\x0b\x0f\r0\x00\x00\x00'
p20
tp21
Rp22
sS'phonenumber_oid'
p23
L1135L
s.(dp0
S'status'
p1
S''
p2
sS'direction'
p3
S'Incoming'
p4
sS'remote'
p5
g2
sS'description'
p6
S'Voice Call'
p7
sS'callid'
p8
L5408L
sS'oid'
p9
L232741L
sS'number'
p10
g2
sS'person_oid'
p11
L18L
sS'contact'
p12
L95L
sS'starttime'
p13
cdatetime
datetime
p14
(S'\x07\xd5\x02\x0b\x0f\n:\x00\x00\x00'
p15
tp16
Rp17
sS'duration'
p18
L170L
sS'endtime'
p19
g14
(S'\x07\xd5\x02\x0b\x0f\r0\x00\x00\x00'
p20
tp21
Rp22
sS'phonenumber_oid'
p23
L1135L
s.(dp0
S'status'
p1
S''
p2
sS'direction'
p3
S'Outgoing'
p4
sS'remote'
p5
g2
sS'description'
p6
S'Voice Call'
p7
sS'callid'
p8
L5409L
sS'oid'
p9
L232694L
sS'number'
p10
g2
sS'person_oid'
p11
L18L
sS'contact'
p12
L134L
sS'starttime'
p13
cdatetime
datetime
p14
(S'\x07\xd5\x02\x0b\x10\x07\x11\x00\x00\x00'
p15
tp16
Rp17
sS'duration'
p18
L0L
sS'endtime'
p19
g14
(S'\x07\xd5\x02\x0b\x10\x07\x11\x00\x00\x00'
p20
tp21
Rp22
sS'phonenumber_oid'
p23
L1144L
s.(dp0
S'status'
p1
S''
p2
sS'direction'
p3
S'Outgoing'
p4
sS'remote'
p5
g2
sS'description'
p6
S'Voice Call'
p7
sS'callid'
p8
L5409L
sS'oid'
p9
L232714L
sS'number'
p10
g2
sS'person_oid'
p11
L18L
sS'contact'
p12
L134L
sS'starttime'
p13
cdatetime
datetime
p14
(S'\x07\xd5\x02\x0b\x10\x07\x11\x00\x00\x00'
p15
tp16
Rp17
sS'duration'
p18
L0L
sS'endtime'
p19
g14
(S'\x07\xd5\x02\x0b\x10\x07\x11\x00\x00\x00'
p20
tp21
Rp22
sS'phonenumber_oid'
p23
L1144L
s.(dp0
S'status'
p1
S''
p2
sS'direction'
p3
S'Outgoing'
p4
sS'remote'
p5
g2
sS'description'
p6
S'Voice Call'
p7
sS'callid'
p8
L5409L
sS'oid'
p9
L232728L
sS'number'
p10
g2
sS'person_oid'
p11
L18L
sS'contact'
p12
L134L
sS'starttime'
p13
cdatetime
datetime
p14
(S'\x07\xd5\x02\x0b\x10\x07\x11\x00\x00\x00'
p15
tp16
Rp17
sS'duration'
p18
L0L
sS'endtime'
p19
g14
(S'\x07\xd5\x02\x0b\x10\x07\x11\x00\x00\x00'
p20
tp21
Rp22
sS'phonenumber_oid'
p23
L1144L
s.(dp0
S'status'
p1
S''
p2
sS'direction'
p3
S'Outgoing'
p4
sS'remote'
p5
g2
sS'description'
p6
S'Voice Call'
p7
sS'callid'
p8
L5409L
sS'oid'
p9
L232742L
sS'number'
p10
g2
sS'person_oid'
p11
L18L
sS'contact'
p12
L134L
sS'starttime'
p13
cdatetime
datetime
p14
(S'\x07\xd5\x02\x0b\x10\x07\x11\x00\x00\x00'
p15
tp16
Rp17
sS'duration'
p18
L0L
sS'endtime'
p19
g14
(S'\x07\xd5\x02\x0b\x10\x07\x11\x00\x00\x00'
p20
tp21
Rp22
sS'phonenumber_oid'
p23
L1144L
s.(dp0
S'status'
p1
S''
p2
sS'direction'
p3
S'Incoming'
p4
sS'remote'
p5
g2
sS'description'
p6
S'Voice Call'
p7
sS'callid'
p8
L5411L
sS'oid'
p9
L232695L
sS'number'
p10
g2
sS'person_oid'
p11
L18L
sS'contact'
p12
L91L
sS'starttime'
p13
cdatetime
datetime
p14
(S'\x07\xd5\x02\x0b\x151#\x00\x00\x00'
p15
tp16
Rp17
sS'duration'
p18
L74L
sS'endtime'
p19
g14
(S'\x07\xd5\x02\x0b\x1521\x00\x00\x00'
p20
tp21
Rp22
sS'phonenumber_oid'
p23
L1147L
s.(dp0
S'status'
p1
S''
p2
sS'direction'
p3
S'Incoming'
p4
sS'remote'
p5
g2
sS'description'
p6
S'Voice Call'
p7
sS'callid'
p8
L5411L
sS'oid'
p9
L232715L
sS'number'
p10
g2
sS'person_oid'
p11
L18L
sS'contact'
p12
L91L
sS'starttime'
p13
cdatetime
datetime
p14
(S'\x07\xd5\x02\x0b\x151#\x00\x00\x00'
p15
tp16
Rp17
sS'duration'
p18
L74L
sS'endtime'
p19
g14
(S'\x07\xd5\x02\x0b\x1521\x00\x00\x00'
p20
tp21
Rp22
sS'phonenumber_oid'
p23
L1147L
s.(dp0
S'status'
p1
S''
p2
sS'direction'
p3
S'Incoming'
p4
sS'remote'
p5
g2
sS'description'
p6
S'Voice Call'
p7
sS'callid'
p8
L5411L
sS'oid'
p9
L232729L
sS'number'
p10
g2
sS'person_oid'
p11
L18L
sS'contact'
p12
L91L
sS'starttime'
p13
cdatetime
datetime
p14
(S'\x07\xd5\x02\x0b\x151#\x00\x00\x00'
p15
tp16
Rp17
sS'duration'
p18
L74L
sS'endtime'
p19
g14
(S'\x07\xd5\x02\x0b\x1521\x00\x00\x00'
p20
tp21
Rp22
sS'phonenumber_oid'
p23
L1147L
s.(dp0
S'status'
p1
S''
p2
sS'direction'
p3
S'Incoming'
p4
sS'remote'
p5
g2
sS'description'
p6
S'Voice Call'
p7
sS'callid'
p8
L5411L
sS'oid'
p9
L232743L
sS'number'
p10
g2
sS'person_oid'
p11
L18L
sS'contact'
p12
L91L
sS'starttime'
p13
cdatetime
datetime
p14
(S'\x07\xd5\x02\x0b\x151#\x00\x00\x00'
p15
tp16
Rp17
sS'duration'
p18
L74L
sS'endtime'
p19
g14
(S'\x07\xd5\x02\x0b\x1521\x00\x00\x00'
p20
tp21
Rp22
sS'phonenumber_oid'
p23
L1147L
s.(dp0
S'status'
p1
S''
p2
sS'direction'
p3
S'Outgoing'
p4
sS'remote'
p5
g2
sS'description'
p6
S'Voice Call'
p7
sS'callid'
p8
L5412L
sS'oid'
p9
L232696L
sS'number'
p10
g2
sS'person_oid'
p11
L18L
sS'contact'
p12
L91L
sS'starttime'
p13
cdatetime
datetime
p14
(S'\x07\xd5\x02\x0b\x155\x06\x00\x00\x00'
p15
tp16
Rp17
sS'duration'
p18
L120L
sS'endtime'
p19
g14
(S'\x07\xd5\x02\x0b\x157\x06\x00\x00\x00'
p20
tp21
Rp22
sS'phonenumber_oid'
p23
L1147L
s.(dp0
S'status'
p1
S''
p2
sS'direction'
p3
S'Outgoing'
p4
sS'remote'
p5
g2
sS'description'
p6
S'Voice Call'
p7
sS'callid'
p8
L5412L
sS'oid'
p9
L232716L
sS'number'
p10
g2
sS'person_oid'
p11
L18L
sS'contact'
p12
L91L
sS'starttime'
p13
cdatetime
datetime
p14
(S'\x07\xd5\x02\x0b\x155\x06\x00\x00\x00'
p15
tp16
Rp17
sS'duration'
p18
L120L
sS'endtime'
p19
g14
(S'\x07\xd5\x02\x0b\x157\x06\x00\x00\x00'
p20
tp21
Rp22
sS'phonenumber_oid'
p23
L1147L
s.(dp0
S'status'
p1
S''
p2
sS'direction'
p3
S'Outgoing'
p4
sS'remote'
p5
g2
sS'description'
p6
S'Voice Call'
p7
sS'callid'
p8
L5412L
sS'oid'
p9
L232730L
sS'number'
p10
g2
sS'person_oid'
p11
L18L
sS'contact'
p12
L91L
sS'starttime'
p13
cdatetime
datetime
p14
(S'\x07\xd5\x02\x0b\x155\x06\x00\x00\x00'
p15
tp16
Rp17
sS'duration'
p18
L120L
sS'endtime'
p19
g14
(S'\x07\xd5\x02\x0b\x157\x06\x00\x00\x00'
p20
tp21
Rp22
sS'phonenumber_oid'
p23
L1147L
s.(dp0
S'status'
p1
S''
p2
sS'direction'
p3
S'Outgoing'
p4
sS'remote'
p5
g2
sS'description'
p6
S'Voice Call'
p7
sS'callid'
p8
L5412L
sS'oid'
p9
L232744L
sS'number'
p10
g2
sS'person_oid'
p11
L18L
sS'contact'
p12
L91L
sS'starttime'
p13
cdatetime
datetime
p14
(S'\x07\xd5\x02\x0b\x155\x06\x00\x00\x00'
p15
tp16
Rp17
sS'duration'
p18
L120L
sS'endtime'
p19
g14
(S'\x07\xd5\x02\x0b\x157\x06\x00\x00\x00'
p20
tp21
Rp22
sS'phonenumber_oid'
p23
L1147L
s.(dp0
S'status'
p1
S''
p2
sS'direction'
p3
S'Incoming'
p4
sS'remote'
p5
g2
sS'description'
p6
S'Voice Call'
p7
sS'callid'
p8
L5414L
sS'oid'
p9
L232697L
sS'number'
p10
g2
sS'person_oid'
p11
L18L
sS'contact'
p12
L91L
sS'starttime'
p13
cdatetime
datetime
p14
(S'\x07\xd5\x02\x0b\x16\x04&\x00\x00\x00'
p15
tp16
Rp17
sS'duration'
p18
L44L
sS'endtime'
p19
g14
(S'\x07\xd5\x02\x0b\x16\x05\x16\x00\x00\x00'
p20
tp21
Rp22
sS'phonenumber_oid'
p23
L1147L
s.(dp0
S'status'
p1
S''
p2
sS'direction'
p3
S'Incoming'
p4
sS'remote'
p5
g2
sS'description'
p6
S'Voice Call'
p7
sS'callid'
p8
L5414L
sS'oid'
p9
L232717L
sS'number'
p10
g2
sS'person_oid'
p11
L18L
sS'contact'
p12
L91L
sS'starttime'
p13
cdatetime
datetime
p14
(S'\x07\xd5\x02\x0b\x16\x04&\x00\x00\x00'
p15
tp16
Rp17
sS'duration'
p18
L44L
sS'endtime'
p19
g14
(S'\x07\xd5\x02\x0b\x16\x05\x16\x00\x00\x00'
p20
tp21
Rp22
sS'phonenumber_oid'
p23
L1147L
s.(dp0
S'status'
p1
S''
p2
sS'direction'
p3
S'Incoming'
p4
sS'remote'
p5
g2
sS'description'
p6
S'Voice Call'
p7
sS'callid'
p8
L5414L
sS'oid'
p9
L232731L
sS'number'
p10
g2
sS'person_oid'
p11
L18L
sS'contact'
p12
L91L
sS'starttime'
p13
cdatetime
datetime
p14
(S'\x07\xd5\x02\x0b\x16\x04&\x00\x00\x00'
p15
tp16
Rp17
sS'duration'
p18
L44L
sS'endtime'
p19
g14
(S'\x07\xd5\x02\x0b\x16\x05\x16\x00\x00\x00'
p20
tp21
Rp22
sS'phonenumber_oid'
p23
L1147L
s.(dp0
S'status'
p1
S''
p2
sS'direction'
p3
S'Incoming'
p4
sS'remote'
p5
g2
sS'description'
p6
S'Voice Call'
p7
sS'callid'
p8
L5414L
sS'oid'
p9
L232745L
sS'number'
p10
g2
sS'person_oid'
p11
L18L
sS'contact'
p12
L91L
sS'starttime'
p13
cdatetime
datetime
p14
(S'\x07\xd5\x02\x0b\x16\x04&\x00\x00\x00'
p15
tp16
Rp17
sS'duration'
p18
L44L
sS'endtime'
p19
g14
(S'\x07\xd5\x02\x0b\x16\x05\x16\x00\x00\x00'
p20
tp21
Rp22
sS'phonenumber_oid'
p23
L1147L
s.(dp0
S'status'
p1
S'Disconnected'
p2
sS'direction'
p3
S'Outgoing'
p4
sS'remote'
p5
S''
p6
sS'description'
p7
S'Packet Data'
p8
sS'callid'
p9
L5415L
sS'oid'
p10
L232718L
sS'number'
p11
g6
sS'person_oid'
p12
L18L
sS'contact'
p13
L-1L
sS'starttime'
p14
cdatetime
datetime
p15
(S'\x07\xd5\x02\x0c\x06 \x01\x00\x00\x00'
p16
tp17
Rp18
sS'duration'
p19
L69L
sS'endtime'
p20
g15
(S'\x07\xd5\x02\x0c\x06!\n\x00\x00\x00'
p21
tp22
Rp23
sS'phonenumber_oid'
p24
L3L
s.(dp0
S'status'
p1
S'Disconnected'
p2
sS'direction'
p3
S'Outgoing'
p4
sS'remote'
p5
S''
p6
sS'description'
p7
S'Packet Data'
p8
sS'callid'
p9
L5415L
sS'oid'
p10
L232732L
sS'number'
p11
g6
sS'person_oid'
p12
L18L
sS'contact'
p13
L-1L
sS'starttime'
p14
cdatetime
datetime
p15
(S'\x07\xd5\x02\x0c\x06 \x01\x00\x00\x00'
p16
tp17
Rp18
sS'duration'
p19
L69L
sS'endtime'
p20
g15
(S'\x07\xd5\x02\x0c\x06!\n\x00\x00\x00'
p21
tp22
Rp23
sS'phonenumber_oid'
p24
L3L
s.(dp0
S'status'
p1
S'Disconnected'
p2
sS'direction'
p3
S'Outgoing'
p4
sS'remote'
p5
S''
p6
sS'description'
p7
S'Packet Data'
p8
sS'callid'
p9
L5415L
sS'oid'
p10
L232746L
sS'number'
p11
g6
sS'person_oid'
p12
L18L
sS'contact'
p13
L-1L
sS'starttime'
p14
cdatetime
datetime
p15
(S'\x07\xd5\x02\x0c\x06 \x01\x00\x00\x00'
p16
tp17
Rp18
sS'duration'
p19
L69L
sS'endtime'
p20
g15
(S'\x07\xd5\x02\x0c\x06!\n\x00\x00\x00'
p21
tp22
Rp23
sS'phonenumber_oid'
p24
L3L
s.(dp0
S'status'
p1
S'Disconnected'
p2
sS'direction'
p3
S'Outgoing'
p4
sS'remote'
p5
S''
p6
sS'description'
p7
S'Packet Data'
p8
sS'callid'
p9
L5415L
sS'oid'
p10
L232766L
sS'number'
p11
g6
sS'person_oid'
p12
L18L
sS'contact'
p13
L-1L
sS'starttime'
p14
cdatetime
datetime
p15
(S'\x07\xd5\x02\x0c\x06 \x01\x00\x00\x00'
p16
tp17
Rp18
sS'duration'
p19
L69L
sS'endtime'
p20
g15
(S'\x07\xd5\x02\x0c\x06!\n\x00\x00\x00'
p21
tp22
Rp23
sS'phonenumber_oid'
p24
L3L
s.(dp0
S'status'
p1
S'Disconnected'
p2
sS'direction'
p3
S'Outgoing'
p4
sS'remote'
p5
S''
p6
sS'description'
p7
S'Packet Data'
p8
sS'callid'
p9
L5415L
sS'oid'
p10
L232787L
sS'number'
p11
g6
sS'person_oid'
p12
L18L
sS'contact'
p13
L-1L
sS'starttime'
p14
cdatetime
datetime
p15
(S'\x07\xd5\x02\x0c\x06 \x01\x00\x00\x00'
p16
tp17
Rp18
sS'duration'
p19
L69L
sS'endtime'
p20
g15
(S'\x07\xd5\x02\x0c\x06!\n\x00\x00\x00'
p21
tp22
Rp23
sS'phonenumber_oid'
p24
L3L
s.(dp0
S'status'
p1
S'Disconnected'
p2
sS'direction'
p3
S'Outgoing'
p4
sS'remote'
p5
S''
p6
sS'description'
p7
S'Packet Data'
p8
sS'callid'
p9
L5415L
sS'oid'
p10
L232809L
sS'number'
p11
g6
sS'person_oid'
p12
L18L
sS'contact'
p13
L-1L
sS'starttime'
p14
cdatetime
datetime
p15
(S'\x07\xd5\x02\x0c\x06 \x01\x00\x00\x00'
p16
tp17
Rp18
sS'duration'
p19
L69L
sS'endtime'
p20
g15
(S'\x07\xd5\x02\x0c\x06!\n\x00\x00\x00'
p21
tp22
Rp23
sS'phonenumber_oid'
p24
L3L
s.(dp0
S'status'
p1
S'Disconnected'
p2
sS'direction'
p3
S'Outgoing'
p4
sS'remote'
p5
S''
p6
sS'description'
p7
S'Packet Data'
p8
sS'callid'
p9
L5416L
sS'oid'
p10
L232733L
sS'number'
p11
g6
sS'person_oid'
p12
L18L
sS'contact'
p13
L-1L
sS'starttime'
p14
cdatetime
datetime
p15
(S'\x07\xd5\x02\x0c\x07!*\x00\x00\x00'
p16
tp17
Rp18
sS'duration'
p19
L46L
sS'endtime'
p20
g15
(S'\x07\xd5\x02\x0c\x07"\x1c\x00\x00\x00'
p21
tp22
Rp23
sS'phonenumber_oid'
p24
L3L
s.(dp0
S'status'
p1
S'Disconnected'
p2
sS'direction'
p3
S'Outgoing'
p4
sS'remote'
p5
S''
p6
sS'description'
p7
S'Packet Data'
p8
sS'callid'
p9
L5416L
sS'oid'
p10
L232747L
sS'number'
p11
g6
sS'person_oid'
p12
L18L
sS'contact'
p13
L-1L
sS'starttime'
p14
cdatetime
datetime
p15
(S'\x07\xd5\x02\x0c\x07!*\x00\x00\x00'
p16
tp17
Rp18
sS'duration'
p19
L46L
sS'endtime'
p20
g15
(S'\x07\xd5\x02\x0c\x07"\x1c\x00\x00\x00'
p21
tp22
Rp23
sS'phonenumber_oid'
p24
L3L
s.(dp0
S'status'
p1
S'Disconnected'
p2
sS'direction'
p3
S'Outgoing'
p4
sS'remote'
p5
S''
p6
sS'description'
p7
S'Packet Data'
p8
sS'callid'
p9
L5416L
sS'oid'
p10
L232767L
sS'number'
p11
g6
sS'person_oid'
p12
L18L
sS'contact'
p13
L-1L
sS'starttime'
p14
cdatetime
datetime
p15
(S'\x07\xd5\x02\x0c\x07!*\x00\x00\x00'
p16
tp17
Rp18
sS'duration'
p19
L46L
sS'endtime'
p20
g15
(S'\x07\xd5\x02\x0c\x07"\x1c\x00\x00\x00'
p21
tp22
Rp23
sS'phonenumber_oid'
p24
L3L
s.(dp0
S'status'
p1
S'Disconnected'
p2
sS'direction'
p3
S'Outgoing'
p4
sS'remote'
p5
S''
p6
sS'description'
p7
S'Packet Data'
p8
sS'callid'
p9
L5416L
sS'oid'
p10
L232788L
sS'number'
p11
g6
sS'person_oid'
p12
L18L
sS'contact'
p13
L-1L
sS'starttime'
p14
cdatetime
datetime
p15
(S'\x07\xd5\x02\x0c\x07!*\x00\x00\x00'
p16
tp17
Rp18
sS'duration'
p19
L46L
sS'endtime'
p20
g15
(S'\x07\xd5\x02\x0c\x07"\x1c\x00\x00\x00'
p21
tp22
Rp23
sS'phonenumber_oid'
p24
L3L
s.(dp0
S'status'
p1
S'Disconnected'
p2
sS'direction'
p3
S'Outgoing'
p4
sS'remote'
p5
S''
p6
sS'description'
p7
S'Packet Data'
p8
sS'callid'
p9
L5416L
sS'oid'
p10
L232810L
sS'number'
p11
g6
sS'person_oid'
p12
L18L
sS'contact'
p13
L-1L
sS'starttime'
p14
cdatetime
datetime
p15
(S'\x07\xd5\x02\x0c\x07!*\x00\x00\x00'
p16
tp17
Rp18
sS'duration'
p19
L46L
sS'endtime'
p20
g15
(S'\x07\xd5\x02\x0c\x07"\x1c\x00\x00\x00'
p21
tp22
Rp23
sS'phonenumber_oid'
p24
L3L
s.(dp0
S'status'
p1
S'Disconnected'
p2
sS'direction'
p3
S'Outgoing'
p4
sS'remote'
p5
S''
p6
sS'description'
p7
S'Packet Data'
p8
sS'callid'
p9
L5417L
sS'oid'
p10
L232748L
sS'number'
p11
g6
sS'person_oid'
p12
L18L
sS'contact'
p13
L-1L
sS'starttime'
p14
cdatetime
datetime
p15
(S'\x07\xd5\x02\x0c\x08#\x01\x00\x00\x00'
p16
tp17
Rp18
sS'duration'
p19
L82L
sS'endtime'
p20
g15
(S'\x07\xd5\x02\x0c\x08$\x17\x00\x00\x00'
p21
tp22
Rp23
sS'phonenumber_oid'
p24
L3L
s.(dp0
S'status'
p1
S'Disconnected'
p2
sS'direction'
p3
S'Outgoing'
p4
sS'remote'
p5
S''
p6
sS'description'
p7
S'Packet Data'
p8
sS'callid'
p9
L5417L
sS'oid'
p10
L232768L
sS'number'
p11
g6
sS'person_oid'
p12
L18L
sS'contact'
p13
L-1L
sS'starttime'
p14
cdatetime
datetime
p15
(S'\x07\xd5\x02\x0c\x08#\x01\x00\x00\x00'
p16
tp17
Rp18
sS'duration'
p19
L82L
sS'endtime'
p20
g15
(S'\x07\xd5\x02\x0c\x08$\x17\x00\x00\x00'
p21
tp22
Rp23
sS'phonenumber_oid'
p24
L3L
s.(dp0
S'status'
p1
S'Disconnected'
p2
sS'direction'
p3
S'Outgoing'
p4
sS'remote'
p5
S''
p6
sS'description'
p7
S'Packet Data'
p8
sS'callid'
p9
L5417L
sS'oid'
p10
L232789L
sS'number'
p11
g6
sS'person_oid'
p12
L18L
sS'contact'
p13
L-1L
sS'starttime'
p14
cdatetime
datetime
p15
(S'\x07\xd5\x02\x0c\x08#\x01\x00\x00\x00'
p16
tp17
Rp18
sS'duration'
p19
L82L
sS'endtime'
p20
g15
(S'\x07\xd5\x02\x0c\x08$\x17\x00\x00\x00'
p21
tp22
Rp23
sS'phonenumber_oid'
p24
L3L
s.(dp0
S'status'
p1
S'Disconnected'
p2
sS'direction'
p3
S'Outgoing'
p4
sS'remote'
p5
S''
p6
sS'description'
p7
S'Packet Data'
p8
sS'callid'
p9
L5417L
sS'oid'
p10
L232811L
sS'number'
p11
g6
sS'person_oid'
p12
L18L
sS'contact'
p13
L-1L
sS'starttime'
p14
cdatetime
datetime
p15
(S'\x07\xd5\x02\x0c\x08#\x01\x00\x00\x00'
p16
tp17
Rp18
sS'duration'
p19
L82L
sS'endtime'
p20
g15
(S'\x07\xd5\x02\x0c\x08$\x17\x00\x00\x00'
p21
tp22
Rp23
sS'phonenumber_oid'
p24
L3L
s.(dp0
S'status'
p1
S''
p2
sS'direction'
p3
S'Incoming'
p4
sS'remote'
p5
g2
sS'description'
p6
S'Voice Call'
p7
sS'callid'
p8
L5419L
sS'oid'
p9
L232749L
sS'number'
p10
g2
sS'person_oid'
p11
L18L
sS'contact'
p12
L-1L
sS'starttime'
p13
cdatetime
datetime
p14
(S'\x07\xd5\x02\x0c\x0e\x10#\x00\x00\x00'
p15
tp16
Rp17
sS'duration'
p18
L0L
sS'endtime'
p19
g14
(S'\x07\xd5\x02\x0c\x0e\x10#\x00\x00\x00'
p20
tp21
Rp22
sS'phonenumber_oid'
p23
L3L
s.(dp0
S'status'
p1
S''
p2
sS'direction'
p3
S'Incoming'
p4
sS'remote'
p5
g2
sS'description'
p6
S'Voice Call'
p7
sS'callid'
p8
L5419L
sS'oid'
p9
L232769L
sS'number'
p10
g2
sS'person_oid'
p11
L18L
sS'contact'
p12
L-1L
sS'starttime'
p13
cdatetime
datetime
p14
(S'\x07\xd5\x02\x0c\x0e\x10#\x00\x00\x00'
p15
tp16
Rp17
sS'duration'
p18
L0L
sS'endtime'
p19
g14
(S'\x07\xd5\x02\x0c\x0e\x10#\x00\x00\x00'
p20
tp21
Rp22
sS'phonenumber_oid'
p23
L3L
s.(dp0
S'status'
p1
S''
p2
sS'direction'
p3
S'Incoming'
p4
sS'remote'
p5
g2
sS'description'
p6
S'Voice Call'
p7
sS'callid'
p8
L5419L
sS'oid'
p9
L232790L
sS'number'
p10
g2
sS'person_oid'
p11
L18L
sS'contact'
p12
L-1L
sS'starttime'
p13
cdatetime
datetime
p14
(S'\x07\xd5\x02\x0c\x0e\x10#\x00\x00\x00'
p15
tp16
Rp17
sS'duration'
p18
L0L
sS'endtime'
p19
g14
(S'\x07\xd5\x02\x0c\x0e\x10#\x00\x00\x00'
p20
tp21
Rp22
sS'phonenumber_oid'
p23
L3L
s.(dp0
S'status'
p1
S''
p2
sS'direction'
p3
S'Incoming'
p4
sS'remote'
p5
g2
sS'description'
p6
S'Voice Call'
p7
sS'callid'
p8
L5419L
sS'oid'
p9
L232812L
sS'number'
p10
g2
sS'person_oid'
p11
L18L
sS'contact'
p12
L-1L
sS'starttime'
p13
cdatetime
datetime
p14
(S'\x07\xd5\x02\x0c\x0e\x10#\x00\x00\x00'
p15
tp16
Rp17
sS'duration'
p18
L0L
sS'endtime'
p19
g14
(S'\x07\xd5\x02\x0c\x0e\x10#\x00\x00\x00'
p20
tp21
Rp22
sS'phonenumber_oid'
p23
L3L
s.(dp0
S'status'
p1
S''
p2
sS'direction'
p3
S'Incoming'
p4
sS'remote'
p5
g2
sS'description'
p6
S'Voice Call'
p7
sS'callid'
p8
L5421L
sS'oid'
p9
L232750L
sS'number'
p10
g2
sS'person_oid'
p11
L18L
sS'contact'
p12
L-1L
sS'starttime'
p13
cdatetime
datetime
p14
(S'\x07\xd5\x02\x0c\x0e\x13\x1e\x00\x00\x00'
p15
tp16
Rp17
sS'duration'
p18
L14L
sS'endtime'
p19
g14
(S'\x07\xd5\x02\x0c\x0e\x13,\x00\x00\x00'
p20
tp21
Rp22
sS'phonenumber_oid'
p23
L3L
s.(dp0
S'status'
p1
S''
p2
sS'direction'
p3
S'Incoming'
p4
sS'remote'
p5
g2
sS'description'
p6
S'Voice Call'
p7
sS'callid'
p8
L5421L
sS'oid'
p9
L232770L
sS'number'
p10
g2
sS'person_oid'
p11
L18L
sS'contact'
p12
L-1L
sS'starttime'
p13
cdatetime
datetime
p14
(S'\x07\xd5\x02\x0c\x0e\x13\x1e\x00\x00\x00'
p15
tp16
Rp17
sS'duration'
p18
L14L
sS'endtime'
p19
g14
(S'\x07\xd5\x02\x0c\x0e\x13,\x00\x00\x00'
p20
tp21
Rp22
sS'phonenumber_oid'
p23
L3L
s.(dp0
S'status'
p1
S''
p2
sS'direction'
p3
S'Incoming'
p4
sS'remote'
p5
g2
sS'description'
p6
S'Voice Call'
p7
sS'callid'
p8
L5421L
sS'oid'
p9
L232791L
sS'number'
p10
g2
sS'person_oid'
p11
L18L
sS'contact'
p12
L-1L
sS'starttime'
p13
cdatetime
datetime
p14
(S'\x07\xd5\x02\x0c\x0e\x13\x1e\x00\x00\x00'
p15
tp16
Rp17
sS'duration'
p18
L14L
sS'endtime'
p19
g14
(S'\x07\xd5\x02\x0c\x0e\x13,\x00\x00\x00'
p20
tp21
Rp22
sS'phonenumber_oid'
p23
L3L
s.(dp0
S'status'
p1
S''
p2
sS'direction'
p3
S'Incoming'
p4
sS'remote'
p5
g2
sS'description'
p6
S'Voice Call'
p7
sS'callid'
p8
L5421L
sS'oid'
p9
L232813L
sS'number'
p10
g2
sS'person_oid'
p11
L18L
sS'contact'
p12
L-1L
sS'starttime'
p13
cdatetime
datetime
p14
(S'\x07\xd5\x02\x0c\x0e\x13\x1e\x00\x00\x00'
p15
tp16
Rp17
sS'duration'
p18
L14L
sS'endtime'
p19
g14
(S'\x07\xd5\x02\x0c\x0e\x13,\x00\x00\x00'
p20
tp21
Rp22
sS'phonenumber_oid'
p23
L3L
s.(dp0
S'status'
p1
S''
p2
sS'direction'
p3
S'Outgoing'
p4
sS'remote'
p5
g2
sS'description'
p6
S'Voice Call'
p7
sS'callid'
p8
L5422L
sS'oid'
p9
L232751L
sS'number'
p10
g2
sS'person_oid'
p11
L18L
sS'contact'
p12
L22L
sS'starttime'
p13
cdatetime
datetime
p14
(S'\x07\xd5\x02\x0c\x0e\x185\x00\x00\x00'
p15
tp16
Rp17
sS'duration'
p18
L32L
sS'endtime'
p19
g14
(S'\x07\xd5\x02\x0c\x0e\x19\x19\x00\x00\x00'
p20
tp21
Rp22
sS'phonenumber_oid'
p23
L1091L
s.(dp0
S'status'
p1
S''
p2
sS'direction'
p3
S'Outgoing'
p4
sS'remote'
p5
g2
sS'description'
p6
S'Voice Call'
p7
sS'callid'
p8
L5422L
sS'oid'
p9
L232771L
sS'number'
p10
g2
sS'person_oid'
p11
L18L
sS'contact'
p12
L22L
sS'starttime'
p13
cdatetime
datetime
p14
(S'\x07\xd5\x02\x0c\x0e\x185\x00\x00\x00'
p15
tp16
Rp17
sS'duration'
p18
L32L
sS'endtime'
p19
g14
(S'\x07\xd5\x02\x0c\x0e\x19\x19\x00\x00\x00'
p20
tp21
Rp22
sS'phonenumber_oid'
p23
L1091L
s.(dp0
S'status'
p1
S''
p2
sS'direction'
p3
S'Outgoing'
p4
sS'remote'
p5
g2
sS'description'
p6
S'Voice Call'
p7
sS'callid'
p8
L5422L
sS'oid'
p9
L232792L
sS'number'
p10
g2
sS'person_oid'
p11
L18L
sS'contact'
p12
L22L
sS'starttime'
p13
cdatetime
datetime
p14
(S'\x07\xd5\x02\x0c\x0e\x185\x00\x00\x00'
p15
tp16
Rp17
sS'duration'
p18
L32L
sS'endtime'
p19
g14
(S'\x07\xd5\x02\x0c\x0e\x19\x19\x00\x00\x00'
p20
tp21
Rp22
sS'phonenumber_oid'
p23
L1091L
s.(dp0
S'status'
p1
S''
p2
sS'direction'
p3
S'Outgoing'
p4
sS'remote'
p5
g2
sS'description'
p6
S'Voice Call'
p7
sS'callid'
p8
L5422L
sS'oid'
p9
L232814L
sS'number'
p10
g2
sS'person_oid'
p11
L18L
sS'contact'
p12
L22L
sS'starttime'
p13
cdatetime
datetime
p14
(S'\x07\xd5\x02\x0c\x0e\x185\x00\x00\x00'
p15
tp16
Rp17
sS'duration'
p18
L32L
sS'endtime'
p19
g14
(S'\x07\xd5\x02\x0c\x0e\x19\x19\x00\x00\x00'
p20
tp21
Rp22
sS'phonenumber_oid'
p23
L1091L
s.(dp0
S'status'
p1
S''
p2
sS'direction'
p3
S'Outgoing'
p4
sS'remote'
p5
g2
sS'description'
p6
S'Voice Call'
p7
sS'callid'
p8
L5423L
sS'oid'
p9
L232752L
sS'number'
p10
g2
sS'person_oid'
p11
L18L
sS'contact'
p12
L134L
sS'starttime'
p13
cdatetime
datetime
p14
(S'\x07\xd5\x02\x0c\x10\x17\x14\x00\x00\x00'
p15
tp16
Rp17
sS'duration'
p18
L0L
sS'endtime'
p19
g14
(S'\x07\xd5\x02\x0c\x10\x17\x14\x00\x00\x00'
p20
tp21
Rp22
sS'phonenumber_oid'
p23
L1144L
s.(dp0
S'status'
p1
S''
p2
sS'direction'
p3
S'Outgoing'
p4
sS'remote'
p5
g2
sS'description'
p6
S'Voice Call'
p7
sS'callid'
p8
L5423L
sS'oid'
p9
L232772L
sS'number'
p10
g2
sS'person_oid'
p11
L18L
sS'contact'
p12
L134L
sS'starttime'
p13
cdatetime
datetime
p14
(S'\x07\xd5\x02\x0c\x10\x17\x14\x00\x00\x00'
p15
tp16
Rp17
sS'duration'
p18
L0L
sS'endtime'
p19
g14
(S'\x07\xd5\x02\x0c\x10\x17\x14\x00\x00\x00'
p20
tp21
Rp22
sS'phonenumber_oid'
p23
L1144L
s.(dp0
S'status'
p1
S''
p2
sS'direction'
p3
S'Outgoing'
p4
sS'remote'
p5
g2
sS'description'
p6
S'Voice Call'
p7
sS'callid'
p8
L5423L
sS'oid'
p9
L232793L
sS'number'
p10
g2
sS'person_oid'
p11
L18L
sS'contact'
p12
L134L
sS'starttime'
p13
cdatetime
datetime
p14
(S'\x07\xd5\x02\x0c\x10\x17\x14\x00\x00\x00'
p15
tp16
Rp17
sS'duration'
p18
L0L
sS'endtime'
p19
g14
(S'\x07\xd5\x02\x0c\x10\x17\x14\x00\x00\x00'
p20
tp21
Rp22
sS'phonenumber_oid'
p23
L1144L
s.(dp0
S'status'
p1
S''
p2
sS'direction'
p3
S'Outgoing'
p4
sS'remote'
p5
g2
sS'description'
p6
S'Voice Call'
p7
sS'callid'
p8
L5423L
sS'oid'
p9
L232815L
sS'number'
p10
g2
sS'person_oid'
p11
L18L
sS'contact'
p12
L134L
sS'starttime'
p13
cdatetime
datetime
p14
(S'\x07\xd5\x02\x0c\x10\x17\x14\x00\x00\x00'
p15
tp16
Rp17
sS'duration'
p18
L0L
sS'endtime'
p19
g14
(S'\x07\xd5\x02\x0c\x10\x17\x14\x00\x00\x00'
p20
tp21
Rp22
sS'phonenumber_oid'
p23
L1144L
s.(dp0
S'status'
p1
S''
p2
sS'direction'
p3
S'Incoming'
p4
sS'remote'
p5
g2
sS'description'
p6
S'Voice Call'
p7
sS'callid'
p8
L5426L
sS'oid'
p9
L232753L
sS'number'
p10
g2
sS'person_oid'
p11
L18L
sS'contact'
p12
L134L
sS'starttime'
p13
cdatetime
datetime
p14
(S'\x07\xd5\x02\x0c\x11\x17;\x00\x00\x00'
p15
tp16
Rp17
sS'duration'
p18
L14L
sS'endtime'
p19
g14
(S'\x07\xd5\x02\x0c\x11\x18\r\x00\x00\x00'
p20
tp21
Rp22
sS'phonenumber_oid'
p23
L1144L
s.(dp0
S'status'
p1
S''
p2
sS'direction'
p3
S'Incoming'
p4
sS'remote'
p5
g2
sS'description'
p6
S'Voice Call'
p7
sS'callid'
p8
L5426L
sS'oid'
p9
L232773L
sS'number'
p10
g2
sS'person_oid'
p11
L18L
sS'contact'
p12
L134L
sS'starttime'
p13
cdatetime
datetime
p14
(S'\x07\xd5\x02\x0c\x11\x17;\x00\x00\x00'
p15
tp16
Rp17
sS'duration'
p18
L14L
sS'endtime'
p19
g14
(S'\x07\xd5\x02\x0c\x11\x18\r\x00\x00\x00'
p20
tp21
Rp22
sS'phonenumber_oid'
p23
L1144L
s.(dp0
S'status'
p1
S''
p2
sS'direction'
p3
S'Incoming'
p4
sS'remote'
p5
g2
sS'description'
p6
S'Voice Call'
p7
sS'callid'
p8
L5426L
sS'oid'
p9
L232794L
sS'number'
p10
g2
sS'person_oid'
p11
L18L
sS'contact'
p12
L134L
sS'starttime'
p13
cdatetime
datetime
p14
(S'\x07\xd5\x02\x0c\x11\x17;\x00\x00\x00'
p15
tp16
Rp17
sS'duration'
p18
L14L
sS'endtime'
p19
g14
(S'\x07\xd5\x02\x0c\x11\x18\r\x00\x00\x00'
p20
tp21
Rp22
sS'phonenumber_oid'
p23
L1144L
s.(dp0
S'status'
p1
S''
p2
sS'direction'
p3
S'Incoming'
p4
sS'remote'
p5
g2
sS'description'
p6
S'Voice Call'
p7
sS'callid'
p8
L5426L
sS'oid'
p9
L232816L
sS'number'
p10
g2
sS'person_oid'
p11
L18L
sS'contact'
p12
L134L
sS'starttime'
p13
cdatetime
datetime
p14
(S'\x07\xd5\x02\x0c\x11\x17;\x00\x00\x00'
p15
tp16
Rp17
sS'duration'
p18
L14L
sS'endtime'
p19
g14
(S'\x07\xd5\x02\x0c\x11\x18\r\x00\x00\x00'
p20
tp21
Rp22
sS'phonenumber_oid'
p23
L1144L
s.(dp0
S'status'
p1
S''
p2
sS'direction'
p3
S'Missed Call'
p4
sS'remote'
p5
g2
sS'description'
p6
S'Voice Call'
p7
sS'callid'
p8
L5427L
sS'oid'
p9
L232754L
sS'number'
p10
g2
sS'person_oid'
p11
L18L
sS'contact'
p12
L95L
sS'starttime'
p13
cdatetime
datetime
p14
(S'\x07\xd5\x02\x0c\x13%4\x00\x00\x00'
p15
tp16
Rp17
sS'duration'
p18
L0L
sS'endtime'
p19
g14
(S'\x07\xd5\x02\x0c\x13%4\x00\x00\x00'
p20
tp21
Rp22
sS'phonenumber_oid'
p23
L1132L
s.(dp0
S'status'
p1
S''
p2
sS'direction'
p3
S'Missed Call'
p4
sS'remote'
p5
g2
sS'description'
p6
S'Voice Call'
p7
sS'callid'
p8
L5427L
sS'oid'
p9
L232774L
sS'number'
p10
g2
sS'person_oid'
p11
L18L
sS'contact'
p12
L95L
sS'starttime'
p13
cdatetime
datetime
p14
(S'\x07\xd5\x02\x0c\x13%4\x00\x00\x00'
p15
tp16
Rp17
sS'duration'
p18
L0L
sS'endtime'
p19
g14
(S'\x07\xd5\x02\x0c\x13%4\x00\x00\x00'
p20
tp21
Rp22
sS'phonenumber_oid'
p23
L1132L
s.(dp0
S'status'
p1
S''
p2
sS'direction'
p3
S'Missed Call'
p4
sS'remote'
p5
g2
sS'description'
p6
S'Voice Call'
p7
sS'callid'
p8
L5427L
sS'oid'
p9
L232795L
sS'number'
p10
g2
sS'person_oid'
p11
L18L
sS'contact'
p12
L95L
sS'starttime'
p13
cdatetime
datetime
p14
(S'\x07\xd5\x02\x0c\x13%4\x00\x00\x00'
p15
tp16
Rp17
sS'duration'
p18
L0L
sS'endtime'
p19
g14
(S'\x07\xd5\x02\x0c\x13%4\x00\x00\x00'
p20
tp21
Rp22
sS'phonenumber_oid'
p23
L1132L
s.(dp0
S'status'
p1
S''
p2
sS'direction'
p3
S'Missed Call'
p4
sS'remote'
p5
g2
sS'description'
p6
S'Voice Call'
p7
sS'callid'
p8
L5427L
sS'oid'
p9
L232817L
sS'number'
p10
g2
sS'person_oid'
p11
L18L
sS'contact'
p12
L95L
sS'starttime'
p13
cdatetime
datetime
p14
(S'\x07\xd5\x02\x0c\x13%4\x00\x00\x00'
p15
tp16
Rp17
sS'duration'
p18
L0L
sS'endtime'
p19
g14
(S'\x07\xd5\x02\x0c\x13%4\x00\x00\x00'
p20
tp21
Rp22
sS'phonenumber_oid'
p23
L1132L
s.(dp0
S'status'
p1
S''
p2
sS'direction'
p3
S'Missed Call'
p4
sS'remote'
p5
g2
sS'description'
p6
S'Voice Call'
p7
sS'callid'
p8
L5428L
sS'oid'
p9
L232755L
sS'number'
p10
g2
sS'person_oid'
p11
L18L
sS'contact'
p12
L95L
sS'starttime'
p13
cdatetime
datetime
p14
(S'\x07\xd5\x02\x0c\x14&\x1a\x00\x00\x00'
p15
tp16
Rp17
sS'duration'
p18
L0L
sS'endtime'
p19
g14
(S'\x07\xd5\x02\x0c\x14&\x1a\x00\x00\x00'
p20
tp21
Rp22
sS'phonenumber_oid'
p23
L1132L
s.(dp0
S'status'
p1
S''
p2
sS'direction'
p3
S'Missed Call'
p4
sS'remote'
p5
g2
sS'description'
p6
S'Voice Call'
p7
sS'callid'
p8
L5428L
sS'oid'
p9
L232775L
sS'number'
p10
g2
sS'person_oid'
p11
L18L
sS'contact'
p12
L95L
sS'starttime'
p13
cdatetime
datetime
p14
(S'\x07\xd5\x02\x0c\x14&\x1a\x00\x00\x00'
p15
tp16
Rp17
sS'duration'
p18
L0L
sS'endtime'
p19
g14
(S'\x07\xd5\x02\x0c\x14&\x1a\x00\x00\x00'
p20
tp21
Rp22
sS'phonenumber_oid'
p23
L1132L
s.(dp0
S'status'
p1
S''
p2
sS'direction'
p3
S'Missed Call'
p4
sS'remote'
p5
g2
sS'description'
p6
S'Voice Call'
p7
sS'callid'
p8
L5428L
sS'oid'
p9
L232796L
sS'number'
p10
g2
sS'person_oid'
p11
L18L
sS'contact'
p12
L95L
sS'starttime'
p13
cdatetime
datetime
p14
(S'\x07\xd5\x02\x0c\x14&\x1a\x00\x00\x00'
p15
tp16
Rp17
sS'duration'
p18
L0L
sS'endtime'
p19
g14
(S'\x07\xd5\x02\x0c\x14&\x1a\x00\x00\x00'
p20
tp21
Rp22
sS'phonenumber_oid'
p23
L1132L
s.(dp0
S'status'
p1
S''
p2
sS'direction'
p3
S'Missed Call'
p4
sS'remote'
p5
g2
sS'description'
p6
S'Voice Call'
p7
sS'callid'
p8
L5428L
sS'oid'
p9
L232818L
sS'number'
p10
g2
sS'person_oid'
p11
L18L
sS'contact'
p12
L95L
sS'starttime'
p13
cdatetime
datetime
p14
(S'\x07\xd5\x02\x0c\x14&\x1a\x00\x00\x00'
p15
tp16
Rp17
sS'duration'
p18
L0L
sS'endtime'
p19
g14
(S'\x07\xd5\x02\x0c\x14&\x1a\x00\x00\x00'
p20
tp21
Rp22
sS'phonenumber_oid'
p23
L1132L
s.(dp0
S'status'
p1
S''
p2
sS'direction'
p3
S'Missed Call'
p4
sS'remote'
p5
g2
sS'description'
p6
S'Voice Call'
p7
sS'callid'
p8
L5429L
sS'oid'
p9
L232756L
sS'number'
p10
g2
sS'person_oid'
p11
L18L
sS'contact'
p12
L95L
sS'starttime'
p13
cdatetime
datetime
p14
(S'\x07\xd5\x02\x0c\x15/\x0f\x00\x00\x00'
p15
tp16
Rp17
sS'duration'
p18
L0L
sS'endtime'
p19
g14
(S'\x07\xd5\x02\x0c\x15/\x0f\x00\x00\x00'
p20
tp21
Rp22
sS'phonenumber_oid'
p23
L1132L
s.(dp0
S'status'
p1
S''
p2
sS'direction'
p3
S'Missed Call'
p4
sS'remote'
p5
g2
sS'description'
p6
S'Voice Call'
p7
sS'callid'
p8
L5429L
sS'oid'
p9
L232776L
sS'number'
p10
g2
sS'person_oid'
p11
L18L
sS'contact'
p12
L95L
sS'starttime'
p13
cdatetime
datetime
p14
(S'\x07\xd5\x02\x0c\x15/\x0f\x00\x00\x00'
p15
tp16
Rp17
sS'duration'
p18
L0L
sS'endtime'
p19
g14
(S'\x07\xd5\x02\x0c\x15/\x0f\x00\x00\x00'
p20
tp21
Rp22
sS'phonenumber_oid'
p23
L1132L
s.(dp0
S'status'
p1
S''
p2
sS'direction'
p3
S'Missed Call'
p4
sS'remote'
p5
g2
sS'description'
p6
S'Voice Call'
p7
sS'callid'
p8
L5429L
sS'oid'
p9
L232797L
sS'number'
p10
g2
sS'person_oid'
p11
L18L
sS'contact'
p12
L95L
sS'starttime'
p13
cdatetime
datetime
p14
(S'\x07\xd5\x02\x0c\x15/\x0f\x00\x00\x00'
p15
tp16
Rp17
sS'duration'
p18
L0L
sS'endtime'
p19
g14
(S'\x07\xd5\x02\x0c\x15/\x0f\x00\x00\x00'
p20
tp21
Rp22
sS'phonenumber_oid'
p23
L1132L
s.(dp0
S'status'
p1
S''
p2
sS'direction'
p3
S'Missed Call'
p4
sS'remote'
p5
g2
sS'description'
p6
S'Voice Call'
p7
sS'callid'
p8
L5429L
sS'oid'
p9
L232819L
sS'number'
p10
g2
sS'person_oid'
p11
L18L
sS'contact'
p12
L95L
sS'starttime'
p13
cdatetime
datetime
p14
(S'\x07\xd5\x02\x0c\x15/\x0f\x00\x00\x00'
p15
tp16
Rp17
sS'duration'
p18
L0L
sS'endtime'
p19
g14
(S'\x07\xd5\x02\x0c\x15/\x0f\x00\x00\x00'
p20
tp21
Rp22
sS'phonenumber_oid'
p23
L1132L
s.(dp0
S'status'
p1
S''
p2
sS'direction'
p3
S'Missed Call'
p4
sS'remote'
p5
g2
sS'description'
p6
S'Voice Call'
p7
sS'callid'
p8
L5430L
sS'oid'
p9
L232757L
sS'number'
p10
g2
sS'person_oid'
p11
L18L
sS'contact'
p12
L95L
sS'starttime'
p13
cdatetime
datetime
p14
(S'\x07\xd5\x02\x0c\x16#4\x00\x00\x00'
p15
tp16
Rp17
sS'duration'
p18
L0L
sS'endtime'
p19
g14
(S'\x07\xd5\x02\x0c\x16#4\x00\x00\x00'
p20
tp21
Rp22
sS'phonenumber_oid'
p23
L1132L
s.(dp0
S'status'
p1
S''
p2
sS'direction'
p3
S'Missed Call'
p4
sS'remote'
p5
g2
sS'description'
p6
S'Voice Call'
p7
sS'callid'
p8
L5430L
sS'oid'
p9
L232777L
sS'number'
p10
g2
sS'person_oid'
p11
L18L
sS'contact'
p12
L95L
sS'starttime'
p13
cdatetime
datetime
p14
(S'\x07\xd5\x02\x0c\x16#4\x00\x00\x00'
p15
tp16
Rp17
sS'duration'
p18
L0L
sS'endtime'
p19
g14
(S'\x07\xd5\x02\x0c\x16#4\x00\x00\x00'
p20
tp21
Rp22
sS'phonenumber_oid'
p23
L1132L
s.(dp0
S'status'
p1
S''
p2
sS'direction'
p3
S'Missed Call'
p4
sS'remote'
p5
g2
sS'description'
p6
S'Voice Call'
p7
sS'callid'
p8
L5430L
sS'oid'
p9
L232798L
sS'number'
p10
g2
sS'person_oid'
p11
L18L
sS'contact'
p12
L95L
sS'starttime'
p13
cdatetime
datetime
p14
(S'\x07\xd5\x02\x0c\x16#4\x00\x00\x00'
p15
tp16
Rp17
sS'duration'
p18
L0L
sS'endtime'
p19
g14
(S'\x07\xd5\x02\x0c\x16#4\x00\x00\x00'
p20
tp21
Rp22
sS'phonenumber_oid'
p23
L1132L
s.(dp0
S'status'
p1
S''
p2
sS'direction'
p3
S'Missed Call'
p4
sS'remote'
p5
g2
sS'description'
p6
S'Voice Call'
p7
sS'callid'
p8
L5430L
sS'oid'
p9
L232820L
sS'number'
p10
g2
sS'person_oid'
p11
L18L
sS'contact'
p12
L95L
sS'starttime'
p13
cdatetime
datetime
p14
(S'\x07\xd5\x02\x0c\x16#4\x00\x00\x00'
p15
tp16
Rp17
sS'duration'
p18
L0L
sS'endtime'
p19
g14
(S'\x07\xd5\x02\x0c\x16#4\x00\x00\x00'
p20
tp21
Rp22
sS'phonenumber_oid'
p23
L1132L
s.(dp0
S'status'
p1
S''
p2
sS'direction'
p3
S'Missed Call'
p4
sS'remote'
p5
g2
sS'description'
p6
S'Voice Call'
p7
sS'callid'
p8
L5431L
sS'oid'
p9
L232758L
sS'number'
p10
g2
sS'person_oid'
p11
L18L
sS'contact'
p12
L95L
sS'starttime'
p13
cdatetime
datetime
p14
(S'\x07\xd5\x02\x0c\x164\x08\x00\x00\x00'
p15
tp16
Rp17
sS'duration'
p18
L0L
sS'endtime'
p19
g14
(S'\x07\xd5\x02\x0c\x164\x08\x00\x00\x00'
p20
tp21
Rp22
sS'phonenumber_oid'
p23
L1132L
s.(dp0
S'status'
p1
S''
p2
sS'direction'
p3
S'Missed Call'
p4
sS'remote'
p5
g2
sS'description'
p6
S'Voice Call'
p7
sS'callid'
p8
L5431L
sS'oid'
p9
L232778L
sS'number'
p10
g2
sS'person_oid'
p11
L18L
sS'contact'
p12
L95L
sS'starttime'
p13
cdatetime
datetime
p14
(S'\x07\xd5\x02\x0c\x164\x08\x00\x00\x00'
p15
tp16
Rp17
sS'duration'
p18
L0L
sS'endtime'
p19
g14
(S'\x07\xd5\x02\x0c\x164\x08\x00\x00\x00'
p20
tp21
Rp22
sS'phonenumber_oid'
p23
L1132L
s.(dp0
S'status'
p1
S''
p2
sS'direction'
p3
S'Missed Call'
p4
sS'remote'
p5
g2
sS'description'
p6
S'Voice Call'
p7
sS'callid'
p8
L5431L
sS'oid'
p9
L232799L
sS'number'
p10
g2
sS'person_oid'
p11
L18L
sS'contact'
p12
L95L
sS'starttime'
p13
cdatetime
datetime
p14
(S'\x07\xd5\x02\x0c\x164\x08\x00\x00\x00'
p15
tp16
Rp17
sS'duration'
p18
L0L
sS'endtime'
p19
g14
(S'\x07\xd5\x02\x0c\x164\x08\x00\x00\x00'
p20
tp21
Rp22
sS'phonenumber_oid'
p23
L1132L
s.(dp0
S'status'
p1
S''
p2
sS'direction'
p3
S'Missed Call'
p4
sS'remote'
p5
g2
sS'description'
p6
S'Voice Call'
p7
sS'callid'
p8
L5431L
sS'oid'
p9
L232821L
sS'number'
p10
g2
sS'person_oid'
p11
L18L
sS'contact'
p12
L95L
sS'starttime'
p13
cdatetime
datetime
p14
(S'\x07\xd5\x02\x0c\x164\x08\x00\x00\x00'
p15
tp16
Rp17
sS'duration'
p18
L0L
sS'endtime'
p19
g14
(S'\x07\xd5\x02\x0c\x164\x08\x00\x00\x00'
p20
tp21
Rp22
sS'phonenumber_oid'
p23
L1132L
s.(dp0
S'status'
p1
S''
p2
sS'direction'
p3
S'Missed Call'
p4
sS'remote'
p5
g2
sS'description'
p6
S'Voice Call'
p7
sS'callid'
p8
L5433L
sS'oid'
p9
L232759L
sS'number'
p10
g2
sS'person_oid'
p11
L18L
sS'contact'
p12
L95L
sS'starttime'
p13
cdatetime
datetime
p14
(S'\x07\xd5\x02\x0c\x17\x17\x0e\x00\x00\x00'
p15
tp16
Rp17
sS'duration'
p18
L0L
sS'endtime'
p19
g14
(S'\x07\xd5\x02\x0c\x17\x17\x0e\x00\x00\x00'
p20
tp21
Rp22
sS'phonenumber_oid'
p23
L1132L
s.(dp0
S'status'
p1
S''
p2
sS'direction'
p3
S'Missed Call'
p4
sS'remote'
p5
g2
sS'description'
p6
S'Voice Call'
p7
sS'callid'
p8
L5433L
sS'oid'
p9
L232779L
sS'number'
p10
g2
sS'person_oid'
p11
L18L
sS'contact'
p12
L95L
sS'starttime'
p13
cdatetime
datetime
p14
(S'\x07\xd5\x02\x0c\x17\x17\x0e\x00\x00\x00'
p15
tp16
Rp17
sS'duration'
p18
L0L
sS'endtime'
p19
g14
(S'\x07\xd5\x02\x0c\x17\x17\x0e\x00\x00\x00'
p20
tp21
Rp22
sS'phonenumber_oid'
p23
L1132L
s.(dp0
S'status'
p1
S''
p2
sS'direction'
p3
S'Missed Call'
p4
sS'remote'
p5
g2
sS'description'
p6
S'Voice Call'
p7
sS'callid'
p8
L5433L
sS'oid'
p9
L232800L
sS'number'
p10
g2
sS'person_oid'
p11
L18L
sS'contact'
p12
L95L
sS'starttime'
p13
cdatetime
datetime
p14
(S'\x07\xd5\x02\x0c\x17\x17\x0e\x00\x00\x00'
p15
tp16
Rp17
sS'duration'
p18
L0L
sS'endtime'
p19
g14
(S'\x07\xd5\x02\x0c\x17\x17\x0e\x00\x00\x00'
p20
tp21
Rp22
sS'phonenumber_oid'
p23
L1132L
s.(dp0
S'status'
p1
S''
p2
sS'direction'
p3
S'Missed Call'
p4
sS'remote'
p5
g2
sS'description'
p6
S'Voice Call'
p7
sS'callid'
p8
L5433L
sS'oid'
p9
L232822L
sS'number'
p10
g2
sS'person_oid'
p11
L18L
sS'contact'
p12
L95L
sS'starttime'
p13
cdatetime
datetime
p14
(S'\x07\xd5\x02\x0c\x17\x17\x0e\x00\x00\x00'
p15
tp16
Rp17
sS'duration'
p18
L0L
sS'endtime'
p19
g14
(S'\x07\xd5\x02\x0c\x17\x17\x0e\x00\x00\x00'
p20
tp21
Rp22
sS'phonenumber_oid'
p23
L1132L
s.(dp0
S'status'
p1
S''
p2
sS'direction'
p3
S'Missed Call'
p4
sS'remote'
p5
g2
sS'description'
p6
S'Voice Call'
p7
sS'callid'
p8
L5435L
sS'oid'
p9
L232760L
sS'number'
p10
g2
sS'person_oid'
p11
L18L
sS'contact'
p12
L134L
sS'starttime'
p13
cdatetime
datetime
p14
(S'\x07\xd5\x02\x0c\x17)\x14\x00\x00\x00'
p15
tp16
Rp17
sS'duration'
p18
L0L
sS'endtime'
p19
g14
(S'\x07\xd5\x02\x0c\x17)\x14\x00\x00\x00'
p20
tp21
Rp22
sS'phonenumber_oid'
p23
L1144L
s.(dp0
S'status'
p1
S''
p2
sS'direction'
p3
S'Missed Call'
p4
sS'remote'
p5
g2
sS'description'
p6
S'Voice Call'
p7
sS'callid'
p8
L5435L
sS'oid'
p9
L232780L
sS'number'
p10
g2
sS'person_oid'
p11
L18L
sS'contact'
p12
L134L
sS'starttime'
p13
cdatetime
datetime
p14
(S'\x07\xd5\x02\x0c\x17)\x14\x00\x00\x00'
p15
tp16
Rp17
sS'duration'
p18
L0L
sS'endtime'
p19
g14
(S'\x07\xd5\x02\x0c\x17)\x14\x00\x00\x00'
p20
tp21
Rp22
sS'phonenumber_oid'
p23
L1144L
s.(dp0
S'status'
p1
S''
p2
sS'direction'
p3
S'Missed Call'
p4
sS'remote'
p5
g2
sS'description'
p6
S'Voice Call'
p7
sS'callid'
p8
L5435L
sS'oid'
p9
L232801L
sS'number'
p10
g2
sS'person_oid'
p11
L18L
sS'contact'
p12
L134L
sS'starttime'
p13
cdatetime
datetime
p14
(S'\x07\xd5\x02\x0c\x17)\x14\x00\x00\x00'
p15
tp16
Rp17
sS'duration'
p18
L0L
sS'endtime'
p19
g14
(S'\x07\xd5\x02\x0c\x17)\x14\x00\x00\x00'
p20
tp21
Rp22
sS'phonenumber_oid'
p23
L1144L
s.(dp0
S'status'
p1
S''
p2
sS'direction'
p3
S'Missed Call'
p4
sS'remote'
p5
g2
sS'description'
p6
S'Voice Call'
p7
sS'callid'
p8
L5435L
sS'oid'
p9
L232823L
sS'number'
p10
g2
sS'person_oid'
p11
L18L
sS'contact'
p12
L134L
sS'starttime'
p13
cdatetime
datetime
p14
(S'\x07\xd5\x02\x0c\x17)\x14\x00\x00\x00'
p15
tp16
Rp17
sS'duration'
p18
L0L
sS'endtime'
p19
g14
(S'\x07\xd5\x02\x0c\x17)\x14\x00\x00\x00'
p20
tp21
Rp22
sS'phonenumber_oid'
p23
L1144L
s.(dp0
S'status'
p1
S''
p2
sS'direction'
p3
S'Outgoing'
p4
sS'remote'
p5
g2
sS'description'
p6
S'Voice Call'
p7
sS'callid'
p8
L5437L
sS'oid'
p9
L232761L
sS'number'
p10
g2
sS'person_oid'
p11
L18L
sS'contact'
p12
L134L
sS'starttime'
p13
cdatetime
datetime
p14
(S'\x07\xd5\x02\r\x00\x17\x1e\x00\x00\x00'
p15
tp16
Rp17
sS'duration'
p18
L112L
sS'endtime'
p19
g14
(S'\x07\xd5\x02\r\x00\x19\x16\x00\x00\x00'
p20
tp21
Rp22
sS'phonenumber_oid'
p23
L1144L
s.(dp0
S'status'
p1
S''
p2
sS'direction'
p3
S'Outgoing'
p4
sS'remote'
p5
g2
sS'description'
p6
S'Voice Call'
p7
sS'callid'
p8
L5437L
sS'oid'
p9
L232781L
sS'number'
p10
g2
sS'person_oid'
p11
L18L
sS'contact'
p12
L134L
sS'starttime'
p13
cdatetime
datetime
p14
(S'\x07\xd5\x02\r\x00\x17\x1e\x00\x00\x00'
p15
tp16
Rp17
sS'duration'
p18
L112L
sS'endtime'
p19
g14
(S'\x07\xd5\x02\r\x00\x19\x16\x00\x00\x00'
p20
tp21
Rp22
sS'phonenumber_oid'
p23
L1144L
s.(dp0
S'status'
p1
S''
p2
sS'direction'
p3
S'Outgoing'
p4
sS'remote'
p5
g2
sS'description'
p6
S'Voice Call'
p7
sS'callid'
p8
L5437L
sS'oid'
p9
L232802L
sS'number'
p10
g2
sS'person_oid'
p11
L18L
sS'contact'
p12
L134L
sS'starttime'
p13
cdatetime
datetime
p14
(S'\x07\xd5\x02\r\x00\x17\x1e\x00\x00\x00'
p15
tp16
Rp17
sS'duration'
p18
L112L
sS'endtime'
p19
g14
(S'\x07\xd5\x02\r\x00\x19\x16\x00\x00\x00'
p20
tp21
Rp22
sS'phonenumber_oid'
p23
L1144L
s.(dp0
S'status'
p1
S''
p2
sS'direction'
p3
S'Outgoing'
p4
sS'remote'
p5
g2
sS'description'
p6
S'Voice Call'
p7
sS'callid'
p8
L5437L
sS'oid'
p9
L232824L
sS'number'
p10
g2
sS'person_oid'
p11
L18L
sS'contact'
p12
L134L
sS'starttime'
p13
cdatetime
datetime
p14
(S'\x07\xd5\x02\r\x00\x17\x1e\x00\x00\x00'
p15
tp16
Rp17
sS'duration'
p18
L112L
sS'endtime'
p19
g14
(S'\x07\xd5\x02\r\x00\x19\x16\x00\x00\x00'
p20
tp21
Rp22
sS'phonenumber_oid'
p23
L1144L
s.(dp0
S'status'
p1
S''
p2
sS'direction'
p3
S'Outgoing'
p4
sS'remote'
p5
g2
sS'description'
p6
S'Voice Call'
p7
sS'callid'
p8
L5439L
sS'oid'
p9
L232762L
sS'number'
p10
g2
sS'person_oid'
p11
L18L
sS'contact'
p12
L95L
sS'starttime'
p13
cdatetime
datetime
p14
(S"\x07\xd5\x02\r\x00\x1c'\x00\x00\x00"
p15
tp16
Rp17
sS'duration'
p18
L59L
sS'endtime'
p19
g14
(S'\x07\xd5\x02\r\x00\x1d&\x00\x00\x00'
p20
tp21
Rp22
sS'phonenumber_oid'
p23
L1132L
s.(dp0
S'status'
p1
S''
p2
sS'direction'
p3
S'Outgoing'
p4
sS'remote'
p5
g2
sS'description'
p6
S'Voice Call'
p7
sS'callid'
p8
L5439L
sS'oid'
p9
L232782L
sS'number'
p10
g2
sS'person_oid'
p11
L18L
sS'contact'
p12
L95L
sS'starttime'
p13
cdatetime
datetime
p14
(S"\x07\xd5\x02\r\x00\x1c'\x00\x00\x00"
p15
tp16
Rp17
sS'duration'
p18
L59L
sS'endtime'
p19
g14
(S'\x07\xd5\x02\r\x00\x1d&\x00\x00\x00'
p20
tp21
Rp22
sS'phonenumber_oid'
p23
L1132L
s.(dp0
S'status'
p1
S''
p2
sS'direction'
p3
S'Outgoing'
p4
sS'remote'
p5
g2
sS'description'
p6
S'Voice Call'
p7
sS'callid'
p8
L5439L
sS'oid'
p9
L232803L
sS'number'
p10
g2
sS'person_oid'
p11
L18L
sS'contact'
p12
L95L
sS'starttime'
p13
cdatetime
datetime
p14
(S"\x07\xd5\x02\r\x00\x1c'\x00\x00\x00"
p15
tp16
Rp17
sS'duration'
p18
L59L
sS'endtime'
p19
g14
(S'\x07\xd5\x02\r\x00\x1d&\x00\x00\x00'
p20
tp21
Rp22
sS'phonenumber_oid'
p23
L1132L
s.(dp0
S'status'
p1
S''
p2
sS'direction'
p3
S'Outgoing'
p4
sS'remote'
p5
g2
sS'description'
p6
S'Voice Call'
p7
sS'callid'
p8
L5439L
sS'oid'
p9
L232825L
sS'number'
p10
g2
sS'person_oid'
p11
L18L
sS'contact'
p12
L95L
sS'starttime'
p13
cdatetime
datetime
p14
(S"\x07\xd5\x02\r\x00\x1c'\x00\x00\x00"
p15
tp16
Rp17
sS'duration'
p18
L59L
sS'endtime'
p19
g14
(S'\x07\xd5\x02\r\x00\x1d&\x00\x00\x00'
p20
tp21
Rp22
sS'phonenumber_oid'
p23
L1132L
s.(dp0
S'status'
p1
S''
p2
sS'direction'
p3
S'Outgoing'
p4
sS'remote'
p5
g2
sS'description'
p6
S'Voice Call'
p7
sS'callid'
p8
L5441L
sS'oid'
p9
L232763L
sS'number'
p10
g2
sS'person_oid'
p11
L18L
sS'contact'
p12
L104L
sS'starttime'
p13
cdatetime
datetime
p14
(S'\x07\xd5\x02\r\x00 \r\x00\x00\x00'
p15
tp16
Rp17
sS'duration'
p18
L40L
sS'endtime'
p19
g14
(S'\x07\xd5\x02\r\x00 5\x00\x00\x00'
p20
tp21
Rp22
sS'phonenumber_oid'
p23
L1133L
s.(dp0
S'status'
p1
S''
p2
sS'direction'
p3
S'Outgoing'
p4
sS'remote'
p5
g2
sS'description'
p6
S'Voice Call'
p7
sS'callid'
p8
L5441L
sS'oid'
p9
L232783L
sS'number'
p10
g2
sS'person_oid'
p11
L18L
sS'contact'
p12
L104L
sS'starttime'
p13
cdatetime
datetime
p14
(S'\x07\xd5\x02\r\x00 \r\x00\x00\x00'
p15
tp16
Rp17
sS'duration'
p18
L40L
sS'endtime'
p19
g14
(S'\x07\xd5\x02\r\x00 5\x00\x00\x00'
p20
tp21
Rp22
sS'phonenumber_oid'
p23
L1133L
s.(dp0
S'status'
p1
S''
p2
sS'direction'
p3
S'Outgoing'
p4
sS'remote'
p5
g2
sS'description'
p6
S'Voice Call'
p7
sS'callid'
p8
L5441L
sS'oid'
p9
L232804L
sS'number'
p10
g2
sS'person_oid'
p11
L18L
sS'contact'
p12
L104L
sS'starttime'
p13
cdatetime
datetime
p14
(S'\x07\xd5\x02\r\x00 \r\x00\x00\x00'
p15
tp16
Rp17
sS'duration'
p18
L40L
sS'endtime'
p19
g14
(S'\x07\xd5\x02\r\x00 5\x00\x00\x00'
p20
tp21
Rp22
sS'phonenumber_oid'
p23
L1133L
s.(dp0
S'status'
p1
S''
p2
sS'direction'
p3
S'Outgoing'
p4
sS'remote'
p5
g2
sS'description'
p6
S'Voice Call'
p7
sS'callid'
p8
L5441L
sS'oid'
p9
L232826L
sS'number'
p10
g2
sS'person_oid'
p11
L18L
sS'contact'
p12
L104L
sS'starttime'
p13
cdatetime
datetime
p14
(S'\x07\xd5\x02\r\x00 \r\x00\x00\x00'
p15
tp16
Rp17
sS'duration'
p18
L40L
sS'endtime'
p19
g14
(S'\x07\xd5\x02\r\x00 5\x00\x00\x00'
p20
tp21
Rp22
sS'phonenumber_oid'
p23
L1133L
s.(dp0
S'status'
p1
S''
p2
sS'direction'
p3
S'Outgoing'
p4
sS'remote'
p5
g2
sS'description'
p6
S'Voice Call'
p7
sS'callid'
p8
L5442L
sS'oid'
p9
L232764L
sS'number'
p10
g2
sS'person_oid'
p11
L18L
sS'contact'
p12
L95L
sS'starttime'
p13
cdatetime
datetime
p14
(S'\x07\xd5\x02\r\x00!7\x00\x00\x00'
p15
tp16
Rp17
sS'duration'
p18
L181L
sS'endtime'
p19
g14
(S'\x07\xd5\x02\r\x00$8\x00\x00\x00'
p20
tp21
Rp22
sS'phonenumber_oid'
p23
L1132L
s.(dp0
S'status'
p1
S''
p2
sS'direction'
p3
S'Outgoing'
p4
sS'remote'
p5
g2
sS'description'
p6
S'Voice Call'
p7
sS'callid'
p8
L5442L
sS'oid'
p9
L232784L
sS'number'
p10
g2
sS'person_oid'
p11
L18L
sS'contact'
p12
L95L
sS'starttime'
p13
cdatetime
datetime
p14
(S'\x07\xd5\x02\r\x00!7\x00\x00\x00'
p15
tp16
Rp17
sS'duration'
p18
L181L
sS'endtime'
p19
g14
(S'\x07\xd5\x02\r\x00$8\x00\x00\x00'
p20
tp21
Rp22
sS'phonenumber_oid'
p23
L1132L
s.(dp0
S'status'
p1
S''
p2
sS'direction'
p3
S'Outgoing'
p4
sS'remote'
p5
g2
sS'description'
p6
S'Voice Call'
p7
sS'callid'
p8
L5442L
sS'oid'
p9
L232805L
sS'number'
p10
g2
sS'person_oid'
p11
L18L
sS'contact'
p12
L95L
sS'starttime'
p13
cdatetime
datetime
p14
(S'\x07\xd5\x02\r\x00!7\x00\x00\x00'
p15
tp16
Rp17
sS'duration'
p18
L181L
sS'endtime'
p19
g14
(S'\x07\xd5\x02\r\x00$8\x00\x00\x00'
p20
tp21
Rp22
sS'phonenumber_oid'
p23
L1132L
s.(dp0
S'status'
p1
S''
p2
sS'direction'
p3
S'Outgoing'
p4
sS'remote'
p5
g2
sS'description'
p6
S'Voice Call'
p7
sS'callid'
p8
L5442L
sS'oid'
p9
L232827L
sS'number'
p10
g2
sS'person_oid'
p11
L18L
sS'contact'
p12
L95L
sS'starttime'
p13
cdatetime
datetime
p14
(S'\x07\xd5\x02\r\x00!7\x00\x00\x00'
p15
tp16
Rp17
sS'duration'
p18
L181L
sS'endtime'
p19
g14
(S'\x07\xd5\x02\r\x00$8\x00\x00\x00'
p20
tp21
Rp22
sS'phonenumber_oid'
p23
L1132L
s.(dp0
S'status'
p1
S''
p2
sS'direction'
p3
S'Outgoing'
p4
sS'remote'
p5
g2
sS'description'
p6
S'Voice Call'
p7
sS'callid'
p8
L5443L
sS'oid'
p9
L232765L
sS'number'
p10
g2
sS'person_oid'
p11
L18L
sS'contact'
p12
L95L
sS'starttime'
p13
cdatetime
datetime
p14
(S'\x07\xd5\x02\r\x00&:\x00\x00\x00'
p15
tp16
Rp17
sS'duration'
p18
L161L
sS'endtime'
p19
g14
(S"\x07\xd5\x02\r\x00)'\x00\x00\x00"
p20
tp21
Rp22
sS'phonenumber_oid'
p23
L1132L
s.(dp0
S'status'
p1
S''
p2
sS'direction'
p3
S'Outgoing'
p4
sS'remote'
p5
g2
sS'description'
p6
S'Voice Call'
p7
sS'callid'
p8
L5443L
sS'oid'
p9
L232785L
sS'number'
p10
g2
sS'person_oid'
p11
L18L
sS'contact'
p12
L95L
sS'starttime'
p13
cdatetime
datetime
p14
(S'\x07\xd5\x02\r\x00&:\x00\x00\x00'
p15
tp16
Rp17
sS'duration'
p18
L161L
sS'endtime'
p19
g14
(S"\x07\xd5\x02\r\x00)'\x00\x00\x00"
p20
tp21
Rp22
sS'phonenumber_oid'
p23
L1132L
s.(dp0
S'status'
p1
S''
p2
sS'direction'
p3
S'Outgoing'
p4
sS'remote'
p5
g2
sS'description'
p6
S'Voice Call'
p7
sS'callid'
p8
L5443L
sS'oid'
p9
L232806L
sS'number'
p10
g2
sS'person_oid'
p11
L18L
sS'contact'
p12
L95L
sS'starttime'
p13
cdatetime
datetime
p14
(S'\x07\xd5\x02\r\x00&:\x00\x00\x00'
p15
tp16
Rp17
sS'duration'
p18
L161L
sS'endtime'
p19
g14
(S"\x07\xd5\x02\r\x00)'\x00\x00\x00"
p20
tp21
Rp22
sS'phonenumber_oid'
p23
L1132L
s.(dp0
S'status'
p1
S''
p2
sS'direction'
p3
S'Outgoing'
p4
sS'remote'
p5
g2
sS'description'
p6
S'Voice Call'
p7
sS'callid'
p8
L5443L
sS'oid'
p9
L232828L
sS'number'
p10
g2
sS'person_oid'
p11
L18L
sS'contact'
p12
L95L
sS'starttime'
p13
cdatetime
datetime
p14
(S'\x07\xd5\x02\r\x00&:\x00\x00\x00'
p15
tp16
Rp17
sS'duration'
p18
L161L
sS'endtime'
p19
g14
(S"\x07\xd5\x02\r\x00)'\x00\x00\x00"
p20
tp21
Rp22
sS'phonenumber_oid'
p23
L1132L
s.(dp0
S'status'
p1
S'Disconnected'
p2
sS'direction'
p3
S'Outgoing'
p4
sS'remote'
p5
S''
p6
sS'description'
p7
S'Packet Data'
p8
sS'callid'
p9
L5444L
sS'oid'
p10
L232786L
sS'number'
p11
g6
sS'person_oid'
p12
L18L
sS'contact'
p13
L-1L
sS'starttime'
p14
cdatetime
datetime
p15
(S'\x07\xd5\x02\r\x06!$\x00\x00\x00'
p16
tp17
Rp18
sS'duration'
p19
L187L
sS'endtime'
p20
g15
(S'\x07\xd5\x02\r\x06$+\x00\x00\x00'
p21
tp22
Rp23
sS'phonenumber_oid'
p24
L3L
s.(dp0
S'status'
p1
S'Disconnected'
p2
sS'direction'
p3
S'Outgoing'
p4
sS'remote'
p5
S''
p6
sS'description'
p7
S'Packet Data'
p8
sS'callid'
p9
L5444L
sS'oid'
p10
L232807L
sS'number'
p11
g6
sS'person_oid'
p12
L18L
sS'contact'
p13
L-1L
sS'starttime'
p14
cdatetime
datetime
p15
(S'\x07\xd5\x02\r\x06!$\x00\x00\x00'
p16
tp17
Rp18
sS'duration'
p19
L187L
sS'endtime'
p20
g15
(S'\x07\xd5\x02\r\x06$+\x00\x00\x00'
p21
tp22
Rp23
sS'phonenumber_oid'
p24
L3L
s.(dp0
S'status'
p1
S'Disconnected'
p2
sS'direction'
p3
S'Outgoing'
p4
sS'remote'
p5
S''
p6
sS'description'
p7
S'Packet Data'
p8
sS'callid'
p9
L5444L
sS'oid'
p10
L232829L
sS'number'
p11
g6
sS'person_oid'
p12
L18L
sS'contact'
p13
L-1L
sS'starttime'
p14
cdatetime
datetime
p15
(S'\x07\xd5\x02\r\x06!$\x00\x00\x00'
p16
tp17
Rp18
sS'duration'
p19
L187L
sS'endtime'
p20
g15
(S'\x07\xd5\x02\r\x06$+\x00\x00\x00'
p21
tp22
Rp23
sS'phonenumber_oid'
p24
L3L
s.(dp0
S'status'
p1
S'Disconnected'
p2
sS'direction'
p3
S'Outgoing'
p4
sS'remote'
p5
S''
p6
sS'description'
p7
S'Packet Data'
p8
sS'callid'
p9
L5445L
sS'oid'
p10
L232808L
sS'number'
p11
g6
sS'person_oid'
p12
L18L
sS'contact'
p13
L-1L
sS'starttime'
p14
cdatetime
datetime
p15
(S'\x07\xd5\x02\r\x07%\x10\x00\x00\x00'
p16
tp17
Rp18
sS'duration'
p19
L146L
sS'endtime'
p20
g15
(S"\x07\xd5\x02\r\x07'*\x00\x00\x00"
p21
tp22
Rp23
sS'phonenumber_oid'
p24
L3L
s.(dp0
S'status'
p1
S'Disconnected'
p2
sS'direction'
p3
S'Outgoing'
p4
sS'remote'
p5
S''
p6
sS'description'
p7
S'Packet Data'
p8
sS'callid'
p9
L5445L
sS'oid'
p10
L232830L
sS'number'
p11
g6
sS'person_oid'
p12
L18L
sS'contact'
p13
L-1L
sS'starttime'
p14
cdatetime
datetime
p15
(S'\x07\xd5\x02\r\x07%\x10\x00\x00\x00'
p16
tp17
Rp18
sS'duration'
p19
L146L
sS'endtime'
p20
g15
(S"\x07\xd5\x02\r\x07'*\x00\x00\x00"
p21
tp22
Rp23
sS'phonenumber_oid'
p24
L3L
s.(dp0
S'status'
p1
S'Disconnected'
p2
sS'direction'
p3
S'Outgoing'
p4
sS'remote'
p5
S''
p6
sS'description'
p7
S'Packet Data'
p8
sS'callid'
p9
L5446L
sS'oid'
p10
L232831L
sS'number'
p11
g6
sS'person_oid'
p12
L18L
sS'contact'
p13
L-1L
sS'starttime'
p14
cdatetime
datetime
p15
(S'\x07\xd5\x02\r\x08(\x0f\x00\x00\x00'
p16
tp17
Rp18
sS'duration'
p19
L165L
sS'endtime'
p20
g15
(S'\x07\xd5\x02\r\x08+\x00\x00\x00\x00'
p21
tp22
Rp23
sS'phonenumber_oid'
p24
L3L
s.(dp0
S'status'
p1
S'Disconnected'
p2
sS'direction'
p3
S'Outgoing'
p4
sS'remote'
p5
S''
p6
sS'description'
p7
S'Packet Data'
p8
sS'callid'
p9
L5448L
sS'oid'
p10
L232832L
sS'number'
p11
g6
sS'person_oid'
p12
L18L
sS'contact'
p13
L-1L
sS'starttime'
p14
cdatetime
datetime
p15
(S'\x07\xd5\x02\x0f\x17+\x02\x00\x00\x00'
p16
tp17
Rp18
sS'duration'
p19
L7688L
sS'endtime'
p20
g15
(S'\x07\xd5\x02\x10\x013\n\x00\x00\x00'
p21
tp22
Rp23
sS'phonenumber_oid'
p24
L3L
s.(dp0
S'status'
p1
S'Disconnected'
p2
sS'direction'
p3
S'Outgoing'
p4
sS'remote'
p5
S''
p6
sS'description'
p7
S'Packet Data'
p8
sS'callid'
p9
L5448L
sS'oid'
p10
L232835L
sS'number'
p11
g6
sS'person_oid'
p12
L18L
sS'contact'
p13
L-1L
sS'starttime'
p14
cdatetime
datetime
p15
(S'\x07\xd5\x02\x0f\x17+\x02\x00\x00\x00'
p16
tp17
Rp18
sS'duration'
p19
L7688L
sS'endtime'
p20
g15
(S'\x07\xd5\x02\x10\x013\n\x00\x00\x00'
p21
tp22
Rp23
sS'phonenumber_oid'
p24
L3L
s.(dp0
S'status'
p1
S'Disconnected'
p2
sS'direction'
p3
S'Outgoing'
p4
sS'remote'
p5
S''
p6
sS'description'
p7
S'Packet Data'
p8
sS'callid'
p9
L5448L
sS'oid'
p10
L232839L
sS'number'
p11
g6
sS'person_oid'
p12
L18L
sS'contact'
p13
L-1L
sS'starttime'
p14
cdatetime
datetime
p15
(S'\x07\xd5\x02\x0f\x17+\x02\x00\x00\x00'
p16
tp17
Rp18
sS'duration'
p19
L7688L
sS'endtime'
p20
g15
(S'\x07\xd5\x02\x10\x013\n\x00\x00\x00'
p21
tp22
Rp23
sS'phonenumber_oid'
p24
L3L
s.(dp0
S'status'
p1
S''
p2
sS'direction'
p3
S'Outgoing'
p4
sS'remote'
p5
g2
sS'description'
p6
S'Voice Call'
p7
sS'callid'
p8
L5449L
sS'oid'
p9
L232833L
sS'number'
p10
g2
sS'person_oid'
p11
L18L
sS'contact'
p12
L104L
sS'starttime'
p13
cdatetime
datetime
p14
(S'\x07\xd5\x02\x10\x01\r\r\x00\x00\x00'
p15
tp16
Rp17
sS'duration'
p18
L62L
sS'endtime'
p19
g14
(S'\x07\xd5\x02\x10\x01\x0e\x0f\x00\x00\x00'
p20
tp21
Rp22
sS'phonenumber_oid'
p23
L1133L
s.(dp0
S'status'
p1
S''
p2
sS'direction'
p3
S'Outgoing'
p4
sS'remote'
p5
g2
sS'description'
p6
S'Voice Call'
p7
sS'callid'
p8
L5449L
sS'oid'
p9
L232836L
sS'number'
p10
g2
sS'person_oid'
p11
L18L
sS'contact'
p12
L104L
sS'starttime'
p13
cdatetime
datetime
p14
(S'\x07\xd5\x02\x10\x01\r\r\x00\x00\x00'
p15
tp16
Rp17
sS'duration'
p18
L62L
sS'endtime'
p19
g14
(S'\x07\xd5\x02\x10\x01\x0e\x0f\x00\x00\x00'
p20
tp21
Rp22
sS'phonenumber_oid'
p23
L1133L
s.(dp0
S'status'
p1
S''
p2
sS'direction'
p3
S'Outgoing'
p4
sS'remote'
p5
g2
sS'description'
p6
S'Voice Call'
p7
sS'callid'
p8
L5449L
sS'oid'
p9
L232840L
sS'number'
p10
g2
sS'person_oid'
p11
L18L
sS'contact'
p12
L104L
sS'starttime'
p13
cdatetime
datetime
p14
(S'\x07\xd5\x02\x10\x01\r\r\x00\x00\x00'
p15
tp16
Rp17
sS'duration'
p18
L62L
sS'endtime'
p19
g14
(S'\x07\xd5\x02\x10\x01\x0e\x0f\x00\x00\x00'
p20
tp21
Rp22
sS'phonenumber_oid'
p23
L1133L
s.(dp0
S'status'
p1
S'Sent'
p2
sS'direction'
p3
S'Outgoing'
p4
sS'remote'
p5
S''
p6
sS'description'
p7
S'Short Message'
p8
sS'callid'
p9
L5450L
sS'oid'
p10
L232834L
sS'number'
p11
g6
sS'person_oid'
p12
L18L
sS'contact'
p13
L-1L
sS'starttime'
p14
cdatetime
datetime
p15
(S'\x07\xd5\x02\x10\x01 \x04\x00\x00\x00'
p16
tp17
Rp18
sS'duration'
p19
L0L
sS'endtime'
p20
g15
(S'\x07\xd5\x02\x10\x01 \x04\x00\x00\x00'
p21
tp22
Rp23
sS'phonenumber_oid'
p24
L1132L
s.(dp0
S'status'
p1
S'Sent'
p2
sS'direction'
p3
S'Outgoing'
p4
sS'remote'
p5
S''
p6
sS'description'
p7
S'Short Message'
p8
sS'callid'
p9
L5450L
sS'oid'
p10
L232837L
sS'number'
p11
g6
sS'person_oid'
p12
L18L
sS'contact'
p13
L-1L
sS'starttime'
p14
cdatetime
datetime
p15
(S'\x07\xd5\x02\x10\x01 \x04\x00\x00\x00'
p16
tp17
Rp18
sS'duration'
p19
L0L
sS'endtime'
p20
g15
(S'\x07\xd5\x02\x10\x01 \x04\x00\x00\x00'
p21
tp22
Rp23
sS'phonenumber_oid'
p24
L1132L
s.(dp0
S'status'
p1
S'Sent'
p2
sS'direction'
p3
S'Outgoing'
p4
sS'remote'
p5
S''
p6
sS'description'
p7
S'Short Message'
p8
sS'callid'
p9
L5450L
sS'oid'
p10
L232841L
sS'number'
p11
g6
sS'person_oid'
p12
L18L
sS'contact'
p13
L-1L
sS'starttime'
p14
cdatetime
datetime
p15
(S'\x07\xd5\x02\x10\x01 \x04\x00\x00\x00'
p16
tp17
Rp18
sS'duration'
p19
L0L
sS'endtime'
p20
g15
(S'\x07\xd5\x02\x10\x01 \x04\x00\x00\x00'
p21
tp22
Rp23
sS'phonenumber_oid'
p24
L1132L
s.(dp0
S'status'
p1
S'Disconnected'
p2
sS'direction'
p3
S'Outgoing'
p4
sS'remote'
p5
S''
p6
sS'description'
p7
S'Packet Data'
p8
sS'callid'
p9
L5451L
sS'oid'
p10
L232838L
sS'number'
p11
g6
sS'person_oid'
p12
L18L
sS'contact'
p13
L-1L
sS'starttime'
p14
cdatetime
datetime
p15
(S'\x07\xd5\x02\x10\x023(\x00\x00\x00'
p16
tp17
Rp18
sS'duration'
p19
L6224L
sS'endtime'
p20
g15
(S'\x07\xd5\x02\x10\x04#\x18\x00\x00\x00'
p21
tp22
Rp23
sS'phonenumber_oid'
p24
L3L
s.(dp0
S'status'
p1
S'Disconnected'
p2
sS'direction'
p3
S'Outgoing'
p4
sS'remote'
p5
S''
p6
sS'description'
p7
S'Packet Data'
p8
sS'callid'
p9
L5451L
sS'oid'
p10
L232842L
sS'number'
p11
g6
sS'person_oid'
p12
L18L
sS'contact'
p13
L-1L
sS'starttime'
p14
cdatetime
datetime
p15
(S'\x07\xd5\x02\x10\x023(\x00\x00\x00'
p16
tp17
Rp18
sS'duration'
p19
L6224L
sS'endtime'
p20
g15
(S'\x07\xd5\x02\x10\x04#\x18\x00\x00\x00'
p21
tp22
Rp23
sS'phonenumber_oid'
p24
L3L
s.(dp0
S'status'
p1
S'Disconnected'
p2
sS'direction'
p3
S'Outgoing'
p4
sS'remote'
p5
S''
p6
sS'description'
p7
S'Packet Data'
p8
sS'callid'
p9
L5452L
sS'oid'
p10
L232843L
sS'number'
p11
g6
sS'person_oid'
p12
L18L
sS'contact'
p13
L-1L
sS'starttime'
p14
cdatetime
datetime
p15
(S'\x07\xd5\x02\x10\x06#5\x00\x00\x00'
p16
tp17
Rp18
sS'duration'
p19
L6590L
sS'endtime'
p20
g15
(S'\x07\xd5\x02\x10\x08\x19+\x00\x00\x00'
p21
tp22
Rp23
sS'phonenumber_oid'
p24
L3L
s.