(dp0
S'status'
p1
S''
p2
sS'direction'
p3
S'Incoming'
p4
sS'remote'
p5
g2
sS'description'
p6
S'Voice Call'
p7
sS'callid'
p8
L1L
sS'oid'
p9
L232844L
sS'number'
p10
g2
sS'person_oid'
p11
L9L
sS'contact'
p12
L12L
sS'starttime'
p13
cdatetime
datetime
p14
(S'\x07\xd4\x0b\r\x10\x1d#\x00\x00\x00'
p15
tp16
Rp17
sS'duration'
p18
L33L
sS'endtime'
p19
g14
(S'\x07\xd4\x0b\r\x10\x1e\x08\x00\x00\x00'
p20
tp21
Rp22
sS'phonenumber_oid'
p23
L1165L
s.(dp0
S'status'
p1
S''
p2
sS'direction'
p3
S'Incoming'
p4
sS'remote'
p5
g2
sS'description'
p6
S'Voice Call'
p7
sS'callid'
p8
L1L
sS'oid'
p9
L232847L
sS'number'
p10
g2
sS'person_oid'
p11
L9L
sS'contact'
p12
L12L
sS'starttime'
p13
cdatetime
datetime
p14
(S'\x07\xd4\x0b\r\x10\x1d#\x00\x00\x00'
p15
tp16
Rp17
sS'duration'
p18
L33L
sS'endtime'
p19
g14
(S'\x07\xd4\x0b\r\x10\x1e\x08\x00\x00\x00'
p20
tp21
Rp22
sS'phonenumber_oid'
p23
L1165L
s.(dp0
S'status'
p1
S''
p2
sS'direction'
p3
S'Outgoing'
p4
sS'remote'
p5
g2
sS'description'
p6
S'Voice Call'
p7
sS'callid'
p8
L3L
sS'oid'
p9
L232845L
sS'number'
p10
g2
sS'person_oid'
p11
L9L
sS'contact'
p12
L19L
sS'starttime'
p13
cdatetime
datetime
p14
(S'\x07\xd4\x0b\r\x14*%\x00\x00\x00'
p15
tp16
Rp17
sS'duration'
p18
L4L
sS'endtime'
p19
g14
(S'\x07\xd4\x0b\r\x14*)\x00\x00\x00'
p20
tp21
Rp22
sS'phonenumber_oid'
p23
L1166L
s.(dp0
S'status'
p1
S''
p2
sS'direction'
p3
S'Outgoing'
p4
sS'remote'
p5
g2
sS'description'
p6
S'Voice Call'
p7
sS'callid'
p8
L3L
sS'oid'
p9
L232848L
sS'number'
p10
g2
sS'person_oid'
p11
L9L
sS'contact'
p12
L19L
sS'starttime'
p13
cdatetime
datetime
p14
(S'\x07\xd4\x0b\r\x14*%\x00\x00\x00'
p15
tp16
Rp17
sS'duration'
p18
L4L
sS'endtime'
p19
g14
(S'\x07\xd4\x0b\r\x14*)\x00\x00\x00'
p20
tp21
Rp22
sS'phonenumber_oid'
p23
L1166L
s.(dp0
S'status'
p1
S''
p2
sS'direction'
p3
S'Incoming'
p4
sS'remote'
p5
g2
sS'description'
p6
S'Voice Call'
p7
sS'callid'
p8
L5L
sS'oid'
p9
L232846L
sS'number'
p10
g2
sS'person_oid'
p11
L9L
sS'contact'
p12
L19L
sS'starttime'
p13
cdatetime
datetime
p14
(S'\x07\xd4\x0b\x0e\x00"\x04\x00\x00\x00'
p15
tp16
Rp17
sS'duration'
p18
L104L
sS'endtime'
p19
g14
(S'\x07\xd4\x0b\x0e\x00#0\x00\x00\x00'
p20
tp21
Rp22
sS'phonenumber_oid'
p23
L1166L
s.(dp0
S'status'
p1
S''
p2
sS'direction'
p3
S'Incoming'
p4
sS'remote'
p5
g2
sS'description'
p6
S'Voice Call'
p7
sS'callid'
p8
L5L
sS'oid'
p9
L232849L
sS'number'
p10
g2
sS'person_oid'
p11
L9L
sS'contact'
p12
L19L
sS'starttime'
p13
cdatetime
datetime
p14
(S'\x07\xd4\x0b\x0e\x00"\x04\x00\x00\x00'
p15
tp16
Rp17
sS'duration'
p18
L104L
sS'endtime'
p19
g14
(S'\x07\xd4\x0b\x0e\x00#0\x00\x00\x00'
p20
tp21
Rp22
sS'phonenumber_oid'
p23
L1166L
s.(dp0
S'status'
p1
S''
p2
sS'direction'
p3
S'Outgoing'
p4
sS'remote'
p5
g2
sS'description'
p6
S'Voice Call'
p7
sS'callid'
p8
L6L
sS'oid'
p9
L232850L
sS'number'
p10
g2
sS'person_oid'
p11
L9L
sS'contact'
p12
L22L
sS'starttime'
p13
cdatetime
datetime
p14
(S'\x07\xd4\x0b\x0e\x07\x13&\x00\x00\x00'
p15
tp16
Rp17
sS'duration'
p18
L15L
sS'endtime'
p19
g14
(S'\x07\xd4\x0b\x0e\x07\x135\x00\x00\x00'
p20
tp21
Rp22
sS'phonenumber_oid'
p23
L1167L
s.(dp0
S'status'
p1
S''
p2
sS'direction'
p3
S'Outgoing'
p4
sS'remote'
p5
g2
sS'description'
p6
S'Voice Call'
p7
sS'callid'
p8
L6L
sS'oid'
p9
L232853L
sS'number'
p10
g2
sS'person_oid'
p11
L9L
sS'contact'
p12
L22L
sS'starttime'
p13
cdatetime
datetime
p14
(S'\x07\xd4\x0b\x0e\x07\x13&\x00\x00\x00'
p15
tp16
Rp17
sS'duration'
p18
L15L
sS'endtime'
p19
g14
(S'\x07\xd4\x0b\x0e\x07\x135\x00\x00\x00'
p20
tp21
Rp22
sS'phonenumber_oid'
p23
L1167L
s.(dp0
S'status'
p1
S''
p2
sS'direction'
p3
S'Incoming'
p4
sS'remote'
p5
g2
sS'description'
p6
S'Voice Call'
p7
sS'callid'
p8
L8L
sS'oid'
p9
L232851L
sS'number'
p10
g2
sS'person_oid'
p11
L9L
sS'contact'
p12
L22L
sS'starttime'
p13
cdatetime
datetime
p14
(S'\x07\xd4\x0b\x0e\x07#.\x00\x00\x00'
p15
tp16
Rp17
sS'duration'
p18
L7L
sS'endtime'
p19
g14
(S'\x07\xd4\x0b\x0e\x07#5\x00\x00\x00'
p20
tp21
Rp22
sS'phonenumber_oid'
p23
L1167L
s.(dp0
S'status'
p1
S''
p2
sS'direction'
p3
S'Incoming'
p4
sS'remote'
p5
g2
sS'description'
p6
S'Voice Call'
p7
sS'callid'
p8
L8L
sS'oid'
p9
L232854L
sS'number'
p10
g2
sS'person_oid'
p11
L9L
sS'contact'
p12
L22L
sS'starttime'
p13
cdatetime
datetime
p14
(S'\x07\xd4\x0b\x0e\x07#.\x00\x00\x00'
p15
tp16
Rp17
sS'duration'
p18
L7L
sS'endtime'
p19
g14
(S'\x07\xd4\x0b\x0e\x07#5\x00\x00\x00'
p20
tp21
Rp22
sS'phonenumber_oid'
p23
L1167L
s.(dp0
S'status'
p1
S''
p2
sS'direction'
p3
S'Outgoing'
p4
sS'remote'
p5
g2
sS'description'
p6
S'Voice Call'
p7
sS'callid'
p8
L9L
sS'oid'
p9
L232852L
sS'number'
p10
g2
sS'person_oid'
p11
L9L
sS'contact'
p12
L24L
sS'starttime'
p13
cdatetime
datetime
p14
(S'\x07\xd4\x0b\x0e\x12+\x07\x00\x00\x00'
p15
tp16
Rp17
sS'duration'
p18
L34L
sS'endtime'
p19
g14
(S'\x07\xd4\x0b\x0e\x12+)\x00\x00\x00'
p20
tp21
Rp22
sS'phonenumber_oid'
p23
L1168L
s.(dp0
S'status'
p1
S''
p2
sS'direction'
p3
S'Outgoing'
p4
sS'remote'
p5
g2
sS'description'
p6
S'Voice Call'
p7
sS'callid'
p8
L9L
sS'oid'
p9
L232855L
sS'number'
p10
g2
sS'person_oid'
p11
L9L
sS'contact'
p12
L24L
sS'starttime'
p13
cdatetime
datetime
p14
(S'\x07\xd4\x0b\x0e\x12+\x07\x00\x00\x00'
p15
tp16
Rp17
sS'duration'
p18
L34L
sS'endtime'
p19
g14
(S'\x07\xd4\x0b\x0e\x12+)\x00\x00\x00'
p20
tp21
Rp22
sS'phonenumber_oid'
p23
L1168L
s.(dp0
S'status'
p1
S''
p2
sS'direction'
p3
S'Outgoing'
p4
sS'remote'
p5
g2
sS'description'
p6
S'Voice Call'
p7
sS'callid'
p8
L10L
sS'oid'
p9
L232856L
sS'number'
p10
g2
sS'person_oid'
p11
L9L
sS'contact'
p12
L19L
sS'starttime'
p13
cdatetime
datetime
p14
(S'\x07\xd4\x0b\x0f\x0c9!\x00\x00\x00'
p15
tp16
Rp17
sS'duration'
p18
L17L
sS'endtime'
p19
g14
(S'\x07\xd4\x0b\x0f\x0c92\x00\x00\x00'
p20
tp21
Rp22
sS'phonenumber_oid'
p23
L1166L
s.(dp0
S'status'
p1
S''
p2
sS'direction'
p3
S'Outgoing'
p4
sS'remote'
p5
g2
sS'description'
p6
S'Voice Call'
p7
sS'callid'
p8
L10L
sS'oid'
p9
L232860L
sS'number'
p10
g2
sS'person_oid'
p11
L9L
sS'contact'
p12
L19L
sS'starttime'
p13
cdatetime
datetime
p14
(S'\x07\xd4\x0b\x0f\x0c9!\x00\x00\x00'
p15
tp16
Rp17
sS'duration'
p18
L17L
sS'endtime'
p19
g14
(S'\x07\xd4\x0b\x0f\x0c92\x00\x00\x00'
p20
tp21
Rp22
sS'phonenumber_oid'
p23
L1166L
s.(dp0
S'status'
p1
S''
p2
sS'direction'
p3
S'Outgoing'
p4
sS'remote'
p5
g2
sS'description'
p6
S'Voice Call'
p7
sS'callid'
p8
L12L
sS'oid'
p9
L232857L
sS'number'
p10
g2
sS'person_oid'
p11
L9L
sS'contact'
p12
L25L
sS'starttime'
p13
cdatetime
datetime
p14
(S'\x07\xd4\x0b\x0f\r\x01\x19\x00\x00\x00'
p15
tp16
Rp17
sS'duration'
p18
L0L
sS'endtime'
p19
g14
(S'\x07\xd4\x0b\x0f\r\x01\x19\x00\x00\x00'
p20
tp21
Rp22
sS'phonenumber_oid'
p23
L1169L
s.(dp0
S'status'
p1
S''
p2
sS'direction'
p3
S'Outgoing'
p4
sS'remote'
p5
g2
sS'description'
p6
S'Voice Call'
p7
sS'callid'
p8
L12L
sS'oid'
p9
L232861L
sS'number'
p10
g2
sS'person_oid'
p11
L9L
sS'contact'
p12
L25L
sS'starttime'
p13
cdatetime
datetime
p14
(S'\x07\xd4\x0b\x0f\r\x01\x19\x00\x00\x00'
p15
tp16
Rp17
sS'duration'
p18
L0L
sS'endtime'
p19
g14
(S'\x07\xd4\x0b\x0f\r\x01\x19\x00\x00\x00'
p20
tp21
Rp22
sS'phonenumber_oid'
p23
L1169L
s.(dp0
S'status'
p1
S''
p2
sS'direction'
p3
S'Outgoing'
p4
sS'remote'
p5
g2
sS'description'
p6
S'Voice Call'
p7
sS'callid'
p8
L13L
sS'oid'
p9
L232858L
sS'number'
p10
g2
sS'person_oid'
p11
L9L
sS'contact'
p12
L19L
sS'starttime'
p13
cdatetime
datetime
p14
(S'\x07\xd4\x0b\x0f\x12\x185\x00\x00\x00'
p15
tp16
Rp17
sS'duration'
p18
L48L
sS'endtime'
p19
g14
(S'\x07\xd4\x0b\x0f\x12\x19)\x00\x00\x00'
p20
tp21
Rp22
sS'phonenumber_oid'
p23
L1166L
s.(dp0
S'status'
p1
S''
p2
sS'direction'
p3
S'Outgoing'
p4
sS'remote'
p5
g2
sS'description'
p6
S'Voice Call'
p7
sS'callid'
p8
L13L
sS'oid'
p9
L232862L
sS'number'
p10
g2
sS'person_oid'
p11
L9L
sS'contact'
p12
L19L
sS'starttime'
p13
cdatetime
datetime
p14
(S'\x07\xd4\x0b\x0f\x12\x185\x00\x00\x00'
p15
tp16
Rp17
sS'duration'
p18
L48L
sS'endtime'
p19
g14
(S'\x07\xd4\x0b\x0f\x12\x19)\x00\x00\x00'
p20
tp21
Rp22
sS'phonenumber_oid'
p23
L1166L
s.(dp0
S'status'
p1
S''
p2
sS'direction'
p3
S'Incoming'
p4
sS'remote'
p5
g2
sS'description'
p6
S'Voice Call'
p7
sS'callid'
p8
L15L
sS'oid'
p9
L232859L
sS'number'
p10
g2
sS'person_oid'
p11
L9L
sS'contact'
p12
L19L
sS'starttime'
p13
cdatetime
datetime
p14
(S'\x07\xd4\x0b\x0f\x12\x1b \x00\x00\x00'
p15
tp16
Rp17
sS'duration'
p18
L0L
sS'endtime'
p19
g14
(S'\x07\xd4\x0b\x0f\x12\x1b \x00\x00\x00'
p20
tp21
Rp22
sS'phonenumber_oid'
p23
L1166L
s.(dp0
S'status'
p1
S''
p2
sS'direction'
p3
S'Incoming'
p4
sS'remote'
p5
g2
sS'description'
p6
S'Voice Call'
p7
sS'callid'
p8
L15L
sS'oid'
p9
L232863L
sS'number'
p10
g2
sS'person_oid'
p11
L9L
sS'contact'
p12
L19L
sS'starttime'
p13
cdatetime
datetime
p14
(S'\x07\xd4\x0b\x0f\x12\x1b \x00\x00\x00'
p15
tp16
Rp17
sS'duration'
p18
L0L
sS'endtime'
p19
g14
(S'\x07\xd4\x0b\x0f\x12\x1b \x00\x00\x00'
p20
tp21
Rp22
sS'phonenumber_oid'
p23
L1166L
s.(dp0
S'status'
p1
S''
p2
sS'direction'
p3
S'Outgoing'
p4
sS'remote'
p5
g2
sS'description'
p6
S'Voice Call'
p7
sS'callid'
p8
L19L
sS'oid'
p9
L232864L
sS'number'
p10
g2
sS'person_oid'
p11
L9L
sS'contact'
p12
L24L
sS'starttime'
p13
cdatetime
datetime
p14
(S'\x07\xd4\x0b\x10\x0e\x10.\x00\x00\x00'
p15
tp16
Rp17
sS'duration'
p18
L11L
sS'endtime'
p19
g14
(S'\x07\xd4\x0b\x10\x0e\x109\x00\x00\x00'
p20
tp21
Rp22
sS'phonenumber_oid'
p23
L1168L
s.(dp0
S'status'
p1
S''
p2
sS'direction'
p3
S'Outgoing'
p4
sS'remote'
p5
g2
sS'description'
p6
S'Voice Call'
p7
sS'callid'
p8
L20L
sS'oid'
p9
L232865L
sS'number'
p10
g2
sS'person_oid'
p11
L9L
sS'contact'
p12
L24L
sS'starttime'
p13
cdatetime
datetime
p14
(S'\x07\xd4\x0b\x10\x0e$8\x00\x00\x00'
p15
tp16
Rp17
sS'duration'
p18
L8L
sS'endtime'
p19
g14
(S'\x07\xd4\x0b\x10\x0e%\x04\x00\x00\x00'
p20
tp21
Rp22
sS'phonenumber_oid'
p23
L1168L
s.(dp0
S'status'
p1
S''
p2
sS'direction'
p3
S'Outgoing'
p4
sS'remote'
p5
g2
sS'description'
p6
S'Voice Call'
p7
sS'callid'
p8
L23L
sS'oid'
p9
L232866L
sS'number'
p10
g2
sS'person_oid'
p11
L9L
sS'contact'
p12
L19L
sS'starttime'
p13
cdatetime
datetime
p14
(S'\x07\xd4\x0b\x11\x0b9(\x00\x00\x00'
p15
tp16
Rp17
sS'duration'
p18
L2L
sS'endtime'
p19
g14
(S'\x07\xd4\x0b\x11\x0b9*\x00\x00\x00'
p20
tp21
Rp22
sS'phonenumber_oid'
p23
L1166L
s.(dp0
S'status'
p1
S''
p2
sS'direction'
p3
S'Outgoing'
p4
sS'remote'
p5
g2
sS'description'
p6
S'Voice Call'
p7
sS'callid'
p8
L23L
sS'oid'
p9
L232867L
sS'number'
p10
g2
sS'person_oid'
p11
L9L
sS'contact'
p12
L19L
sS'starttime'
p13
cdatetime
datetime
p14
(S'\x07\xd4\x0b\x11\x0b9(\x00\x00\x00'
p15
tp16
Rp17
sS'duration'
p18
L2L
sS'endtime'
p19
g14
(S'\x07\xd4\x0b\x11\x0b9*\x00\x00\x00'
p20
tp21
Rp22
sS'phonenumber_oid'
p23
L1166L
s.(dp0
S'status'
p1
S''
p2
sS'direction'
p3
S'Outgoing'
p4
sS'remote'
p5
g2
sS'description'
p6
S'Voice Call'
p7
sS'callid'
p8
L24L
sS'oid'
p9
L232868L
sS'number'
p10
g2
sS'person_oid'
p11
L9L
sS'contact'
p12
L19L
sS'starttime'
p13
cdatetime
datetime
p14
(S'\x07\xd4\x0b\x12\x161\x02\x00\x00\x00'
p15
tp16
Rp17
sS'duration'
p18
L138L
sS'endtime'
p19
g14
(S'\x07\xd4\x0b\x12\x163\x14\x00\x00\x00'
p20
tp21
Rp22
sS'phonenumber_oid'
p23
L1166L
s.(dp0
S'status'
p1
S''
p2
sS'direction'
p3
S'Outgoing'
p4
sS'remote'
p5
g2
sS'description'
p6
S'Voice Call'
p7
sS'callid'
p8
L24L
sS'oid'
p9
L232870L
sS'number'
p10
g2
sS'person_oid'
p11
L9L
sS'contact'
p12
L19L
sS'starttime'
p13
cdatetime
datetime
p14
(S'\x07\xd4\x0b\x12\x161\x02\x00\x00\x00'
p15
tp16
Rp17
sS'duration'
p18
L138L
sS'endtime'
p19
g14
(S'\x07\xd4\x0b\x12\x163\x14\x00\x00\x00'
p20
tp21
Rp22
sS'phonenumber_oid'
p23
L1166L
s.(dp0
S'status'
p1
S''
p2
sS'direction'
p3
S'Outgoing'
p4
sS'remote'
p5
g2
sS'description'
p6
S'Voice Call'
p7
sS'callid'
p8
L25L
sS'oid'
p9
L232869L
sS'number'
p10
g2
sS'person_oid'
p11
L9L
sS'contact'
p12
L19L
sS'starttime'
p13
cdatetime
datetime
p14
(S'\x07\xd4\x0b\x13\x01\x10\x17\x00\x00\x00'
p15
tp16
Rp17
sS'duration'
p18
L102L
sS'endtime'
p19
g14
(S'\x07\xd4\x0b\x13\x01\x12\x05\x00\x00\x00'
p20
tp21
Rp22
sS'phonenumber_oid'
p23
L1166L
s.(dp0
S'status'
p1
S''
p2
sS'direction'
p3
S'Outgoing'
p4
sS'remote'
p5
g2
sS'description'
p6
S'Voice Call'
p7
sS'callid'
p8
L25L
sS'oid'
p9
L232871L
sS'number'
p10
g2
sS'person_oid'
p11
L9L
sS'contact'
p12
L19L
sS'starttime'
p13
cdatetime
datetime
p14
(S'\x07\xd4\x0b\x13\x01\x10\x17\x00\x00\x00'
p15
tp16
Rp17
sS'duration'
p18
L102L
sS'endtime'
p19
g14
(S'\x07\xd4\x0b\x13\x01\x12\x05\x00\x00\x00'
p20
tp21
Rp22
sS'phonenumber_oid'
p23
L1166L
s.(dp0
S'status'
p1
S''
p2
sS'direction'
p3
S'Outgoing'
p4
sS'remote'
p5
g2
sS'description'
p6
S'Voice Call'
p7
sS'callid'
p8
L26L
sS'oid'
p9
L232872L
sS'number'
p10
g2
sS'person_oid'
p11
L9L
sS'contact'
p12
L24L
sS'starttime'
p13
cdatetime
datetime
p14
(S'\x07\xd4\x0b\x13\x11*$\x00\x00\x00'
p15
tp16
Rp17
sS'duration'
p18
L10L
sS'endtime'
p19
g14
(S'\x07\xd4\x0b\x13\x11*.\x00\x00\x00'
p20
tp21
Rp22
sS'phonenumber_oid'
p23
L1168L
s.(dp0
S'status'
p1
S''
p2
sS'direction'
p3
S'Outgoing'
p4
sS'remote'
p5
g2
sS'description'
p6
S'Voice Call'
p7
sS'callid'
p8
L27L
sS'oid'
p9
L232873L
sS'number'
p10
g2
sS'person_oid'
p11
L9L
sS'contact'
p12
L19L
sS'starttime'
p13
cdatetime
datetime
p14
(S'\x07\xd4\x0b\x13\x11+\x0c\x00\x00\x00'
p15
tp16
Rp17
sS'duration'
p18
L89L
sS'endtime'
p19
g14
(S'\x07\xd4\x0b\x13\x11,)\x00\x00\x00'
p20
tp21
Rp22
sS'phonenumber_oid'
p23
L1166L
s.(dp0
S'status'
p1
S''
p2
sS'direction'
p3
S'Outgoing'
p4
sS'remote'
p5
g2
sS'description'
p6
S'Voice Call'
p7
sS'callid'
p8
L28L
sS'oid'
p9
L232874L
sS'number'
p10
g2
sS'person_oid'
p11
L9L
sS'contact'
p12
L6L
sS'starttime'
p13
cdatetime
datetime
p14
(S'\x07\xd4\x0b\x13\x128*\x00\x00\x00'
p15
tp16
Rp17
sS'duration'
p18
L0L
sS'endtime'
p19
g14
(S'\x07\xd4\x0b\x13\x128*\x00\x00\x00'
p20
tp21
Rp22
sS'phonenumber_oid'
p23
L1170L
s.(dp0
S'status'
p1
S''
p2
sS'direction'
p3
S'Outgoing'
p4
sS'remote'
p5
g2
sS'description'
p6
S'Voice Call'
p7
sS'callid'
p8
L29L
sS'oid'
p9
L232875L
sS'number'
p10
g2
sS'person_oid'
p11
L9L
sS'contact'
p12
L6L
sS'starttime'
p13
cdatetime
datetime
p14
(S'\x07\xd4\x0b\x13\x131\x1a\x00\x00\x00'
p15
tp16
Rp17
sS'duration'
p18
L87L
sS'endtime'
p19
g14
(S'\x07\xd4\x0b\x13\x1325\x00\x00\x00'
p20
tp21
Rp22
sS'phonenumber_oid'
p23
L1170L
s.(dp0
S'status'
p1
S''
p2
sS'direction'
p3
S'Outgoing'
p4
sS'remote'
p5
g2
sS'description'
p6
S'Voice Call'
p7
sS'callid'
p8
L30L
sS'oid'
p9
L232876L
sS'number'
p10
g2
sS'person_oid'
p11
L9L
sS'contact'
p12
L24L
sS'starttime'
p13
cdatetime
datetime
p14
(S'\x07\xd4\x0b\x13\x133(\x00\x00\x00'
p15
tp16
Rp17
sS'duration'
p18
L109L
sS'endtime'
p19
g14
(S'\x07\xd4\x0b\x13\x135\x1d\x00\x00\x00'
p20
tp21
Rp22
sS'phonenumber_oid'
p23
L1168L
s.(dp0
S'status'
p1
S''
p2
sS'direction'
p3
S'Outgoing'
p4
sS'remote'
p5
g2
sS'description'
p6
S'Voice Call'
p7
sS'callid'
p8
L31L
sS'oid'
p9
L232877L
sS'number'
p10
g2
sS'person_oid'
p11
L9L
sS'contact'
p12
L24L
sS'starttime'
p13
cdatetime
datetime
p14
(S'\x07\xd4\x0b\x14\x11\t&\x00\x00\x00'
p15
tp16
Rp17
sS'duration'
p18
L108L
sS'endtime'
p19
g14
(S'\x07\xd4\x0b\x14\x11\x0b\x1a\x00\x00\x00'
p20
tp21
Rp22
sS'phonenumber_oid'
p23
L1168L
s.(dp0
S'status'
p1
S''
p2
sS'direction'
p3
S'Outgoing'
p4
sS'remote'
p5
g2
sS'description'
p6
S'Voice Call'
p7
sS'callid'
p8
L31L
sS'oid'
p9
L232891L
sS'number'
p10
g2
sS'person_oid'
p11
L9L
sS'contact'
p12
L24L
sS'starttime'
p13
cdatetime
datetime
p14
(S'\x07\xd4\x0b\x14\x11\t&\x00\x00\x00'
p15
tp16
Rp17
sS'duration'
p18
L108L
sS'endtime'
p19
g14
(S'\x07\xd4\x0b\x14\x11\x0b\x1a\x00\x00\x00'
p20
tp21
Rp22
sS'phonenumber_oid'
p23
L1168L
s.(dp0
S'status'
p1
S''
p2
sS'direction'
p3
S'Outgoing'
p4
sS'remote'
p5
g2
sS'description'
p6
S'Voice Call'
p7
sS'callid'
p8
L32L
sS'oid'
p9
L232878L
sS'number'
p10
g2
sS'person_oid'
p11
L9L
sS'contact'
p12
L8L
sS'starttime'
p13
cdatetime
datetime
p14
(S'\x07\xd4\x0b\x14\x11\x0c)\x00\x00\x00'
p15
tp16
Rp17
sS'duration'
p18
L31L
sS'endtime'
p19
g14
(S'\x07\xd4\x0b\x14\x11\r\x0c\x00\x00\x00'
p20
tp21
Rp22
sS'phonenumber_oid'
p23
L1171L
s.(dp0
S'status'
p1
S''
p2
sS'direction'
p3
S'Outgoing'
p4
sS'remote'
p5
g2
sS'description'
p6
S'Voice Call'
p7
sS'callid'
p8
L32L
sS'oid'
p9
L232892L
sS'number'
p10
g2
sS'person_oid'
p11
L9L
sS'contact'
p12
L8L
sS'starttime'
p13
cdatetime
datetime
p14
(S'\x07\xd4\x0b\x14\x11\x0c)\x00\x00\x00'
p15
tp16
Rp17
sS'duration'
p18
L31L
sS'endtime'
p19
g14
(S'\x07\xd4\x0b\x14\x11\r\x0c\x00\x00\x00'
p20
tp21
Rp22
sS'phonenumber_oid'
p23
L1171L
s.(dp0
S'status'
p1
S''
p2
sS'direction'
p3
S'Outgoing'
p4
sS'remote'
p5
g2
sS'description'
p6
S'Voice Call'
p7
sS'callid'
p8
L33L
sS'oid'
p9
L232879L
sS'number'
p10
g2
sS'person_oid'
p11
L9L
sS'contact'
p12
L24L
sS'starttime'
p13
cdatetime
datetime
p14
(S'\x07\xd4\x0b\x14\x11\x14)\x00\x00\x00'
p15
tp16
Rp17
sS'duration'
p18
L52L
sS'endtime'
p19
g14
(S'\x07\xd4\x0b\x14\x11\x15!\x00\x00\x00'
p20
tp21
Rp22
sS'phonenumber_oid'
p23
L1168L
s.(dp0
S'status'
p1
S''
p2
sS'direction'
p3
S'Outgoing'
p4
sS'remote'
p5
g2
sS'description'
p6
S'Voice Call'
p7
sS'callid'
p8
L33L
sS'oid'
p9
L232893L
sS'number'
p10
g2
sS'person_oid'
p11
L9L
sS'contact'
p12
L24L
sS'starttime'
p13
cdatetime
datetime
p14
(S'\x07\xd4\x0b\x14\x11\x14)\x00\x00\x00'
p15
tp16
Rp17
sS'duration'
p18
L52L
sS'endtime'
p19
g14
(S'\x07\xd4\x0b\x14\x11\x15!\x00\x00\x00'
p20
tp21
Rp22
sS'phonenumber_oid'
p23
L1168L
s.(dp0
S'status'
p1
S''
p2
sS'direction'
p3
S'Outgoing'
p4
sS'remote'
p5
g2
sS'description'
p6
S'Voice Call'
p7
sS'callid'
p8
L34L
sS'oid'
p9
L232880L
sS'number'
p10
g2
sS'person_oid'
p11
L9L
sS'contact'
p12
L12L
sS'starttime'
p13
cdatetime
datetime
p14
(S'\x07\xd4\x0b\x14\x11+ \x00\x00\x00'
p15
tp16
Rp17
sS'duration'
p18
L6L
sS'endtime'
p19
g14
(S'\x07\xd4\x0b\x14\x11+&\x00\x00\x00'
p20
tp21
Rp22
sS'phonenumber_oid'
p23
L1165L
s.(dp0
S'status'
p1
S''
p2
sS'direction'
p3
S'Outgoing'
p4
sS'remote'
p5
g2
sS'description'
p6
S'Voice Call'
p7
sS'callid'
p8
L34L
sS'oid'
p9
L232894L
sS'number'
p10
g2
sS'person_oid'
p11
L9L
sS'contact'
p12
L12L
sS'starttime'
p13
cdatetime
datetime
p14
(S'\x07\xd4\x0b\x14\x11+ \x00\x00\x00'
p15
tp16
Rp17
sS'duration'
p18
L6L
sS'endtime'
p19
g14
(S'\x07\xd4\x0b\x14\x11+&\x00\x00\x00'
p20
tp21
Rp22
sS'phonenumber_oid'
p23
L1165L
s.(dp0
S'status'
p1
S''
p2
sS'direction'
p3
S'Outgoing'
p4
sS'remote'
p5
g2
sS'description'
p6
S'Voice Call'
p7
sS'callid'
p8
L35L
sS'oid'
p9
L232881L
sS'number'
p10
g2
sS'person_oid'
p11
L9L
sS'contact'
p12
L6L
sS'starttime'
p13
cdatetime
datetime
p14
(S'\x07\xd4\x0b\x14\x11,\x08\x00\x00\x00'
p15
tp16
Rp17
sS'duration'
p18
L240L
sS'endtime'
p19
g14
(S'\x07\xd4\x0b\x14\x110\x08\x00\x00\x00'
p20
tp21
Rp22
sS'phonenumber_oid'
p23
L1170L
s.(dp0
S'status'
p1
S''
p2
sS'direction'
p3
S'Outgoing'
p4
sS'remote'
p5
g2
sS'description'
p6
S'Voice Call'
p7
sS'callid'
p8
L35L
sS'oid'
p9
L232895L
sS'number'
p10
g2
sS'person_oid'
p11
L9L
sS'contact'
p12
L6L
sS'starttime'
p13
cdatetime
datetime
p14
(S'\x07\xd4\x0b\x14\x11,\x08\x00\x00\x00'
p15
tp16
Rp17
sS'duration'
p18
L240L
sS'endtime'
p19
g14
(S'\x07\xd4\x0b\x14\x110\x08\x00\x00\x00'
p20
tp21
Rp22
sS'phonenumber_oid'
p23
L1170L
s.(dp0
S'status'
p1
S''
p2
sS'direction'
p3
S'Missed Call'
p4
sS'remote'
p5
g2
sS'description'
p6
S'Voice Call'
p7
sS'callid'
p8
L36L
sS'oid'
p9
L232882L
sS'number'
p10
g2
sS'person_oid'
p11
L9L
sS'contact'
p12
L12L
sS'starttime'
p13
cdatetime
datetime
p14
(S'\x07\xd4\x0b\x14\x11-\x0b\x00\x00\x00'
p15
tp16
Rp17
sS'duration'
p18
L0L
sS'endtime'
p19
g14
(S'\x07\xd4\x0b\x14\x11-\x0b\x00\x00\x00'
p20
tp21
Rp22
sS'phonenumber_oid'
p23
L1165L
s.(dp0
S'status'
p1
S''
p2
sS'direction'
p3
S'Missed Call'
p4
sS'remote'
p5
g2
sS'description'
p6
S'Voice Call'
p7
sS'callid'
p8
L36L
sS'oid'
p9
L232896L
sS'number'
p10
g2
sS'person_oid'
p11
L9L
sS'contact'
p12
L12L
sS'starttime'
p13
cdatetime
datetime
p14
(S'\x07\xd4\x0b\x14\x11-\x0b\x00\x00\x00'
p15
tp16
Rp17
sS'duration'
p18
L0L
sS'endtime'
p19
g14
(S'\x07\xd4\x0b\x14\x11-\x0b\x00\x00\x00'
p20
tp21
Rp22
sS'phonenumber_oid'
p23
L1165L
s.(dp0
S'status'
p1
S''
p2
sS'direction'
p3
S'Outgoing'
p4
sS'remote'
p5
g2
sS'description'
p6
S'Voice Call'
p7
sS'callid'
p8
L37L
sS'oid'
p9
L232883L
sS'number'
p10
g2
sS'person_oid'
p11
L9L
sS'contact'
p12
L12L
sS'starttime'
p13
cdatetime
datetime
p14
(S'\x07\xd4\x0b\x14\x1100\x00\x00\x00'
p15
tp16
Rp17
sS'duration'
p18
L10L
sS'endtime'
p19
g14
(S'\x07\xd4\x0b\x14\x110:\x00\x00\x00'
p20
tp21
Rp22
sS'phonenumber_oid'
p23
L1165L
s.(dp0
S'status'
p1
S''
p2
sS'direction'
p3
S'Outgoing'
p4
sS'remote'
p5
g2
sS'description'
p6
S'Voice Call'
p7
sS'callid'
p8
L37L
sS'oid'
p9
L232897L
sS'number'
p10
g2
sS'person_oid'
p11
L9L
sS'contact'
p12
L12L
sS'starttime'
p13
cdatetime
datetime
p14
(S'\x07\xd4\x0b\x14\x1100\x00\x00\x00'
p15
tp16
Rp17
sS'duration'
p18
L10L
sS'endtime'
p19
g14
(S'\x07\xd4\x0b\x14\x110:\x00\x00\x00'
p20
tp21
Rp22
sS'phonenumber_oid'
p23
L1165L
s.(dp0
S'status'
p1
S''
p2
sS'direction'
p3
S'Incoming'
p4
sS'remote'
p5
g2
sS'description'
p6
S'Voice Call'
p7
sS'callid'
p8
L39L
sS'oid'
p9
L232884L
sS'number'
p10
g2
sS'person_oid'
p11
L9L
sS'contact'
p12
L12L
sS'starttime'
p13
cdatetime
datetime
p14
(S'\x07\xd4\x0b\x14\x111\x1d\x00\x00\x00'
p15
tp16
Rp17
sS'duration'
p18
L106L
sS'endtime'
p19
g14
(S'\x07\xd4\x0b\x14\x113\x0f\x00\x00\x00'
p20
tp21
Rp22
sS'phonenumber_oid'
p23
L1165L
s.(dp0
S'status'
p1
S''
p2
sS'direction'
p3
S'Incoming'
p4
sS'remote'
p5
g2
sS'description'
p6
S'Voice Call'
p7
sS'callid'
p8
L39L
sS'oid'
p9
L232898L
sS'number'
p10
g2
sS'person_oid'
p11
L9L
sS'contact'
p12
L12L
sS'starttime'
p13
cdatetime
datetime
p14
(S'\x07\xd4\x0b\x14\x111\x1d\x00\x00\x00'
p15
tp16
Rp17
sS'duration'
p18
L106L
sS'endtime'
p19
g14
(S'\x07\xd4\x0b\x14\x113\x0f\x00\x00\x00'
p20
tp21
Rp22
sS'phonenumber_oid'
p23
L1165L
s.(dp0
S'status'
p1
S''
p2
sS'direction'
p3
S'Outgoing'
p4
sS'remote'
p5
g2
sS'description'
p6
S'Voice Call'
p7
sS'callid'
p8
L40L
sS'oid'
p9
L232885L
sS'number'
p10
g2
sS'person_oid'
p11
L9L
sS'contact'
p12
L15L
sS'starttime'
p13
cdatetime
datetime
p14
(S'\x07\xd4\x0b\x14\x113%\x00\x00\x00'
p15
tp16
Rp17
sS'duration'
p18
L69L
sS'endtime'
p19
g14
(S'\x07\xd4\x0b\x14\x114.\x00\x00\x00'
p20
tp21
Rp22
sS'phonenumber_oid'
p23
L1172L
s.(dp0
S'status'
p1
S''
p2
sS'direction'
p3
S'Outgoing'
p4
sS'remote'
p5
g2
sS'description'
p6
S'Voice Call'
p7
sS'callid'
p8
L40L
sS'oid'
p9
L232899L
sS'number'
p10
g2
sS'person_oid'
p11
L9L
sS'contact'
p12
L15L
sS'starttime'
p13
cdatetime
datetime
p14
(S'\x07\xd4\x0b\x14\x113%\x00\x00\x00'
p15
tp16
Rp17
sS'duration'
p18
L69L
sS'endtime'
p19
g14
(S'\x07\xd4\x0b\x14\x114.\x00\x00\x00'
p20
tp21
Rp22
sS'phonenumber_oid'
p23
L1172L
s.(dp0
S'status'
p1
S''
p2
sS'direction'
p3
S'Incoming'
p4
sS'remote'
p5
g2
sS'description'
p6
S'Voice Call'
p7
sS'callid'
p8
L42L
sS'oid'
p9
L232886L
sS'number'
p10
g2
sS'person_oid'
p11
L9L
sS'contact'
p12
L14L
sS'starttime'
p13
cdatetime
datetime
p14
(S'\x07\xd4\x0b\x14\x116%\x00\x00\x00'
p15
tp16
Rp17
sS'duration'
p18
L62L
sS'endtime'
p19
g14
(S"\x07\xd4\x0b\x14\x117'\x00\x00\x00"
p20
tp21
Rp22
sS'phonenumber_oid'
p23
L1173L
s.(dp0
S'status'
p1
S''
p2
sS'direction'
p3
S'Incoming'
p4
sS'remote'
p5
g2
sS'description'
p6
S'Voice Call'
p7
sS'callid'
p8
L42L
sS'oid'
p9
L232900L
sS'number'
p10
g2
sS'person_oid'
p11
L9L
sS'contact'
p12
L14L
sS'starttime'
p13
cdatetime
datetime
p14
(S'\x07\xd4\x0b\x14\x116%\x00\x00\x00'
p15
tp16
Rp17
sS'duration'
p18
L62L
sS'endtime'
p19
g14
(S"\x07\xd4\x0b\x14\x117'\x00\x00\x00"
p20
tp21
Rp22
sS'phonenumber_oid'
p23
L1173L
s.(dp0
S'status'
p1
S''
p2
sS'direction'
p3
S'Incoming'
p4
sS'remote'
p5
g2
sS'description'
p6
S'Voice Call'
p7
sS'callid'
p8
L44L
sS'oid'
p9
L232887L
sS'number'
p10
g2
sS'person_oid'
p11
L9L
sS'contact'
p12
L8L
sS'starttime'
p13
cdatetime
datetime
p14
(S'\x07\xd4\x0b\x14\x12\x1e\x03\x00\x00\x00'
p15
tp16
Rp17
sS'duration'
p18
L47L
sS'endtime'
p19
g14
(S'\x07\xd4\x0b\x14\x12\x1e2\x00\x00\x00'
p20
tp21
Rp22
sS'phonenumber_oid'
p23
L1171L
s.(dp0
S'status'
p1
S''
p2
sS'direction'
p3
S'Incoming'
p4
sS'remote'
p5
g2
sS'description'
p6
S'Voice Call'
p7
sS'callid'
p8
L44L
sS'oid'
p9
L232901L
sS'number'
p10
g2
sS'person_oid'
p11
L9L
sS'contact'
p12
L8L
sS'starttime'
p13
cdatetime
datetime
p14
(S'\x07\xd4\x0b\x14\x12\x1e\x03\x00\x00\x00'
p15
tp16
Rp17
sS'duration'
p18
L47L
sS'endtime'
p19
g14
(S'\x07\xd4\x0b\x14\x12\x1e2\x00\x00\x00'
p20
tp21
Rp22
sS'phonenumber_oid'
p23
L1171L
s.(dp0
S'status'
p1
S''
p2
sS'direction'
p3
S'Outgoing'
p4
sS'remote'
p5
g2
sS'description'
p6
S'Voice Call'
p7
sS'callid'
p8
L45L
sS'oid'
p9
L232888L
sS'number'
p10
g2
sS'person_oid'
p11
L9L
sS'contact'
p12
L24L
sS'starttime'
p13
cdatetime
datetime
p14
(S'\x07\xd4\x0b\x14\x15$2\x00\x00\x00'
p15
tp16
Rp17
sS'duration'
p18
L41L
sS'endtime'
p19
g14
(S'\x07\xd4\x0b\x14\x15%\x1f\x00\x00\x00'
p20
tp21
Rp22
sS'phonenumber_oid'
p23
L1168L
s.(dp0
S'status'
p1
S''
p2
sS'direction'
p3
S'Outgoing'
p4
sS'remote'
p5
g2
sS'description'
p6
S'Voice Call'
p7
sS'callid'
p8
L45L
sS'oid'
p9
L232902L
sS'number'
p10
g2
sS'person_oid'
p11
L9L
sS'contact'
p12
L24L
sS'starttime'
p13
cdatetime
datetime
p14
(S'\x07\xd4\x0b\x14\x15$2\x00\x00\x00'
p15
tp16
Rp17
sS'duration'
p18
L41L
sS'endtime'
p19
g14
(S'\x07\xd4\x0b\x14\x15%\x1f\x00\x00\x00'
p20
tp21
Rp22
sS'phonenumber_oid'
p23
L1168L
s.(dp0
S'status'
p1
S''
p2
sS'direction'
p3
S'Incoming'
p4
sS'remote'
p5
g2
sS'description'
p6
S'Voice Call'
p7
sS'callid'
p8
L47L
sS'oid'
p9
L232889L
sS'number'
p10
g2
sS'person_oid'
p11
L9L
sS'contact'
p12
L12L
sS'starttime'
p13
cdatetime
datetime
p14
(S'\x07\xd4\x0b\x15\x00\x036\x00\x00\x00'
p15
tp16
Rp17
sS'duration'
p18
L0L
sS'endtime'
p19
g14
(S'\x07\xd4\x0b\x15\x00\x036\x00\x00\x00'
p20
tp21
Rp22
sS'phonenumber_oid'
p23
L1165L
s.(dp0
S'status'
p1
S''
p2
sS'direction'
p3
S'Incoming'
p4
sS'remote'
p5
g2
sS'description'
p6
S'Voice Call'
p7
sS'callid'
p8
L47L
sS'oid'
p9
L232903L
sS'number'
p10
g2
sS'person_oid'
p11
L9L
sS'contact'
p12
L12L
sS'starttime'
p13
cdatetime
datetime
p14
(S'\x07\xd4\x0b\x15\x00\x036\x00\x00\x00'
p15
tp16
Rp17
sS'duration'
p18
L0L
sS'endtime'
p19
g14
(S'\x07\xd4\x0b\x15\x00\x036\x00\x00\x00'
p20
tp21
Rp22
sS'phonenumber_oid'
p23
L1165L
s.(dp0
S'status'
p1
S''
p2
sS'direction'
p3
S'Incoming'
p4
sS'remote'
p5
g2
sS'description'
p6
S'Voice Call'
p7
sS'callid'
p8
L49L
sS'oid'
p9
L232890L
sS'number'
p10
g2
sS'person_oid'
p11
L9L
sS'contact'
p12
L24L
sS'starttime'
p13
cdatetime
datetime
p14
(S'\x07\xd4\x0b\x15\x01\x1d\x12\x00\x00\x00'
p15
tp16
Rp17
sS'duration'
p18
L24L
sS'endtime'
p19
g14
(S'\x07\xd4\x0b\x15\x01\x1d*\x00\x00\x00'
p20
tp21
Rp22
sS'phonenumber_oid'
p23
L1168L
s.(dp0
S'status'
p1
S''
p2
sS'direction'
p3
S'Incoming'
p4
sS'remote'
p5
g2
sS'description'
p6
S'Voice Call'
p7
sS'callid'
p8
L49L
sS'oid'
p9
L232904L
sS'number'
p10
g2
sS'person_oid'
p11
L9L
sS'contact'
p12
L24L
sS'starttime'
p13
cdatetime
datetime
p14
(S'\x07\xd4\x0b\x15\x01\x1d\x12\x00\x00\x00'
p15
tp16
Rp17
sS'duration'
p18
L24L
sS'endtime'
p19
g14
(S'\x07\xd4\x0b\x15\x01\x1d*\x00\x00\x00'
p20
tp21
Rp22
sS'phonenumber_oid'
p23
L1168L
s.(dp0
S'status'
p1
S''
p2
sS'direction'
p3
S'Incoming'
p4
sS'remote'
p5
g2
sS'description'
p6
S'Voice Call'
p7
sS'callid'
p8
L51L
sS'oid'
p9
L232905L
sS'number'
p10
g2
sS'person_oid'
p11
L9L
sS'contact'
p12
L12L
sS'starttime'
p13
cdatetime
datetime
p14
(S'\x07\xd4\x0b\x15\r\x16-\x00\x00\x00'
p15
tp16
Rp17
sS'duration'
p18
L81L
sS'endtime'
p19
g14
(S'\x07\xd4\x0b\x15\r\x18\x06\x00\x00\x00'
p20
tp21
Rp22
sS'phonenumber_oid'
p23
L1165L
s.(dp0
S'status'
p1
S''
p2
sS'direction'
p3
S'Incoming'
p4
sS'remote'
p5
g2
sS'description'
p6
S'Voice Call'
p7
sS'callid'
p8
L51L
sS'oid'
p9
L232908L
sS'number'
p10
g2
sS'person_oid'
p11
L9L
sS'contact'
p12
L12L
sS'starttime'
p13
cdatetime
datetime
p14
(S'\x07\xd4\x0b\x15\r\x16-\x00\x00\x00'
p15
tp16
Rp17
sS'duration'
p18
L81L
sS'endtime'
p19
g14
(S'\x07\xd4\x0b\x15\r\x18\x06\x00\x00\x00'
p20
tp21
Rp22
sS'phonenumber_oid'
p23
L1165L
s.(dp0
S'status'
p1
S''
p2
sS'direction'
p3
S'Incoming'
p4
sS'remote'
p5
g2
sS'description'
p6
S'Voice Call'
p7
sS'callid'
p8
L53L
sS'oid'
p9
L232906L
sS'number'
p10
g2
sS'person_oid'
p11
L9L
sS'contact'
p12
L6L
sS'starttime'
p13
cdatetime
datetime
p14
(S'\x07\xd4\x0b\x15\r\x18\x18\x00\x00\x00'
p15
tp16
Rp17
sS'duration'
p18
L94L
sS'endtime'
p19
g14
(S'\x07\xd4\x0b\x15\r\x19:\x00\x00\x00'
p20
tp21
Rp22
sS'phonenumber_oid'
p23
L1170L
s.(dp0
S'status'
p1
S''
p2
sS'direction'
p3
S'Incoming'
p4
sS'remote'
p5
g2
sS'description'
p6
S'Voice Call'
p7
sS'callid'
p8
L53L
sS'oid'
p9
L232909L
sS'number'
p10
g2
sS'person_oid'
p11
L9L
sS'contact'
p12
L6L
sS'starttime'
p13
cdatetime
datetime
p14
(S'\x07\xd4\x0b\x15\r\x18\x18\x00\x00\x00'
p15
tp16
Rp17
sS'duration'
p18
L94L
sS'endtime'
p19
g14
(S'\x07\xd4\x0b\x15\r\x19:\x00\x00\x00'
p20
tp21
Rp22
sS'phonenumber_oid'
p23
L1170L
s.(dp0
S'status'
p1
S''
p2
sS'direction'
p3
S'Incoming'
p4
sS'remote'
p5
g2
sS'description'
p6
S'Voice Call'
p7
sS'callid'
p8
L55L
sS'oid'
p9
L232907L
sS'number'
p10
g2
sS'person_oid'
p11
L9L
sS'contact'
p12
L15L
sS'starttime'
p13
cdatetime
datetime
p14
(S'\x07\xd4\x0b\x15\r\x1d1\x00\x00\x00'
p15
tp16
Rp17
sS'duration'
p18
L24L
sS'endtime'
p19
g14
(S'\x07\xd4\x0b\x15\r\x1e\r\x00\x00\x00'
p20
tp21
Rp22
sS'phonenumber_oid'
p23
L1172L
s.(dp0
S'status'
p1
S''
p2
sS'direction'
p3
S'Incoming'
p4
sS'remote'
p5
g2
sS'description'
p6
S'Voice Call'
p7
sS'callid'
p8
L55L
sS'oid'
p9
L232910L
sS'number'
p10
g2
sS'person_oid'
p11
L9L
sS'contact'
p12
L15L
sS'starttime'
p13
cdatetime
datetime
p14
(S'\x07\xd4\x0b\x15\r\x1d1\x00\x00\x00'
p15
tp16
Rp17
sS'duration'
p18
L24L
sS'endtime'
p19
g14
(S'\x07\xd4\x0b\x15\r\x1e\r\x00\x00\x00'
p20
tp21
Rp22
sS'phonenumber_oid'
p23
L1172L
s.(dp0
S'status'
p1
S''
p2
sS'direction'
p3
S'Outgoing'
p4
sS'remote'
p5
g2
sS'description'
p6
S'Voice Call'
p7
sS'callid'
p8
L56L
sS'oid'
p9
L232911L
sS'number'
p10
g2
sS'person_oid'
p11
L9L
sS'contact'
p12
L24L
sS'starttime'
p13
cdatetime
datetime
p14
(S'\x07\xd4\x0b\x16\x0b,8\x00\x00\x00'
p15
tp16
Rp17
sS'duration'
p18
L3L
sS'endtime'
p19
g14
(S'\x07\xd4\x0b\x16\x0b,;\x00\x00\x00'
p20
tp21
Rp22
sS'phonenumber_oid'
p23
L1168L
s.(dp0
S'status'
p1
S''
p2
sS'direction'
p3
S'Outgoing'
p4
sS'remote'
p5
g2
sS'description'
p6
S'Voice Call'
p7
sS'callid'
p8
L56L
sS'oid'
p9
L232912L
sS'number'
p10
g2
sS'person_oid'
p11
L9L
sS'contact'
p12
L24L
sS'starttime'
p13
cdatetime
datetime
p14
(S'\x07\xd4\x0b\x16\x0b,8\x00\x00\x00'
p15
tp16
Rp17
sS'duration'
p18
L3L
sS'endtime'
p19
g14
(S'\x07\xd4\x0b\x16\x0b,;\x00\x00\x00'
p20
tp21
Rp22
sS'phonenumber_oid'
p23
L1168L
s.(dp0
S'status'
p1
S''
p2
sS'direction'
p3
S'Incoming'
p4
sS'remote'
p5
g2
sS'description'
p6
S'Voice Call'
p7
sS'callid'
p8
L59L
sS'oid'
p9
L232913L
sS'number'
p10
g2
sS'person_oid'
p11
L9L
sS'contact'
p12
L-1L
sS'starttime'
p13
cdatetime
datetime
p14
(S'\x07\xd4\x0b\x17\n8:\x00\x00\x00'
p15
tp16
Rp17
sS'duration'
p18
L222L
sS'endtime'
p19
g14
(S'\x07\xd4\x0b\x17\x0b\x00(\x00\x00\x00'
p20
tp21
Rp22
sS'phonenumber_oid'
p23
L3L
s.(dp0
S'status'
p1
S''
p2
sS'direction'
p3
S'Incoming'
p4
sS'remote'
p5
g2
sS'description'
p6
S'Voice Call'
p7
sS'callid'
p8
L63L
sS'oid'
p9
L232914L
sS'number'
p10
g2
sS'person_oid'
p11
L9L
sS'contact'
p12
L24L
sS'starttime'
p13
cdatetime
datetime
p14
(S'\x07\xd4\x0b\x17\x0e\x05(\x00\x00\x00'
p15
tp16
Rp17
sS'duration'
p18
L49L
sS'endtime'
p19
g14
(S'\x07\xd4\x0b\x17\x0e\x06\x1d\x00\x00\x00'
p20
tp21
Rp22
sS'phonenumber_oid'
p23
L1168L
s.(dp0
S'status'
p1
S''
p2
sS'direction'
p3
S'Outgoing'
p4
sS'remote'
p5
g2
sS'description'
p6
S'Voice Call'
p7
sS'callid'
p8
L64L
sS'oid'
p9
L232915L
sS'number'
p10
g2
sS'person_oid'
p11
L9L
sS'contact'
p12
L19L
sS'starttime'
p13
cdatetime
datetime
p14
(S'\x07\xd4\x0b\x17\x0e\x08\x14\x00\x00\x00'
p15
tp16
Rp17
sS'duration'
p18
L69L
sS'endtime'
p19
g14
(S'\x07\xd4\x0b\x17\x0e\t\x1d\x00\x00\x00'
p20
tp21
Rp22
sS'phonenumber_oid'
p23
L1166L
s.(dp0
S'status'
p1
S''
p2
sS'direction'
p3
S'Outgoing'
p4
sS'remote'
p5
g2
sS'description'
p6
S'Voice Call'
p7
sS'callid'
p8
L65L
sS'oid'
p9
L232916L
sS'number'
p10
g2
sS'person_oid'
p11
L9L
sS'contact'
p12
L24L
sS'starttime'
p13
cdatetime
datetime
p14
(S"\x07\xd4\x0b\x17\x0e'\x0f\x00\x00\x00"
p15
tp16
Rp17
sS'duration'
p18
L63L
sS'endtime'
p19
g14
(S'\x07\xd4\x0b\x17\x0e(\x12\x00\x00\x00'
p20
tp21
Rp22
sS'phonenumber_oid'
p23
L1168L
s.(dp0
S'status'
p1
S''
p2
sS'direction'
p3
S'Outgoing'
p4
sS'remote'
p5
g2
sS'description'
p6
S'Voice Call'
p7
sS'callid'
p8
L68L
sS'oid'
p9
L232917L
sS'number'
p10
g2
sS'person_oid'
p11
L9L
sS'contact'
p12
L11L
sS'starttime'
p13
cdatetime
datetime
p14
(S'\x07\xd4\x0b\x17\x0f\x14\x01\x00\x00\x00'
p15
tp16
Rp17
sS'duration'
p18
L0L
sS'endtime'
p19
g14
(S'\x07\xd4\x0b\x17\x0f\x14\x01\x00\x00\x00'
p20
tp21
Rp22
sS'phonenumber_oid'
p23
L1174L
s.(dp0
S'status'
p1
S''
p2
sS'direction'
p3
S'Outgoing'
p4
sS'remote'
p5
g2
sS'description'
p6
S'Voice Call'
p7
sS'callid'
p8
L69L
sS'oid'
p9
L232918L
sS'number'
p10
g2
sS'person_oid'
p11
L9L
sS'contact'
p12
L11L
sS'starttime'
p13
cdatetime
datetime
p14
(S'\x07\xd4\x0b\x17\x0f\x14:\x00\x00\x00'
p15
tp16
Rp17
sS'duration'
p18
L8L
sS'endtime'
p19
g14
(S'\x07\xd4\x0b\x17\x0f\x15\x06\x00\x00\x00'
p20
tp21
Rp22
sS'phonenumber_oid'
p23
L1174L
s.(dp0
S'status'
p1
S''
p2
sS'direction'
p3
S'Outgoing'
p4
sS'remote'
p5
g2
sS'description'
p6
S'Voice Call'
p7
sS'callid'
p8
L70L
sS'oid'
p9
L232919L
sS'number'
p10
g2
sS'person_oid'
p11
L9L
sS'contact'
p12
L11L
sS'starttime'
p13
cdatetime
datetime
p14
(S'\x07\xd4\x0b\x17\x0f\x15&\x00\x00\x00'
p15
tp16
Rp17
sS'duration'
p18
L5L
sS'endtime'
p19
g14
(S'\x07\xd4\x0b\x17\x0f\x15+\x00\x00\x00'
p20
tp21
Rp22
sS'phonenumber_oid'
p23
L1174L
s.(dp0
S'status'
p1
S''
p2
sS'direction'
p3
S'Outgoing'
p4
sS'remote'
p5
g2
sS'description'
p6
S'Voice Call'
p7
sS'callid'
p8
L74L
sS'oid'
p9
L232920L
sS'number'
p10
g2
sS'person_oid'
p11
L9L
sS'contact'
p12
L11L
sS'starttime'
p13
cdatetime
datetime
p14
(S'\x07\xd4\x0b\x17\x0f9"\x00\x00\x00'
p15
tp16
Rp17
sS'duration'
p18
L0L
sS'endtime'
p19
g14
(S'\x07\xd4\x0b\x17\x0f9"\x00\x00\x00'
p20
tp21
Rp22
sS'phonenumber_oid'
p23
L1174L
s.(dp0
S'status'
p1
S''
p2
sS'direction'
p3
S'Outgoing'
p4
sS'remote'
p5
g2
sS'description'
p6
S'Voice Call'
p7
sS'callid'
p8
L75L
sS'oid'
p9
L232921L
sS'number'
p10
g2
sS'person_oid'
p11
L9L
sS'contact'
p12
L11L
sS'starttime'
p13
cdatetime
datetime
p14
(S'\x07\xd4\x0b\x17\x0f97\x00\x00\x00'
p15
tp16
Rp17
sS'duration'
p18
L0L
sS'endtime'
p19
g14
(S'\x07\xd4\x0b\x17\x0f97\x00\x00\x00'
p20
tp21
Rp22
sS'phonenumber_oid'
p23
L1174L
s.(dp0
S'status'
p1
S''
p2
sS'direction'
p3
S'Outgoing'
p4
sS'remote'
p5
g2
sS'description'
p6
S'Voice Call'
p7
sS'callid'
p8
L76L
sS'oid'
p9
L232922L
sS'number'
p10
g2
sS'person_oid'
p11
L9L
sS'contact'
p12
L11L
sS'starttime'
p13
cdatetime
datetime
p14
(S'\x07\xd4\x0b\x17\x0f:\x1c\x00\x00\x00'
p15
tp16
Rp17
sS'duration'
p18
L29L
sS'endtime'
p19
g14
(S'\x07\xd4\x0b\x17\x0f:9\x00\x00\x00'
p20
tp21
Rp22
sS'phonenumber_oid'
p23
L1174L
s.(dp0
S'status'
p1
S''
p2
sS'direction'
p3
S'Outgoing'
p4
sS'remote'
p5
g2
sS'description'
p6
S'Voice Call'
p7
sS'callid'
p8
L77L
sS'oid'
p9
L232923L
sS'number'
p10
g2
sS'person_oid'
p11
L9L
sS'contact'
p12
L13L
sS'starttime'
p13
cdatetime
datetime
p14
(S'\x07\xd4\x0b\x17\x12*$\x00\x00\x00'
p15
tp16
Rp17
sS'duration'
p18
L55L
sS'endtime'
p19
g14
(S'\x07\xd4\x0b\x17\x12+\x1f\x00\x00\x00'
p20
tp21
Rp22
sS'phonenumber_oid'
p23
L1175L
s.(dp0
S'status'
p1
S''
p2
sS'direction'
p3
S'Incoming'
p4
sS'remote'
p5
g2
sS'description'
p6
S'Voice Call'
p7
sS'callid'
p8
L79L
sS'oid'
p9
L232924L
sS'number'
p10
g2
sS'person_oid'
p11
L9L
sS'contact'
p12
L13L
sS'starttime'
p13
cdatetime
datetime
p14
(S'\x07\xd4\x0b\x17\x13"\x04\x00\x00\x00'
p15
tp16
Rp17
sS'duration'
p18
L64L
sS'endtime'
p19
g14
(S'\x07\xd4\x0b\x17\x13#\x08\x00\x00\x00'
p20
tp21
Rp22
sS'phonenumber_oid'
p23
L1175L
s.(dp0
S'status'
p1
S''
p2
sS'direction'
p3
S'Outgoing'
p4
sS'remote'
p5
g2
sS'description'
p6
S'Voice Call'
p7
sS'callid'
p8
L80L
sS'oid'
p9
L232925L
sS'number'
p10
g2
sS'person_oid'
p11
L9L
sS'contact'
p12
L24L
sS'starttime'
p13
cdatetime
datetime
p14
(S'\x07\xd4\x0b\x18\n\x016\x00\x00\x00'
p15
tp16
Rp17
sS'duration'
p18
L2L
sS'endtime'
p19
g14
(S'\x07\xd4\x0b\x18\n\x018\x00\x00\x00'
p20
tp21
Rp22
sS'phonenumber_oid'
p23
L1168L
s.(dp0
S'status'
p1
S''
p2
sS'direction'
p3
S'Outgoing'
p4
sS'remote'
p5
g2
sS'description'
p6
S'Voice Call'
p7
sS'callid'
p8
L81L
sS'oid'
p9
L232926L
sS'number'
p10
g2
sS'person_oid'
p11
L9L
sS'contact'
p12
L25L
sS'starttime'
p13
cdatetime
datetime
p14
(S'\x07\xd4\x0b\x18\n\x13\x15\x00\x00\x00'
p15
tp16
Rp17
sS'duration'
p18
L9L
sS'endtime'
p19
g14
(S'\x07\xd4\x0b\x18\n\x13\x1e\x00\x00\x00'
p20
tp21
Rp22
sS'phonenumber_oid'
p23
L1169L
s.(dp0
S'status'
p1
S''
p2
sS'direction'
p3
S'Outgoing'
p4
sS'remote'
p5
g2
sS'description'
p6
S'Voice Call'
p7
sS'callid'
p8
L82L
sS'oid'
p9
L232927L
sS'number'
p10
g2
sS'person_oid'
p11
L9L
sS'contact'
p12
L25L
sS'starttime'
p13
cdatetime
datetime
p14
(S'\x07\xd4\x0b\x18\r\x04\x18\x00\x00\x00'
p15
tp16
Rp17
sS'duration'
p18
L35L
sS'endtime'
p19
g14
(S'\x07\xd4\x0b\x18\r\x04;\x00\x00\x00'
p20
tp21
Rp22
sS'phonenumber_oid'
p23
L1169L
s.(dp0
S'status'
p1
S''
p2
sS'direction'
p3
S'Outgoing'
p4
sS'remote'
p5
g2
sS'description'
p6
S'Voice Call'
p7
sS'callid'
p8
L83L
sS'oid'
p9
L232928L
sS'number'
p10
g2
sS'person_oid'
p11
L9L
sS'contact'
p12
L25L
sS'starttime'
p13
cdatetime
datetime
p14
(S'\x07\xd4\x0b\x18\r\x05\x0e\x00\x00\x00'
p15
tp16
Rp17
sS'duration'
p18
L50L
sS'endtime'
p19
g14
(S'\x07\xd4\x0b\x18\r\x06\x04\x00\x00\x00'
p20
tp21
Rp22
sS'phonenumber_oid'
p23
L1169L
s.(dp0
S'status'
p1
S''
p2
sS'direction'
p3
S'Outgoing'
p4
sS'remote'
p5
g2
sS'description'
p6
S'Voice Call'
p7
sS'callid'
p8
L84L
sS'oid'
p9
L232929L
sS'number'
p10
g2
sS'person_oid'
p11
L9L
sS'contact'
p12
L24L
sS'starttime'
p13
cdatetime
datetime
p14
(S'\x07\xd4\x0b\x18\x10\x1e\n\x00\x00\x00'
p15
tp16
Rp17
sS'duration'
p18
L58L
sS'endtime'
p19
g14
(S'\x07\xd4\x0b\x18\x10\x1f\x08\x00\x00\x00'
p20
tp21
Rp22
sS'phonenumber_oid'
p23
L1168L
s.(dp0
S'status'
p1
S''
p2
sS'direction'
p3
S'Outgoing'
p4
sS'remote'
p5
g2
sS'description'
p6
S'Voice Call'
p7
sS'callid'
p8
L85L
sS'oid'
p9
L232930L
sS'number'
p10
g2
sS'person_oid'
p11
L9L
sS'contact'
p12
L24L
sS'starttime'
p13
cdatetime
datetime
p14
(S"\x07\xd4\x0b\x18\x14\x1b'\x00\x00\x00"
p15
tp16
Rp17
sS'duration'
p18
L68L
sS'endtime'
p19
g14
(S'\x07\xd4\x0b\x18\x14\x1c/\x00\x00\x00'
p20
tp21
Rp22
sS'phonenumber_oid'
p23
L1168L
s.(dp0
S'status'
p1
S''
p2
sS'direction'
p3
S'Outgoing'
p4
sS'remote'
p5
g2
sS'description'
p6
S'Voice Call'
p7
sS'callid'
p8
L86L
sS'oid'
p9
L232931L
sS'number'
p10
g2
sS'person_oid'
p11
L9L
sS'contact'
p12
L24L
sS'starttime'
p13
cdatetime
datetime
p14
(S'\x07\xd4\x0b\x18\x15 \x1c\x00\x00\x00'
p15
tp16
Rp17
sS'duration'
p18
L288L
sS'endtime'
p19
g14
(S'\x07\xd4\x0b\x18\x15%\x10\x00\x00\x00'
p20
tp21
Rp22
sS'phonenumber_oid'
p23
L1168L
s.(dp0
S'status'
p1
S''
p2
sS'direction'
p3
S'Outgoing'
p4
sS'remote'
p5
g2
sS'description'
p6
S'Voice Call'
p7
sS'callid'
p8
L87L
sS'oid'
p9
L232932L
sS'number'
p10
g2
sS'person_oid'
p11
L9L
sS'contact'
p12
L30L
sS'starttime'
p13
cdatetime
datetime
p14
(S'\x07\xd4\x0b\x18\x15(0\x00\x00\x00'
p15
tp16
Rp17
sS'duration'
p18
L81L
sS'endtime'
p19
g14
(S'\x07\xd4\x0b\x18\x15*\t\x00\x00\x00'
p20
tp21
Rp22
sS'phonenumber_oid'
p23
L1176L
s.(dp0
S'status'
p1
S''
p2
sS'direction'
p3
S'Outgoing'
p4
sS'remote'
p5
g2
sS'description'
p6
S'Voice Call'
p7
sS'callid'
p8
L88L
sS'oid'
p9
L232933L
sS'number'
p10
g2
sS'person_oid'
p11
L9L
sS'contact'
p12
L30L
sS'starttime'
p13
cdatetime
datetime
p14
(S'\x07\xd4\x0b\x18\x16\x198\x00\x00\x00'
p15
tp16
Rp17
sS'duration'
p18
L11L
sS'endtime'
p19
g14
(S'\x07\xd4\x0b\x18\x16\x1a\x07\x00\x00\x00'
p20
tp21
Rp22
sS'phonenumber_oid'
p23
L1176L
s.(dp0
S'status'
p1
S''
p2
sS'direction'
p3
S'Outgoing'
p4
sS'remote'
p5
g2
sS'description'
p6
S'Voice Call'
p7
sS'callid'
p8
L89L
sS'oid'
p9
L232934L
sS'number'
p10
g2
sS'person_oid'
p11
L9L
sS'contact'
p12
L30L
sS'starttime'
p13
cdatetime
datetime
p14
(S'\x07\xd4\x0b\x18\x16 \x1d\x00\x00\x00'
p15
tp16
Rp17
sS'duration'
p18
L0L
sS'endtime'
p19
g14
(S'\x07\xd4\x0b\x18\x16 \x1d\x00\x00\x00'
p20
tp21
Rp22
sS'phonenumber_oid'
p23
L1176L
s.(dp0
S'status'
p1
S''
p2
sS'direction'
p3
S'Outgoing'
p4
sS'remote'
p5
g2
sS'description'
p6
S'Voice Call'
p7
sS'callid'
p8
L90L
sS'oid'
p9
L232935L
sS'number'
p10
g2
sS'person_oid'
p11
L9L
sS'contact'
p12
L30L
sS'starttime'
p13
cdatetime
datetime
p14
(S'\x07\xd4\x0b\x18\x16 5\x00\x00\x00'
p15
tp16
Rp17
sS'duration'
p18
L9L
sS'endtime'
p19
g14
(S'\x07\xd4\x0b\x18\x16!\x02\x00\x00\x00'
p20
tp21
Rp22
sS'phonenumber_oid'
p23
L1176L
s.(dp0
S'status'
p1
S''
p2
sS'direction'
p3
S'Outgoing'
p4
sS'remote'
p5
g2
sS'description'
p6
S'Voice Call'
p7
sS'callid'
p8
L91L
sS'oid'
p9
L232936L
sS'number'
p10
g2
sS'person_oid'
p11
L9L
sS'contact'
p12
L30L
sS'starttime'
p13
cdatetime
datetime
p14
(S'\x07\xd4\x0b\x18\x17\x0b\r\x00\x00\x00'
p15
tp16
Rp17
sS'duration'
p18
L24L
sS'endtime'
p19
g14
(S'\x07\xd4\x0b\x18\x17\x0b%\x00\x00\x00'
p20
tp21
Rp22
sS'phonenumber_oid'
p23
L1176L
s.(dp0
S'status'
p1
S''
p2
sS'direction'
p3
S'Outgoing'
p4
sS'remote'
p5
g2
sS'description'
p6
S'Voice Call'
p7
sS'callid'
p8
L92L
sS'oid'
p9
L232937L
sS'number'
p10
g2
sS'person_oid'
p11
L9L
sS'contact'
p12
L30L
sS'starttime'
p13
cdatetime
datetime
p14
(S'\x07\xd4\x0b\x18\x17#\x1e\x00\x00\x00'
p15
tp16
Rp17
sS'duration'
p18
L25L
sS'endtime'
p19
g14
(S'\x07\xd4\x0b\x18\x17#7\x00\x00\x00'
p20
tp21
Rp22
sS'phonenumber_oid'
p23
L1176L
s.(dp0
S'status'
p1
S''
p2
sS'direction'
p3
S'Outgoing'
p4
sS'remote'
p5
g2
sS'description'
p6
S'Voice Call'
p7
sS'callid'
p8
L93L
sS'oid'
p9
L232938L
sS'number'
p10
g2
sS'person_oid'
p11
L9L
sS'contact'
p12
L24L
sS'starttime'
p13
cdatetime
datetime
p14
(S'\x07\xd4\x0b\x19\x021,\x00\x00\x00'
p15
tp16
Rp17
sS'duration'
p18
L0L
sS'endtime'
p19
g14
(S'\x07\xd4\x0b\x19\x021,\x00\x00\x00'
p20
tp21
Rp22
sS'phonenumber_oid'
p23
L1168L
s.(dp0
S'status'
p1
S''
p2
sS'direction'
p3
S'Outgoing'
p4
sS'remote'
p5
g2
sS'description'
p6
S'Voice Call'
p7
sS'callid'
p8
L94L
sS'oid'
p9
L232939L
sS'number'
p10
g2
sS'person_oid'
p11
L9L
sS'contact'
p12
L24L
sS'starttime'
p13
cdatetime
datetime
p14
(S'\x07\xd4\x0b\x19\x022\x1c\x00\x00\x00'
p15
tp16
Rp17
sS'duration'
p18
L7L
sS'endtime'
p19
g14
(S'\x07\xd4\x0b\x19\x022#\x00\x00\x00'
p20
tp21
Rp22
sS'phonenumber_oid'
p23
L1168L
s.(dp0
S'status'
p1
S''
p2
sS'direction'
p3
S'Outgoing'
p4
sS'remote'
p5
g2
sS'description'
p6
S'Voice Call'
p7
sS'callid'
p8
L96L
sS'oid'
p9
L232940L
sS'number'
p10
g2
sS'person_oid'
p11
L9L
sS'contact'
p12
L24L
sS'starttime'
p13
cdatetime
datetime
p14
(S'\x07\xd4\x0b\x19\x11\x19\x05\x00\x00\x00'
p15
tp16
Rp17
sS'duration'
p18
L19L
sS'endtime'
p19
g14
(S'\x07\xd4\x0b\x19\x11\x19\x18\x00\x00\x00'
p20
tp21
Rp22
sS'phonenumber_oid'
p23
L1168L
s.(dp0
S'status'
p1
S''
p2
sS'direction'
p3
S'Incoming'
p4
sS'remote'
p5
g2
sS'description'
p6
S'Voice Call'
p7
sS'callid'
p8
L98L
sS'oid'
p9
L232941L
sS'number'
p10
g2
sS'person_oid'
p11
L9L
sS'contact'
p12
L24L
sS'starttime'
p13
cdatetime
datetime
p14
(S'\x07\xd4\x0b\x19\x12\x1d\x14\x00\x00\x00'
p15
tp16
Rp17
sS'duration'
p18
L21L
sS'endtime'
p19
g14
(S'\x07\xd4\x0b\x19\x12\x1d)\x00\x00\x00'
p20
tp21
Rp22
sS'phonenumber_oid'
p23
L1168L
s.(dp0
S'status'
p1
S''
p2
sS'direction'
p3
S'Outgoing'
p4
sS'remote'
p5
g2
sS'description'
p6
S'Voice Call'
p7
sS'callid'
p8
L99L
sS'oid'
p9
L232942L
sS'number'
p10
g2
sS'person_oid'
p11
L9L
sS'contact'
p12
L24L
sS'starttime'
p13
cdatetime
datetime
p14
(S'\x07\xd4\x0b\x1a\x02&\x19\x00\x00\x00'
p15
tp16
Rp17
sS'duration'
p18
L0L
sS'endtime'
p19
g14
(S'\x07\xd4\x0b\x1a\x02&\x19\x00\x00\x00'
p20
tp21
Rp22
sS'phonenumber_oid'
p23
L1168L
s.(dp0
S'status'
p1
S''
p2
sS'direction'
p3
S'Outgoing'
p4
sS'remote'
p5
g2
sS'description'
p6
S'Voice Call'
p7
sS'callid'
p8
L100L
sS'oid'
p9
L232943L
sS'number'
p10
g2
sS'person_oid'
p11
L9L
sS'contact'
p12
L24L
sS'starttime'
p13
cdatetime
datetime
p14
(S'\x07\xd4\x0b\x1a\x02&4\x00\x00\x00'
p15
tp16
Rp17
sS'duration'
p18
L52L
sS'endtime'
p19
g14
(S"\x07\xd4\x0b\x1a\x02',\x00\x00\x00"
p20
tp21
Rp22
sS'phonenumber_oid'
p23
L1168L
s.(dp0
S'status'
p1
S''
p2
sS'direction'
p3
S'Missed Call'
p4
sS'remote'
p5
g2
sS'description'
p6
S'Voice Call'
p7
sS'callid'
p8
L101L
sS'oid'
p9
L232944L
sS'number'
p10
g2
sS'person_oid'
p11
L9L
sS'contact'
p12
L24L
sS'starttime'
p13
cdatetime
datetime
p14
(S'\x07\xd4\x0b\x1a\x02)\x12\x00\x00\x00'
p15
tp16
Rp17
sS'duration'
p18
L0L
sS'endtime'
p19
g14
(S'\x07\xd4\x0b\x1a\x02)\x12\x00\x00\x00'
p20
tp21
Rp22
sS'phonenumber_oid'
p23
L1168L
s.(dp0
S'status'
p1
S''
p2
sS'direction'
p3
S'Outgoing'
p4
sS'remote'
p5
g2
sS'description'
p6
S'Voice Call'
p7
sS'callid'
p8
L102L
sS'oid'
p9
L232945L
sS'number'
p10
g2
sS'person_oid'
p11
L9L
sS'contact'
p12
L24L
sS'starttime'
p13
cdatetime
datetime
p14
(S'\x07\xd4\x0b\x1a\x03\x13\x01\x00\x00\x00'
p15
tp16
Rp17
sS'duration'
p18
L68L
sS'endtime'
p19
g14
(S'\x07\xd4\x0b\x1a\x03\x14\t\x00\x00\x00'
p20
tp21
Rp22
sS'phonenumber_oid'
p23
L1168L
s.(dp0
S'status'
p1
S''
p2
sS'direction'
p3
S'Outgoing'
p4
sS'remote'
p5
g2
sS'description'
p6
S'Voice Call'
p7
sS'callid'
p8
L104L
sS'oid'
p9
L232946L
sS'number'
p10
g2
sS'person_oid'
p11
L9L
sS'contact'
p12
L26L
sS'starttime'
p13
cdatetime
datetime
p14
(S'\x07\xd4\x0b\x1a\x066:\x00\x00\x00'
p15
tp16
Rp17
sS'duration'
p18
L22L
sS'endtime'
p19
g14
(S'\x07\xd4\x0b\x1a\x067\x14\x00\x00\x00'
p20
tp21
Rp22
sS'phonenumber_oid'
p23
L1177L
s.(dp0
S'status'
p1
S''
p2
sS'direction'
p3
S'Outgoing'
p4
sS'remote'
p5
g2
sS'description'
p6
S'Voice Call'
p7
sS'callid'
p8
L105L
sS'oid'
p9
L232947L
sS'number'
p10
g2
sS'person_oid'
p11
L9L
sS'contact'
p12
L3L
sS'starttime'
p13
cdatetime
datetime
p14
(S'\x07\xd4\x0b\x1a\x07\r\x06\x00\x00\x00'
p15
tp16
Rp17
sS'duration'
p18
L80L
sS'endtime'
p19
g14
(S'\x07\xd4\x0b\x1a\x07\x0e\x1a\x00\x00\x00'
p20
tp21
Rp22
sS'phonenumber_oid'
p23
L1178L
s.(dp0
S'status'
p1
S''
p2
sS'direction'
p3
S'Outgoing'
p4
sS'remote'
p5
g2
sS'description'
p6
S'Voice Call'
p7
sS'callid'
p8
L106L
sS'oid'
p9
L232948L
sS'number'
p10
g2
sS'person_oid'
p11
L9L
sS'contact'
p12
L3L
sS'starttime'
p13
cdatetime
datetime
p14
(S'\x07\xd4\x0b\x1a\x07\x12\x06\x00\x00\x00'
p15
tp16
Rp17
sS'duration'
p18
L30L
sS'endtime'
p19
g14
(S'\x07\xd4\x0b\x1a\x07\x12$\x00\x00\x00'
p20
tp21
Rp22
sS'phonenumber_oid'
p23
L1178L
s.(dp0
S'status'
p1
S''
p2
sS'direction'
p3
S'Outgoing'
p4
sS'remote'
p5
g2
sS'description'
p6
S'Voice Call'
p7
sS'callid'
p8
L107L
sS'oid'
p9
L232949L
sS'number'
p10
g2
sS'person_oid'
p11
L9L
sS'contact'
p12
L26L
sS'starttime'
p13
cdatetime
datetime
p14
(S'\x07\xd4\x0b\x1a\t+\x13\x00\x00\x00'
p15
tp16
Rp17
sS'duration'
p18
L47L
sS'endtime'
p19
g14
(S'\x07\xd4\x0b\x1a\t,\x06\x00\x00\x00'
p20
tp21
Rp22
sS'phonenumber_oid'
p23
L1177L
s.(dp0
S'status'
p1
S''
p2
sS'direction'
p3
S'Incoming'
p4
sS'remote'
p5
g2
sS'description'
p6
S'Voice Call'
p7
sS'callid'
p8
L109L
sS'oid'
p9
L232950L
sS'number'
p10
g2
sS'person_oid'
p11
L9L
sS'contact'
p12
L26L
sS'starttime'
p13
cdatetime
datetime
p14
(S'\x07\xd4\x0b\x1a\t3\x17\x00\x00\x00'
p15
tp16
Rp17
sS'duration'
p18
L22L
sS'endtime'
p19
g14
(S'\x07\xd4\x0b\x1a\t3-\x00\x00\x00'
p20
tp21
Rp22
sS'phonenumber_oid'
p23
L1177L
s.(dp0
S'status'
p1
S''
p2
sS'direction'
p3
S'Incoming'
p4
sS'remote'
p5
g2
sS'description'
p6
S'Voice Call'
p7
sS'callid'
p8
L111L
sS'oid'
p9
L232951L
sS'number'
p10
g2
sS'person_oid'
p11
L9L
sS'contact'
p12
L12L
sS'starttime'
p13
cdatetime
datetime
p14
(S'\x07\xd4\x0b\x1a\n\x05!\x00\x00\x00'
p15
tp16
Rp17
sS'duration'
p18
L15L
sS'endtime'
p19
g14
(S'\x07\xd4\x0b\x1a\n\x050\x00\x00\x00'
p20
tp21
Rp22
sS'phonenumber_oid'
p23
L1165L
s.(dp0
S'status'
p1
S''
p2
sS'direction'
p3
S'Incoming'
p4
sS'remote'
p5
g2
sS'description'
p6
S'Voice Call'
p7
sS'callid'
p8
L113L
sS'oid'
p9
L232952L
sS'number'
p10
g2
sS'person_oid'
p11
L9L
sS'contact'
p12
L3L
sS'starttime'
p13
cdatetime
datetime
p14
(S'\x07\xd4\x0b\x1a\n\x07 \x00\x00\x00'
p15
tp16
Rp17
sS'duration'
p18
L28L
sS'endtime'
p19
g14
(S'\x07\xd4\x0b\x1a\n\x08\x00\x00\x00\x00'
p20
tp21
Rp22
sS'phonenumber_oid'
p23
L1178L
s.(dp0
S'status'
p1
S''
p2
sS'direction'
p3
S'Incoming'
p4
sS'remote'
p5
g2
sS'description'
p6
S'Voice Call'
p7
sS'callid'
p8
L115L
sS'oid'
p9
L232953L
sS'number'
p10
g2
sS'person_oid'
p11
L9L
sS'contact'
p12
L26L
sS'starttime'
p13
cdatetime
datetime
p14
(S'\x07\xd4\x0b\x1a\n#\x0b\x00\x00\x00'
p15
tp16
Rp17
sS'duration'
p18
L12L
sS'endtime'
p19
g14
(S'\x07\xd4\x0b\x1a\n#\x17\x00\x00\x00'
p20
tp21
Rp22
sS'phonenumber_oid'
p23
L1177L
s.(dp0
S'status'
p1
S''
p2
sS'direction'
p3
S'Outgoing'
p4
sS'remote'
p5
g2
sS'description'
p6
S'Voice Call'
p7
sS'callid'
p8
L116L
sS'oid'
p9
L232954L
sS'number'
p10
g2
sS'person_oid'
p11
L9L
sS'contact'
p12
L6L
sS'starttime'
p13
cdatetime
datetime
p14
(S'\x07\xd4\x0b\x1a\n#8\x00\x00\x00'
p15
tp16
Rp17
sS'duration'
p18
L47L
sS'endtime'
p19
g14
(S'\x07\xd4\x0b\x1a\n$+\x00\x00\x00'
p20
tp21
Rp22
sS'phonenumber_oid'
p23
L1170L
s.(dp0
S'status'
p1
S''
p2
sS'direction'
p3
S'Outgoing'
p4
sS'remote'
p5
g2
sS'description'
p6
S'Voice Call'
p7
sS'callid'
p8
L117L
sS'oid'
p9
L232955L
sS'number'
p10
g2
sS'person_oid'
p11
L9L
sS'contact'
p12
L12L
sS'starttime'
p13
cdatetime
datetime
p14
(S'\x07\xd4\x0b\x1a\n%%\x00\x00\x00'
p15
tp16
Rp17
sS'duration'
p18
L0L
sS'endtime'
p19
g14
(S'\x07\xd4\x0b\x1a\n%%\x00\x00\x00'
p20
tp21
Rp22
sS'phonenumber_oid'
p23
L1165L
s.(dp0
S'status'
p1
S''
p2
sS'direction'
p3
S'Incoming'
p4
sS'remote'
p5
g2
sS'description'
p6
S'Voice Call'
p7
sS'callid'
p8
L119L
sS'oid'
p9
L232956L
sS'number'
p10
g2
sS'person_oid'
p11
L9L
sS'contact'
p12
L3L
sS'starttime'
p13
cdatetime
datetime
p14
(S'\x07\xd4\x0b\x1a\n0 \x00\x00\x00'
p15
tp16
Rp17
sS'duration'
p18
L29L
sS'endtime'
p19
g14
(S'\x07\xd4\x0b\x1a\n1\x01\x00\x00\x00'
p20
tp21
Rp22
sS'phonenumber_oid'
p23
L1178L
s.(dp0
S'status'
p1
S''
p2
sS'direction'
p3
S'Outgoing'
p4
sS'remote'
p5
g2
sS'description'
p6
S'Voice Call'
p7
sS'callid'
p8
L121L
sS'oid'
p9
L232957L
sS'number'
p10
g2
sS'person_oid'
p11
L9L
sS'contact'
p12
L12L
sS'starttime'
p13
cdatetime
datetime
p14
(S'\x07\xd4\x0b\x1b\x0e&\x18\x00\x00\x00'
p15
tp16
Rp17
sS'duration'
p18
L62L
sS'endtime'
p19
g14
(S"\x07\xd4\x0b\x1b\x0e'\x1a\x00\x00\x00"
p20
tp21
Rp22
sS'phonenumber_oid'
p23
L1165L
s.(dp0
S'status'
p1
S''
p2
sS'direction'
p3
S'Outgoing'
p4
sS'remote'
p5
g2
sS'description'
p6
S'Voice Call'
p7
sS'callid'
p8
L121L
sS'oid'
p9
L232958L
sS'number'
p10
g2
sS'person_oid'
p11
L9L
sS'contact'
p12
L12L
sS'starttime'
p13
cdatetime
datetime
p14
(S'\x07\xd4\x0b\x1b\x0e&\x18\x00\x00\x00'
p15
tp16
Rp17
sS'duration'
p18
L62L
sS'endtime'
p19
g14
(S"\x07\xd4\x0b\x1b\x0e'\x1a\x00\x00\x00"
p20
tp21
Rp22
sS'phonenumber_oid'
p23
L1165L
s.(dp0
S'status'
p1
S''
p2
sS'direction'
p3
S'Outgoing'
p4
sS'remote'
p5
g2
sS'description'
p6
S'Voice Call'
p7
sS'callid'
p8
L121L
sS'oid'
p9
L233147L
sS'number'
p10
g2
sS'person_oid'
p11
L9L
sS'contact'
p12
L12L
sS'starttime'
p13
cdatetime
datetime
p14
(S'\x07\xd4\x0b\x1b\x0e&\x18\x00\x00\x00'
p15
tp16
Rp17
sS'duration'
p18
L62L
sS'endtime'
p19
g14
(S"\x07\xd4\x0b\x1b\x0e'\x1a\x00\x00\x00"
p20
tp21
Rp22
sS'phonenumber_oid'
p23
L1165L
s.(dp0
S'status'
p1
S''
p2
sS'direction'
p3
S'Incoming'
p4
sS'remote'
p5
g2
sS'description'
p6
S'Voice Call'
p7
sS'callid'
p8
L123L
sS'oid'
p9
L232959L
sS'number'
p10
g2
sS'person_oid'
p11
L9L
sS'contact'
p12
L24L
sS'starttime'
p13
cdatetime
datetime
p14
(S'\x07\xd4\x0b\x1d\x13\x08;\x00\x00\x00'
p15
tp16
Rp17
sS'duration'
p18
L42L
sS'endtime'
p19
g14
(S'\x07\xd4\x0b\x1d\x13\t)\x00\x00\x00'
p20
tp21
Rp22
sS'phonenumber_oid'
p23
L1168L
s.(dp0
S'status'
p1
S''
p2
sS'direction'
p3
S'Incoming'
p4
sS'remote'
p5
g2
sS'description'
p6
S'Voice Call'
p7
sS'callid'
p8
L123L
sS'oid'
p9
L232960L
sS'number'
p10
g2
sS'person_oid'
p11
L9L
sS'contact'
p12
L24L
sS'starttime'
p13
cdatetime
datetime
p14
(S'\x07\xd4\x0b\x1d\x13\x08;\x00\x00\x00'
p15
tp16
Rp17
sS'duration'
p18
L42L
sS'endtime'
p19
g14
(S'\x07\xd4\x0b\x1d\x13\t)\x00\x00\x00'
p20
tp21
Rp22
sS'phonenumber_oid'
p23
L1168L
s.(dp0
S'status'
p1
S''
p2
sS'direction'
p3
S'Incoming'
p4
sS'remote'
p5
g2
sS'description'
p6
S'Voice Call'
p7
sS'callid'
p8
L123L
sS'oid'
p9
L233148L
sS'number'
p10
g2
sS'person_oid'
p11
L9L
sS'contact'
p12
L24L
sS'starttime'
p13
cdatetime
datetime
p14
(S'\x07\xd4\x0b\x1d\x13\x08;\x00\x00\x00'
p15
tp16
Rp17
sS'duration'
p18
L42L
sS'endtime'
p19
g14
(S'\x07\xd4\x0b\x1d\x13\t)\x00\x00\x00'
p20
tp21
Rp22
sS'phonenumber_oid'
p23
L1168L
s.(dp0
S'status'
p1
S''
p2
sS'direction'
p3
S'Incoming'
p4
sS'remote'
p5
g2
sS'description'
p6
S'Voice Call'
p7
sS'callid'
p8
L125L
sS'oid'
p9
L232961L
sS'number'
p10
g2
sS'person_oid'
p11
L9L
sS'contact'
p12
L19L
sS'starttime'
p13
cdatetime
datetime
p14
(S'\x07\xd4\x0c\x01\x01,\x08\x00\x00\x00'
p15
tp16
Rp17
sS'duration'
p18
L143L
sS'endtime'
p19
g14
(S'\x07\xd4\x0c\x01\x01.\x1f\x00\x00\x00'
p20
tp21
Rp22
sS'phonenumber_oid'
p23
L1166L
s.(dp0
S'status'
p1
S''
p2
sS'direction'
p3
S'Incoming'
p4
sS'remote'
p5
g2
sS'description'
p6
S'Voice Call'
p7
sS'callid'
p8
L125L
sS'oid'
p9
L232962L
sS'number'
p10
g2
sS'person_oid'
p11
L9L
sS'contact'
p12
L19L
sS'starttime'
p13
cdatetime
datetime
p14
(S'\x07\xd4\x0c\x01\x01,\x08\x00\x00\x00'
p15
tp16
Rp17
sS'duration'
p18
L143L
sS'endtime'
p19
g14
(S'\x07\xd4\x0c\x01\x01.\x1f\x00\x00\x00'
p20
tp21
Rp22
sS'phonenumber_oid'
p23
L1166L
s.(dp0
S'status'
p1
S''
p2
sS'direction'
p3
S'Incoming'
p4
sS'remote'
p5
g2
sS'description'
p6
S'Voice Call'
p7
sS'callid'
p8
L125L
sS'oid'
p9
L233149L
sS'number'
p10
g2
sS'person_oid'
p11
L9L
sS'contact'
p12
L19L
sS'starttime'
p13
cdatetime
datetime
p14
(S'\x07\xd4\x0c\x01\x01,\x08\x00\x00\x00'
p15
tp16
Rp17
sS'duration'
p18
L143L
sS'endtime'
p19
g14
(S'\x07\xd4\x0c\x01\x01.\x1f\x00\x00\x00'
p20
tp21
Rp22
sS'phonenumber_oid'
p23
L1166L
s.(dp0
S'status'
p1
S''
p2
sS'direction'
p3
S'Incoming'
p4
sS'remote'
p5
g2
sS'description'
p6
S'Voice Call'
p7
sS'callid'
p8
L127L
sS'oid'
p9
L232963L
sS'number'
p10
g2
sS'person_oid'
p11
L9L
sS'contact'
p12
L24L
sS'starttime'
p13
cdatetime
datetime
p14
(S'\x07\xd4\x0c\x01\n;\x0b\x00\x00\x00'
p15
tp16
Rp17
sS'duration'
p18
L12L
sS'endtime'
p19
g14
(S'\x07\xd4\x0c\x01\n;\x17\x00\x00\x00'
p20
tp21
Rp22
sS'phonenumber_oid'
p23
L1168L
s.(dp0
S'status'
p1
S''
p2
sS'direction'
p3
S'Incoming'
p4
sS'remote'
p5
g2
sS'description'
p6
S'Voice Call'
p7
sS'callid'
p8
L127L
sS'oid'
p9
L232969L
sS'number'
p10
g2
sS'person_oid'
p11
L9L
sS'contact'
p12
L24L
sS'starttime'
p13
cdatetime
datetime
p14
(S'\x07\xd4\x0c\x01\n;\x0b\x00\x00\x00'
p15
tp16
Rp17
sS'duration'
p18
L12L
sS'endtime'
p19
g14
(S'\x07\xd4\x0c\x01\n;\x17\x00\x00\x00'
p20
tp21
Rp22
sS'phonenumber_oid'
p23
L1168L
s.(dp0
S'status'
p1
S''
p2
sS'direction'
p3
S'Incoming'
p4
sS'remote'
p5
g2
sS'description'
p6
S'Voice Call'
p7
sS'callid'
p8
L127L
sS'oid'
p9
L233150L
sS'number'
p10
g2
sS'person_oid'
p11
L9L
sS'contact'
p12
L24L
sS'starttime'
p13
cdatetime
datetime
p14
(S'\x07\xd4\x0c\x01\n;\x0b\x00\x00\x00'
p15
tp16
Rp17
sS'duration'
p18
L12L
sS'endtime'
p19
g14
(S'\x07\xd4\x0c\x01\n;\x17\x00\x00\x00'
p20
tp21
Rp22
sS'phonenumber_oid'
p23
L1168L
s.(dp0
S'status'
p1
S''
p2
sS'direction'
p3
S'Outgoing'
p4
sS'remote'
p5
g2
sS'description'
p6
S'Voice Call'
p7
sS'callid'
p8
L128L
sS'oid'
p9
L232964L
sS'number'
p10
g2
sS'person_oid'
p11
L9L
sS'contact'
p12
L19L
sS'starttime'
p13
cdatetime
datetime
p14
(S'\x07\xd4\x0c\x01\x0b\x0b)\x00\x00\x00'
p15
tp16
Rp17
sS'duration'
p18
L18L
sS'endtime'
p19
g14
(S'\x07\xd4\x0c\x01\x0b\x0b;\x00\x00\x00'
p20
tp21
Rp22
sS'phonenumber_oid'
p23
L1166L
s.(dp0
S'status'
p1
S''
p2
sS'direction'
p3
S'Outgoing'
p4
sS'remote'
p5
g2
sS'description'
p6
S'Voice Call'
p7
sS'callid'
p8
L128L
sS'oid'
p9
L232970L
sS'number'
p10
g2
sS'person_oid'
p11
L9L
sS'contact'
p12
L19L
sS'starttime'
p13
cdatetime
datetime
p14
(S'\x07\xd4\x0c\x01\x0b\x0b)\x00\x00\x00'
p15
tp16
Rp17
sS'duration'
p18
L18L
sS'endtime'
p19
g14
(S'\x07\xd4\x0c\x01\x0b\x0b;\x00\x00\x00'
p20
tp21
Rp22
sS'phonenumber_oid'
p23
L1166L
s.(dp0
S'status'
p1
S''
p2
sS'direction'
p3
S'Outgoing'
p4
sS'remote'
p5
g2
sS'description'
p6
S'Voice Call'
p7
sS'callid'
p8
L128L
sS'oid'
p9
L233151L
sS'number'
p10
g2
sS'person_oid'
p11
L9L
sS'contact'
p12
L19L
sS'starttime'
p13
cdatetime
datetime
p14
(S'\x07\xd4\x0c\x01\x0b\x0b)\x00\x00\x00'
p15
tp16
Rp17
sS'duration'
p18
L18L
sS'endtime'
p19
g14
(S'\x07\xd4\x0c\x01\x0b\x0b;\x00\x00\x00'
p20
tp21
Rp22
sS'phonenumber_oid'
p23
L1166L
s.(dp0
S'status'
p1
S''
p2
sS'direction'
p3
S'Incoming'
p4
sS'remote'
p5
g2
sS'description'
p6
S'Voice Call'
p7
sS'callid'
p8
L130L
sS'oid'
p9
L232965L
sS'number'
p10
g2
sS'person_oid'
p11
L9L
sS'contact'
p12
L24L
sS'starttime'
p13
cdatetime
datetime
p14
(S'\x07\xd4\x0c\x01\x0b;\x07\x00\x00\x00'
p15
tp16
Rp17
sS'duration'
p18
L0L
sS'endtime'
p19
g14
(S'\x07\xd4\x0c\x01\x0b;\x07\x00\x00\x00'
p20
tp21
Rp22
sS'phonenumber_oid'
p23
L1168L
s.(dp0
S'status'
p1
S''
p2
sS'direction'
p3
S'Incoming'
p4
sS'remote'
p5
g2
sS'description'
p6
S'Voice Call'
p7
sS'callid'
p8
L130L
sS'oid'
p9
L232971L
sS'number'
p10
g2
sS'person_oid'
p11
L9L
sS'contact'
p12
L24L
sS'starttime'
p13
cdatetime
datetime
p14
(S'\x07\xd4\x0c\x01\x0b;\x07\x00\x00\x00'
p15
tp16
Rp17
sS'duration'
p18
L0L
sS'endtime'
p19
g14
(S'\x07\xd4\x0c\x01\x0b;\x07\x00\x00\x00'
p20
tp21
Rp22
sS'phonenumber_oid'
p23
L1168L
s.(dp0
S'status'
p1
S''
p2
sS'direction'
p3
S'Incoming'
p4
sS'remote'
p5
g2
sS'description'
p6
S'Voice Call'
p7
sS'callid'
p8
L130L
sS'oid'
p9
L233152L
sS'number'
p10
g2
sS'person_oid'
p11
L9L
sS'contact'
p12
L24L
sS'starttime'
p13
cdatetime
datetime
p14
(S'\x07\xd4\x0c\x01\x0b;\x07\x00\x00\x00'
p15
tp16
Rp17
sS'duration'
p18
L0L
sS'endtime'
p19
g14
(S'\x07\xd4\x0c\x01\x0b;\x07\x00\x00\x00'
p20
tp21
Rp22
sS'phonenumber_oid'
p23
L1168L
s.(dp0
S'status'
p1
S''
p2
sS'direction'
p3
S'Outgoing'
p4
sS'remote'
p5
g2
sS'description'
p6
S'Voice Call'
p7
sS'callid'
p8
L131L
sS'oid'
p9
L232966L
sS'number'
p10
g2
sS'person_oid'
p11
L9L
sS'contact'
p12
L24L
sS'starttime'
p13
cdatetime
datetime
p14
(S'\x07\xd4\x0c\x01\x0e\x07\x03\x00\x00\x00'
p15
tp16
Rp17
sS'duration'
p18
L7L
sS'endtime'
p19
g14
(S'\x07\xd4\x0c\x01\x0e\x07\n\x00\x00\x00'
p20
tp21
Rp22
sS'phonenumber_oid'
p23
L1168L
s.(dp0
S'status'
p1
S''
p2
sS'direction'
p3
S'Outgoing'
p4
sS'remote'
p5
g2
sS'description'
p6
S'Voice Call'
p7
sS'callid'
p8
L131L
sS'oid'
p9
L232972L
sS'number'
p10
g2
sS'person_oid'
p11
L9L
sS'contact'
p12
L24L
sS'starttime'
p13
cdatetime
datetime
p14
(S'\x07\xd4\x0c\x01\x0e\x07\x03\x00\x00\x00'
p15
tp16
Rp17
sS'duration'
p18
L7L
sS'endtime'
p19
g14
(S'\x07\xd4\x0c\x01\x0e\x07\n\x00\x00\x00'
p20
tp21
Rp22
sS'phonenumber_oid'
p23
L1168L
s.(dp0
S'status'
p1
S''
p2
sS'direction'
p3
S'Outgoing'
p4
sS'remote'
p5
g2
sS'description'
p6
S'Voice Call'
p7
sS'callid'
p8
L131L
sS'oid'
p9
L233153L
sS'number'
p10
g2
sS'person_oid'
p11
L9L
sS'contact'
p12
L24L
sS'starttime'
p13
cdatetime
datetime
p14
(S'\x07\xd4\x0c\x01\x0e\x07\x03\x00\x00\x00'
p15
tp16
Rp17
sS'duration'
p18
L7L
sS'endtime'
p19
g14
(S'\x07\xd4\x0c\x01\x0e\x07\n\x00\x00\x00'
p20
tp21
Rp22
sS'phonenumber_oid'
p23
L1168L
s.(dp0
S'status'
p1
S''
p2
sS'direction'
p3
S'Missed Call'
p4
sS'remote'
p5
g2
sS'description'
p6
S'Voice Call'
p7
sS'callid'
p8
L132L
sS'oid'
p9
L232967L
sS'number'
p10
g2
sS'person_oid'
p11
L9L
sS'contact'
p12
L24L
sS'starttime'
p13
cdatetime
datetime
p14
(S'\x07\xd4\x0c\x01\x0e\x1c\x0b\x00\x00\x00'
p15
tp16
Rp17
sS'duration'
p18
L0L
sS'endtime'
p19
g14
(S'\x07\xd4\x0c\x01\x0e\x1c\x0b\x00\x00\x00'
p20
tp21
Rp22
sS'phonenumber_oid'
p23
L1168L
s.(dp0
S'status'
p1
S''
p2
sS'direction'
p3
S'Missed Call'
p4
sS'remote'
p5
g2
sS'description'
p6
S'Voice Call'
p7
sS'callid'
p8
L132L
sS'oid'
p9
L232973L
sS'number'
p10
g2
sS'person_oid'
p11
L9L
sS'contact'
p12
L24L
sS'starttime'
p13
cdatetime
datetime
p14
(S'\x07\xd4\x0c\x01\x0e\x1c\x0b\x00\x00\x00'
p15
tp16
Rp17
sS'duration'
p18
L0L
sS'endtime'
p19
g14
(S'\x07\xd4\x0c\x01\x0e\x1c\x0b\x00\x00\x00'
p20
tp21
Rp22
sS'phonenumber_oid'
p23
L1168L
s.(dp0
S'status'
p1
S''
p2
sS'direction'
p3
S'Missed Call'
p4
sS'remote'
p5
g2
sS'description'
p6
S'Voice Call'
p7
sS'callid'
p8
L132L
sS'oid'
p9
L233154L
sS'number'
p10
g2
sS'person_oid'
p11
L9L
sS'contact'
p12
L24L
sS'starttime'
p13
cdatetime
datetime
p14
(S'\x07\xd4\x0c\x01\x0e\x1c\x0b\x00\x00\x00'
p15
tp16
Rp17
sS'duration'
p18
L0L
sS'endtime'
p19
g14
(S'\x07\xd4\x0c\x01\x0e\x1c\x0b\x00\x00\x00'
p20
tp21
Rp22
sS'phonenumber_oid'
p23
L1168L
s.(dp0
S'status'
p1
S''
p2
sS'direction'
p3
S'Incoming'
p4
sS'remote'
p5
g2
sS'description'
p6
S'Voice Call'
p7
sS'callid'
p8
L134L
sS'oid'
p9
L232968L
sS'number'
p10
g2
sS'person_oid'
p11
L9L
sS'contact'
p12
L3L
sS'starttime'
p13
cdatetime
datetime
p14
(S'\x07\xd4\x0c\x01\x14\x0c\x1b\x00\x00\x00'
p15
tp16
Rp17
sS'duration'
p18
L91L
sS'endtime'
p19
g14
(S'\x07\xd4\x0c\x01\x14\r:\x00\x00\x00'
p20
tp21
Rp22
sS'phonenumber_oid'
p23
L1178L
s.(dp0
S'status'
p1
S''
p2
sS'direction'
p3
S'Incoming'
p4
sS'remote'
p5
g2
sS'description'
p6
S'Voice Call'
p7
sS'callid'
p8
L134L
sS'oid'
p9
L232974L
sS'number'
p10
g2
sS'person_oid'
p11
L9L
sS'contact'
p12
L3L
sS'starttime'
p13
cdatetime
datetime
p14
(S'\x07\xd4\x0c\x01\x14\x0c\x1b\x00\x00\x00'
p15
tp16
Rp17
sS'duration'
p18
L91L
sS'endtime'
p19
g14
(S'\x07\xd4\x0c\x01\x14\r:\x00\x00\x00'
p20
tp21
Rp22
sS'phonenumber_oid'
p23
L1178L
s.(dp0
S'status'
p1
S''
p2
sS'direction'
p3
S'Incoming'
p4
sS'remote'
p5
g2
sS'description'
p6
S'Voice Call'
p7
sS'callid'
p8
L134L
sS'oid'
p9
L233155L
sS'number'
p10
g2
sS'person_oid'
p11
L9L
sS'contact'
p12
L3L
sS'starttime'
p13
cdatetime
datetime
p14
(S'\x07\xd4\x0c\x01\x14\x0c\x1b\x00\x00\x00'
p15
tp16
Rp17
sS'duration'
p18
L91L
sS'endtime'
p19
g14
(S'\x07\xd4\x0c\x01\x14\r:\x00\x00\x00'
p20
tp21
Rp22
sS'phonenumber_oid'
p23
L1178L
s.(dp0
S'status'
p1
S'Delivered'
p2
sS'direction'
p3
S'Incoming'
p4
sS'remote'
p5
S''
p6
sS'description'
p7
S'Short Message'
p8
sS'callid'
p9
L135L
sS'oid'
p10
L233156L
sS'number'
p11
g6
sS'person_oid'
p12
L9L
sS'contact'
p13
L-1L
sS'starttime'
p14
cdatetime
datetime
p15
(S'\x07\xd4\x0c\x02\x07-:\x00\x00\x00'
p16
tp17
Rp18
sS'duration'
p19
L0L
sS'endtime'
p20
g15
(S'\x07\xd4\x0c\x02\x07-:\x00\x00\x00'
p21
tp22
Rp23
sS'phonenumber_oid'
p24
L1187L
s.(dp0
S'status'
p1
S'Sent'
p2
sS'direction'
p3
S'Outgoing'
p4
sS'remote'
p5
S''
p6
sS'description'
p7
S'Short Message'
p8
sS'callid'
p9
L136L
sS'oid'
p10
L233157L
sS'number'
p11
g6
sS'person_oid'
p12
L9L
sS'contact'
p13
L-1L
sS'starttime'
p14
cdatetime
datetime
p15
(S'\x07\xd4\x0c\x02\x10\x1b\x08\x00\x00\x00'
p16
tp17
Rp18
sS'duration'
p19
L0L
sS'endtime'
p20
g15
(S'\x07\xd4\x0c\x02\x10\x1b\x08\x00\x00\x00'
p21
tp22
Rp23
sS'phonenumber_oid'
p24
L1188L
s.(dp0
S'status'
p1
S''
p2
sS'direction'
p3
S'Outgoing'
p4
sS'remote'
p5
g2
sS'description'
p6
S'Voice Call'
p7
sS'callid'
p8
L145L
sS'oid'
p9
L232975L
sS'number'
p10
g2
sS'person_oid'
p11
L9L
sS'contact'
p12
L12L
sS'starttime'
p13
cdatetime
datetime
p14
(S'\x07\xd4\x0c\x02\x17 ,\x00\x00\x00'
p15
tp16
Rp17
sS'duration'
p18
L10L
sS'endtime'
p19
g14
(S'\x07\xd4\x0c\x02\x17 6\x00\x00\x00'
p20
tp21
Rp22
sS'phonenumber_oid'
p23
L1165L
s.(dp0
S'status'
p1
S''
p2
sS'direction'
p3
S'Outgoing'
p4
sS'remote'
p5
g2
sS'description'
p6
S'Voice Call'
p7
sS'callid'
p8
L145L
sS'oid'
p9
L232978L
sS'number'
p10
g2
sS'person_oid'
p11
L9L
sS'contact'
p12
L12L
sS'starttime'
p13
cdatetime
datetime
p14
(S'\x07\xd4\x0c\x02\x17 ,\x00\x00\x00'
p15
tp16
Rp17
sS'duration'
p18
L10L
sS'endtime'
p19
g14
(S'\x07\xd4\x0c\x02\x17 6\x00\x00\x00'
p20
tp21
Rp22
sS'phonenumber_oid'
p23
L1165L
s.(dp0
S'status'
p1
S''
p2
sS'direction'
p3
S'Outgoing'
p4
sS'remote'
p5
g2
sS'description'
p6
S'Voice Call'
p7
sS'callid'
p8
L145L
sS'oid'
p9
L233158L
sS'number'
p10
g2
sS'person_oid'
p11
L9L
sS'contact'
p12
L12L
sS'starttime'
p13
cdatetime
datetime
p14
(S'\x07\xd4\x0c\x02\x17 ,\x00\x00\x00'
p15
tp16
Rp17
sS'duration'
p18
L10L
sS'endtime'
p19
g14
(S'\x07\xd4\x0c\x02\x17 6\x00\x00\x00'
p20
tp21
Rp22
sS'phonenumber_oid'
p23
L1165L
s.(dp0
S'status'
p1
S''
p2
sS'direction'
p3
S'Incoming'
p4
sS'remote'
p5
g2
sS'description'
p6
S'Voice Call'
p7
sS'callid'
p8
L147L
sS'oid'
p9
L232976L
sS'number'
p10
g2
sS'person_oid'
p11
L9L
sS'contact'
p12
L12L
sS'starttime'
p13
cdatetime
datetime
p14
(S'\x07\xd4\x0c\x03\x01\x1f"\x00\x00\x00'
p15
tp16
Rp17
sS'duration'
p18
L296L
sS'endtime'
p19
g14
(S'\x07\xd4\x0c\x03\x01$\x1e\x00\x00\x00'
p20
tp21
Rp22
sS'phonenumber_oid'
p23
L1165L
s.(dp0
S'status'
p1
S''
p2
sS'direction'
p3
S'Incoming'
p4
sS'remote'
p5
g2
sS'description'
p6
S'Voice Call'
p7
sS'callid'
p8
L147L
sS'oid'
p9
L232979L
sS'number'
p10
g2
sS'person_oid'
p11
L9L
sS'contact'
p12
L12L
sS'starttime'
p13
cdatetime
datetime
p14
(S'\x07\xd4\x0c\x03\x01\x1f"\x00\x00\x00'
p15
tp16
Rp17
sS'duration'
p18
L296L
sS'endtime'
p19
g14
(S'\x07\xd4\x0c\x03\x01$\x1e\x00\x00\x00'
p20
tp21
Rp22
sS'phonenumber_oid'
p23
L1165L
s.(dp0
S'status'
p1
S''
p2
sS'direction'
p3
S'Incoming'
p4
sS'remote'
p5
g2
sS'description'
p6
S'Voice Call'
p7
sS'callid'
p8
L147L
sS'oid'
p9
L233159L
sS'number'
p10
g2
sS'person_oid'
p11
L9L
sS'contact'
p12
L12L
sS'starttime'
p13
cdatetime
datetime
p14
(S'\x07\xd4\x0c\x03\x01\x1f"\x00\x00\x00'
p15
tp16
Rp17
sS'duration'
p18
L296L
sS'endtime'
p19
g14
(S'\x07\xd4\x0c\x03\x01$\x1e\x00\x00\x00'
p20
tp21
Rp22
sS'phonenumber_oid'
p23
L1165L
s.(dp0
S'status'
p1
S''
p2
sS'direction'
p3
S'Missed Call'
p4
sS'remote'
p5
g2
sS'description'
p6
S'Voice Call'
p7
sS'callid'
p8
L148L
sS'oid'
p9
L232977L
sS'number'
p10
g2
sS'person_oid'
p11
L9L
sS'contact'
p12
L12L
sS'starttime'
p13
cdatetime
datetime
p14
(S'\x07\xd4\x0c\x03\x03\x02$\x00\x00\x00'
p15
tp16
Rp17
sS'duration'
p18
L0L
sS'endtime'
p19
g14
(S'\x07\xd4\x0c\x03\x03\x02$\x00\x00\x00'
p20
tp21
Rp22
sS'phonenumber_oid'
p23
L1165L
s.(dp0
S'status'
p1
S''
p2
sS'direction'
p3
S'Missed Call'
p4
sS'remote'
p5
g2
sS'description'
p6
S'Voice Call'
p7
sS'callid'
p8
L148L
sS'oid'
p9
L232980L
sS'number'
p10
g2
sS'person_oid'
p11
L9L
sS'contact'
p12
L12L
sS'starttime'
p13
cdatetime
datetime
p14
(S'\x07\xd4\x0c\x03\x03\x02$\x00\x00\x00'
p15
tp16
Rp17
sS'duration'
p18
L0L
sS'endtime'
p19
g14
(S'\x07\xd4\x0c\x03\x03\x02$\x00\x00\x00'
p20
tp21
Rp22
sS'phonenumber_oid'
p23
L1165L
s.(dp0
S'status'
p1
S''
p2
sS'direction'
p3
S'Missed Call'
p4
sS'remote'
p5
g2
sS'description'
p6
S'Voice Call'
p7
sS'callid'
p8
L148L
sS'oid'
p9
L233160L
sS'number'
p10
g2
sS'person_oid'
p11
L9L
sS'contact'
p12
L12L
sS'starttime'
p13
cdatetime
datetime
p14
(S'\x07\xd4\x0c\x03\x03\x02$\x00\x00\x00'
p15
tp16
Rp17
sS'duration'
p18
L0L
sS'endtime'
p19
g14
(S'\x07\xd4\x0c\x03\x03\x02$\x00\x00\x00'
p20
tp21
Rp22
sS'phonenumber_oid'
p23
L1165L
s.(dp0
S'status'
p1
S''
p2
sS'direction'
p3
S'Outgoing'
p4
sS'remote'
p5
g2
sS'description'
p6
S'Voice Call'
p7
sS'callid'
p8
L151L
sS'oid'
p9
L232981L
sS'number'
p10
g2
sS'person_oid'
p11
L9L
sS'contact'
p12
L24L
sS'starttime'
p13
cdatetime
datetime
p14
(S'\x07\xd4\x0c\x03\x0f\t9\x00\x00\x00'
p15
tp16
Rp17
sS'duration'
p18
L0L
sS'endtime'
p19
g14
(S'\x07\xd4\x0c\x03\x0f\t9\x00\x00\x00'
p20
tp21
Rp22
sS'phonenumber_oid'
p23
L1168L
s.(dp0
S'status'
p1
S''
p2
sS'direction'
p3
S'Outgoing'
p4
sS'remote'
p5
g2
sS'description'
p6
S'Voice Call'
p7
sS'callid'
p8
L151L
sS'oid'
p9
L232984L
sS'number'
p10
g2
sS'person_oid'
p11
L9L
sS'contact'
p12
L24L
sS'starttime'
p13
cdatetime
datetime
p14
(S'\x07\xd4\x0c\x03\x0f\t9\x00\x00\x00'
p15
tp16
Rp17
sS'duration'
p18
L0L
sS'endtime'
p19
g14
(S'\x07\xd4\x0c\x03\x0f\t9\x00\x00\x00'
p20
tp21
Rp22
sS'phonenumber_oid'
p23
L1168L
s.(dp0
S'status'
p1
S''
p2
sS'direction'
p3
S'Outgoing'
p4
sS'remote'
p5
g2
sS'description'
p6
S'Voice Call'
p7
sS'callid'
p8
L151L
sS'oid'
p9
L233161L
sS'number'
p10
g2
sS'person_oid'
p11
L9L
sS'contact'
p12
L24L
sS'starttime'
p13
cdatetime
datetime
p14
(S'\x07\xd4\x0c\x03\x0f\t9\x00\x00\x00'
p15
tp16
Rp17
sS'duration'
p18
L0L
sS'endtime'
p19
g14
(S'\x07\xd4\x0c\x03\x0f\t9\x00\x00\x00'
p20
tp21
Rp22
sS'phonenumber_oid'
p23
L1168L
s.(dp0
S'status'
p1
S''
p2
sS'direction'
p3
S'Outgoing'
p4
sS'remote'
p5
g2
sS'description'
p6
S'Voice Call'
p7
sS'callid'
p8
L152L
sS'oid'
p9
L232982L
sS'number'
p10
g2
sS'person_oid'
p11
L9L
sS'contact'
p12
L24L
sS'starttime'
p13
cdatetime
datetime
p14
(S'\x07\xd4\x0c\x03\x0f\n\x15\x00\x00\x00'
p15
tp16
Rp17
sS'duration'
p18
L0L
sS'endtime'
p19
g14
(S'\x07\xd4\x0c\x03\x0f\n\x15\x00\x00\x00'
p20
tp21
Rp22
sS'phonenumber_oid'
p23
L1168L
s.(dp0
S'status'
p1
S''
p2
sS'direction'
p3
S'Outgoing'
p4
sS'remote'
p5
g2
sS'description'
p6
S'Voice Call'
p7
sS'callid'
p8
L152L
sS'oid'
p9
L232985L
sS'number'
p10
g2
sS'person_oid'
p11
L9L
sS'contact'
p12
L24L
sS'starttime'
p13
cdatetime
datetime
p14
(S'\x07\xd4\x0c\x03\x0f\n\x15\x00\x00\x00'
p15
tp16
Rp17
sS'duration'
p18
L0L
sS'endtime'
p19
g14
(S'\x07\xd4\x0c\x03\x0f\n\x15\x00\x00\x00'
p20
tp21
Rp22
sS'phonenumber_oid'
p23
L1168L
s.(dp0
S'status'
p1
S''
p2
sS'direction'
p3
S'Outgoing'
p4
sS'remote'
p5
g2
sS'description'
p6
S'Voice Call'
p7
sS'callid'
p8
L152L
sS'oid'
p9
L233162L
sS'number'
p10
g2
sS'person_oid'
p11
L9L
sS'contact'
p12
L24L
sS'starttime'
p13
cdatetime
datetime
p14
(S'\x07\xd4\x0c\x03\x0f\n\x15\x00\x00\x00'
p15
tp16
Rp17
sS'duration'
p18
L0L
sS'endtime'
p19
g14
(S'\x07\xd4\x0c\x03\x0f\n\x15\x00\x00\x00'
p20
tp21
Rp22
sS'phonenumber_oid'
p23
L1168L
s.(dp0
S'status'
p1
S''
p2
sS'direction'
p3
S'Outgoing'
p4
sS'remote'
p5
g2
sS'description'
p6
S'Voice Call'
p7
sS'callid'
p8
L153L
sS'oid'
p9
L232983L
sS'number'
p10
g2
sS'person_oid'
p11
L9L
sS'contact'
p12
L24L
sS'starttime'
p13
cdatetime
datetime
p14
(S'\x07\xd4\x0c\x03\x0f)\x05\x00\x00\x00'
p15
tp16
Rp17
sS'duration'
p18
L59L
sS'endtime'
p19
g14
(S'\x07\xd4\x0c\x03\x0f*\x04\x00\x00\x00'
p20
tp21
Rp22
sS'phonenumber_oid'
p23
L1168L
s.(dp0
S'status'
p1
S''
p2
sS'direction'
p3
S'Outgoing'
p4
sS'remote'
p5
g2
sS'description'
p6
S'Voice Call'
p7
sS'callid'
p8
L153L
sS'oid'
p9
L232986L
sS'number'
p10
g2
sS'person_oid'
p11
L9L
sS'contact'
p12
L24L
sS'starttime'
p13
cdatetime
datetime
p14
(S'\x07\xd4\x0c\x03\x0f)\x05\x00\x00\x00'
p15
tp16
Rp17
sS'duration'
p18
L59L
sS'endtime'
p19
g14
(S'\x07\xd4\x0c\x03\x0f*\x04\x00\x00\x00'
p20
tp21
Rp22
sS'phonenumber_oid'
p23
L1168L
s.(dp0
S'status'
p1
S''
p2
sS'direction'
p3
S'Outgoing'
p4
sS'remote'
p5
g2
sS'description'
p6
S'Voice Call'
p7
sS'callid'
p8
L153L
sS'oid'
p9
L233163L
sS'number'
p10
g2
sS'person_oid'
p11
L9L
sS'contact'
p12
L24L
sS'starttime'
p13
cdatetime
datetime
p14
(S'\x07\xd4\x0c\x03\x0f)\x05\x00\x00\x00'
p15
tp16
Rp17
sS'duration'
p18
L59L
sS'endtime'
p19
g14
(S'\x07\xd4\x0c\x03\x0f*\x04\x00\x00\x00'
p20
tp21
Rp22
sS'phonenumber_oid'
p23
L1168L
s.(dp0
S'status'
p1
S''
p2
sS'direction'
p3
S'Incoming'
p4
sS'remote'
p5
g2
sS'description'
p6
S'Voice Call'
p7
sS'callid'
p8
L158L
sS'oid'
p9
L232987L
sS'number'
p10
g2
sS'person_oid'
p11
L9L
sS'contact'
p12
L6L
sS'starttime'
p13
cdatetime
datetime
p14
(S'\x07\xd4\x0c\x04\r\x03\x18\x00\x00\x00'
p15
tp16
Rp17
sS'duration'
p18
L14L
sS'endtime'
p19
g14
(S'\x07\xd4\x0c\x04\r\x03&\x00\x00\x00'
p20
tp21
Rp22
sS'phonenumber_oid'
p23
L1170L
s.(dp0
S'status'
p1
S''
p2
sS'direction'
p3
S'Incoming'
p4
sS'remote'
p5
g2
sS'description'
p6
S'Voice Call'
p7
sS'callid'
p8
L158L
sS'oid'
p9
L232989L
sS'number'
p10
g2
sS'person_oid'
p11
L9L
sS'contact'
p12
L6L
sS'starttime'
p13
cdatetime
datetime
p14
(S'\x07\xd4\x0c\x04\r\x03\x18\x00\x00\x00'
p15
tp16
Rp17
sS'duration'
p18
L14L
sS'endtime'
p19
g14
(S'\x07\xd4\x0c\x04\r\x03&\x00\x00\x00'
p20
tp21
Rp22
sS'phonenumber_oid'
p23
L1170L
s.(dp0
S'status'
p1
S''
p2
sS'direction'
p3
S'Incoming'
p4
sS'remote'
p5
g2
sS'description'
p6
S'Voice Call'
p7
sS'callid'
p8
L158L
sS'oid'
p9
L233164L
sS'number'
p10
g2
sS'person_oid'
p11
L9L
sS'contact'
p12
L6L
sS'starttime'
p13
cdatetime
datetime
p14
(S'\x07\xd4\x0c\x04\r\x03\x18\x00\x00\x00'
p15
tp16
Rp17
sS'duration'
p18
L14L
sS'endtime'
p19
g14
(S'\x07\xd4\x0c\x04\r\x03&\x00\x00\x00'
p20
tp21
Rp22
sS'phonenumber_oid'
p23
L1170L
s.(dp0
S'status'
p1
S''
p2
sS'direction'
p3
S'Outgoing'
p4
sS'remote'
p5
g2
sS'description'
p6
S'Voice Call'
p7
sS'callid'
p8
L159L
sS'oid'
p9
L232988L
sS'number'
p10
g2
sS'person_oid'
p11
L9L
sS'contact'
p12
L15L
sS'starttime'
p13
cdatetime
datetime
p14
(S'\x07\xd4\x0c\x04\x0e\x12!\x00\x00\x00'
p15
tp16
Rp17
sS'duration'
p18
L57L
sS'endtime'
p19
g14
(S'\x07\xd4\x0c\x04\x0e\x13\x1e\x00\x00\x00'
p20
tp21
Rp22
sS'phonenumber_oid'
p23
L1172L
s.(dp0
S'status'
p1
S''
p2
sS'direction'
p3
S'Outgoing'
p4
sS'remote'
p5
g2
sS'description'
p6
S'Voice Call'
p7
sS'callid'
p8
L159L
sS'oid'
p9
L232990L
sS'number'
p10
g2
sS'person_oid'
p11
L9L
sS'contact'
p12
L15L
sS'starttime'
p13
cdatetime
datetime
p14
(S'\x07\xd4\x0c\x04\x0e\x12!\x00\x00\x00'
p15
tp16
Rp17
sS'duration'
p18
L57L
sS'endtime'
p19
g14
(S'\x07\xd4\x0c\x04\x0e\x13\x1e\x00\x00\x00'
p20
tp21
Rp22
sS'phonenumber_oid'
p23
L1172L
s.(dp0
S'status'
p1
S''
p2
sS'direction'
p3
S'Outgoing'
p4
sS'remote'
p5
g2
sS'description'
p6
S'Voice Call'
p7
sS'callid'
p8
L159L
sS'oid'
p9
L233165L
sS'number'
p10
g2
sS'person_oid'
p11
L9L
sS'contact'
p12
L15L
sS'starttime'
p13
cdatetime
datetime
p14
(S'\x07\xd4\x0c\x04\x0e\x12!\x00\x00\x00'
p15
tp16
Rp17
sS'duration'
p18
L57L
sS'endtime'
p19
g14
(S'\x07\xd4\x0c\x04\x0e\x13\x1e\x00\x00\x00'
p20
tp21
Rp22
sS'phonenumber_oid'
p23
L1172L
s.(dp0
S'status'
p1
S''
p2
sS'direction'
p3
S'Outgoing'
p4
sS'remote'
p5
g2
sS'description'
p6
S'Voice Call'
p7
sS'callid'
p8
L162L
sS'oid'
p9
L232991L
sS'number'
p10
g2
sS'person_oid'
p11
L9L
sS'contact'
p12
L27L
sS'starttime'
p13
cdatetime
datetime
p14
(S'\x07\xd4\x0c\x06\x0e\x1f.\x00\x00\x00'
p15
tp16
Rp17
sS'duration'
p18
L211L
sS'endtime'
p19
g14
(S'\x07\xd4\x0c\x06\x0e#\x11\x00\x00\x00'
p20
tp21
Rp22
sS'phonenumber_oid'
p23
L1179L
s.(dp0
S'status'
p1
S''
p2
sS'direction'
p3
S'Outgoing'
p4
sS'remote'
p5
g2
sS'description'
p6
S'Voice Call'
p7
sS'callid'
p8
L162L
sS'oid'
p9
L232996L
sS'number'
p10
g2
sS'person_oid'
p11
L9L
sS'contact'
p12
L27L
sS'starttime'
p13
cdatetime
datetime
p14
(S'\x07\xd4\x0c\x06\x0e\x1f.\x00\x00\x00'
p15
tp16
Rp17
sS'duration'
p18
L211L
sS'endtime'
p19
g14
(S'\x07\xd4\x0c\x06\x0e#\x11\x00\x00\x00'
p20
tp21
Rp22
sS'phonenumber_oid'
p23
L1179L
s.(dp0
S'status'
p1
S''
p2
sS'direction'
p3
S'Outgoing'
p4
sS'remote'
p5
g2
sS'description'
p6
S'Voice Call'
p7
sS'callid'
p8
L162L
sS'oid'
p9
L233166L
sS'number'
p10
g2
sS'person_oid'
p11
L9L
sS'contact'
p12
L27L
sS'starttime'
p13
cdatetime
datetime
p14
(S'\x07\xd4\x0c\x06\x0e\x1f.\x00\x00\x00'
p15
tp16
Rp17
sS'duration'
p18
L211L
sS'endtime'
p19
g14
(S'\x07\xd4\x0c\x06\x0e#\x11\x00\x00\x00'
p20
tp21
Rp22
sS'phonenumber_oid'
p23
L1179L
s.(dp0
S'status'
p1
S''
p2
sS'direction'
p3
S'Outgoing'
p4
sS'remote'
p5
g2
sS'description'
p6
S'Voice Call'
p7
sS'callid'
p8
L163L
sS'oid'
p9
L232992L
sS'number'
p10
g2
sS'person_oid'
p11
L9L
sS'contact'
p12
L19L
sS'starttime'
p13
cdatetime
datetime
p14
(S'\x07\xd4\x0c\x06\x0f1\t\x00\x00\x00'
p15
tp16
Rp17
sS'duration'
p18
L0L
sS'endtime'
p19
g14
(S'\x07\xd4\x0c\x06\x0f1\t\x00\x00\x00'
p20
tp21
Rp22
sS'phonenumber_oid'
p23
L1166L
s.(dp0
S'status'
p1
S''
p2
sS'direction'
p3
S'Outgoing'
p4
sS'remote'
p5
g2
sS'description'
p6
S'Voice Call'
p7
sS'callid'
p8
L163L
sS'oid'
p9
L232997L
sS'number'
p10
g2
sS'person_oid'
p11
L9L
sS'contact'
p12
L19L
sS'starttime'
p13
cdatetime
datetime
p14
(S'\x07\xd4\x0c\x06\x0f1\t\x00\x00\x00'
p15
tp16
Rp17
sS'duration'
p18
L0L
sS'endtime'
p19
g14
(S'\x07\xd4\x0c\x06\x0f1\t\x00\x00\x00'
p20
tp21
Rp22
sS'phonenumber_oid'
p23
L1166L
s.(dp0
S'status'
p1
S''
p2
sS'direction'
p3
S'Outgoing'
p4
sS'remote'
p5
g2
sS'description'
p6
S'Voice Call'
p7
sS'callid'
p8
L163L
sS'oid'
p9
L233167L
sS'number'
p10
g2
sS'person_oid'
p11
L9L
sS'contact'
p12
L19L
sS'starttime'
p13
cdatetime
datetime
p14
(S'\x07\xd4\x0c\x06\x0f1\t\x00\x00\x00'
p15
tp16
Rp17
sS'duration'
p18
L0L
sS'endtime'
p19
g14
(S'\x07\xd4\x0c\x06\x0f1\t\x00\x00\x00'
p20
tp21
Rp22
sS'phonenumber_oid'
p23
L1166L
s.(dp0
S'status'
p1
S''
p2
sS'direction'
p3
S'Outgoing'
p4
sS'remote'
p5
g2
sS'description'
p6
S'Voice Call'
p7
sS'callid'
p8
L164L
sS'oid'
p9
L232993L
sS'number'
p10
g2
sS'person_oid'
p11
L9L
sS'contact'
p12
L19L
sS'starttime'
p13
cdatetime
datetime
p14
(S'\x07\xd4\x0c\x06\x0f2\x08\x00\x00\x00'
p15
tp16
Rp17
sS'duration'
p18
L3L
sS'endtime'
p19
g14
(S'\x07\xd4\x0c\x06\x0f2\x0b\x00\x00\x00'
p20
tp21
Rp22
sS'phonenumber_oid'
p23
L1166L
s.(dp0
S'status'
p1
S''
p2
sS'direction'
p3
S'Outgoing'
p4
sS'remote'
p5
g2
sS'description'
p6
S'Voice Call'
p7
sS'callid'
p8
L164L
sS'oid'
p9
L232998L
sS'number'
p10
g2
sS'person_oid'
p11
L9L
sS'contact'
p12
L19L
sS'starttime'
p13
cdatetime
datetime
p14
(S'\x07\xd4\x0c\x06\x0f2\x08\x00\x00\x00'
p15
tp16
Rp17
sS'duration'
p18
L3L
sS'endtime'
p19
g14
(S'\x07\xd4\x0c\x06\x0f2\x0b\x00\x00\x00'
p20
tp21
Rp22
sS'phonenumber_oid'
p23
L1166L
s.(dp0
S'status'
p1
S''
p2
sS'direction'
p3
S'Outgoing'
p4
sS'remote'
p5
g2
sS'description'
p6
S'Voice Call'
p7
sS'callid'
p8
L164L
sS'oid'
p9
L233168L
sS'number'
p10
g2
sS'person_oid'
p11
L9L
sS'contact'
p12
L19L
sS'starttime'
p13
cdatetime
datetime
p14
(S'\x07\xd4\x0c\x06\x0f2\x08\x00\x00\x00'
p15
tp16
Rp17
sS'duration'
p18
L3L
sS'endtime'
p19
g14
(S'\x07\xd4\x0c\x06\x0f2\x0b\x00\x00\x00'
p20
tp21
Rp22
sS'phonenumber_oid'
p23
L1166L
s.(dp0
S'status'
p1
S''
p2
sS'direction'
p3
S'Incoming'
p4
sS'remote'
p5
g2
sS'description'
p6
S'Voice Call'
p7
sS'callid'
p8
L166L
sS'oid'
p9
L232994L
sS'number'
p10
g2
sS'person_oid'
p11
L9L
sS'contact'
p12
L19L
sS'starttime'
p13
cdatetime
datetime
p14
(S'\x07\xd4\x0c\x06\x10$$\x00\x00\x00'
p15
tp16
Rp17
sS'duration'
p18
L0L
sS'endtime'
p19
g14
(S'\x07\xd4\x0c\x06\x10$$\x00\x00\x00'
p20
tp21
Rp22
sS'phonenumber_oid'
p23
L1166L
s.(dp0
S'status'
p1
S''
p2
sS'direction'
p3
S'Incoming'
p4
sS'remote'
p5
g2
sS'description'
p6
S'Voice Call'
p7
sS'callid'
p8
L166L
sS'oid'
p9
L232999L
sS'number'
p10
g2
sS'person_oid'
p11
L9L
sS'contact'
p12
L19L
sS'starttime'
p13
cdatetime
datetime
p14
(S'\x07\xd4\x0c\x06\x10$$\x00\x00\x00'
p15
tp16
Rp17
sS'duration'
p18
L0L
sS'endtime'
p19
g14
(S'\x07\xd4\x0c\x06\x10$$\x00\x00\x00'
p20
tp21
Rp22
sS'phonenumber_oid'
p23
L1166L
s.(dp0
S'status'
p1
S''
p2
sS'direction'
p3
S'Incoming'
p4
sS'remote'
p5
g2
sS'description'
p6
S'Voice Call'
p7
sS'callid'
p8
L166L
sS'oid'
p9
L233169L
sS'number'
p10
g2
sS'person_oid'
p11
L9L
sS'contact'
p12
L19L
sS'starttime'
p13
cdatetime
datetime
p14
(S'\x07\xd4\x0c\x06\x10$$\x00\x00\x00'
p15
tp16
Rp17
sS'duration'
p18
L0L
sS'endtime'
p19
g14
(S'\x07\xd4\x0c\x06\x10$$\x00\x00\x00'
p20
tp21
Rp22
sS'phonenumber_oid'
p23
L1166L
s.(dp0
S'status'
p1
S''
p2
sS'direction'
p3
S'Outgoing'
p4
sS'remote'
p5
g2
sS'description'
p6
S'Voice Call'
p7
sS'callid'
p8
L169L
sS'oid'
p9
L232995L
sS'number'
p10
g2
sS'person_oid'
p11
L9L
sS'contact'
p12
L24L
sS'starttime'
p13
cdatetime
datetime
p14
(S'\x07\xd4\x0c\x06\x15\x1d\x1f\x00\x00\x00'
p15
tp16
Rp17
sS'duration'
p18
L128L
sS'endtime'
p19
g14
(S"\x07\xd4\x0c\x06\x15\x1f'\x00\x00\x00"
p20
tp21
Rp22
sS'phonenumber_oid'
p23
L1168L
s.(dp0
S'status'
p1
S''
p2
sS'direction'
p3
S'Outgoing'
p4
sS'remote'
p5
g2
sS'description'
p6
S'Voice Call'
p7
sS'callid'
p8
L169L
sS'oid'
p9
L233000L
sS'number'
p10
g2
sS'person_oid'
p11
L9L
sS'contact'
p12
L24L
sS'starttime'
p13
cdatetime
datetime
p14
(S'\x07\xd4\x0c\x06\x15\x1d\x1f\x00\x00\x00'
p15
tp16
Rp17
sS'duration'
p18
L128L
sS'endtime'
p19
g14
(S"\x07\xd4\x0c\x06\x15\x1f'\x00\x00\x00"
p20
tp21
Rp22
sS'phonenumber_oid'
p23
L1168L
s.(dp0
S'status'
p1
S''
p2
sS'direction'
p3
S'Outgoing'
p4
sS'remote'
p5
g2
sS'description'
p6
S'Voice Call'
p7
sS'callid'
p8
L169L
sS'oid'
p9
L233170L
sS'number'
p10
g2
sS'person_oid'
p11
L9L
sS'contact'
p12
L24L
sS'starttime'
p13
cdatetime
datetime
p14
(S'\x07\xd4\x0c\x06\x15\x1d\x1f\x00\x00\x00'
p15
tp16
Rp17
sS'duration'
p18
L128L
sS'endtime'
p19
g14
(S"\x07\xd4\x0c\x06\x15\x1f'\x00\x00\x00"
p20
tp21
Rp22
sS'phonenumber_oid'
p23
L1168L
s.(dp0
S'status'
p1
S''
p2
sS'direction'
p3
S'Incoming'
p4
sS'remote'
p5
g2
sS'description'
p6
S'Voice Call'
p7
sS'callid'
p8
L173L
sS'oid'
p9
L233001L
sS'number'
p10
g2
sS'person_oid'
p11
L9L
sS'contact'
p12
L11L
sS'starttime'
p13
cdatetime
datetime
p14
(S'\x07\xd4\x0c\x07\x0c\x044\x00\x00\x00'
p15
tp16
Rp17
sS'duration'
p18
L4L
sS'endtime'
p19
g14
(S'\x07\xd4\x0c\x07\x0c\x048\x00\x00\x00'
p20
tp21
Rp22
sS'phonenumber_oid'
p23
L1174L
s.(dp0
S'status'
p1
S''
p2
sS'direction'
p3
S'Incoming'
p4
sS'remote'
p5
g2
sS'description'
p6
S'Voice Call'
p7
sS'callid'
p8
L173L
sS'oid'
p9
L233005L
sS'number'
p10
g2
sS'person_oid'
p11
L9L
sS'contact'
p12
L11L
sS'starttime'
p13
cdatetime
datetime
p14
(S'\x07\xd4\x0c\x07\x0c\x044\x00\x00\x00'
p15
tp16
Rp17
sS'duration'
p18
L4L
sS'endtime'
p19
g14
(S'\x07\xd4\x0c\x07\x0c\x048\x00\x00\x00'
p20
tp21
Rp22
sS'phonenumber_oid'
p23
L1174L
s.(dp0
S'status'
p1
S''
p2
sS'direction'
p3
S'Incoming'
p4
sS'remote'
p5
g2
sS'description'
p6
S'Voice Call'
p7
sS'callid'
p8
L173L
sS'oid'
p9
L233171L
sS'number'
p10
g2
sS'person_oid'
p11
L9L
sS'contact'
p12
L11L
sS'starttime'
p13
cdatetime
datetime
p14
(S'\x07\xd4\x0c\x07\x0c\x044\x00\x00\x00'
p15
tp16
Rp17
sS'duration'
p18
L4L
sS'endtime'
p19
g14
(S'\x07\xd4\x0c\x07\x0c\x048\x00\x00\x00'
p20
tp21
Rp22
sS'phonenumber_oid'
p23
L1174L
s.(dp0
S'status'
p1
S''
p2
sS'direction'
p3
S'Incoming'
p4
sS'remote'
p5
g2
sS'description'
p6
S'Voice Call'
p7
sS'callid'
p8
L175L
sS'oid'
p9
L233002L
sS'number'
p10
g2
sS'person_oid'
p11
L9L
sS'contact'
p12
L11L
sS'starttime'
p13
cdatetime
datetime
p14
(S'\x07\xd4\x0c\x07\x0c\x1b\x1b\x00\x00\x00'
p15
tp16
Rp17
sS'duration'
p18
L0L
sS'endtime'
p19
g14
(S'\x07\xd4\x0c\x07\x0c\x1b\x1b\x00\x00\x00'
p20
tp21
Rp22
sS'phonenumber_oid'
p23
L1174L
s.(dp0
S'status'
p1
S''
p2
sS'direction'
p3
S'Incoming'
p4
sS'remote'
p5
g2
sS'description'
p6
S'Voice Call'
p7
sS'callid'
p8
L175L
sS'oid'
p9
L233006L
sS'number'
p10
g2
sS'person_oid'
p11
L9L
sS'contact'
p12
L11L
sS'starttime'
p13
cdatetime
datetime
p14
(S'\x07\xd4\x0c\x07\x0c\x1b\x1b\x00\x00\x00'
p15
tp16
Rp17
sS'duration'
p18
L0L
sS'endtime'
p19
g14
(S'\x07\xd4\x0c\x07\x0c\x1b\x1b\x00\x00\x00'
p20
tp21
Rp22
sS'phonenumber_oid'
p23
L1174L
s.(dp0
S'status'
p1
S''
p2
sS'direction'
p3
S'Incoming'
p4
sS'remote'
p5
g2
sS'description'
p6
S'Voice Call'
p7
sS'callid'
p8
L175L
sS'oid'
p9
L233172L
sS'number'
p10
g2
sS'person_oid'
p11
L9L
sS'contact'
p12
L11L
sS'starttime'
p13
cdatetime
datetime
p14
(S'\x07\xd4\x0c\x07\x0c\x1b\x1b\x00\x00\x00'
p15
tp16
Rp17
sS'duration'
p18
L0L
sS'endtime'
p19
g14
(S'\x07\xd4\x0c\x07\x0c\x1b\x1b\x00\x00\x00'
p20
tp21
Rp22
sS'phonenumber_oid'
p23
L1174L
s.(dp0
S'status'
p1
S''
p2
sS'direction'
p3
S'Outgoing'
p4
sS'remote'
p5
g2
sS'description'
p6
S'Voice Call'
p7
sS'callid'
p8
L176L
sS'oid'
p9
L233003L
sS'number'
p10
g2
sS'person_oid'
p11
L9L
sS'contact'
p12
L11L
sS'starttime'
p13
cdatetime
datetime
p14
(S'\x07\xd4\x0c\x07\x0c9\x10\x00\x00\x00'
p15
tp16
Rp17
sS'duration'
p18
L186L
sS'endtime'
p19
g14
(S'\x07\xd4\x0c\x07\r\x00\x16\x00\x00\x00'
p20
tp21
Rp22
sS'phonenumber_oid'
p23
L1174L
s.(dp0
S'status'
p1
S''
p2
sS'direction'
p3
S'Outgoing'
p4
sS'remote'
p5
g2
sS'description'
p6
S'Voice Call'
p7
sS'callid'
p8
L176L
sS'oid'
p9
L233007L
sS'number'
p10
g2
sS'person_oid'
p11
L9L
sS'contact'
p12
L11L
sS'starttime'
p13
cdatetime
datetime
p14
(S'\x07\xd4\x0c\x07\x0c9\x10\x00\x00\x00'
p15
tp16
Rp17
sS'duration'
p18
L186L
sS'endtime'
p19
g14
(S'\x07\xd4\x0c\x07\r\x00\x16\x00\x00\x00'
p20
tp21
Rp22
sS'phonenumber_oid'
p23
L1174L
s.(dp0
S'status'
p1
S''
p2
sS'direction'
p3
S'Outgoing'
p4
sS'remote'
p5
g2
sS'description'
p6
S'Voice Call'
p7
sS'callid'
p8
L176L
sS'oid'
p9
L233173L
sS'number'
p10
g2
sS'person_oid'
p11
L9L
sS'contact'
p12
L11L
sS'starttime'
p13
cdatetime
datetime
p14
(S'\x07\xd4\x0c\x07\x0c9\x10\x00\x00\x00'
p15
tp16
Rp17
sS'duration'
p18
L186L
sS'endtime'
p19
g14
(S'\x07\xd4\x0c\x07\r\x00\x16\x00\x00\x00'
p20
tp21
Rp22
sS'phonenumber_oid'
p23
L1174L
s.(dp0
S'status'
p1
S''
p2
sS'direction'
p3
S'Outgoing'
p4
sS'remote'
p5
g2
sS'description'
p6
S'Voice Call'
p7
sS'callid'
p8
L183L
sS'oid'
p9
L233004L
sS'number'
p10
g2
sS'person_oid'
p11
L9L
sS'contact'
p12
L19L
sS'starttime'
p13
cdatetime
datetime
p14
(S'\x07\xd4\x0c\x07\x14\x1a\x06\x00\x00\x00'
p15
tp16
Rp17
sS'duration'
p18
L51L
sS'endtime'
p19
g14
(S'\x07\xd4\x0c\x07\x14\x1a9\x00\x00\x00'
p20
tp21
Rp22
sS'phonenumber_oid'
p23
L1166L
s.(dp0
S'status'
p1
S''
p2
sS'direction'
p3
S'Outgoing'
p4
sS'remote'
p5
g2
sS'description'
p6
S'Voice Call'
p7
sS'callid'
p8
L183L
sS'oid'
p9
L233008L
sS'number'
p10
g2
sS'person_oid'
p11
L9L
sS'contact'
p12
L19L
sS'starttime'
p13
cdatetime
datetime
p14
(S'\x07\xd4\x0c\x07\x14\x1a\x06\x00\x00\x00'
p15
tp16
Rp17
sS'duration'
p18
L51L
sS'endtime'
p19
g14
(S'\x07\xd4\x0c\x07\x14\x1a9\x00\x00\x00'
p20
tp21
Rp22
sS'phonenumber_oid'
p23
L1166L
s.(dp0
S'status'
p1
S''
p2
sS'direction'
p3
S'Outgoing'
p4
sS'remote'
p5
g2
sS'description'
p6
S'Voice Call'
p7
sS'callid'
p8
L183L
sS'oid'
p9
L233174L
sS'number'
p10
g2
sS'person_oid'
p11
L9L
sS'contact'
p12
L19L
sS'starttime'
p13
cdatetime
datetime
p14
(S'\x07\xd4\x0c\x07\x14\x1a\x06\x00\x00\x00'
p15
tp16
Rp17
sS'duration'
p18
L51L
sS'endtime'
p19
g14
(S'\x07\xd4\x0c\x07\x14\x1a9\x00\x00\x00'
p20
tp21
Rp22
sS'phonenumber_oid'
p23
L1166L
s.(dp0
S'status'
p1
S''
p2
sS'direction'
p3
S'Outgoing'
p4
sS'remote'
p5
g2
sS'description'
p6
S'Voice Call'
p7
sS'callid'
p8
L188L
sS'oid'
p9
L233009L
sS'number'
p10
g2
sS'person_oid'
p11
L9L
sS'contact'
p12
L24L
sS'starttime'
p13
cdatetime
datetime
p14
(S'\x07\xd4\x0c\t\x00\x01\x02\x00\x00\x00'
p15
tp16
Rp17
sS'duration'
p18
L38L
sS'endtime'
p19
g14
(S'\x07\xd4\x0c\t\x00\x01(\x00\x00\x00'
p20
tp21
Rp22
sS'phonenumber_oid'
p23
L1168L
s.(dp0
S'status'
p1
S''
p2
sS'direction'
p3
S'Outgoing'
p4
sS'remote'
p5
g2
sS'description'
p6
S'Voice Call'
p7
sS'callid'
p8
L188L
sS'oid'
p9
L233010L
sS'number'
p10
g2
sS'person_oid'
p11
L9L
sS'contact'
p12
L24L
sS'starttime'
p13
cdatetime
datetime
p14
(S'\x07\xd4\x0c\t\x00\x01\x02\x00\x00\x00'
p15
tp16
Rp17
sS'duration'
p18
L38L
sS'endtime'
p19
g14
(S'\x07\xd4\x0c\t\x00\x01(\x00\x00\x00'
p20
tp21
Rp22
sS'phonenumber_oid'
p23
L1168L
s.(dp0
S'status'
p1
S''
p2
sS'direction'
p3
S'Outgoing'
p4
sS'remote'
p5
g2
sS'description'
p6
S'Voice Call'
p7
sS'callid'
p8
L188L
sS'oid'
p9
L233175L
sS'number'
p10
g2
sS'person_oid'
p11
L9L
sS'contact'
p12
L24L
sS'starttime'
p13
cdatetime
datetime
p14
(S'\x07\xd4\x0c\t\x00\x01\x02\x00\x00\x00'
p15
tp16
Rp17
sS'duration'
p18
L38L
sS'endtime'
p19
g14
(S'\x07\xd4\x0c\t\x00\x01(\x00\x00\x00'
p20
tp21
Rp22
sS'phonenumber_oid'
p23
L1168L
s.(dp0
S'status'
p1
S''
p2
sS'direction'
p3
S'Missed Call'
p4
sS'remote'
p5
g2
sS'description'
p6
S'Voice Call'
p7
sS'callid'
p8
L189L
sS'oid'
p9
L233011L
sS'number'
p10
g2
sS'person_oid'
p11
L9L
sS'contact'
p12
L24L
sS'starttime'
p13
cdatetime
datetime
p14
(S'\x07\xd4\x0c\t\r8\x17\x00\x00\x00'
p15
tp16
Rp17
sS'duration'
p18
L0L
sS'endtime'
p19
g14
(S'\x07\xd4\x0c\t\r8\x17\x00\x00\x00'
p20
tp21
Rp22
sS'phonenumber_oid'
p23
L1168L
s.(dp0
S'status'
p1
S''
p2
sS'direction'
p3
S'Missed Call'
p4
sS'remote'
p5
g2
sS'description'
p6
S'Voice Call'
p7
sS'callid'
p8
L189L
sS'oid'
p9
L233013L
sS'number'
p10
g2
sS'person_oid'
p11
L9L
sS'contact'
p12
L24L
sS'starttime'
p13
cdatetime
datetime
p14
(S'\x07\xd4\x0c\t\r8\x17\x00\x00\x00'
p15
tp16
Rp17
sS'duration'
p18
L0L
sS'endtime'
p19
g14
(S'\x07\xd4\x0c\t\r8\x17\x00\x00\x00'
p20
tp21
Rp22
sS'phonenumber_oid'
p23
L1168L
s.(dp0
S'status'
p1
S''
p2
sS'direction'
p3
S'Missed Call'
p4
sS'remote'
p5
g2
sS'description'
p6
S'Voice Call'
p7
sS'callid'
p8
L189L
sS'oid'
p9
L233176L
sS'number'
p10
g2
sS'person_oid'
p11
L9L
sS'contact'
p12
L24L
sS'starttime'
p13
cdatetime
datetime
p14
(S'\x07\xd4\x0c\t\r8\x17\x00\x00\x00'
p15
tp16
Rp17
sS'duration'
p18
L0L
sS'endtime'
p19
g14
(S'\x07\xd4\x0c\t\r8\x17\x00\x00\x00'
p20
tp21
Rp22
sS'phonenumber_oid'
p23
L1168L
s.(dp0
S'status'
p1
S''
p2
sS'direction'
p3
S'Outgoing'
p4
sS'remote'
p5
g2
sS'description'
p6
S'Voice Call'
p7
sS'callid'
p8
L190L
sS'oid'
p9
L233012L
sS'number'
p10
g2
sS'person_oid'
p11
L9L
sS'contact'
p12
L24L
sS'starttime'
p13
cdatetime
datetime
p14
(S'\x07\xd4\x0c\t\x0e\x12\x02\x00\x00\x00'
p15
tp16
Rp17
sS'duration'
p18
L78L
sS'endtime'
p19
g14
(S'\x07\xd4\x0c\t\x0e\x13\x14\x00\x00\x00'
p20
tp21
Rp22
sS'phonenumber_oid'
p23
L1168L
s.(dp0
S'status'
p1
S''
p2
sS'direction'
p3
S'Outgoing'
p4
sS'remote'
p5
g2
sS'description'
p6
S'Voice Call'
p7
sS'callid'
p8
L190L
sS'oid'
p9
L233014L
sS'number'
p10
g2
sS'person_oid'
p11
L9L
sS'contact'
p12
L24L
sS'starttime'
p13
cdatetime
datetime
p14
(S'\x07\xd4\x0c\t\x0e\x12\x02\x00\x00\x00'
p15
tp16
Rp17
sS'duration'
p18
L78L
sS'endtime'
p19
g14
(S'\x07\xd4\x0c\t\x0e\x13\x14\x00\x00\x00'
p20
tp21
Rp22
sS'phonenumber_oid'
p23
L1168L
s.(dp0
S'status'
p1
S''
p2
sS'direction'
p3
S'Outgoing'
p4
sS'remote'
p5
g2
sS'description'
p6
S'Voice Call'
p7
sS'callid'
p8
L190L
sS'oid'
p9
L233177L
sS'number'
p10
g2
sS'person_oid'
p11
L9L
sS'contact'
p12
L24L
sS'starttime'
p13
cdatetime
datetime
p14
(S'\x07\xd4\x0c\t\x0e\x12\x02\x00\x00\x00'
p15
tp16
Rp17
sS'duration'
p18
L78L
sS'endtime'
p19
g14
(S'\x07\xd4\x0c\t\x0e\x13\x14\x00\x00\x00'
p20
tp21
Rp22
sS'phonenumber_oid'
p23
L1168L
s.(dp0
S'status'
p1
S''
p2
sS'direction'
p3
S'Outgoing'
p4
sS'remote'
p5
g2
sS'description'
p6
S'Voice Call'
p7
sS'callid'
p8
L193L
sS'oid'
p9
L233015L
sS'number'
p10
g2
sS'person_oid'
p11
L9L
sS'contact'
p12
L26L
sS'starttime'
p13
cdatetime
datetime
p14
(S'\x07\xd4\x0c\n\r3"\x00\x00\x00'
p15
tp16
Rp17
sS'duration'
p18
L10L
sS'endtime'
p19
g14
(S'\x07\xd4\x0c\n\r3,\x00\x00\x00'
p20
tp21
Rp22
sS'phonenumber_oid'
p23
L1177L
s.(dp0
S'status'
p1
S''
p2
sS'direction'
p3
S'Outgoing'
p4
sS'remote'
p5
g2
sS'description'
p6
S'Voice Call'
p7
sS'callid'
p8
L193L
sS'oid'
p9
L233017L
sS'number'
p10
g2
sS'person_oid'
p11
L9L
sS'contact'
p12
L26L
sS'starttime'
p13
cdatetime
datetime
p14
(S'\x07\xd4\x0c\n\r3"\x00\x00\x00'
p15
tp16
Rp17
sS'duration'
p18
L10L
sS'endtime'
p19
g14
(S'\x07\xd4\x0c\n\r3,\x00\x00\x00'
p20
tp21
Rp22
sS'phonenumber_oid'
p23
L1177L
s.(dp0
S'status'
p1
S''
p2
sS'direction'
p3
S'Outgoing'
p4
sS'remote'
p5
g2
sS'description'
p6
S'Voice Call'
p7
sS'callid'
p8
L193L
sS'oid'
p9
L233178L
sS'number'
p10
g2
sS'person_oid'
p11
L9L
sS'contact'
p12
L26L
sS'starttime'
p13
cdatetime
datetime
p14
(S'\x07\xd4\x0c\n\r3"\x00\x00\x00'
p15
tp16
Rp17
sS'duration'
p18
L10L
sS'endtime'
p19
g14
(S'\x07\xd4\x0c\n\r3,\x00\x00\x00'
p20
tp21
Rp22
sS'phonenumber_oid'
p23
L1177L
s.(dp0
S'status'
p1
S''
p2
sS'direction'
p3
S'Outgoing'
p4
sS'remote'
p5
g2
sS'description'
p6
S'Voice Call'
p7
sS'callid'
p8
L194L
sS'oid'
p9
L233016L
sS'number'
p10
g2
sS'person_oid'
p11
L9L
sS'contact'
p12
L26L
sS'starttime'
p13
cdatetime
datetime
p14
(S'\x07\xd4\x0c\n\r;\x1b\x00\x00\x00'
p15
tp16
Rp17
sS'duration'
p18
L0L
sS'endtime'
p19
g14
(S'\x07\xd4\x0c\n\r;\x1b\x00\x00\x00'
p20
tp21
Rp22
sS'phonenumber_oid'
p23
L1177L
s.(dp0
S'status'
p1
S''
p2
sS'direction'
p3
S'Outgoing'
p4
sS'remote'
p5
g2
sS'description'
p6
S'Voice Call'
p7
sS'callid'
p8
L194L
sS'oid'
p9
L233018L
sS'number'
p10
g2
sS'person_oid'
p11
L9L
sS'contact'
p12
L26L
sS'starttime'
p13
cdatetime
datetime
p14
(S'\x07\xd4\x0c\n\r;\x1b\x00\x00\x00'
p15
tp16
Rp17
sS'duration'
p18
L0L
sS'endtime'
p19
g14
(S'\x07\xd4\x0c\n\r;\x1b\x00\x00\x00'
p20
tp21
Rp22
sS'phonenumber_oid'
p23
L1177L
s.(dp0
S'status'
p1
S''
p2
sS'direction'
p3
S'Outgoing'
p4
sS'remote'
p5
g2
sS'description'
p6
S'Voice Call'
p7
sS'callid'
p8
L194L
sS'oid'
p9
L233179L
sS'number'
p10
g2
sS'person_oid'
p11
L9L
sS'contact'
p12
L26L
sS'starttime'
p13
cdatetime
datetime
p14
(S'\x07\xd4\x0c\n\r;\x1b\x00\x00\x00'
p15
tp16
Rp17
sS'duration'
p18
L0L
sS'endtime'
p19
g14
(S'\x07\xd4\x0c\n\r;\x1b\x00\x00\x00'
p20
tp21
Rp22
sS'phonenumber_oid'
p23
L1177L
s.(dp0
S'status'
p1
S''
p2
sS'direction'
p3
S'Outgoing'
p4
sS'remote'
p5
g2
sS'description'
p6
S'Voice Call'
p7
sS'callid'
p8
L195L
sS'oid'
p9
L233019L
sS'number'
p10
g2
sS'person_oid'
p11
L9L
sS'contact'
p12
L19L
sS'starttime'
p13
cdatetime
datetime
p14
(S'\x07\xd4\x0c\x0b\x10\x1b\n\x00\x00\x00'
p15
tp16
Rp17
sS'duration'
p18
L61L
sS'endtime'
p19
g14
(S'\x07\xd4\x0c\x0b\x10\x1c\x0b\x00\x00\x00'
p20
tp21
Rp22
sS'phonenumber_oid'
p23
L1166L
s.(dp0
S'status'
p1
S''
p2
sS'direction'
p3
S'Outgoing'
p4
sS'remote'
p5
g2
sS'description'
p6
S'Voice Call'
p7
sS'callid'
p8
L195L
sS'oid'
p9
L233022L
sS'number'
p10
g2
sS'person_oid'
p11
L9L
sS'contact'
p12
L19L
sS'starttime'
p13
cdatetime
datetime
p14
(S'\x07\xd4\x0c\x0b\x10\x1b\n\x00\x00\x00'
p15
tp16
Rp17
sS'duration'
p18
L61L
sS'endtime'
p19
g14
(S'\x07\xd4\x0c\x0b\x10\x1c\x0b\x00\x00\x00'
p20
tp21
Rp22
sS'phonenumber_oid'
p23
L1166L
s.(dp0
S'status'
p1
S''
p2
sS'direction'
p3
S'Outgoing'
p4
sS'remote'
p5
g2
sS'description'
p6
S'Voice Call'
p7
sS'callid'
p8
L195L
sS'oid'
p9
L233180L
sS'number'
p10
g2
sS'person_oid'
p11
L9L
sS'contact'
p12
L19L
sS'starttime'
p13
cdatetime
datetime
p14
(S'\x07\xd4\x0c\x0b\x10\x1b\n\x00\x00\x00'
p15
tp16
Rp17
sS'duration'
p18
L61L
sS'endtime'
p19
g14
(S'\x07\xd4\x0c\x0b\x10\x1c\x0b\x00\x00\x00'
p20
tp21
Rp22
sS'phonenumber_oid'
p23
L1166L
s.(dp0
S'status'
p1
S''
p2
sS'direction'
p3
S'Outgoing'
p4
sS'remote'
p5
g2
sS'description'
p6
S'Voice Call'
p7
sS'callid'
p8
L196L
sS'oid'
p9
L233020L
sS'number'
p10
g2
sS'person_oid'
p11
L9L
sS'contact'
p12
L24L
sS'starttime'
p13
cdatetime
datetime
p14
(S'\x07\xd4\x0c\x0b\x13\x086\x00\x00\x00'
p15
tp16
Rp17
sS'duration'
p18
L6L
sS'endtime'
p19
g14
(S'\x07\xd4\x0c\x0b\x13\t\x00\x00\x00\x00'
p20
tp21
Rp22
sS'phonenumber_oid'
p23
L1168L
s.(dp0
S'status'
p1
S''
p2
sS'direction'
p3
S'Outgoing'
p4
sS'remote'
p5
g2
sS'description'
p6
S'Voice Call'
p7
sS'callid'
p8
L196L
sS'oid'
p9
L233023L
sS'number'
p10
g2
sS'person_oid'
p11
L9L
sS'contact'
p12
L24L
sS'starttime'
p13
cdatetime
datetime
p14
(S'\x07\xd4\x0c\x0b\x13\x086\x00\x00\x00'
p15
tp16
Rp17
sS'duration'
p18
L6L
sS'endtime'
p19
g14
(S'\x07\xd4\x0c\x0b\x13\t\x00\x00\x00\x00'
p20
tp21
Rp22
sS'phonenumber_oid'
p23
L1168L
s.(dp0
S'status'
p1
S''
p2
sS'direction'
p3
S'Outgoing'
p4
sS'remote'
p5
g2
sS'description'
p6
S'Voice Call'
p7
sS'callid'
p8
L196L
sS'oid'
p9
L233181L
sS'number'
p10
g2
sS'person_oid'
p11
L9L
sS'contact'
p12
L24L
sS'starttime'
p13
cdatetime
datetime
p14
(S'\x07\xd4\x0c\x0b\x13\x086\x00\x00\x00'
p15
tp16
Rp17
sS'duration'
p18
L6L
sS'endtime'
p19
g14
(S'\x07\xd4\x0c\x0b\x13\t\x00\x00\x00\x00'
p20
tp21
Rp22
sS'phonenumber_oid'
p23
L1168L
s.(dp0
S'status'
p1
S''
p2
sS'direction'
p3
S'Outgoing'
p4
sS'remote'
p5
g2
sS'description'
p6
S'Voice Call'
p7
sS'callid'
p8
L197L
sS'oid'
p9
L233021L
sS'number'
p10
g2
sS'person_oid'
p11
L9L
sS'contact'
p12
L19L
sS'starttime'
p13
cdatetime
datetime
p14
(S'\x07\xd4\x0c\x0b\x156\x14\x00\x00\x00'
p15
tp16
Rp17
sS'duration'
p18
L10L
sS'endtime'
p19
g14
(S'\x07\xd4\x0c\x0b\x156\x1e\x00\x00\x00'
p20
tp21
Rp22
sS'phonenumber_oid'
p23
L1166L
s.(dp0
S'status'
p1
S''
p2
sS'direction'
p3
S'Outgoing'
p4
sS'remote'
p5
g2
sS'description'
p6
S'Voice Call'
p7
sS'callid'
p8
L197L
sS'oid'
p9
L233024L
sS'number'
p10
g2
sS'person_oid'
p11
L9L
sS'contact'
p12
L19L
sS'starttime'
p13
cdatetime
datetime
p14
(S'\x07\xd4\x0c\x0b\x156\x14\x00\x00\x00'
p15
tp16
Rp17
sS'duration'
p18
L10L
sS'endtime'
p19
g14
(S'\x07\xd4\x0c\x0b\x156\x1e\x00\x00\x00'
p20
tp21
Rp22
sS'phonenumber_oid'
p23
L1166L
s.(dp0
S'status'
p1
S''
p2
sS'direction'
p3
S'Outgoing'
p4
sS'remote'
p5
g2
sS'description'
p6
S'Voice Call'
p7
sS'callid'
p8
L197L
sS'oid'
p9
L233182L
sS'number'
p10
g2
sS'person_oid'
p11
L9L
sS'contact'
p12
L19L
sS'starttime'
p13
cdatetime
datetime
p14
(S'\x07\xd4\x0c\x0b\x156\x14\x00\x00\x00'
p15
tp16
Rp17
sS'duration'
p18
L10L
sS'endtime'
p19
g14
(S'\x07\xd4\x0c\x0b\x156\x1e\x00\x00\x00'
p20
tp21
Rp22
sS'phonenumber_oid'
p23
L1166L
s.(dp0
S'status'
p1
S''
p2
sS'direction'
p3
S'Outgoing'
p4
sS'remote'
p5
g2
sS'description'
p6
S'Voice Call'
p7
sS'callid'
p8
L198L
sS'oid'
p9
L233025L
sS'number'
p10
g2
sS'person_oid'
p11
L9L
sS'contact'
p12
L5L
sS'starttime'
p13
cdatetime
datetime
p14
(S'\x07\xd4\x0c\x0c\x0b2\x02\x00\x00\x00'
p15
tp16
Rp17
sS'duration'
p18
L0L
sS'endtime'
p19
g14
(S'\x07\xd4\x0c\x0c\x0b2\x02\x00\x00\x00'
p20
tp21
Rp22
sS'phonenumber_oid'
p23
L1180L
s.(dp0
S'status'
p1
S''
p2
sS'direction'
p3
S'Outgoing'
p4
sS'remote'
p5
g2
sS'description'
p6
S'Voice Call'
p7
sS'callid'
p8
L198L
sS'oid'
p9
L233030L
sS'number'
p10
g2
sS'person_oid'
p11
L9L
sS'contact'
p12
L5L
sS'starttime'
p13
cdatetime
datetime
p14
(S'\x07\xd4\x0c\x0c\x0b2\x02\x00\x00\x00'
p15
tp16
Rp17
sS'duration'
p18
L0L
sS'endtime'
p19
g14
(S'\x07\xd4\x0c\x0c\x0b2\x02\x00\x00\x00'
p20
tp21
Rp22
sS'phonenumber_oid'
p23
L1180L
s.(dp0
S'status'
p1
S''
p2
sS'direction'
p3
S'Outgoing'
p4
sS'remote'
p5
g2
sS'description'
p6
S'Voice Call'
p7
sS'callid'
p8
L198L
sS'oid'
p9
L233183L
sS'number'
p10
g2
sS'person_oid'
p11
L9L
sS'contact'
p12
L5L
sS'starttime'
p13
cdatetime
datetime
p14
(S'\x07\xd4\x0c\x0c\x0b2\x02\x00\x00\x00'
p15
tp16
Rp17
sS'duration'
p18
L0L
sS'endtime'
p19
g14
(S'\x07\xd4\x0c\x0c\x0b2\x02\x00\x00\x00'
p20
tp21
Rp22
sS'phonenumber_oid'
p23
L1180L
s.(dp0
S'status'
p1
S''
p2
sS'direction'
p3
S'Outgoing'
p4
sS'remote'
p5
g2
sS'description'
p6
S'Voice Call'
p7
sS'callid'
p8
L199L
sS'oid'
p9
L233026L
sS'number'
p10
g2
sS'person_oid'
p11
L9L
sS'contact'
p12
L6L
sS'starttime'
p13
cdatetime
datetime
p14
(S'\x07\xd4\x0c\x0c\x0b2\x16\x00\x00\x00'
p15
tp16
Rp17
sS'duration'
p18
L16L
sS'endtime'
p19
g14
(S'\x07\xd4\x0c\x0c\x0b2&\x00\x00\x00'
p20
tp21
Rp22
sS'phonenumber_oid'
p23
L1170L
s.(dp0
S'status'
p1
S''
p2
sS'direction'
p3
S'Outgoing'
p4
sS'remote'
p5
g2
sS'description'
p6
S'Voice Call'
p7
sS'callid'
p8
L199L
sS'oid'
p9
L233031L
sS'number'
p10
g2
sS'person_oid'
p11
L9L
sS'contact'
p12
L6L
sS'starttime'
p13
cdatetime
datetime
p14
(S'\x07\xd4\x0c\x0c\x0b2\x16\x00\x00\x00'
p15
tp16
Rp17
sS'duration'
p18
L16L
sS'endtime'
p19
g14
(S'\x07\xd4\x0c\x0c\x0b2&\x00\x00\x00'
p20
tp21
Rp22
sS'phonenumber_oid'
p23
L1170L
s.(dp0
S'status'
p1
S''
p2
sS'direction'
p3
S'Outgoing'
p4
sS'remote'
p5
g2
sS'description'
p6
S'Voice Call'
p7
sS'callid'
p8
L199L
sS'oid'
p9
L233184L
sS'number'
p10
g2
sS'person_oid'
p11
L9L
sS'contact'
p12
L6L
sS'starttime'
p13
cdatetime
datetime
p14
(S'\x07\xd4\x0c\x0c\x0b2\x16\x00\x00\x00'
p15
tp16
Rp17
sS'duration'
p18
L16L
sS'endtime'
p19
g14
(S'\x07\xd4\x0c\x0c\x0b2&\x00\x00\x00'
p20
tp21
Rp22
sS'phonenumber_oid'
p23
L1170L
s.(dp0
S'status'
p1
S''
p2
sS'direction'
p3
S'Missed Call'
p4
sS'remote'
p5
g2
sS'description'
p6
S'Voice Call'
p7
sS'callid'
p8
L200L
sS'oid'
p9
L233027L
sS'number'
p10
g2
sS'person_oid'
p11
L9L
sS'contact'
p12
L6L
sS'starttime'
p13
cdatetime
datetime
p14
(S'\x07\xd4\x0c\x0c\x0b3(\x00\x00\x00'
p15
tp16
Rp17
sS'duration'
p18
L0L
sS'endtime'
p19
g14
(S'\x07\xd4\x0c\x0c\x0b3(\x00\x00\x00'
p20
tp21
Rp22
sS'phonenumber_oid'
p23
L1170L
s.(dp0
S'status'
p1
S''
p2
sS'direction'
p3
S'Missed Call'
p4
sS'remote'
p5
g2
sS'description'
p6
S'Voice Call'
p7
sS'callid'
p8
L200L
sS'oid'
p9
L233032L
sS'number'
p10
g2
sS'person_oid'
p11
L9L
sS'contact'
p12
L6L
sS'starttime'
p13
cdatetime
datetime
p14
(S'\x07\xd4\x0c\x0c\x0b3(\x00\x00\x00'
p15
tp16
Rp17
sS'duration'
p18
L0L
sS'endtime'
p19
g14
(S'\x07\xd4\x0c\x0c\x0b3(\x00\x00\x00'
p20
tp21
Rp22
sS'phonenumber_oid'
p23
L1170L
s.(dp0
S'status'
p1
S''
p2
sS'direction'
p3
S'Missed Call'
p4
sS'remote'
p5
g2
sS'description'
p6
S'Voice Call'
p7
sS'callid'
p8
L200L
sS'oid'
p9
L233185L
sS'number'
p10
g2
sS'person_oid'
p11
L9L
sS'contact'
p12
L6L
sS'starttime'
p13
cdatetime
datetime
p14
(S'\x07\xd4\x0c\x0c\x0b3(\x00\x00\x00'
p15
tp16
Rp17
sS'duration'
p18
L0L
sS'endtime'
p19
g14
(S'\x07\xd4\x0c\x0c\x0b3(\x00\x00\x00'
p20
tp21
Rp22
sS'phonenumber_oid'
p23
L1170L
s.(dp0
S'status'
p1
S''
p2
sS'direction'
p3
S'Outgoing'
p4
sS'remote'
p5
g2
sS'description'
p6
S'Voice Call'
p7
sS'callid'
p8
L201L
sS'oid'
p9
L233028L
sS'number'
p10
g2
sS'person_oid'
p11
L9L
sS'contact'
p12
L19L
sS'starttime'
p13
cdatetime
datetime
p14
(S'\x07\xd4\x0c\x0c\x157/\x00\x00\x00'
p15
tp16
Rp17
sS'duration'
p18
L18L
sS'endtime'
p19
g14
(S'\x07\xd4\x0c\x0c\x158\x05\x00\x00\x00'
p20
tp21
Rp22
sS'phonenumber_oid'
p23
L1166L
s.(dp0
S'status'
p1
S''
p2
sS'direction'
p3
S'Outgoing'
p4
sS'remote'
p5
g2
sS'description'
p6
S'Voice Call'
p7
sS'callid'
p8
L201L
sS'oid'
p9
L233033L
sS'number'
p10
g2
sS'person_oid'
p11
L9L
sS'contact'
p12
L19L
sS'starttime'
p13
cdatetime
datetime
p14
(S'\x07\xd4\x0c\x0c\x157/\x00\x00\x00'
p15
tp16
Rp17
sS'duration'
p18
L18L
sS'endtime'
p19
g14
(S'\x07\xd4\x0c\x0c\x158\x05\x00\x00\x00'
p20
tp21
Rp22
sS'phonenumber_oid'
p23
L1166L
s.(dp0
S'status'
p1
S''
p2
sS'direction'
p3
S'Outgoing'
p4
sS'remote'
p5
g2
sS'description'
p6
S'Voice Call'
p7
sS'callid'
p8
L201L
sS'oid'
p9
L233186L
sS'number'
p10
g2
sS'person_oid'
p11
L9L
sS'contact'
p12
L19L
sS'starttime'
p13
cdatetime
datetime
p14
(S'\x07\xd4\x0c\x0c\x157/\x00\x00\x00'
p15
tp16
Rp17
sS'duration'
p18
L18L
sS'endtime'
p19
g14
(S'\x07\xd4\x0c\x0c\x158\x05\x00\x00\x00'
p20
tp21
Rp22
sS'phonenumber_oid'
p23
L1166L
s.(dp0
S'status'
p1
S''
p2
sS'direction'
p3
S'Outgoing'
p4
sS'remote'
p5
g2
sS'description'
p6
S'Voice Call'
p7
sS'callid'
p8
L202L
sS'oid'
p9
L233029L
sS'number'
p10
g2
sS'person_oid'
p11
L9L
sS'contact'
p12
L19L
sS'starttime'
p13
cdatetime
datetime
p14
(S'\x07\xd4\x0c\r\x012\x06\x00\x00\x00'
p15
tp16
Rp17
sS'duration'
p18
L39L
sS'endtime'
p19
g14
(S'\x07\xd4\x0c\r\x012-\x00\x00\x00'
p20
tp21
Rp22
sS'phonenumber_oid'
p23
L1166L
s.(dp0
S'status'
p1
S''
p2
sS'direction'
p3
S'Outgoing'
p4
sS'remote'
p5
g2
sS'description'
p6
S'Voice Call'
p7
sS'callid'
p8
L202L
sS'oid'
p9
L233034L
sS'number'
p10
g2
sS'person_oid'
p11
L9L
sS'contact'
p12
L19L
sS'starttime'
p13
cdatetime
datetime
p14
(S'\x07\xd4\x0c\r\x012\x06\x00\x00\x00'
p15
tp16
Rp17
sS'duration'
p18
L39L
sS'endtime'
p19
g14
(S'\x07\xd4\x0c\r\x012-\x00\x00\x00'
p20
tp21
Rp22
sS'phonenumber_oid'
p23
L1166L
s.(dp0
S'status'
p1
S''
p2
sS'direction'
p3
S'Outgoing'
p4
sS'remote'
p5
g2
sS'description'
p6
S'Voice Call'
p7
sS'callid'
p8
L202L
sS'oid'
p9
L233187L
sS'number'
p10
g2
sS'person_oid'
p11
L9L
sS'contact'
p12
L19L
sS'starttime'
p13
cdatetime
datetime
p14
(S'\x07\xd4\x0c\r\x012\x06\x00\x00\x00'
p15
tp16
Rp17
sS'duration'
p18
L39L
sS'endtime'
p19
g14
(S'\x07\xd4\x0c\r\x012-\x00\x00\x00'
p20
tp21
Rp22
sS'phonenumber_oid'
p23
L1166L
s.(dp0
S'status'
p1
S''
p2
sS'direction'
p3
S'Incoming'
p4
sS'remote'
p5
g2
sS'description'
p6
S'Voice Call'
p7
sS'callid'
p8
L204L
sS'oid'
p9
L233035L
sS'number'
p10
g2
sS'person_oid'
p11
L9L
sS'contact'
p12
L13L
sS'starttime'
p13
cdatetime
datetime
p14
(S'\x07\xd4\x0c\r\x10\x107\x00\x00\x00'
p15
tp16
Rp17
sS'duration'
p18
L61L
sS'endtime'
p19
g14
(S'\x07\xd4\x0c\r\x10\x118\x00\x00\x00'
p20
tp21
Rp22
sS'phonenumber_oid'
p23
L1175L
s.(dp0
S'status'
p1
S''
p2
sS'direction'
p3
S'Incoming'
p4
sS'remote'
p5
g2
sS'description'
p6
S'Voice Call'
p7
sS'callid'
p8
L204L
sS'oid'
p9
L233037L
sS'number'
p10
g2
sS'person_oid'
p11
L9L
sS'contact'
p12
L13L
sS'starttime'
p13
cdatetime
datetime
p14
(S'\x07\xd4\x0c\r\x10\x107\x00\x00\x00'
p15
tp16
Rp17
sS'duration'
p18
L61L
sS'endtime'
p19
g14
(S'\x07\xd4\x0c\r\x10\x118\x00\x00\x00'
p20
tp21
Rp22
sS'phonenumber_oid'
p23
L1175L
s.(dp0
S'status'
p1
S''
p2
sS'direction'
p3
S'Incoming'
p4
sS'remote'
p5
g2
sS'description'
p6
S'Voice Call'
p7
sS'callid'
p8
L204L
sS'oid'
p9
L233188L
sS'number'
p10
g2
sS'person_oid'
p11
L9L
sS'contact'
p12
L13L
sS'starttime'
p13
cdatetime
datetime
p14
(S'\x07\xd4\x0c\r\x10\x107\x00\x00\x00'
p15
tp16
Rp17
sS'duration'
p18
L61L
sS'endtime'
p19
g14
(S'\x07\xd4\x0c\r\x10\x118\x00\x00\x00'
p20
tp21
Rp22
sS'phonenumber_oid'
p23
L1175L
s.(dp0
S'status'
p1
S''
p2
sS'direction'
p3
S'Outgoing'
p4
sS'remote'
p5
g2
sS'description'
p6
S'Voice Call'
p7
sS'callid'
p8
L205L
sS'oid'
p9
L233036L
sS'number'
p10
g2
sS'person_oid'
p11
L9L
sS'contact'
p12
L13L
sS'starttime'
p13
cdatetime
datetime
p14
(S'\x07\xd4\x0c\r\x16\x02\x10\x00\x00\x00'
p15
tp16
Rp17
sS'duration'
p18
L359L
sS'endtime'
p19
g14
(S'\x07\xd4\x0c\r\x16\x08\x0f\x00\x00\x00'
p20
tp21
Rp22
sS'phonenumber_oid'
p23
L1175L
s.(dp0
S'status'
p1
S''
p2
sS'direction'
p3
S'Outgoing'
p4
sS'remote'
p5
g2
sS'description'
p6
S'Voice Call'
p7
sS'callid'
p8
L205L
sS'oid'
p9
L233038L
sS'number'
p10
g2
sS'person_oid'
p11
L9L
sS'contact'
p12
L13L
sS'starttime'
p13
cdatetime
datetime
p14
(S'\x07\xd4\x0c\r\x16\x02\x10\x00\x00\x00'
p15
tp16
Rp17
sS'duration'
p18
L359L
sS'endtime'
p19
g14
(S'\x07\xd4\x0c\r\x16\x08\x0f\x00\x00\x00'
p20
tp21
Rp22
sS'phonenumber_oid'
p23
L1175L
s.(dp0
S'status'
p1
S''
p2
sS'direction'
p3
S'Outgoing'
p4
sS'remote'
p5
g2
sS'description'
p6
S'Voice Call'
p7
sS'callid'
p8
L205L
sS'oid'
p9
L233189L
sS'number'
p10
g2
sS'person_oid'
p11
L9L
sS'contact'
p12
L13L
sS'starttime'
p13
cdatetime
datetime
p14
(S'\x07\xd4\x0c\r\x16\x02\x10\x00\x00\x00'
p15
tp16
Rp17
sS'duration'
p18
L359L
sS'endtime'
p19
g14
(S'\x07\xd4\x0c\r\x16\x08\x0f\x00\x00\x00'
p20
tp21
Rp22
sS'phonenumber_oid'
p23
L1175L
s.(dp0
S'status'
p1
S''
p2
sS'direction'
p3
S'Outgoing'
p4
sS'remote'
p5
g2
sS'description'
p6
S'Voice Call'
p7
sS'callid'
p8
L207L
sS'oid'
p9
L233039L
sS'number'
p10
g2
sS'person_oid'
p11
L9L
sS'contact'
p12
L24L
sS'starttime'
p13
cdatetime
datetime
p14
(S'\x07\xd4\x0c\x0e\x0c\x0e\x15\x00\x00\x00'
p15
tp16
Rp17
sS'duration'
p18
L89L
sS'endtime'
p19
g14
(S'\x07\xd4\x0c\x0e\x0c\x0f2\x00\x00\x00'
p20
tp21
Rp22
sS'phonenumber_oid'
p23
L1168L
s.(dp0
S'status'
p1
S''
p2
sS'direction'
p3
S'Outgoing'
p4
sS'remote'
p5
g2
sS'description'
p6
S'Voice Call'
p7
sS'callid'
p8
L207L
sS'oid'
p9
L233044L
sS'number'
p10
g2
sS'person_oid'
p11
L9L
sS'contact'
p12
L24L
sS'starttime'
p13
cdatetime
datetime
p14
(S'\x07\xd4\x0c\x0e\x0c\x0e\x15\x00\x00\x00'
p15
tp16
Rp17
sS'duration'
p18
L89L
sS'endtime'
p19
g14
(S'\x07\xd4\x0c\x0e\x0c\x0f2\x00\x00\x00'
p20
tp21
Rp22
sS'phonenumber_oid'
p23
L1168L
s.(dp0
S'status'
p1
S''
p2
sS'direction'
p3
S'Outgoing'
p4
sS'remote'
p5
g2
sS'description'
p6
S'Voice Call'
p7
sS'callid'
p8
L207L
sS'oid'
p9
L233190L
sS'number'
p10
g2
sS'person_oid'
p11
L9L
sS'contact'
p12
L24L
sS'starttime'
p13
cdatetime
datetime
p14
(S'\x07\xd4\x0c\x0e\x0c\x0e\x15\x00\x00\x00'
p15
tp16
Rp17
sS'duration'
p18
L89L
sS'endtime'
p19
g14
(S'\x07\xd4\x0c\x0e\x0c\x0f2\x00\x00\x00'
p20
tp21
Rp22
sS'phonenumber_oid'
p23
L1168L
s.(dp0
S'status'
p1
S''
p2
sS'direction'
p3
S'Outgoing'
p4
sS'remote'
p5
g2
sS'description'
p6
S'Voice Call'
p7
sS'callid'
p8
L208L
sS'oid'
p9
L233040L
sS'number'
p10
g2
sS'person_oid'
p11
L9L
sS'contact'
p12
L24L
sS'starttime'
p13
cdatetime
datetime
p14
(S'\x07\xd4\x0c\x0e\x0c.9\x00\x00\x00'
p15
tp16
Rp17
sS'duration'
p18
L8L
sS'endtime'
p19
g14
(S'\x07\xd4\x0c\x0e\x0c/\x05\x00\x00\x00'
p20
tp21
Rp22
sS'phonenumber_oid'
p23
L1168L
s.(dp0
S'status'
p1
S''
p2
sS'direction'
p3
S'Outgoing'
p4
sS'remote'
p5
g2
sS'description'
p6
S'Voice Call'
p7
sS'callid'
p8
L208L
sS'oid'
p9
L233045L
sS'number'
p10
g2
sS'person_oid'
p11
L9L
sS'contact'
p12
L24L
sS'starttime'
p13
cdatetime
datetime
p14
(S'\x07\xd4\x0c\x0e\x0c.9\x00\x00\x00'
p15
tp16
Rp17
sS'duration'
p18
L8L
sS'endtime'
p19
g14
(S'\x07\xd4\x0c\x0e\x0c/\x05\x00\x00\x00'
p20
tp21
Rp22
sS'phonenumber_oid'
p23
L1168L
s.(dp0
S'status'
p1
S''
p2
sS'direction'
p3
S'Outgoing'
p4
sS'remote'
p5
g2
sS'description'
p6
S'Voice Call'
p7
sS'callid'
p8
L208L
sS'oid'
p9
L233191L
sS'number'
p10
g2
sS'person_oid'
p11
L9L
sS'contact'
p12
L24L
sS'starttime'
p13
cdatetime
datetime
p14
(S'\x07\xd4\x0c\x0e\x0c.9\x00\x00\x00'
p15
tp16
Rp17
sS'duration'
p18
L8L
sS'endtime'
p19
g14
(S'\x07\xd4\x0c\x0e\x0c/\x05\x00\x00\x00'
p20
tp21
Rp22
sS'phonenumber_oid'
p23
L1168L
s.(dp0
S'status'
p1
S''
p2
sS'direction'
p3
S'Incoming'
p4
sS'remote'
p5
g2
sS'description'
p6
S'Voice Call'
p7
sS'callid'
p8
L210L
sS'oid'
p9
L233041L
sS'number'
p10
g2
sS'person_oid'
p11
L9L
sS'contact'
p12
L24L
sS'starttime'
p13
cdatetime
datetime
p14
(S'\x07\xd4\x0c\x0e\x0c46\x00\x00\x00'
p15
tp16
Rp17
sS'duration'
p18
L30L
sS'endtime'
p19
g14
(S'\x07\xd4\x0c\x0e\x0c5\x18\x00\x00\x00'
p20
tp21
Rp22
sS'phonenumber_oid'
p23
L1168L
s.(dp0
S'status'
p1
S''
p2
sS'direction'
p3
S'Incoming'
p4
sS'remote'
p5
g2
sS'description'
p6
S'Voice Call'
p7
sS'callid'
p8
L210L
sS'oid'
p9
L233046L
sS'number'
p10
g2
sS'person_oid'
p11
L9L
sS'contact'
p12
L24L
sS'starttime'
p13
cdatetime
datetime
p14
(S'\x07\xd4\x0c\x0e\x0c46\x00\x00\x00'
p15
tp16
Rp17
sS'duration'
p18
L30L
sS'endtime'
p19
g14
(S'\x07\xd4\x0c\x0e\x0c5\x18\x00\x00\x00'
p20
tp21
Rp22
sS'phonenumber_oid'
p23
L1168L
s.(dp0
S'status'
p1
S''
p2
sS'direction'
p3
S'Incoming'
p4
sS'remote'
p5
g2
sS'description'
p6
S'Voice Call'
p7
sS'callid'
p8
L210L
sS'oid'
p9
L233192L
sS'number'
p10
g2
sS'person_oid'
p11
L9L
sS'contact'
p12
L24L
sS'starttime'
p13
cdatetime
datetime
p14
(S'\x07\xd4\x0c\x0e\x0c46\x00\x00\x00'
p15
tp16
Rp17
sS'duration'
p18
L30L
sS'endtime'
p19
g14
(S'\x07\xd4\x0c\x0e\x0c5\x18\x00\x00\x00'
p20
tp21
Rp22
sS'phonenumber_oid'
p23
L1168L
s.(dp0
S'status'
p1
S''
p2
sS'direction'
p3
S'Incoming'
p4
sS'remote'
p5
g2
sS'description'
p6
S'Voice Call'
p7
sS'callid'
p8
L212L
sS'oid'
p9
L233042L
sS'number'
p10
g2
sS'person_oid'
p11
L9L
sS'contact'
p12
L24L
sS'starttime'
p13
cdatetime
datetime
p14
(S'\x07\xd4\x0c\x0e\x0c:\x13\x00\x00\x00'
p15
tp16
Rp17
sS'duration'
p18
L13L
sS'endtime'
p19
g14
(S'\x07\xd4\x0c\x0e\x0c: \x00\x00\x00'
p20
tp21
Rp22
sS'phonenumber_oid'
p23
L1168L
s.(dp0
S'status'
p1
S''
p2
sS'direction'
p3
S'Incoming'
p4
sS'remote'
p5
g2
sS'description'
p6
S'Voice Call'
p7
sS'callid'
p8
L212L
sS'oid'
p9
L233047L
sS'number'
p10
g2
sS'person_oid'
p11
L9L
sS'contact'
p12
L24L
sS'starttime'
p13
cdatetime
datetime
p14
(S'\x07\xd4\x0c\x0e\x0c:\x13\x00\x00\x00'
p15
tp16
Rp17
sS'duration'
p18
L13L
sS'endtime'
p19
g14
(S'\x07\xd4\x0c\x0e\x0c: \x00\x00\x00'
p20
tp21
Rp22
sS'phonenumber_oid'
p23
L1168L
s.(dp0
S'status'
p1
S''
p2
sS'direction'
p3
S'Incoming'
p4
sS'remote'
p5
g2
sS'description'
p6
S'Voice Call'
p7
sS'callid'
p8
L212L
sS'oid'
p9
L233193L
sS'number'
p10
g2
sS'person_oid'
p11
L9L
sS'contact'
p12
L24L
sS'starttime'
p13
cdatetime
datetime
p14
(S'\x07\xd4\x0c\x0e\x0c:\x13\x00\x00\x00'
p15
tp16
Rp17
sS'duration'
p18
L13L
sS'endtime'
p19
g14
(S'\x07\xd4\x0c\x0e\x0c: \x00\x00\x00'
p20
tp21
Rp22
sS'phonenumber_oid'
p23
L1168L
s.(dp0
S'status'
p1
S''
p2
sS'direction'
p3
S'Outgoing'
p4
sS'remote'
p5
g2
sS'description'
p6
S'Voice Call'
p7
sS'callid'
p8
L213L
sS'oid'
p9
L233043L
sS'number'
p10
g2
sS'person_oid'
p11
L9L
sS'contact'
p12
L30L
sS'starttime'
p13
cdatetime
datetime
p14
(S'\x07\xd4\x0c\x0e\x15\x06\x05\x00\x00\x00'
p15
tp16
Rp17
sS'duration'
p18
L3L
sS'endtime'
p19
g14
(S'\x07\xd4\x0c\x0e\x15\x06\x08\x00\x00\x00'
p20
tp21
Rp22
sS'phonenumber_oid'
p23
L1176L
s.(dp0
S'status'
p1
S''
p2
sS'direction'
p3
S'Outgoing'
p4
sS'remote'
p5
g2
sS'description'
p6
S'Voice Call'
p7
sS'callid'
p8
L213L
sS'oid'
p9
L233048L
sS'number'
p10
g2
sS'person_oid'
p11
L9L
sS'contact'
p12
L30L
sS'starttime'
p13
cdatetime
datetime
p14
(S'\x07\xd4\x0c\x0e\x15\x06\x05\x00\x00\x00'
p15
tp16
Rp17
sS'duration'
p18
L3L
sS'endtime'
p19
g14
(S'\x07\xd4\x0c\x0e\x15\x06\x08\x00\x00\x00'
p20
tp21
Rp22
sS'phonenumber_oid'
p23
L1176L
s.(dp0
S'status'
p1
S''
p2
sS'direction'
p3
S'Outgoing'
p4
sS'remote'
p5
g2
sS'description'
p6
S'Voice Call'
p7
sS'callid'
p8
L213L
sS'oid'
p9
L233194L
sS'number'
p10
g2
sS'person_oid'
p11
L9L
sS'contact'
p12
L30L
sS'starttime'
p13
cdatetime
datetime
p14
(S'\x07\xd4\x0c\x0e\x15\x06\x05\x00\x00\x00'
p15
tp16
Rp17
sS'duration'
p18
L3L
sS'endtime'
p19
g14
(S'\x07\xd4\x0c\x0e\x15\x06\x08\x00\x00\x00'
p20
tp21
Rp22
sS'phonenumber_oid'
p23
L1176L
s.(dp0
S'status'
p1
S''
p2
sS'direction'
p3
S'Outgoing'
p4
sS'remote'
p5
g2
sS'description'
p6
S'Voice Call'
p7
sS'callid'
p8
L218L
sS'oid'
p9
L233049L
sS'number'
p10
g2
sS'person_oid'
p11
L9L
sS'contact'
p12
L24L
sS'starttime'
p13
cdatetime
datetime
p14
(S'\x07\xd4\x0c\x0f\x0c\t-\x00\x00\x00'
p15
tp16
Rp17
sS'duration'
p18
L190L
sS'endtime'
p19
g14
(S'\x07\xd4\x0c\x0f\x0c\x0c7\x00\x00\x00'
p20
tp21
Rp22
sS'phonenumber_oid'
p23
L1168L
s.(dp0
S'status'
p1
S''
p2
sS'direction'
p3
S'Outgoing'
p4
sS'remote'
p5
g2
sS'description'
p6
S'Voice Call'
p7
sS'callid'
p8
L218L
sS'oid'
p9
L233055L
sS'number'
p10
g2
sS'person_oid'
p11
L9L
sS'contact'
p12
L24L
sS'starttime'
p13
cdatetime
datetime
p14
(S'\x07\xd4\x0c\x0f\x0c\t-\x00\x00\x00'
p15
tp16
Rp17
sS'duration'
p18
L190L
sS'endtime'
p19
g14
(S'\x07\xd4\x0c\x0f\x0c\x0c7\x00\x00\x00'
p20
tp21
Rp22
sS'phonenumber_oid'
p23
L1168L
s.(dp0
S'status'
p1
S''
p2
sS'direction'
p3
S'Outgoing'
p4
sS'remote'
p5
g2
sS'description'
p6
S'Voice Call'
p7
sS'callid'
p8
L218L
sS'oid'
p9
L233195L
sS'number'
p10
g2
sS'person_oid'
p11
L9L
sS'contact'
p12
L24L
sS'starttime'
p13
cdatetime
datetime
p14
(S'\x07\xd4\x0c\x0f\x0c\t-\x00\x00\x00'
p15
tp16
Rp17
sS'duration'
p18
L190L
sS'endtime'
p19
g14
(S'\x07\xd4\x0c\x0f\x0c\x0c7\x00\x00\x00'
p20
tp21
Rp22
sS'phonenumber_oid'
p23
L1168L
s.(dp0
S'status'
p1
S''
p2
sS'direction'
p3
S'Outgoing'
p4
sS'remote'
p5
g2
sS'description'
p6
S'Voice Call'
p7
sS'callid'
p8
L219L
sS'oid'
p9
L233050L
sS'number'
p10
g2
sS'person_oid'
p11
L9L
sS'contact'
p12
L24L
sS'starttime'
p13
cdatetime
datetime
p14
(S'\x07\xd4\x0c\x0f\x0c4!\x00\x00\x00'
p15
tp16
Rp17
sS'duration'
p18
L27L
sS'endtime'
p19
g14
(S'\x07\xd4\x0c\x0f\x0c5\x00\x00\x00\x00'
p20
tp21
Rp22
sS'phonenumber_oid'
p23
L1168L
s.(dp0
S'status'
p1
S''
p2
sS'direction'
p3
S'Outgoing'
p4
sS'remote'
p5
g2
sS'description'
p6
S'Voice Call'
p7
sS'callid'
p8
L219L
sS'oid'
p9
L233056L
sS'number'
p10
g2
sS'person_oid'
p11
L9L
sS'contact'
p12
L24L
sS'starttime'
p13
cdatetime
datetime
p14
(S'\x07\xd4\x0c\x0f\x0c4!\x00\x00\x00'
p15
tp16
Rp17
sS'duration'
p18
L27L
sS'endtime'
p19
g14
(S'\x07\xd4\x0c\x0f\x0c5\x00\x00\x00\x00'
p20
tp21
Rp22
sS'phonenumber_oid'
p23
L1168L
s.(dp0
S'status'
p1
S''
p2
sS'direction'
p3
S'Outgoing'
p4
sS'remote'
p5
g2
sS'description'
p6
S'Voice Call'
p7
sS'callid'
p8
L219L
sS'oid'
p9
L233196L
sS'number'
p10
g2
sS'person_oid'
p11
L9L
sS'contact'
p12
L24L
sS'starttime'
p13
cdatetime
datetime
p14
(S'\x07\xd4\x0c\x0f\x0c4!\x00\x00\x00'
p15
tp16
Rp17
sS'duration'
p18
L27L
sS'endtime'
p19
g14
(S'\x07\xd4\x0c\x0f\x0c5\x00\x00\x00\x00'
p20
tp21
Rp22
sS'phonenumber_oid'
p23
L1168L
s.(dp0
S'status'
p1
S''
p2
sS'direction'
p3
S'Outgoing'
p4
sS'remote'
p5
g2
sS'description'
p6
S'Voice Call'
p7
sS'callid'
p8
L220L
sS'oid'
p9
L233051L
sS'number'
p10
g2
sS'person_oid'
p11
L9L
sS'contact'
p12
L4L
sS'starttime'
p13
cdatetime
datetime
p14
(S'\x07\xd4\x0c\x0f\x0e\x087\x00\x00\x00'
p15
tp16
Rp17
sS'duration'
p18
L9L
sS'endtime'
p19
g14
(S'\x07\xd4\x0c\x0f\x0e\t\x04\x00\x00\x00'
p20
tp21
Rp22
sS'phonenumber_oid'
p23
L1181L
s.(dp0
S'status'
p1
S''
p2
sS'direction'
p3
S'Outgoing'
p4
sS'remote'
p5
g2
sS'description'
p6
S'Voice Call'
p7
sS'callid'
p8
L220L
sS'oid'
p9
L233057L
sS'number'
p10
g2
sS'person_oid'
p11
L9L
sS'contact'
p12
L4L
sS'starttime'
p13
cdatetime
datetime
p14
(S'\x07\xd4\x0c\x0f\x0e\x087\x00\x00\x00'
p15
tp16
Rp17
sS'duration'
p18
L9L
sS'endtime'
p19
g14
(S'\x07\xd4\x0c\x0f\x0e\t\x04\x00\x00\x00'
p20
tp21
Rp22
sS'phonenumber_oid'
p23
L1181L
s.(dp0
S'status'
p1
S''
p2
sS'direction'
p3
S'Outgoing'
p4
sS'remote'
p5
g2
sS'description'
p6
S'Voice Call'
p7
sS'callid'
p8
L220L
sS'oid'
p9
L233197L
sS'number'
p10
g2
sS'person_oid'
p11
L9L
sS'contact'
p12
L4L
sS'starttime'
p13
cdatetime
datetime
p14
(S'\x07\xd4\x0c\x0f\x0e\x087\x00\x00\x00'
p15
tp16
Rp17
sS'duration'
p18
L9L
sS'endtime'
p19
g14
(S'\x07\xd4\x0c\x0f\x0e\t\x04\x00\x00\x00'
p20
tp21
Rp22
sS'phonenumber_oid'
p23
L1181L
s.(dp0
S'status'
p1
S''
p2
sS'direction'
p3
S'Outgoing'
p4
sS'remote'
p5
g2
sS'description'
p6
S'Voice Call'
p7
sS'callid'
p8
L221L
sS'oid'
p9
L233052L
sS'number'
p10
g2
sS'person_oid'
p11
L9L
sS'contact'
p12
L6L
sS'starttime'
p13
cdatetime
datetime
p14
(S'\x07\xd4\x0c\x0f\x0e\x1c\x15\x00\x00\x00'
p15
tp16
Rp17
sS'duration'
p18
L2L
sS'endtime'
p19
g14
(S'\x07\xd4\x0c\x0f\x0e\x1c\x17\x00\x00\x00'
p20
tp21
Rp22
sS'phonenumber_oid'
p23
L1170L
s.(dp0
S'status'
p1
S''
p2
sS'direction'
p3
S'Outgoing'
p4
sS'remote'
p5
g2
sS'description'
p6
S'Voice Call'
p7
sS'callid'
p8
L221L
sS'oid'
p9
L233058L
sS'number'
p10
g2
sS'person_oid'
p11
L9L
sS'contact'
p12
L6L
sS'starttime'
p13
cdatetime
datetime
p14
(S'\x07\xd4\x0c\x0f\x0e\x1c\x15\x00\x00\x00'
p15
tp16
Rp17
sS'duration'
p18
L2L
sS'endtime'
p19
g14
(S'\x07\xd4\x0c\x0f\x0e\x1c\x17\x00\x00\x00'
p20
tp21
Rp22
sS'phonenumber_oid'
p23
L1170L
s.(dp0
S'status'
p1
S''
p2
sS'direction'
p3
S'Outgoing'
p4
sS'remote'
p5
g2
sS'description'
p6
S'Voice Call'
p7
sS'callid'
p8
L221L
sS'oid'
p9
L233198L
sS'number'
p10
g2
sS'person_oid'
p11
L9L
sS'contact'
p12
L6L
sS'starttime'
p13
cdatetime
datetime
p14
(S'\x07\xd4\x0c\x0f\x0e\x1c\x15\x00\x00\x00'
p15
tp16
Rp17
sS'duration'
p18
L2L
sS'endtime'
p19
g14
(S'\x07\xd4\x0c\x0f\x0e\x1c\x17\x00\x00\x00'
p20
tp21
Rp22
sS'phonenumber_oid'
p23
L1170L
s.(dp0
S'status'
p1
S''
p2
sS'direction'
p3
S'Outgoing'
p4
sS'remote'
p5
g2
sS'description'
p6
S'Voice Call'
p7
sS'callid'
p8
L222L
sS'oid'
p9
L233053L
sS'number'
p10
g2
sS'person_oid'
p11
L9L
sS'contact'
p12
L23L
sS'starttime'
p13
cdatetime
datetime
p14
(S'\x07\xd4\x0c\x0f\x0f\n\r\x00\x00\x00'
p15
tp16
Rp17
sS'duration'
p18
L4L
sS'endtime'
p19
g14
(S'\x07\xd4\x0c\x0f\x0f\n\x11\x00\x00\x00'
p20
tp21
Rp22
sS'phonenumber_oid'
p23
L264L
s.(dp0
S'status'
p1
S''
p2
sS'direction'
p3
S'Outgoing'
p4
sS'remote'
p5
g2
sS'description'
p6
S'Voice Call'
p7
sS'callid'
p8
L222L
sS'oid'
p9
L233059L
sS'number'
p10
g2
sS'person_oid'
p11
L9L
sS'contact'
p12
L23L
sS'starttime'
p13
cdatetime
datetime
p14
(S'\x07\xd4\x0c\x0f\x0f\n\r\x00\x00\x00'
p15
tp16
Rp17
sS'duration'
p18
L4L
sS'endtime'
p19
g14
(S'\x07\xd4\x0c\x0f\x0f\n\x11\x00\x00\x00'
p20
tp21
Rp22
sS'phonenumber_oid'
p23
L264L
s.(dp0
S'status'
p1
S''
p2
sS'direction'
p3
S'Outgoing'
p4
sS'remote'
p5
g2
sS'description'
p6
S'Voice Call'
p7
sS'callid'
p8
L222L
sS'oid'
p9
L233199L
sS'number'
p10
g2
sS'person_oid'
p11
L9L
sS'contact'
p12
L23L
sS'starttime'
p13
cdatetime
datetime
p14
(S'\x07\xd4\x0c\x0f\x0f\n\r\x00\x00\x00'
p15
tp16
Rp17
sS'duration'
p18
L4L
sS'endtime'
p19
g14
(S'\x07\xd4\x0c\x0f\x0f\n\x11\x00\x00\x00'
p20
tp21
Rp22
sS'phonenumber_oid'
p23
L264L
s.(dp0
S'status'
p1
S''
p2
sS'direction'
p3
S'Outgoing'
p4
sS'remote'
p5
g2
sS'description'
p6
S'Voice Call'
p7
sS'callid'
p8
L223L
sS'oid'
p9
L233054L
sS'number'
p10
g2
sS'person_oid'
p11
L9L
sS'contact'
p12
L11L
sS'starttime'
p13
cdatetime
datetime
p14
(S'\x07\xd4\x0c\x0f\x0f+\x1f\x00\x00\x00'
p15
tp16
Rp17
sS'duration'
p18
L333L
sS'endtime'
p19
g14
(S'\x07\xd4\x0c\x0f\x0f1\x04\x00\x00\x00'
p20
tp21
Rp22
sS'phonenumber_oid'
p23
L1174L
s.(dp0
S'status'
p1
S''
p2
sS'direction'
p3
S'Outgoing'
p4
sS'remote'
p5
g2
sS'description'
p6
S'Voice Call'
p7
sS'callid'
p8
L223L
sS'oid'
p9
L233060L
sS'number'
p10
g2
sS'person_oid'
p11
L9L
sS'contact'
p12
L11L
sS'starttime'
p13
cdatetime
datetime
p14
(S'\x07\xd4\x0c\x0f\x0f+\x1f\x00\x00\x00'
p15
tp16
Rp17
sS'duration'
p18
L333L
sS'endtime'
p19
g14
(S'\x07\xd4\x0c\x0f\x0f1\x04\x00\x00\x00'
p20
tp21
Rp22
sS'phonenumber_oid'
p23
L1174L
s.(dp0
S'status'
p1
S''
p2
sS'direction'
p3
S'Outgoing'
p4
sS'remote'
p5
g2
sS'description'
p6
S'Voice Call'
p7
sS'callid'
p8
L223L
sS'oid'
p9
L233200L
sS'number'
p10
g2
sS'person_oid'
p11
L9L
sS'contact'
p12
L11L
sS'starttime'
p13
cdatetime
datetime
p14
(S'\x07\xd4\x0c\x0f\x0f+\x1f\x00\x00\x00'
p15
tp16
Rp17
sS'duration'
p18
L333L
sS'endtime'
p19
g14
(S'\x07\xd4\x0c\x0f\x0f1\x04\x00\x00\x00'
p20
tp21
Rp22
sS'phonenumber_oid'
p23
L1174L
s.(dp0
S'status'
p1
S''
p2
sS'direction'
p3
S'Outgoing'
p4
sS'remote'
p5
g2
sS'description'
p6
S'Voice Call'
p7
sS'callid'
p8
L224L
sS'oid'
p9
L233061L
sS'number'
p10
g2
sS'person_oid'
p11
L9L
sS'contact'
p12
L24L
sS'starttime'
p13
cdatetime
datetime
p14
(S'\x07\xd4\x0c\x10\x0c\x11\x02\x00\x00\x00'
p15
tp16
Rp17
sS'duration'
p18
L45L
sS'endtime'
p19
g14
(S'\x07\xd4\x0c\x10\x0c\x11/\x00\x00\x00'
p20
tp21
Rp22
sS'phonenumber_oid'
p23
L1168L
s.(dp0
S'status'
p1
S''
p2
sS'direction'
p3
S'Outgoing'
p4
sS'remote'
p5
g2
sS'description'
p6
S'Voice Call'
p7
sS'callid'
p8
L224L
sS'oid'
p9
L233062L
sS'number'
p10
g2
sS'person_oid'
p11
L9L
sS'contact'
p12
L24L
sS'starttime'
p13
cdatetime
datetime
p14
(S'\x07\xd4\x0c\x10\x0c\x11\x02\x00\x00\x00'
p15
tp16
Rp17
sS'duration'
p18
L45L
sS'endtime'
p19
g14
(S'\x07\xd4\x0c\x10\x0c\x11/\x00\x00\x00'
p20
tp21
Rp22
sS'phonenumber_oid'
p23
L1168L
s.(dp0
S'status'
p1
S''
p2
sS'direction'
p3
S'Outgoing'
p4
sS'remote'
p5
g2
sS'description'
p6
S'Voice Call'
p7
sS'callid'
p8
L224L
sS'oid'
p9
L233201L
sS'number'
p10
g2
sS'person_oid'
p11
L9L
sS'contact'
p12
L24L
sS'starttime'
p13
cdatetime
datetime
p14
(S'\x07\xd4\x0c\x10\x0c\x11\x02\x00\x00\x00'
p15
tp16
Rp17
sS'duration'
p18
L45L
sS'endtime'
p19
g14
(S'\x07\xd4\x0c\x10\x0c\x11/\x00\x00\x00'
p20
tp21
Rp22
sS'phonenumber_oid'
p23
L1168L
s.