(dp0
S'status'
p1
S''
p2
sS'direction'
p3
S'Incoming'
p4
sS'remote'
p5
g2
sS'description'
p6
S'Voice Call'
p7
sS'callid'
p8
L1492L
sS'oid'
p9
L17715L
sS'number'
p10
g2
sS'person_oid'
p11
L94L
sS'contact'
p12
L24L
sS'starttime'
p13
cdatetime
datetime
p14
(S'\x07\xd5\x02\x01\x01)\x14\x00\x00\x00'
p15
tp16
Rp17
sS'duration'
p18
L203L
sS'endtime'
p19
g14
(S'\x07\xd5\x02\x01\x01,+\x00\x00\x00'
p20
tp21
Rp22
sS'phonenumber_oid'
p23
L1L
s.(dp0
S'status'
p1
S''
p2
sS'direction'
p3
S'Incoming'
p4
sS'remote'
p5
g2
sS'description'
p6
S'Voice Call'
p7
sS'callid'
p8
L1492L
sS'oid'
p9
L17716L
sS'number'
p10
g2
sS'person_oid'
p11
L94L
sS'contact'
p12
L24L
sS'starttime'
p13
cdatetime
datetime
p14
(S'\x07\xd5\x02\x01\x01)\x14\x00\x00\x00'
p15
tp16
Rp17
sS'duration'
p18
L203L
sS'endtime'
p19
g14
(S'\x07\xd5\x02\x01\x01,+\x00\x00\x00'
p20
tp21
Rp22
sS'phonenumber_oid'
p23
L1L
s.(dp0
S'status'
p1
S''
p2
sS'direction'
p3
S'Outgoing'
p4
sS'remote'
p5
g2
sS'description'
p6
S'Voice Call'
p7
sS'callid'
p8
L1493L
sS'oid'
p9
L17717L
sS'number'
p10
g2
sS'person_oid'
p11
L94L
sS'contact'
p12
L9L
sS'starttime'
p13
cdatetime
datetime
p14
(S'\x07\xd5\x02\x02\x01&\x1b\x00\x00\x00'
p15
tp16
Rp17
sS'duration'
p18
L581L
sS'endtime'
p19
g14
(S'\x07\xd5\x02\x02\x010\x08\x00\x00\x00'
p20
tp21
Rp22
sS'phonenumber_oid'
p23
L19L
s.(dp0
S'status'
p1
S''
p2
sS'direction'
p3
S'Outgoing'
p4
sS'remote'
p5
g2
sS'description'
p6
S'Voice Call'
p7
sS'callid'
p8
L1494L
sS'oid'
p9
L17718L
sS'number'
p10
g2
sS'person_oid'
p11
L94L
sS'contact'
p12
L9L
sS'starttime'
p13
cdatetime
datetime
p14
(S'\x07\xd5\x02\x02\x010#\x00\x00\x00'
p15
tp16
Rp17
sS'duration'
p18
L54L
sS'endtime'
p19
g14
(S'\x07\xd5\x02\x02\x011\x1d\x00\x00\x00'
p20
tp21
Rp22
sS'phonenumber_oid'
p23
L19L
s.(dp0
S'status'
p1
S''
p2
sS'direction'
p3
S'Incoming'
p4
sS'remote'
p5
g2
sS'description'
p6
S'Voice Call'
p7
sS'callid'
p8
L1496L
sS'oid'
p9
L17719L
sS'number'
p10
g2
sS'person_oid'
p11
L94L
sS'contact'
p12
L21L
sS'starttime'
p13
cdatetime
datetime
p14
(S'\x07\xd5\x02\x02\x11\x0f\x1c\x00\x00\x00'
p15
tp16
Rp17
sS'duration'
p18
L142L
sS'endtime'
p19
g14
(S'\x07\xd5\x02\x02\x11\x112\x00\x00\x00'
p20
tp21
Rp22
sS'phonenumber_oid'
p23
L18L
s.(dp0
S'status'
p1
S''
p2
sS'direction'
p3
S'Outgoing'
p4
sS'remote'
p5
g2
sS'description'
p6
S'Voice Call'
p7
sS'callid'
p8
L1498L
sS'oid'
p9
L17720L
sS'number'
p10
g2
sS'person_oid'
p11
L94L
sS'contact'
p12
L24L
sS'starttime'
p13
cdatetime
datetime
p14
(S'\x07\xd5\x02\x03\x0065\x00\x00\x00'
p15
tp16
Rp17
sS'duration'
p18
L31L
sS'endtime'
p19
g14
(S'\x07\xd5\x02\x03\x007\x18\x00\x00\x00'
p20
tp21
Rp22
sS'phonenumber_oid'
p23
L1L
s.(dp0
S'status'
p1
S''
p2
sS'direction'
p3
S'Missed Call'
p4
sS'remote'
p5
g2
sS'description'
p6
S'Voice Call'
p7
sS'callid'
p8
L1499L
sS'oid'
p9
L17721L
sS'number'
p10
g2
sS'person_oid'
p11
L94L
sS'contact'
p12
L21L
sS'starttime'
p13
cdatetime
datetime
p14
(S'\x07\xd5\x02\x03\x10/8\x00\x00\x00'
p15
tp16
Rp17
sS'duration'
p18
L0L
sS'endtime'
p19
g14
(S'\x07\xd5\x02\x03\x10/8\x00\x00\x00'
p20
tp21
Rp22
sS'phonenumber_oid'
p23
L18L
s.(dp0
S'status'
p1
S''
p2
sS'direction'
p3
S'Missed Call'
p4
sS'remote'
p5
g2
sS'description'
p6
S'Voice Call'
p7
sS'callid'
p8
L1500L
sS'oid'
p9
L17722L
sS'number'
p10
g2
sS'person_oid'
p11
L94L
sS'contact'
p12
L24L
sS'starttime'
p13
cdatetime
datetime
p14
(S'\x07\xd5\x02\x03\x124:\x00\x00\x00'
p15
tp16
Rp17
sS'duration'
p18
L0L
sS'endtime'
p19
g14
(S'\x07\xd5\x02\x03\x124:\x00\x00\x00'
p20
tp21
Rp22
sS'phonenumber_oid'
p23
L1L
s.(dp0
S'status'
p1
S''
p2
sS'direction'
p3
S'Outgoing'
p4
sS'remote'
p5
g2
sS'description'
p6
S'Voice Call'
p7
sS'callid'
p8
L1501L
sS'oid'
p9
L17723L
sS'number'
p10
g2
sS'person_oid'
p11
L94L
sS'contact'
p12
L6L
sS'starttime'
p13
cdatetime
datetime
p14
(S'\x07\xd5\x02\x04\x02\x17,\x00\x00\x00'
p15
tp16
Rp17
sS'duration'
p18
L9L
sS'endtime'
p19
g14
(S'\x07\xd5\x02\x04\x02\x175\x00\x00\x00'
p20
tp21
Rp22
sS'phonenumber_oid'
p23
L4L
s.(dp0
S'status'
p1
S''
p2
sS'direction'
p3
S'Outgoing'
p4
sS'remote'
p5
g2
sS'description'
p6
S'Voice Call'
p7
sS'callid'
p8
L1502L
sS'oid'
p9
L17724L
sS'number'
p10
g2
sS'person_oid'
p11
L94L
sS'contact'
p12
L24L
sS'starttime'
p13
cdatetime
datetime
p14
(S'\x07\xd5\x02\x04\x02\x18\x0f\x00\x00\x00'
p15
tp16
Rp17
sS'duration'
p18
L998L
sS'endtime'
p19
g14
(S'\x07\xd5\x02\x04\x02(5\x00\x00\x00'
p20
tp21
Rp22
sS'phonenumber_oid'
p23
L1L
s.(dp0
S'status'
p1
S''
p2
sS'direction'
p3
S'Missed Call'
p4
sS'remote'
p5
g2
sS'description'
p6
S'Voice Call'
p7
sS'callid'
p8
L1503L
sS'oid'
p9
L17725L
sS'number'
p10
g2
sS'person_oid'
p11
L94L
sS'contact'
p12
L6L
sS'starttime'
p13
cdatetime
datetime
p14
(S'\x07\xd5\x02\x04\x02\x199\x00\x00\x00'
p15
tp16
Rp17
sS'duration'
p18
L0L
sS'endtime'
p19
g14
(S'\x07\xd5\x02\x04\x02\x199\x00\x00\x00'
p20
tp21
Rp22
sS'phonenumber_oid'
p23
L4L
s.(dp0
S'status'
p1
S''
p2
sS'direction'
p3
S'Outgoing'
p4
sS'remote'
p5
g2
sS'description'
p6
S'Voice Call'
p7
sS'callid'
p8
L1504L
sS'oid'
p9
L17726L
sS'number'
p10
g2
sS'person_oid'
p11
L94L
sS'contact'
p12
L6L
sS'starttime'
p13
cdatetime
datetime
p14
(S'\x07\xd5\x02\x04\x02*\x1e\x00\x00\x00'
p15
tp16
Rp17
sS'duration'
p18
L939L
sS'endtime'
p19
g14
(S'\x07\xd5\x02\x04\x02:\t\x00\x00\x00'
p20
tp21
Rp22
sS'phonenumber_oid'
p23
L4L
s.(dp0
S'status'
p1
S''
p2
sS'direction'
p3
S'Missed Call'
p4
sS'remote'
p5
g2
sS'description'
p6
S'Voice Call'
p7
sS'callid'
p8
L1505L
sS'oid'
p9
L17727L
sS'number'
p10
g2
sS'person_oid'
p11
L94L
sS'contact'
p12
L7L
sS'starttime'
p13
cdatetime
datetime
p14
(S'\x07\xd5\x02\x04\x118\x17\x00\x00\x00'
p15
tp16
Rp17
sS'duration'
p18
L0L
sS'endtime'
p19
g14
(S'\x07\xd5\x02\x04\x118\x17\x00\x00\x00'
p20
tp21
Rp22
sS'phonenumber_oid'
p23
L6L
s.(dp0
S'status'
p1
S''
p2
sS'direction'
p3
S'Outgoing'
p4
sS'remote'
p5
g2
sS'description'
p6
S'Voice Call'
p7
sS'callid'
p8
L1506L
sS'oid'
p9
L17728L
sS'number'
p10
g2
sS'person_oid'
p11
L94L
sS'contact'
p12
L7L
sS'starttime'
p13
cdatetime
datetime
p14
(S"\x07\xd5\x02\x04\x13'7\x00\x00\x00"
p15
tp16
Rp17
sS'duration'
p18
L8L
sS'endtime'
p19
g14
(S'\x07\xd5\x02\x04\x13(\x03\x00\x00\x00'
p20
tp21
Rp22
sS'phonenumber_oid'
p23
L6L
s.(dp0
S'status'
p1
S''
p2
sS'direction'
p3
S'Outgoing'
p4
sS'remote'
p5
g2
sS'description'
p6
S'Voice Call'
p7
sS'callid'
p8
L1507L
sS'oid'
p9
L17729L
sS'number'
p10
g2
sS'person_oid'
p11
L94L
sS'contact'
p12
L4L
sS'starttime'
p13
cdatetime
datetime
p14
(S'\x07\xd5\x02\x04\x14\x14/\x00\x00\x00'
p15
tp16
Rp17
sS'duration'
p18
L8L
sS'endtime'
p19
g14
(S'\x07\xd5\x02\x04\x14\x147\x00\x00\x00'
p20
tp21
Rp22
sS'phonenumber_oid'
p23
L2L
s.(dp0
S'status'
p1
S''
p2
sS'direction'
p3
S'Outgoing'
p4
sS'remote'
p5
g2
sS'description'
p6
S'Voice Call'
p7
sS'callid'
p8
L1508L
sS'oid'
p9
L17730L
sS'number'
p10
g2
sS'person_oid'
p11
L94L
sS'contact'
p12
L4L
sS'starttime'
p13
cdatetime
datetime
p14
(S'\x07\xd5\x02\x04\x14\x151\x00\x00\x00'
p15
tp16
Rp17
sS'duration'
p18
L56L
sS'endtime'
p19
g14
(S'\x07\xd5\x02\x04\x14\x16-\x00\x00\x00'
p20
tp21
Rp22
sS'phonenumber_oid'
p23
L2L
s.(dp0
S'status'
p1
S''
p2
sS'direction'
p3
S'Outgoing'
p4
sS'remote'
p5
g2
sS'description'
p6
S'Voice Call'
p7
sS'callid'
p8
L1509L
sS'oid'
p9
L17731L
sS'number'
p10
g2
sS'person_oid'
p11
L94L
sS'contact'
p12
L27L
sS'starttime'
p13
cdatetime
datetime
p14
(S'\x07\xd5\x02\x04\x14\x17 \x00\x00\x00'
p15
tp16
Rp17
sS'duration'
p18
L26L
sS'endtime'
p19
g14
(S'\x07\xd5\x02\x04\x14\x17:\x00\x00\x00'
p20
tp21
Rp22
sS'phonenumber_oid'
p23
L5L
s.(dp0
S'status'
p1
S''
p2
sS'direction'
p3
S'Missed Call'
p4
sS'remote'
p5
g2
sS'description'
p6
S'Voice Call'
p7
sS'callid'
p8
L1510L
sS'oid'
p9
L17732L
sS'number'
p10
g2
sS'person_oid'
p11
L94L
sS'contact'
p12
L27L
sS'starttime'
p13
cdatetime
datetime
p14
(S'\x07\xd5\x02\x04\x14/*\x00\x00\x00'
p15
tp16
Rp17
sS'duration'
p18
L0L
sS'endtime'
p19
g14
(S'\x07\xd5\x02\x04\x14/*\x00\x00\x00'
p20
tp21
Rp22
sS'phonenumber_oid'
p23
L5L
s.(dp0
S'status'
p1
S''
p2
sS'direction'
p3
S'Outgoing'
p4
sS'remote'
p5
g2
sS'description'
p6
S'Voice Call'
p7
sS'callid'
p8
L1511L
sS'oid'
p9
L17733L
sS'number'
p10
g2
sS'person_oid'
p11
L94L
sS'contact'
p12
L5L
sS'starttime'
p13
cdatetime
datetime
p14
(S"\x07\xd5\x02\x05\x0f\x10'\x00\x00\x00"
p15
tp16
Rp17
sS'duration'
p18
L93L
sS'endtime'
p19
g14
(S'\x07\xd5\x02\x05\x0f\x12\x0c\x00\x00\x00'
p20
tp21
Rp22
sS'phonenumber_oid'
p23
L16L
s.(dp0
S'status'
p1
S''
p2
sS'direction'
p3
S'Outgoing'
p4
sS'remote'
p5
g2
sS'description'
p6
S'Voice Call'
p7
sS'callid'
p8
L1511L
sS'oid'
p9
L17742L
sS'number'
p10
g2
sS'person_oid'
p11
L94L
sS'contact'
p12
L5L
sS'starttime'
p13
cdatetime
datetime
p14
(S"\x07\xd5\x02\x05\x0f\x10'\x00\x00\x00"
p15
tp16
Rp17
sS'duration'
p18
L93L
sS'endtime'
p19
g14
(S'\x07\xd5\x02\x05\x0f\x12\x0c\x00\x00\x00'
p20
tp21
Rp22
sS'phonenumber_oid'
p23
L16L
s.(dp0
S'status'
p1
S''
p2
sS'direction'
p3
S'Outgoing'
p4
sS'remote'
p5
g2
sS'description'
p6
S'Voice Call'
p7
sS'callid'
p8
L1512L
sS'oid'
p9
L17734L
sS'number'
p10
g2
sS'person_oid'
p11
L94L
sS'contact'
p12
L27L
sS'starttime'
p13
cdatetime
datetime
p14
(S'\x07\xd5\x02\x05\x13\x13:\x00\x00\x00'
p15
tp16
Rp17
sS'duration'
p18
L77L
sS'endtime'
p19
g14
(S'\x07\xd5\x02\x05\x13\x15\x0f\x00\x00\x00'
p20
tp21
Rp22
sS'phonenumber_oid'
p23
L5L
s.(dp0
S'status'
p1
S''
p2
sS'direction'
p3
S'Outgoing'
p4
sS'remote'
p5
g2
sS'description'
p6
S'Voice Call'
p7
sS'callid'
p8
L1512L
sS'oid'
p9
L17743L
sS'number'
p10
g2
sS'person_oid'
p11
L94L
sS'contact'
p12
L27L
sS'starttime'
p13
cdatetime
datetime
p14
(S'\x07\xd5\x02\x05\x13\x13:\x00\x00\x00'
p15
tp16
Rp17
sS'duration'
p18
L77L
sS'endtime'
p19
g14
(S'\x07\xd5\x02\x05\x13\x15\x0f\x00\x00\x00'
p20
tp21
Rp22
sS'phonenumber_oid'
p23
L5L
s.(dp0
S'status'
p1
S''
p2
sS'direction'
p3
S'Outgoing'
p4
sS'remote'
p5
g2
sS'description'
p6
S'Voice Call'
p7
sS'callid'
p8
L1513L
sS'oid'
p9
L17735L
sS'number'
p10
g2
sS'person_oid'
p11
L94L
sS'contact'
p12
L27L
sS'starttime'
p13
cdatetime
datetime
p14
(S'\x07\xd5\x02\x05\x13& \x00\x00\x00'
p15
tp16
Rp17
sS'duration'
p18
L1L
sS'endtime'
p19
g14
(S'\x07\xd5\x02\x05\x13&!\x00\x00\x00'
p20
tp21
Rp22
sS'phonenumber_oid'
p23
L5L
s.(dp0
S'status'
p1
S''
p2
sS'direction'
p3
S'Outgoing'
p4
sS'remote'
p5
g2
sS'description'
p6
S'Voice Call'
p7
sS'callid'
p8
L1513L
sS'oid'
p9
L17744L
sS'number'
p10
g2
sS'person_oid'
p11
L94L
sS'contact'
p12
L27L
sS'starttime'
p13
cdatetime
datetime
p14
(S'\x07\xd5\x02\x05\x13& \x00\x00\x00'
p15
tp16
Rp17
sS'duration'
p18
L1L
sS'endtime'
p19
g14
(S'\x07\xd5\x02\x05\x13&!\x00\x00\x00'
p20
tp21
Rp22
sS'phonenumber_oid'
p23
L5L
s.(dp0
S'status'
p1
S''
p2
sS'direction'
p3
S'Outgoing'
p4
sS'remote'
p5
g2
sS'description'
p6
S'Voice Call'
p7
sS'callid'
p8
L1514L
sS'oid'
p9
L17736L
sS'number'
p10
g2
sS'person_oid'
p11
L94L
sS'contact'
p12
L27L
sS'starttime'
p13
cdatetime
datetime
p14
(S'\x07\xd5\x02\x05\x14\x00\x07\x00\x00\x00'
p15
tp16
Rp17
sS'duration'
p18
L58L
sS'endtime'
p19
g14
(S'\x07\xd5\x02\x05\x14\x01\x05\x00\x00\x00'
p20
tp21
Rp22
sS'phonenumber_oid'
p23
L5L
s.(dp0
S'status'
p1
S''
p2
sS'direction'
p3
S'Outgoing'
p4
sS'remote'
p5
g2
sS'description'
p6
S'Voice Call'
p7
sS'callid'
p8
L1514L
sS'oid'
p9
L17745L
sS'number'
p10
g2
sS'person_oid'
p11
L94L
sS'contact'
p12
L27L
sS'starttime'
p13
cdatetime
datetime
p14
(S'\x07\xd5\x02\x05\x14\x00\x07\x00\x00\x00'
p15
tp16
Rp17
sS'duration'
p18
L58L
sS'endtime'
p19
g14
(S'\x07\xd5\x02\x05\x14\x01\x05\x00\x00\x00'
p20
tp21
Rp22
sS'phonenumber_oid'
p23
L5L
s.(dp0
S'status'
p1
S''
p2
sS'direction'
p3
S'Incoming'
p4
sS'remote'
p5
g2
sS'description'
p6
S'Voice Call'
p7
sS'callid'
p8
L1516L
sS'oid'
p9
L17737L
sS'number'
p10
g2
sS'person_oid'
p11
L94L
sS'contact'
p12
L27L
sS'starttime'
p13
cdatetime
datetime
p14
(S'\x07\xd5\x02\x05\x14\x14,\x00\x00\x00'
p15
tp16
Rp17
sS'duration'
p18
L126L
sS'endtime'
p19
g14
(S'\x07\xd5\x02\x05\x14\x162\x00\x00\x00'
p20
tp21
Rp22
sS'phonenumber_oid'
p23
L5L
s.(dp0
S'status'
p1
S''
p2
sS'direction'
p3
S'Incoming'
p4
sS'remote'
p5
g2
sS'description'
p6
S'Voice Call'
p7
sS'callid'
p8
L1516L
sS'oid'
p9
L17746L
sS'number'
p10
g2
sS'person_oid'
p11
L94L
sS'contact'
p12
L27L
sS'starttime'
p13
cdatetime
datetime
p14
(S'\x07\xd5\x02\x05\x14\x14,\x00\x00\x00'
p15
tp16
Rp17
sS'duration'
p18
L126L
sS'endtime'
p19
g14
(S'\x07\xd5\x02\x05\x14\x162\x00\x00\x00'
p20
tp21
Rp22
sS'phonenumber_oid'
p23
L5L
s.(dp0
S'status'
p1
S''
p2
sS'direction'
p3
S'Incoming'
p4
sS'remote'
p5
g2
sS'description'
p6
S'Voice Call'
p7
sS'callid'
p8
L1518L
sS'oid'
p9
L17738L
sS'number'
p10
g2
sS'person_oid'
p11
L94L
sS'contact'
p12
L27L
sS'starttime'
p13
cdatetime
datetime
p14
(S'\x07\xd5\x02\x05\x1479\x00\x00\x00'
p15
tp16
Rp17
sS'duration'
p18
L155L
sS'endtime'
p19
g14
(S'\x07\xd5\x02\x05\x14: \x00\x00\x00'
p20
tp21
Rp22
sS'phonenumber_oid'
p23
L5L
s.(dp0
S'status'
p1
S''
p2
sS'direction'
p3
S'Incoming'
p4
sS'remote'
p5
g2
sS'description'
p6
S'Voice Call'
p7
sS'callid'
p8
L1518L
sS'oid'
p9
L17747L
sS'number'
p10
g2
sS'person_oid'
p11
L94L
sS'contact'
p12
L27L
sS'starttime'
p13
cdatetime
datetime
p14
(S'\x07\xd5\x02\x05\x1479\x00\x00\x00'
p15
tp16
Rp17
sS'duration'
p18
L155L
sS'endtime'
p19
g14
(S'\x07\xd5\x02\x05\x14: \x00\x00\x00'
p20
tp21
Rp22
sS'phonenumber_oid'
p23
L5L
s.(dp0
S'status'
p1
S''
p2
sS'direction'
p3
S'Incoming'
p4
sS'remote'
p5
g2
sS'description'
p6
S'Voice Call'
p7
sS'callid'
p8
L1520L
sS'oid'
p9
L17739L
sS'number'
p10
g2
sS'person_oid'
p11
L94L
sS'contact'
p12
L27L
sS'starttime'
p13
cdatetime
datetime
p14
(S'\x07\xd5\x02\x05\x15\t\x1b\x00\x00\x00'
p15
tp16
Rp17
sS'duration'
p18
L91L
sS'endtime'
p19
g14
(S'\x07\xd5\x02\x05\x15\n:\x00\x00\x00'
p20
tp21
Rp22
sS'phonenumber_oid'
p23
L5L
s.(dp0
S'status'
p1
S''
p2
sS'direction'
p3
S'Incoming'
p4
sS'remote'
p5
g2
sS'description'
p6
S'Voice Call'
p7
sS'callid'
p8
L1520L
sS'oid'
p9
L17748L
sS'number'
p10
g2
sS'person_oid'
p11
L94L
sS'contact'
p12
L27L
sS'starttime'
p13
cdatetime
datetime
p14
(S'\x07\xd5\x02\x05\x15\t\x1b\x00\x00\x00'
p15
tp16
Rp17
sS'duration'
p18
L91L
sS'endtime'
p19
g14
(S'\x07\xd5\x02\x05\x15\n:\x00\x00\x00'
p20
tp21
Rp22
sS'phonenumber_oid'
p23
L5L
s.(dp0
S'status'
p1
S''
p2
sS'direction'
p3
S'Outgoing'
p4
sS'remote'
p5
g2
sS'description'
p6
S'Voice Call'
p7
sS'callid'
p8
L1521L
sS'oid'
p9
L17740L
sS'number'
p10
g2
sS'person_oid'
p11
L94L
sS'contact'
p12
L27L
sS'starttime'
p13
cdatetime
datetime
p14
(S'\x07\xd5\x02\x05\x15\x0c\x03\x00\x00\x00'
p15
tp16
Rp17
sS'duration'
p18
L35L
sS'endtime'
p19
g14
(S'\x07\xd5\x02\x05\x15\x0c&\x00\x00\x00'
p20
tp21
Rp22
sS'phonenumber_oid'
p23
L5L
s.(dp0
S'status'
p1
S''
p2
sS'direction'
p3
S'Outgoing'
p4
sS'remote'
p5
g2
sS'description'
p6
S'Voice Call'
p7
sS'callid'
p8
L1521L
sS'oid'
p9
L17749L
sS'number'
p10
g2
sS'person_oid'
p11
L94L
sS'contact'
p12
L27L
sS'starttime'
p13
cdatetime
datetime
p14
(S'\x07\xd5\x02\x05\x15\x0c\x03\x00\x00\x00'
p15
tp16
Rp17
sS'duration'
p18
L35L
sS'endtime'
p19
g14
(S'\x07\xd5\x02\x05\x15\x0c&\x00\x00\x00'
p20
tp21
Rp22
sS'phonenumber_oid'
p23
L5L
s.(dp0
S'status'
p1
S''
p2
sS'direction'
p3
S'Incoming'
p4
sS'remote'
p5
g2
sS'description'
p6
S'Voice Call'
p7
sS'callid'
p8
L1523L
sS'oid'
p9
L17741L
sS'number'
p10
g2
sS'person_oid'
p11
L94L
sS'contact'
p12
L27L
sS'starttime'
p13
cdatetime
datetime
p14
(S'\x07\xd5\x02\x05\x15:\x15\x00\x00\x00'
p15
tp16
Rp17
sS'duration'
p18
L0L
sS'endtime'
p19
g14
(S'\x07\xd5\x02\x05\x15:\x15\x00\x00\x00'
p20
tp21
Rp22
sS'phonenumber_oid'
p23
L5L
s.(dp0
S'status'
p1
S''
p2
sS'direction'
p3
S'Incoming'
p4
sS'remote'
p5
g2
sS'description'
p6
S'Voice Call'
p7
sS'callid'
p8
L1523L
sS'oid'
p9
L17750L
sS'number'
p10
g2
sS'person_oid'
p11
L94L
sS'contact'
p12
L27L
sS'starttime'
p13
cdatetime
datetime
p14
(S'\x07\xd5\x02\x05\x15:\x15\x00\x00\x00'
p15
tp16
Rp17
sS'duration'
p18
L0L
sS'endtime'
p19
g14
(S'\x07\xd5\x02\x05\x15:\x15\x00\x00\x00'
p20
tp21
Rp22
sS'phonenumber_oid'
p23
L5L
s.(dp0
S'status'
p1
S''
p2
sS'direction'
p3
S'Incoming'
p4
sS'remote'
p5
g2
sS'description'
p6
S'Voice Call'
p7
sS'callid'
p8
L1525L
sS'oid'
p9
L17751L
sS'number'
p10
g2
sS'person_oid'
p11
L94L
sS'contact'
p12
L27L
sS'starttime'
p13
cdatetime
datetime
p14
(S'\x07\xd5\x02\x06\x10\x08\x12\x00\x00\x00'
p15
tp16
Rp17
sS'duration'
p18
L71L
sS'endtime'
p19
g14
(S'\x07\xd5\x02\x06\x10\t\x1d\x00\x00\x00'
p20
tp21
Rp22
sS'phonenumber_oid'
p23
L5L
s.(dp0
S'status'
p1
S''
p2
sS'direction'
p3
S'Incoming'
p4
sS'remote'
p5
g2
sS'description'
p6
S'Voice Call'
p7
sS'callid'
p8
L1525L
sS'oid'
p9
L17758L
sS'number'
p10
g2
sS'person_oid'
p11
L94L
sS'contact'
p12
L27L
sS'starttime'
p13
cdatetime
datetime
p14
(S'\x07\xd5\x02\x06\x10\x08\x12\x00\x00\x00'
p15
tp16
Rp17
sS'duration'
p18
L71L
sS'endtime'
p19
g14
(S'\x07\xd5\x02\x06\x10\t\x1d\x00\x00\x00'
p20
tp21
Rp22
sS'phonenumber_oid'
p23
L5L
s.(dp0
S'status'
p1
S''
p2
sS'direction'
p3
S'Outgoing'
p4
sS'remote'
p5
g2
sS'description'
p6
S'Voice Call'
p7
sS'callid'
p8
L1526L
sS'oid'
p9
L17752L
sS'number'
p10
g2
sS'person_oid'
p11
L94L
sS'contact'
p12
L2L
sS'starttime'
p13
cdatetime
datetime
p14
(S'\x07\xd5\x02\x06\x12(\x15\x00\x00\x00'
p15
tp16
Rp17
sS'duration'
p18
L40L
sS'endtime'
p19
g14
(S'\x07\xd5\x02\x06\x12)\x01\x00\x00\x00'
p20
tp21
Rp22
sS'phonenumber_oid'
p23
L14L
s.(dp0
S'status'
p1
S''
p2
sS'direction'
p3
S'Outgoing'
p4
sS'remote'
p5
g2
sS'description'
p6
S'Voice Call'
p7
sS'callid'
p8
L1526L
sS'oid'
p9
L17759L
sS'number'
p10
g2
sS'person_oid'
p11
L94L
sS'contact'
p12
L2L
sS'starttime'
p13
cdatetime
datetime
p14
(S'\x07\xd5\x02\x06\x12(\x15\x00\x00\x00'
p15
tp16
Rp17
sS'duration'
p18
L40L
sS'endtime'
p19
g14
(S'\x07\xd5\x02\x06\x12)\x01\x00\x00\x00'
p20
tp21
Rp22
sS'phonenumber_oid'
p23
L14L
s.(dp0
S'status'
p1
S''
p2
sS'direction'
p3
S'Outgoing'
p4
sS'remote'
p5
g2
sS'description'
p6
S'Voice Call'
p7
sS'callid'
p8
L1527L
sS'oid'
p9
L17753L
sS'number'
p10
g2
sS'person_oid'
p11
L94L
sS'contact'
p12
L2L
sS'starttime'
p13
cdatetime
datetime
p14
(S'\x07\xd5\x02\x06\x13\x14\x12\x00\x00\x00'
p15
tp16
Rp17
sS'duration'
p18
L8L
sS'endtime'
p19
g14
(S'\x07\xd5\x02\x06\x13\x14\x1a\x00\x00\x00'
p20
tp21
Rp22
sS'phonenumber_oid'
p23
L14L
s.(dp0
S'status'
p1
S''
p2
sS'direction'
p3
S'Outgoing'
p4
sS'remote'
p5
g2
sS'description'
p6
S'Voice Call'
p7
sS'callid'
p8
L1527L
sS'oid'
p9
L17760L
sS'number'
p10
g2
sS'person_oid'
p11
L94L
sS'contact'
p12
L2L
sS'starttime'
p13
cdatetime
datetime
p14
(S'\x07\xd5\x02\x06\x13\x14\x12\x00\x00\x00'
p15
tp16
Rp17
sS'duration'
p18
L8L
sS'endtime'
p19
g14
(S'\x07\xd5\x02\x06\x13\x14\x1a\x00\x00\x00'
p20
tp21
Rp22
sS'phonenumber_oid'
p23
L14L
s.(dp0
S'status'
p1
S''
p2
sS'direction'
p3
S'Incoming'
p4
sS'remote'
p5
g2
sS'description'
p6
S'Voice Call'
p7
sS'callid'
p8
L1529L
sS'oid'
p9
L17754L
sS'number'
p10
g2
sS'person_oid'
p11
L94L
sS'contact'
p12
L2L
sS'starttime'
p13
cdatetime
datetime
p14
(S'\x07\xd5\x02\x06\x13*7\x00\x00\x00'
p15
tp16
Rp17
sS'duration'
p18
L19L
sS'endtime'
p19
g14
(S'\x07\xd5\x02\x06\x13+\x0e\x00\x00\x00'
p20
tp21
Rp22
sS'phonenumber_oid'
p23
L14L
s.(dp0
S'status'
p1
S''
p2
sS'direction'
p3
S'Incoming'
p4
sS'remote'
p5
g2
sS'description'
p6
S'Voice Call'
p7
sS'callid'
p8
L1529L
sS'oid'
p9
L17761L
sS'number'
p10
g2
sS'person_oid'
p11
L94L
sS'contact'
p12
L2L
sS'starttime'
p13
cdatetime
datetime
p14
(S'\x07\xd5\x02\x06\x13*7\x00\x00\x00'
p15
tp16
Rp17
sS'duration'
p18
L19L
sS'endtime'
p19
g14
(S'\x07\xd5\x02\x06\x13+\x0e\x00\x00\x00'
p20
tp21
Rp22
sS'phonenumber_oid'
p23
L14L
s.(dp0
S'status'
p1
S''
p2
sS'direction'
p3
S'Outgoing'
p4
sS'remote'
p5
g2
sS'description'
p6
S'Voice Call'
p7
sS'callid'
p8
L1532L
sS'oid'
p9
L17755L
sS'number'
p10
g2
sS'person_oid'
p11
L94L
sS'contact'
p12
L24L
sS'starttime'
p13
cdatetime
datetime
p14
(S'\x07\xd5\x02\x07\x02\x1b\r\x00\x00\x00'
p15
tp16
Rp17
sS'duration'
p18
L8L
sS'endtime'
p19
g14
(S'\x07\xd5\x02\x07\x02\x1b\x15\x00\x00\x00'
p20
tp21
Rp22
sS'phonenumber_oid'
p23
L1L
s.(dp0
S'status'
p1
S''
p2
sS'direction'
p3
S'Outgoing'
p4
sS'remote'
p5
g2
sS'description'
p6
S'Voice Call'
p7
sS'callid'
p8
L1532L
sS'oid'
p9
L17762L
sS'number'
p10
g2
sS'person_oid'
p11
L94L
sS'contact'
p12
L24L
sS'starttime'
p13
cdatetime
datetime
p14
(S'\x07\xd5\x02\x07\x02\x1b\r\x00\x00\x00'
p15
tp16
Rp17
sS'duration'
p18
L8L
sS'endtime'
p19
g14
(S'\x07\xd5\x02\x07\x02\x1b\x15\x00\x00\x00'
p20
tp21
Rp22
sS'phonenumber_oid'
p23
L1L
s.(dp0
S'status'
p1
S''
p2
sS'direction'
p3
S'Outgoing'
p4
sS'remote'
p5
g2
sS'description'
p6
S'Voice Call'
p7
sS'callid'
p8
L1533L
sS'oid'
p9
L17756L
sS'number'
p10
g2
sS'person_oid'
p11
L94L
sS'contact'
p12
L6L
sS'starttime'
p13
cdatetime
datetime
p14
(S'\x07\xd5\x02\x07\x02.,\x00\x00\x00'
p15
tp16
Rp17
sS'duration'
p18
L5L
sS'endtime'
p19
g14
(S'\x07\xd5\x02\x07\x02.1\x00\x00\x00'
p20
tp21
Rp22
sS'phonenumber_oid'
p23
L4L
s.(dp0
S'status'
p1
S''
p2
sS'direction'
p3
S'Outgoing'
p4
sS'remote'
p5
g2
sS'description'
p6
S'Voice Call'
p7
sS'callid'
p8
L1533L
sS'oid'
p9
L17763L
sS'number'
p10
g2
sS'person_oid'
p11
L94L
sS'contact'
p12
L6L
sS'starttime'
p13
cdatetime
datetime
p14
(S'\x07\xd5\x02\x07\x02.,\x00\x00\x00'
p15
tp16
Rp17
sS'duration'
p18
L5L
sS'endtime'
p19
g14
(S'\x07\xd5\x02\x07\x02.1\x00\x00\x00'
p20
tp21
Rp22
sS'phonenumber_oid'
p23
L4L
s.(dp0
S'status'
p1
S''
p2
sS'direction'
p3
S'Incoming'
p4
sS'remote'
p5
g2
sS'description'
p6
S'Voice Call'
p7
sS'callid'
p8
L1535L
sS'oid'
p9
L17757L
sS'number'
p10
g2
sS'person_oid'
p11
L94L
sS'contact'
p12
L6L
sS'starttime'
p13
cdatetime
datetime
p14
(S'\x07\xd5\x02\x07\x02/\t\x00\x00\x00'
p15
tp16
Rp17
sS'duration'
p18
L120L
sS'endtime'
p19
g14
(S'\x07\xd5\x02\x07\x021\t\x00\x00\x00'
p20
tp21
Rp22
sS'phonenumber_oid'
p23
L4L
s.(dp0
S'status'
p1
S''
p2
sS'direction'
p3
S'Incoming'
p4
sS'remote'
p5
g2
sS'description'
p6
S'Voice Call'
p7
sS'callid'
p8
L1535L
sS'oid'
p9
L17764L
sS'number'
p10
g2
sS'person_oid'
p11
L94L
sS'contact'
p12
L6L
sS'starttime'
p13
cdatetime
datetime
p14
(S'\x07\xd5\x02\x07\x02/\t\x00\x00\x00'
p15
tp16
Rp17
sS'duration'
p18
L120L
sS'endtime'
p19
g14
(S'\x07\xd5\x02\x07\x021\t\x00\x00\x00'
p20
tp21
Rp22
sS'phonenumber_oid'
p23
L4L
s.(dp0
S'status'
p1
S''
p2
sS'direction'
p3
S'Incoming'
p4
sS'remote'
p5
g2
sS'description'
p6
S'Voice Call'
p7
sS'callid'
p8
L1537L
sS'oid'
p9
L17765L
sS'number'
p10
g2
sS'person_oid'
p11
L94L
sS'contact'
p12
L27L
sS'starttime'
p13
cdatetime
datetime
p14
(S'\x07\xd5\x02\x07\x0f\x052\x00\x00\x00'
p15
tp16
Rp17
sS'duration'
p18
L585L
sS'endtime'
p19
g14
(S'\x07\xd5\x02\x07\x0f\x0f#\x00\x00\x00'
p20
tp21
Rp22
sS'phonenumber_oid'
p23
L5L
s.(dp0
S'status'
p1
S''
p2
sS'direction'
p3
S'Incoming'
p4
sS'remote'
p5
g2
sS'description'
p6
S'Voice Call'
p7
sS'callid'
p8
L1537L
sS'oid'
p9
L17774L
sS'number'
p10
g2
sS'person_oid'
p11
L94L
sS'contact'
p12
L27L
sS'starttime'
p13
cdatetime
datetime
p14
(S'\x07\xd5\x02\x07\x0f\x052\x00\x00\x00'
p15
tp16
Rp17
sS'duration'
p18
L585L
sS'endtime'
p19
g14
(S'\x07\xd5\x02\x07\x0f\x0f#\x00\x00\x00'
p20
tp21
Rp22
sS'phonenumber_oid'
p23
L5L
s.(dp0
S'status'
p1
S''
p2
sS'direction'
p3
S'Outgoing'
p4
sS'remote'
p5
g2
sS'description'
p6
S'Voice Call'
p7
sS'callid'
p8
L1538L
sS'oid'
p9
L17766L
sS'number'
p10
g2
sS'person_oid'
p11
L94L
sS'contact'
p12
L27L
sS'starttime'
p13
cdatetime
datetime
p14
(S'\x07\xd5\x02\x07\x0f\x1e\x12\x00\x00\x00'
p15
tp16
Rp17
sS'duration'
p18
L8L
sS'endtime'
p19
g14
(S'\x07\xd5\x02\x07\x0f\x1e\x1a\x00\x00\x00'
p20
tp21
Rp22
sS'phonenumber_oid'
p23
L5L
s.(dp0
S'status'
p1
S''
p2
sS'direction'
p3
S'Outgoing'
p4
sS'remote'
p5
g2
sS'description'
p6
S'Voice Call'
p7
sS'callid'
p8
L1538L
sS'oid'
p9
L17775L
sS'number'
p10
g2
sS'person_oid'
p11
L94L
sS'contact'
p12
L27L
sS'starttime'
p13
cdatetime
datetime
p14
(S'\x07\xd5\x02\x07\x0f\x1e\x12\x00\x00\x00'
p15
tp16
Rp17
sS'duration'
p18
L8L
sS'endtime'
p19
g14
(S'\x07\xd5\x02\x07\x0f\x1e\x1a\x00\x00\x00'
p20
tp21
Rp22
sS'phonenumber_oid'
p23
L5L
s.(dp0
S'status'
p1
S''
p2
sS'direction'
p3
S'Outgoing'
p4
sS'remote'
p5
g2
sS'description'
p6
S'Voice Call'
p7
sS'callid'
p8
L1539L
sS'oid'
p9
L17767L
sS'number'
p10
g2
sS'person_oid'
p11
L94L
sS'contact'
p12
L27L
sS'starttime'
p13
cdatetime
datetime
p14
(S'\x07\xd5\x02\x07\x10(\x18\x00\x00\x00'
p15
tp16
Rp17
sS'duration'
p18
L7L
sS'endtime'
p19
g14
(S'\x07\xd5\x02\x07\x10(\x1f\x00\x00\x00'
p20
tp21
Rp22
sS'phonenumber_oid'
p23
L5L
s.(dp0
S'status'
p1
S''
p2
sS'direction'
p3
S'Outgoing'
p4
sS'remote'
p5
g2
sS'description'
p6
S'Voice Call'
p7
sS'callid'
p8
L1539L
sS'oid'
p9
L17776L
sS'number'
p10
g2
sS'person_oid'
p11
L94L
sS'contact'
p12
L27L
sS'starttime'
p13
cdatetime
datetime
p14
(S'\x07\xd5\x02\x07\x10(\x18\x00\x00\x00'
p15
tp16
Rp17
sS'duration'
p18
L7L
sS'endtime'
p19
g14
(S'\x07\xd5\x02\x07\x10(\x1f\x00\x00\x00'
p20
tp21
Rp22
sS'phonenumber_oid'
p23
L5L
s.(dp0
S'status'
p1
S''
p2
sS'direction'
p3
S'Incoming'
p4
sS'remote'
p5
g2
sS'description'
p6
S'Voice Call'
p7
sS'callid'
p8
L1541L
sS'oid'
p9
L17768L
sS'number'
p10
g2
sS'person_oid'
p11
L94L
sS'contact'
p12
L21L
sS'starttime'
p13
cdatetime
datetime
p14
(S'\x07\xd5\x02\x07\x11\t\x1b\x00\x00\x00'
p15
tp16
Rp17
sS'duration'
p18
L0L
sS'endtime'
p19
g14
(S'\x07\xd5\x02\x07\x11\t\x1b\x00\x00\x00'
p20
tp21
Rp22
sS'phonenumber_oid'
p23
L18L
s.(dp0
S'status'
p1
S''
p2
sS'direction'
p3
S'Incoming'
p4
sS'remote'
p5
g2
sS'description'
p6
S'Voice Call'
p7
sS'callid'
p8
L1541L
sS'oid'
p9
L17777L
sS'number'
p10
g2
sS'person_oid'
p11
L94L
sS'contact'
p12
L21L
sS'starttime'
p13
cdatetime
datetime
p14
(S'\x07\xd5\x02\x07\x11\t\x1b\x00\x00\x00'
p15
tp16
Rp17
sS'duration'
p18
L0L
sS'endtime'
p19
g14
(S'\x07\xd5\x02\x07\x11\t\x1b\x00\x00\x00'
p20
tp21
Rp22
sS'phonenumber_oid'
p23
L18L
s.(dp0
S'status'
p1
S''
p2
sS'direction'
p3
S'Outgoing'
p4
sS'remote'
p5
g2
sS'description'
p6
S'Voice Call'
p7
sS'callid'
p8
L1542L
sS'oid'
p9
L17769L
sS'number'
p10
g2
sS'person_oid'
p11
L94L
sS'contact'
p12
L7L
sS'starttime'
p13
cdatetime
datetime
p14
(S'\x07\xd5\x02\x07\x122\x0f\x00\x00\x00'
p15
tp16
Rp17
sS'duration'
p18
L7L
sS'endtime'
p19
g14
(S'\x07\xd5\x02\x07\x122\x16\x00\x00\x00'
p20
tp21
Rp22
sS'phonenumber_oid'
p23
L6L
s.(dp0
S'status'
p1
S''
p2
sS'direction'
p3
S'Outgoing'
p4
sS'remote'
p5
g2
sS'description'
p6
S'Voice Call'
p7
sS'callid'
p8
L1542L
sS'oid'
p9
L17778L
sS'number'
p10
g2
sS'person_oid'
p11
L94L
sS'contact'
p12
L7L
sS'starttime'
p13
cdatetime
datetime
p14
(S'\x07\xd5\x02\x07\x122\x0f\x00\x00\x00'
p15
tp16
Rp17
sS'duration'
p18
L7L
sS'endtime'
p19
g14
(S'\x07\xd5\x02\x07\x122\x16\x00\x00\x00'
p20
tp21
Rp22
sS'phonenumber_oid'
p23
L6L
s.(dp0
S'status'
p1
S''
p2
sS'direction'
p3
S'Outgoing'
p4
sS'remote'
p5
g2
sS'description'
p6
S'Voice Call'
p7
sS'callid'
p8
L1543L
sS'oid'
p9
L17770L
sS'number'
p10
g2
sS'person_oid'
p11
L94L
sS'contact'
p12
L24L
sS'starttime'
p13
cdatetime
datetime
p14
(S'\x07\xd5\x02\x07\x122,\x00\x00\x00'
p15
tp16
Rp17
sS'duration'
p18
L10L
sS'endtime'
p19
g14
(S'\x07\xd5\x02\x07\x1226\x00\x00\x00'
p20
tp21
Rp22
sS'phonenumber_oid'
p23
L1L
s.(dp0
S'status'
p1
S''
p2
sS'direction'
p3
S'Outgoing'
p4
sS'remote'
p5
g2
sS'description'
p6
S'Voice Call'
p7
sS'callid'
p8
L1543L
sS'oid'
p9
L17779L
sS'number'
p10
g2
sS'person_oid'
p11
L94L
sS'contact'
p12
L24L
sS'starttime'
p13
cdatetime
datetime
p14
(S'\x07\xd5\x02\x07\x122,\x00\x00\x00'
p15
tp16
Rp17
sS'duration'
p18
L10L
sS'endtime'
p19
g14
(S'\x07\xd5\x02\x07\x1226\x00\x00\x00'
p20
tp21
Rp22
sS'phonenumber_oid'
p23
L1L
s.(dp0
S'status'
p1
S''
p2
sS'direction'
p3
S'Incoming'
p4
sS'remote'
p5
g2
sS'description'
p6
S'Voice Call'
p7
sS'callid'
p8
L1545L
sS'oid'
p9
L17771L
sS'number'
p10
g2
sS'person_oid'
p11
L94L
sS'contact'
p12
L7L
sS'starttime'
p13
cdatetime
datetime
p14
(S'\x07\xd5\x02\x07\x137.\x00\x00\x00'
p15
tp16
Rp17
sS'duration'
p18
L0L
sS'endtime'
p19
g14
(S'\x07\xd5\x02\x07\x137.\x00\x00\x00'
p20
tp21
Rp22
sS'phonenumber_oid'
p23
L6L
s.(dp0
S'status'
p1
S''
p2
sS'direction'
p3
S'Incoming'
p4
sS'remote'
p5
g2
sS'description'
p6
S'Voice Call'
p7
sS'callid'
p8
L1545L
sS'oid'
p9
L17780L
sS'number'
p10
g2
sS'person_oid'
p11
L94L
sS'contact'
p12
L7L
sS'starttime'
p13
cdatetime
datetime
p14
(S'\x07\xd5\x02\x07\x137.\x00\x00\x00'
p15
tp16
Rp17
sS'duration'
p18
L0L
sS'endtime'
p19
g14
(S'\x07\xd5\x02\x07\x137.\x00\x00\x00'
p20
tp21
Rp22
sS'phonenumber_oid'
p23
L6L
s.(dp0
S'status'
p1
S''
p2
sS'direction'
p3
S'Outgoing'
p4
sS'remote'
p5
g2
sS'description'
p6
S'Voice Call'
p7
sS'callid'
p8
L1546L
sS'oid'
p9
L17772L
sS'number'
p10
g2
sS'person_oid'
p11
L94L
sS'contact'
p12
L7L
sS'starttime'
p13
cdatetime
datetime
p14
(S'\x07\xd5\x02\x07\x148\x0f\x00\x00\x00'
p15
tp16
Rp17
sS'duration'
p18
L1L
sS'endtime'
p19
g14
(S'\x07\xd5\x02\x07\x148\x10\x00\x00\x00'
p20
tp21
Rp22
sS'phonenumber_oid'
p23
L6L
s.(dp0
S'status'
p1
S''
p2
sS'direction'
p3
S'Outgoing'
p4
sS'remote'
p5
g2
sS'description'
p6
S'Voice Call'
p7
sS'callid'
p8
L1546L
sS'oid'
p9
L17781L
sS'number'
p10
g2
sS'person_oid'
p11
L94L
sS'contact'
p12
L7L
sS'starttime'
p13
cdatetime
datetime
p14
(S'\x07\xd5\x02\x07\x148\x0f\x00\x00\x00'
p15
tp16
Rp17
sS'duration'
p18
L1L
sS'endtime'
p19
g14
(S'\x07\xd5\x02\x07\x148\x10\x00\x00\x00'
p20
tp21
Rp22
sS'phonenumber_oid'
p23
L6L
s.(dp0
S'status'
p1
S''
p2
sS'direction'
p3
S'Outgoing'
p4
sS'remote'
p5
g2
sS'description'
p6
S'Voice Call'
p7
sS'callid'
p8
L1547L
sS'oid'
p9
L17773L
sS'number'
p10
g2
sS'person_oid'
p11
L94L
sS'contact'
p12
L6L
sS'starttime'
p13
cdatetime
datetime
p14
(S'\x07\xd5\x02\x08\x014\x12\x00\x00\x00'
p15
tp16
Rp17
sS'duration'
p18
L7L
sS'endtime'
p19
g14
(S'\x07\xd5\x02\x08\x014\x19\x00\x00\x00'
p20
tp21
Rp22
sS'phonenumber_oid'
p23
L4L
s.(dp0
S'status'
p1
S''
p2
sS'direction'
p3
S'Outgoing'
p4
sS'remote'
p5
g2
sS'description'
p6
S'Voice Call'
p7
sS'callid'
p8
L1547L
sS'oid'
p9
L17782L
sS'number'
p10
g2
sS'person_oid'
p11
L94L
sS'contact'
p12
L6L
sS'starttime'
p13
cdatetime
datetime
p14
(S'\x07\xd5\x02\x08\x014\x12\x00\x00\x00'
p15
tp16
Rp17
sS'duration'
p18
L7L
sS'endtime'
p19
g14
(S'\x07\xd5\x02\x08\x014\x19\x00\x00\x00'
p20
tp21
Rp22
sS'phonenumber_oid'
p23
L4L
s.(dp0
S'status'
p1
S''
p2
sS'direction'
p3
S'Incoming'
p4
sS'remote'
p5
g2
sS'description'
p6
S'Voice Call'
p7
sS'callid'
p8
L1549L
sS'oid'
p9
L17783L
sS'number'
p10
g2
sS'person_oid'
p11
L94L
sS'contact'
p12
L27L
sS'starttime'
p13
cdatetime
datetime
p14
(S"\x07\xd5\x02\x08\x15\x06'\x00\x00\x00"
p15
tp16
Rp17
sS'duration'
p18
L15L
sS'endtime'
p19
g14
(S'\x07\xd5\x02\x08\x15\x066\x00\x00\x00'
p20
tp21
Rp22
sS'phonenumber_oid'
p23
L5L
s.(dp0
S'status'
p1
S''
p2
sS'direction'
p3
S'Incoming'
p4
sS'remote'
p5
g2
sS'description'
p6
S'Voice Call'
p7
sS'callid'
p8
L1549L
sS'oid'
p9
L17787L
sS'number'
p10
g2
sS'person_oid'
p11
L94L
sS'contact'
p12
L27L
sS'starttime'
p13
cdatetime
datetime
p14
(S"\x07\xd5\x02\x08\x15\x06'\x00\x00\x00"
p15
tp16
Rp17
sS'duration'
p18
L15L
sS'endtime'
p19
g14
(S'\x07\xd5\x02\x08\x15\x066\x00\x00\x00'
p20
tp21
Rp22
sS'phonenumber_oid'
p23
L5L
s.(dp0
S'status'
p1
S''
p2
sS'direction'
p3
S'Incoming'
p4
sS'remote'
p5
g2
sS'description'
p6
S'Voice Call'
p7
sS'callid'
p8
L1551L
sS'oid'
p9
L17784L
sS'number'
p10
g2
sS'person_oid'
p11
L94L
sS'contact'
p12
L6L
sS'starttime'
p13
cdatetime
datetime
p14
(S'\x07\xd5\x02\x08\x16$(\x00\x00\x00'
p15
tp16
Rp17
sS'duration'
p18
L110L
sS'endtime'
p19
g14
(S'\x07\xd5\x02\x08\x16&\x1e\x00\x00\x00'
p20
tp21
Rp22
sS'phonenumber_oid'
p23
L4L
s.(dp0
S'status'
p1
S''
p2
sS'direction'
p3
S'Incoming'
p4
sS'remote'
p5
g2
sS'description'
p6
S'Voice Call'
p7
sS'callid'
p8
L1551L
sS'oid'
p9
L17788L
sS'number'
p10
g2
sS'person_oid'
p11
L94L
sS'contact'
p12
L6L
sS'starttime'
p13
cdatetime
datetime
p14
(S'\x07\xd5\x02\x08\x16$(\x00\x00\x00'
p15
tp16
Rp17
sS'duration'
p18
L110L
sS'endtime'
p19
g14
(S'\x07\xd5\x02\x08\x16&\x1e\x00\x00\x00'
p20
tp21
Rp22
sS'phonenumber_oid'
p23
L4L
s.(dp0
S'status'
p1
S''
p2
sS'direction'
p3
S'Outgoing'
p4
sS'remote'
p5
g2
sS'description'
p6
S'Voice Call'
p7
sS'callid'
p8
L1552L
sS'oid'
p9
L17785L
sS'number'
p10
g2
sS'person_oid'
p11
L94L
sS'contact'
p12
L20L
sS'starttime'
p13
cdatetime
datetime
p14
(S'\x07\xd5\x02\x08\x17\x00\x02\x00\x00\x00'
p15
tp16
Rp17
sS'duration'
p18
L2L
sS'endtime'
p19
g14
(S'\x07\xd5\x02\x08\x17\x00\x04\x00\x00\x00'
p20
tp21
Rp22
sS'phonenumber_oid'
p23
L31L
s.(dp0
S'status'
p1
S''
p2
sS'direction'
p3
S'Outgoing'
p4
sS'remote'
p5
g2
sS'description'
p6
S'Voice Call'
p7
sS'callid'
p8
L1552L
sS'oid'
p9
L17789L
sS'number'
p10
g2
sS'person_oid'
p11
L94L
sS'contact'
p12
L20L
sS'starttime'
p13
cdatetime
datetime
p14
(S'\x07\xd5\x02\x08\x17\x00\x02\x00\x00\x00'
p15
tp16
Rp17
sS'duration'
p18
L2L
sS'endtime'
p19
g14
(S'\x07\xd5\x02\x08\x17\x00\x04\x00\x00\x00'
p20
tp21
Rp22
sS'phonenumber_oid'
p23
L31L
s.(dp0
S'status'
p1
S''
p2
sS'direction'
p3
S'Outgoing'
p4
sS'remote'
p5
g2
sS'description'
p6
S'Voice Call'
p7
sS'callid'
p8
L1553L
sS'oid'
p9
L17786L
sS'number'
p10
g2
sS'person_oid'
p11
L94L
sS'contact'
p12
L20L
sS'starttime'
p13
cdatetime
datetime
p14
(S'\x07\xd5\x02\x08\x17\x00\x1a\x00\x00\x00'
p15
tp16
Rp17
sS'duration'
p18
L8L
sS'endtime'
p19
g14
(S'\x07\xd5\x02\x08\x17\x00"\x00\x00\x00'
p20
tp21
Rp22
sS'phonenumber_oid'
p23
L31L
s.(dp0
S'status'
p1
S''
p2
sS'direction'
p3
S'Outgoing'
p4
sS'remote'
p5
g2
sS'description'
p6
S'Voice Call'
p7
sS'callid'
p8
L1553L
sS'oid'
p9
L17790L
sS'number'
p10
g2
sS'person_oid'
p11
L94L
sS'contact'
p12
L20L
sS'starttime'
p13
cdatetime
datetime
p14
(S'\x07\xd5\x02\x08\x17\x00\x1a\x00\x00\x00'
p15
tp16
Rp17
sS'duration'
p18
L8L
sS'endtime'
p19
g14
(S'\x07\xd5\x02\x08\x17\x00"\x00\x00\x00'
p20
tp21
Rp22
sS'phonenumber_oid'
p23
L31L
s.(dp0
S'status'
p1
S''
p2
sS'direction'
p3
S'Outgoing'
p4
sS'remote'
p5
g2
sS'description'
p6
S'Voice Call'
p7
sS'callid'
p8
L1554L
sS'oid'
p9
L17791L
sS'number'
p10
g2
sS'person_oid'
p11
L94L
sS'contact'
p12
L6L
sS'starttime'
p13
cdatetime
datetime
p14
(S'\x07\xd5\x02\t\x16\x00\x1d\x00\x00\x00'
p15
tp16
Rp17
sS'duration'
p18
L6L
sS'endtime'
p19
g14
(S'\x07\xd5\x02\t\x16\x00#\x00\x00\x00'
p20
tp21
Rp22
sS'phonenumber_oid'
p23
L4L
s.(dp0
S'status'
p1
S''
p2
sS'direction'
p3
S'Outgoing'
p4
sS'remote'
p5
g2
sS'description'
p6
S'Voice Call'
p7
sS'callid'
p8
L1554L
sS'oid'
p9
L17794L
sS'number'
p10
g2
sS'person_oid'
p11
L94L
sS'contact'
p12
L6L
sS'starttime'
p13
cdatetime
datetime
p14
(S'\x07\xd5\x02\t\x16\x00\x1d\x00\x00\x00'
p15
tp16
Rp17
sS'duration'
p18
L6L
sS'endtime'
p19
g14
(S'\x07\xd5\x02\t\x16\x00#\x00\x00\x00'
p20
tp21
Rp22
sS'phonenumber_oid'
p23
L4L
s.(dp0
S'status'
p1
S''
p2
sS'direction'
p3
S'Outgoing'
p4
sS'remote'
p5
g2
sS'description'
p6
S'Voice Call'
p7
sS'callid'
p8
L1555L
sS'oid'
p9
L17792L
sS'number'
p10
g2
sS'person_oid'
p11
L94L
sS'contact'
p12
L27L
sS'starttime'
p13
cdatetime
datetime
p14
(S'\x07\xd5\x02\n\x00\t\x0f\x00\x00\x00'
p15
tp16
Rp17
sS'duration'
p18
L0L
sS'endtime'
p19
g14
(S'\x07\xd5\x02\n\x00\t\x0f\x00\x00\x00'
p20
tp21
Rp22
sS'phonenumber_oid'
p23
L5L
s.(dp0
S'status'
p1
S''
p2
sS'direction'
p3
S'Outgoing'
p4
sS'remote'
p5
g2
sS'description'
p6
S'Voice Call'
p7
sS'callid'
p8
L1555L
sS'oid'
p9
L17795L
sS'number'
p10
g2
sS'person_oid'
p11
L94L
sS'contact'
p12
L27L
sS'starttime'
p13
cdatetime
datetime
p14
(S'\x07\xd5\x02\n\x00\t\x0f\x00\x00\x00'
p15
tp16
Rp17
sS'duration'
p18
L0L
sS'endtime'
p19
g14
(S'\x07\xd5\x02\n\x00\t\x0f\x00\x00\x00'
p20
tp21
Rp22
sS'phonenumber_oid'
p23
L5L
s.(dp0
S'status'
p1
S''
p2
sS'direction'
p3
S'Outgoing'
p4
sS'remote'
p5
g2
sS'description'
p6
S'Voice Call'
p7
sS'callid'
p8
L1556L
sS'oid'
p9
L17793L
sS'number'
p10
g2
sS'person_oid'
p11
L94L
sS'contact'
p12
L27L
sS'starttime'
p13
cdatetime
datetime
p14
(S'\x07\xd5\x02\n\x00\n\x1a\x00\x00\x00'
p15
tp16
Rp17
sS'duration'
p18
L7L
sS'endtime'
p19
g14
(S'\x07\xd5\x02\n\x00\n!\x00\x00\x00'
p20
tp21
Rp22
sS'phonenumber_oid'
p23
L5L
s.(dp0
S'status'
p1
S''
p2
sS'direction'
p3
S'Outgoing'
p4
sS'remote'
p5
g2
sS'description'
p6
S'Voice Call'
p7
sS'callid'
p8
L1556L
sS'oid'
p9
L17796L
sS'number'
p10
g2
sS'person_oid'
p11
L94L
sS'contact'
p12
L27L
sS'starttime'
p13
cdatetime
datetime
p14
(S'\x07\xd5\x02\n\x00\n\x1a\x00\x00\x00'
p15
tp16
Rp17
sS'duration'
p18
L7L
sS'endtime'
p19
g14
(S'\x07\xd5\x02\n\x00\n!\x00\x00\x00'
p20
tp21
Rp22
sS'phonenumber_oid'
p23
L5L
s.(dp0
S'status'
p1
S''
p2
sS'direction'
p3
S'Missed Call'
p4
sS'remote'
p5
g2
sS'description'
p6
S'Voice Call'
p7
sS'callid'
p8
L1558L
sS'oid'
p9
L17797L
sS'number'
p10
g2
sS'person_oid'
p11
L94L
sS'contact'
p12
L27L
sS'starttime'
p13
cdatetime
datetime
p14
(S'\x07\xd5\x02\x0b\x14$\x13\x00\x00\x00'
p15
tp16
Rp17
sS'duration'
p18
L0L
sS'endtime'
p19
g14
(S'\x07\xd5\x02\x0b\x14$\x13\x00\x00\x00'
p20
tp21
Rp22
sS'phonenumber_oid'
p23
L5L
s.(dp0
S'status'
p1
S''
p2
sS'direction'
p3
S'Outgoing'
p4
sS'remote'
p5
g2
sS'description'
p6
S'Voice Call'
p7
sS'callid'
p8
L1560L
sS'oid'
p9
L17798L
sS'number'
p10
g2
sS'person_oid'
p11
L94L
sS'contact'
p12
L24L
sS'starttime'
p13
cdatetime
datetime
p14
(S'\x07\xd5\x02\x0b\x15\x150\x00\x00\x00'
p15
tp16
Rp17
sS'duration'
p18
L7L
sS'endtime'
p19
g14
(S'\x07\xd5\x02\x0b\x15\x157\x00\x00\x00'
p20
tp21
Rp22
sS'phonenumber_oid'
p23
L1L
s.(dp0
S'status'
p1
S''
p2
sS'direction'
p3
S'Incoming'
p4
sS'remote'
p5
g2
sS'description'
p6
S'Voice Call'
p7
sS'callid'
p8
L1562L
sS'oid'
p9
L17799L
sS'number'
p10
g2
sS'person_oid'
p11
L94L
sS'contact'
p12
L24L
sS'starttime'
p13
cdatetime
datetime
p14
(S'\x07\xd5\x02\x0b\x15\x1c-\x00\x00\x00'
p15
tp16
Rp17
sS'duration'
p18
L510L
sS'endtime'
p19
g14
(S'\x07\xd5\x02\x0b\x15%\x0f\x00\x00\x00'
p20
tp21
Rp22
sS'phonenumber_oid'
p23
L1L
s.(dp0
S'status'
p1
S''
p2
sS'direction'
p3
S'Outgoing'
p4
sS'remote'
p5
g2
sS'description'
p6
S'Voice Call'
p7
sS'callid'
p8
L1563L
sS'oid'
p9
L17800L
sS'number'
p10
g2
sS'person_oid'
p11
L94L
sS'contact'
p12
L24L
sS'starttime'
p13
cdatetime
datetime
p14
(S'\x07\xd5\x02\x0b\x15%\x1f\x00\x00\x00'
p15
tp16
Rp17
sS'duration'
p18
L0L
sS'endtime'
p19
g14
(S'\x07\xd5\x02\x0b\x15%\x1f\x00\x00\x00'
p20
tp21
Rp22
sS'phonenumber_oid'
p23
L1L
s.(dp0
S'status'
p1
S''
p2
sS'direction'
p3
S'Incoming'
p4
sS'remote'
p5
g2
sS'description'
p6
S'Voice Call'
p7
sS'callid'
p8
L1565L
sS'oid'
p9
L17801L
sS'number'
p10
g2
sS'person_oid'
p11
L94L
sS'contact'
p12
L40L
sS'starttime'
p13
cdatetime
datetime
p14
(S'\x07\xd5\x02\x0c\x00\n\x10\x00\x00\x00'
p15
tp16
Rp17
sS'duration'
p18
L73L
sS'endtime'
p19
g14
(S'\x07\xd5\x02\x0c\x00\x0b\x1d\x00\x00\x00'
p20
tp21
Rp22
sS'phonenumber_oid'
p23
L26L
s.(dp0
S'status'
p1
S''
p2
sS'direction'
p3
S'Outgoing'
p4
sS'remote'
p5
g2
sS'description'
p6
S'Voice Call'
p7
sS'callid'
p8
L1566L
sS'oid'
p9
L17802L
sS'number'
p10
g2
sS'person_oid'
p11
L94L
sS'contact'
p12
L22L
sS'starttime'
p13
cdatetime
datetime
p14
(S'\x07\xd5\x02\x0c\x00 \x1d\x00\x00\x00'
p15
tp16
Rp17
sS'duration'
p18
L53L
sS'endtime'
p19
g14
(S'\x07\xd5\x02\x0c\x00!\x16\x00\x00\x00'
p20
tp21
Rp22
sS'phonenumber_oid'
p23
L11L
s.(dp0
S'status'
p1
S''
p2
sS'direction'
p3
S'Outgoing'
p4
sS'remote'
p5
g2
sS'description'
p6
S'Voice Call'
p7
sS'callid'
p8
L1567L
sS'oid'
p9
L17803L
sS'number'
p10
g2
sS'person_oid'
p11
L94L
sS'contact'
p12
L40L
sS'starttime'
p13
cdatetime
datetime
p14
(S"\x07\xd5\x02\x0c\x011'\x00\x00\x00"
p15
tp16
Rp17
sS'duration'
p18
L105L
sS'endtime'
p19
g14
(S'\x07\xd5\x02\x0c\x013\x18\x00\x00\x00'
p20
tp21
Rp22
sS'phonenumber_oid'
p23
L26L
s.(dp0
S'status'
p1
S''
p2
sS'direction'
p3
S'Outgoing'
p4
sS'remote'
p5
g2
sS'description'
p6
S'Voice Call'
p7
sS'callid'
p8
L1568L
sS'oid'
p9
L17804L
sS'number'
p10
g2
sS'person_oid'
p11
L94L
sS'contact'
p12
L24L
sS'starttime'
p13
cdatetime
datetime
p14
(S'\x07\xd5\x02\x0c\x0e9\x05\x00\x00\x00'
p15
tp16
Rp17
sS'duration'
p18
L13L
sS'endtime'
p19
g14
(S'\x07\xd5\x02\x0c\x0e9\x12\x00\x00\x00'
p20
tp21
Rp22
sS'phonenumber_oid'
p23
L1L
s.(dp0
S'status'
p1
S''
p2
sS'direction'
p3
S'Incoming'
p4
sS'remote'
p5
g2
sS'description'
p6
S'Voice Call'
p7
sS'callid'
p8
L1570L
sS'oid'
p9
L17805L
sS'number'
p10
g2
sS'person_oid'
p11
L94L
sS'contact'
p12
L6L
sS'starttime'
p13
cdatetime
datetime
p14
(S'\x07\xd5\x02\x0c\x13\x0e;\x00\x00\x00'
p15
tp16
Rp17
sS'duration'
p18
L154L
sS'endtime'
p19
g14
(S'\x07\xd5\x02\x0c\x13\x11!\x00\x00\x00'
p20
tp21
Rp22
sS'phonenumber_oid'
p23
L4L
s.(dp0
S'status'
p1
S''
p2
sS'direction'
p3
S'Outgoing'
p4
sS'remote'
p5
g2
sS'description'
p6
S'Voice Call'
p7
sS'callid'
p8
L1572L
sS'oid'
p9
L17806L
sS'number'
p10
g2
sS'person_oid'
p11
L94L
sS'contact'
p12
L6L
sS'starttime'
p13
cdatetime
datetime
p14
(S'\x07\xd5\x02\r\x01\x0c4\x00\x00\x00'
p15
tp16
Rp17
sS'duration'
p18
L135L
sS'endtime'
p19
g14
(S'\x07\xd5\x02\r\x01\x0f\x07\x00\x00\x00'
p20
tp21
Rp22
sS'phonenumber_oid'
p23
L4L
s.(dp0
S'status'
p1
S''
p2
sS'direction'
p3
S'Outgoing'
p4
sS'remote'
p5
g2
sS'description'
p6
S'Voice Call'
p7
sS'callid'
p8
L1573L
sS'oid'
p9
L17807L
sS'number'
p10
g2
sS'person_oid'
p11
L94L
sS'contact'
p12
L5L
sS'starttime'
p13
cdatetime
datetime
p14
(S'\x07\xd5\x02\r\x01\x13\t\x00\x00\x00'
p15
tp16
Rp17
sS'duration'
p18
L254L
sS'endtime'
p19
g14
(S'\x07\xd5\x02\r\x01\x17\x17\x00\x00\x00'
p20
tp21
Rp22
sS'phonenumber_oid'
p23
L63L
s.(dp0
S'status'
p1
S''
p2
sS'direction'
p3
S'Outgoing'
p4
sS'remote'
p5
g2
sS'description'
p6
S'Voice Call'
p7
sS'callid'
p8
L1575L
sS'oid'
p9
L17808L
sS'number'
p10
g2
sS'person_oid'
p11
L94L
sS'contact'
p12
L27L
sS'starttime'
p13
cdatetime
datetime
p14
(S'\x07\xd5\x02\x0e\x00\x12\x1b\x00\x00\x00'
p15
tp16
Rp17
sS'duration'
p18
L0L
sS'endtime'
p19
g14
(S'\x07\xd5\x02\x0e\x00\x12\x1b\x00\x00\x00'
p20
tp21
Rp22
sS'phonenumber_oid'
p23
L5L
s.(dp0
S'status'
p1
S''
p2
sS'direction'
p3
S'Outgoing'
p4
sS'remote'
p5
g2
sS'description'
p6
S'Voice Call'
p7
sS'callid'
p8
L1575L
sS'oid'
p9
L17809L
sS'number'
p10
g2
sS'person_oid'
p11
L94L
sS'contact'
p12
L27L
sS'starttime'
p13
cdatetime
datetime
p14
(S'\x07\xd5\x02\x0e\x00\x12\x1b\x00\x00\x00'
p15
tp16
Rp17
sS'duration'
p18
L0L
sS'endtime'
p19
g14
(S'\x07\xd5\x02\x0e\x00\x12\x1b\x00\x00\x00'
p20
tp21
Rp22
sS'phonenumber_oid'
p23
L5L
s.(dp0
S'status'
p1
S''
p2
sS'direction'
p3
S'Outgoing'
p4
sS'remote'
p5
g2
sS'description'
p6
S'Voice Call'
p7
sS'callid'
p8
L1576L
sS'oid'
p9
L17810L
sS'number'
p10
g2
sS'person_oid'
p11
L94L
sS'contact'
p12
L41L
sS'starttime'
p13
cdatetime
datetime
p14
(S'\x07\xd5\x02\x0e\x0e\x14\x13\x00\x00\x00'
p15
tp16
Rp17
sS'duration'
p18
L0L
sS'endtime'
p19
g14
(S'\x07\xd5\x02\x0e\x0e\x14\x13\x00\x00\x00'
p20
tp21
Rp22
sS'phonenumber_oid'
p23
L64L
s.(dp0
S'status'
p1
S''
p2
sS'direction'
p3
S'Outgoing'
p4
sS'remote'
p5
g2
sS'description'
p6
S'Voice Call'
p7
sS'callid'
p8
L1576L
sS'oid'
p9
L17822L
sS'number'
p10
g2
sS'person_oid'
p11
L94L
sS'contact'
p12
L41L
sS'starttime'
p13
cdatetime
datetime
p14
(S'\x07\xd5\x02\x0e\x0e\x14\x13\x00\x00\x00'
p15
tp16
Rp17
sS'duration'
p18
L0L
sS'endtime'
p19
g14
(S'\x07\xd5\x02\x0e\x0e\x14\x13\x00\x00\x00'
p20
tp21
Rp22
sS'phonenumber_oid'
p23
L64L
s.(dp0
S'status'
p1
S''
p2
sS'direction'
p3
S'Outgoing'
p4
sS'remote'
p5
g2
sS'description'
p6
S'Voice Call'
p7
sS'callid'
p8
L1577L
sS'oid'
p9
L17811L
sS'number'
p10
g2
sS'person_oid'
p11
L94L
sS'contact'
p12
L24L
sS'starttime'
p13
cdatetime
datetime
p14
(S'\x07\xd5\x02\x0e\x0e\x15\t\x00\x00\x00'
p15
tp16
Rp17
sS'duration'
p18
L196L
sS'endtime'
p19
g14
(S'\x07\xd5\x02\x0e\x0e\x18\x19\x00\x00\x00'
p20
tp21
Rp22
sS'phonenumber_oid'
p23
L1L
s.(dp0
S'status'
p1
S''
p2
sS'direction'
p3
S'Outgoing'
p4
sS'remote'
p5
g2
sS'description'
p6
S'Voice Call'
p7
sS'callid'
p8
L1577L
sS'oid'
p9
L17823L
sS'number'
p10
g2
sS'person_oid'
p11
L94L
sS'contact'
p12
L24L
sS'starttime'
p13
cdatetime
datetime
p14
(S'\x07\xd5\x02\x0e\x0e\x15\t\x00\x00\x00'
p15
tp16
Rp17
sS'duration'
p18
L196L
sS'endtime'
p19
g14
(S'\x07\xd5\x02\x0e\x0e\x18\x19\x00\x00\x00'
p20
tp21
Rp22
sS'phonenumber_oid'
p23
L1L
s.(dp0
S'status'
p1
S''
p2
sS'direction'
p3
S'Outgoing'
p4
sS'remote'
p5
g2
sS'description'
p6
S'Voice Call'
p7
sS'callid'
p8
L1578L
sS'oid'
p9
L17812L
sS'number'
p10
g2
sS'person_oid'
p11
L94L
sS'contact'
p12
L27L
sS'starttime'
p13
cdatetime
datetime
p14
(S'\x07\xd5\x02\x0e\x0e#\x14\x00\x00\x00'
p15
tp16
Rp17
sS'duration'
p18
L6L
sS'endtime'
p19
g14
(S'\x07\xd5\x02\x0e\x0e#\x1a\x00\x00\x00'
p20
tp21
Rp22
sS'phonenumber_oid'
p23
L5L
s.(dp0
S'status'
p1
S''
p2
sS'direction'
p3
S'Outgoing'
p4
sS'remote'
p5
g2
sS'description'
p6
S'Voice Call'
p7
sS'callid'
p8
L1578L
sS'oid'
p9
L17824L
sS'number'
p10
g2
sS'person_oid'
p11
L94L
sS'contact'
p12
L27L
sS'starttime'
p13
cdatetime
datetime
p14
(S'\x07\xd5\x02\x0e\x0e#\x14\x00\x00\x00'
p15
tp16
Rp17
sS'duration'
p18
L6L
sS'endtime'
p19
g14
(S'\x07\xd5\x02\x0e\x0e#\x1a\x00\x00\x00'
p20
tp21
Rp22
sS'phonenumber_oid'
p23
L5L
s.(dp0
S'status'
p1
S''
p2
sS'direction'
p3
S'Incoming'
p4
sS'remote'
p5
g2
sS'description'
p6
S'Voice Call'
p7
sS'callid'
p8
L1580L
sS'oid'
p9
L17813L
sS'number'
p10
g2
sS'person_oid'
p11
L94L
sS'contact'
p12
L27L
sS'starttime'
p13
cdatetime
datetime
p14
(S'\x07\xd5\x02\x0e\x0f1\x13\x00\x00\x00'
p15
tp16
Rp17
sS'duration'
p18
L75L
sS'endtime'
p19
g14
(S'\x07\xd5\x02\x0e\x0f2"\x00\x00\x00'
p20
tp21
Rp22
sS'phonenumber_oid'
p23
L5L
s.(dp0
S'status'
p1
S''
p2
sS'direction'
p3
S'Incoming'
p4
sS'remote'
p5
g2
sS'description'
p6
S'Voice Call'
p7
sS'callid'
p8
L1580L
sS'oid'
p9
L17825L
sS'number'
p10
g2
sS'person_oid'
p11
L94L
sS'contact'
p12
L27L
sS'starttime'
p13
cdatetime
datetime
p14
(S'\x07\xd5\x02\x0e\x0f1\x13\x00\x00\x00'
p15
tp16
Rp17
sS'duration'
p18
L75L
sS'endtime'
p19
g14
(S'\x07\xd5\x02\x0e\x0f2"\x00\x00\x00'
p20
tp21
Rp22
sS'phonenumber_oid'
p23
L5L
s.(dp0
S'status'
p1
S''
p2
sS'direction'
p3
S'Incoming'
p4
sS'remote'
p5
g2
sS'description'
p6
S'Voice Call'
p7
sS'callid'
p8
L1582L
sS'oid'
p9
L17814L
sS'number'
p10
g2
sS'person_oid'
p11
L94L
sS'contact'
p12
L27L
sS'starttime'
p13
cdatetime
datetime
p14
(S'\x07\xd5\x02\x0e\x0f9\x04\x00\x00\x00'
p15
tp16
Rp17
sS'duration'
p18
L0L
sS'endtime'
p19
g14
(S'\x07\xd5\x02\x0e\x0f9\x04\x00\x00\x00'
p20
tp21
Rp22
sS'phonenumber_oid'
p23
L5L
s.(dp0
S'status'
p1
S''
p2
sS'direction'
p3
S'Incoming'
p4
sS'remote'
p5
g2
sS'description'
p6
S'Voice Call'
p7
sS'callid'
p8
L1582L
sS'oid'
p9
L17826L
sS'number'
p10
g2
sS'person_oid'
p11
L94L
sS'contact'
p12
L27L
sS'starttime'
p13
cdatetime
datetime
p14
(S'\x07\xd5\x02\x0e\x0f9\x04\x00\x00\x00'
p15
tp16
Rp17
sS'duration'
p18
L0L
sS'endtime'
p19
g14
(S'\x07\xd5\x02\x0e\x0f9\x04\x00\x00\x00'
p20
tp21
Rp22
sS'phonenumber_oid'
p23
L5L
s.(dp0
S'status'
p1
S''
p2
sS'direction'
p3
S'Outgoing'
p4
sS'remote'
p5
g2
sS'description'
p6
S'Voice Call'
p7
sS'callid'
p8
L1583L
sS'oid'
p9
L17815L
sS'number'
p10
g2
sS'person_oid'
p11
L94L
sS'contact'
p12
L41L
sS'starttime'
p13
cdatetime
datetime
p14
(S'\x07\xd5\x02\x0e\x1026\x00\x00\x00'
p15
tp16
Rp17
sS'duration'
p18
L95L
sS'endtime'
p19
g14
(S'\x07\xd5\x02\x0e\x104\x1d\x00\x00\x00'
p20
tp21
Rp22
sS'phonenumber_oid'
p23
L64L
s.(dp0
S'status'
p1
S''
p2
sS'direction'
p3
S'Outgoing'
p4
sS'remote'
p5
g2
sS'description'
p6
S'Voice Call'
p7
sS'callid'
p8
L1583L
sS'oid'
p9
L17827L
sS'number'
p10
g2
sS'person_oid'
p11
L94L
sS'contact'
p12
L41L
sS'starttime'
p13
cdatetime
datetime
p14
(S'\x07\xd5\x02\x0e\x1026\x00\x00\x00'
p15
tp16
Rp17
sS'duration'
p18
L95L
sS'endtime'
p19
g14
(S'\x07\xd5\x02\x0e\x104\x1d\x00\x00\x00'
p20
tp21
Rp22
sS'phonenumber_oid'
p23
L64L
s.(dp0
S'status'
p1
S''
p2
sS'direction'
p3
S'Outgoing'
p4
sS'remote'
p5
g2
sS'description'
p6
S'Voice Call'
p7
sS'callid'
p8
L1584L
sS'oid'
p9
L17816L
sS'number'
p10
g2
sS'person_oid'
p11
L94L
sS'contact'
p12
L27L
sS'starttime'
p13
cdatetime
datetime
p14
(S'\x07\xd5\x02\x0e\x11\x018\x00\x00\x00'
p15
tp16
Rp17
sS'duration'
p18
L84L
sS'endtime'
p19
g14
(S'\x07\xd5\x02\x0e\x11\x03\x14\x00\x00\x00'
p20
tp21
Rp22
sS'phonenumber_oid'
p23
L5L
s.(dp0
S'status'
p1
S''
p2
sS'direction'
p3
S'Outgoing'
p4
sS'remote'
p5
g2
sS'description'
p6
S'Voice Call'
p7
sS'callid'
p8
L1584L
sS'oid'
p9
L17828L
sS'number'
p10
g2
sS'person_oid'
p11
L94L
sS'contact'
p12
L27L
sS'starttime'
p13
cdatetime
datetime
p14
(S'\x07\xd5\x02\x0e\x11\x018\x00\x00\x00'
p15
tp16
Rp17
sS'duration'
p18
L84L
sS'endtime'
p19
g14
(S'\x07\xd5\x02\x0e\x11\x03\x14\x00\x00\x00'
p20
tp21
Rp22
sS'phonenumber_oid'
p23
L5L
s.(dp0
S'status'
p1
S''
p2
sS'direction'
p3
S'Outgoing'
p4
sS'remote'
p5
g2
sS'description'
p6
S'Voice Call'
p7
sS'callid'
p8
L1585L
sS'oid'
p9
L17817L
sS'number'
p10
g2
sS'person_oid'
p11
L94L
sS'contact'
p12
L27L
sS'starttime'
p13
cdatetime
datetime
p14
(S'\x07\xd5\x02\x0e\x11.\x08\x00\x00\x00'
p15
tp16
Rp17
sS'duration'
p18
L0L
sS'endtime'
p19
g14
(S'\x07\xd5\x02\x0e\x11.\x08\x00\x00\x00'
p20
tp21
Rp22
sS'phonenumber_oid'
p23
L5L
s.(dp0
S'status'
p1
S''
p2
sS'direction'
p3
S'Outgoing'
p4
sS'remote'
p5
g2
sS'description'
p6
S'Voice Call'
p7
sS'callid'
p8
L1585L
sS'oid'
p9
L17829L
sS'number'
p10
g2
sS'person_oid'
p11
L94L
sS'contact'
p12
L27L
sS'starttime'
p13
cdatetime
datetime
p14
(S'\x07\xd5\x02\x0e\x11.\x08\x00\x00\x00'
p15
tp16
Rp17
sS'duration'
p18
L0L
sS'endtime'
p19
g14
(S'\x07\xd5\x02\x0e\x11.\x08\x00\x00\x00'
p20
tp21
Rp22
sS'phonenumber_oid'
p23
L5L
s.(dp0
S'status'
p1
S''
p2
sS'direction'
p3
S'Incoming'
p4
sS'remote'
p5
g2
sS'description'
p6
S'Voice Call'
p7
sS'callid'
p8
L1587L
sS'oid'
p9
L17818L
sS'number'
p10
g2
sS'person_oid'
p11
L94L
sS'contact'
p12
L27L
sS'starttime'
p13
cdatetime
datetime
p14
(S'\x07\xd5\x02\x0e\x12: \x00\x00\x00'
p15
tp16
Rp17
sS'duration'
p18
L241L
sS'endtime'
p19
g14
(S'\x07\xd5\x02\x0e\x13\x02!\x00\x00\x00'
p20
tp21
Rp22
sS'phonenumber_oid'
p23
L5L
s.(dp0
S'status'
p1
S''
p2
sS'direction'
p3
S'Incoming'
p4
sS'remote'
p5
g2
sS'description'
p6
S'Voice Call'
p7
sS'callid'
p8
L1587L
sS'oid'
p9
L17830L
sS'number'
p10
g2
sS'person_oid'
p11
L94L
sS'contact'
p12
L27L
sS'starttime'
p13
cdatetime
datetime
p14
(S'\x07\xd5\x02\x0e\x12: \x00\x00\x00'
p15
tp16
Rp17
sS'duration'
p18
L241L
sS'endtime'
p19
g14
(S'\x07\xd5\x02\x0e\x13\x02!\x00\x00\x00'
p20
tp21
Rp22
sS'phonenumber_oid'
p23
L5L
s.(dp0
S'status'
p1
S''
p2
sS'direction'
p3
S'Incoming'
p4
sS'remote'
p5
g2
sS'description'
p6
S'Voice Call'
p7
sS'callid'
p8
L1589L
sS'oid'
p9
L17819L
sS'number'
p10
g2
sS'person_oid'
p11
L94L
sS'contact'
p12
L24L
sS'starttime'
p13
cdatetime
datetime
p14
(S'\x07\xd5\x02\x0e\x15\x073\x00\x00\x00'
p15
tp16
Rp17
sS'duration'
p18
L225L
sS'endtime'
p19
g14
(S'\x07\xd5\x02\x0e\x15\x0b$\x00\x00\x00'
p20
tp21
Rp22
sS'phonenumber_oid'
p23
L1L
s.(dp0
S'status'
p1
S''
p2
sS'direction'
p3
S'Incoming'
p4
sS'remote'
p5
g2
sS'description'
p6
S'Voice Call'
p7
sS'callid'
p8
L1589L
sS'oid'
p9
L17831L
sS'number'
p10
g2
sS'person_oid'
p11
L94L
sS'contact'
p12
L24L
sS'starttime'
p13
cdatetime
datetime
p14
(S'\x07\xd5\x02\x0e\x15\x073\x00\x00\x00'
p15
tp16
Rp17
sS'duration'
p18
L225L
sS'endtime'
p19
g14
(S'\x07\xd5\x02\x0e\x15\x0b$\x00\x00\x00'
p20
tp21
Rp22
sS'phonenumber_oid'
p23
L1L
s.(dp0
S'status'
p1
S''
p2
sS'direction'
p3
S'Outgoing'
p4
sS'remote'
p5
g2
sS'description'
p6
S'Voice Call'
p7
sS'callid'
p8
L1590L
sS'oid'
p9
L17820L
sS'number'
p10
g2
sS'person_oid'
p11
L94L
sS'contact'
p12
L24L
sS'starttime'
p13
cdatetime
datetime
p14
(S'\x07\xd5\x02\x0f\x011+\x00\x00\x00'
p15
tp16
Rp17
sS'duration'
p18
L96L
sS'endtime'
p19
g14
(S'\x07\xd5\x02\x0f\x013\x13\x00\x00\x00'
p20
tp21
Rp22
sS'phonenumber_oid'
p23
L1L
s.(dp0
S'status'
p1
S''
p2
sS'direction'
p3
S'Outgoing'
p4
sS'remote'
p5
g2
sS'description'
p6
S'Voice Call'
p7
sS'callid'
p8
L1590L
sS'oid'
p9
L17832L
sS'number'
p10
g2
sS'person_oid'
p11
L94L
sS'contact'
p12
L24L
sS'starttime'
p13
cdatetime
datetime
p14
(S'\x07\xd5\x02\x0f\x011+\x00\x00\x00'
p15
tp16
Rp17
sS'duration'
p18
L96L
sS'endtime'
p19
g14
(S'\x07\xd5\x02\x0f\x013\x13\x00\x00\x00'
p20
tp21
Rp22
sS'phonenumber_oid'
p23
L1L
s.(dp0
S'status'
p1
S''
p2
sS'direction'
p3
S'Incoming'
p4
sS'remote'
p5
g2
sS'description'
p6
S'Voice Call'
p7
sS'callid'
p8
L1592L
sS'oid'
p9
L17821L
sS'number'
p10
g2
sS'person_oid'
p11
L94L
sS'contact'
p12
L24L
sS'starttime'
p13
cdatetime
datetime
p14
(S'\x07\xd5\x02\x0f\x02\x13 \x00\x00\x00'
p15
tp16
Rp17
sS'duration'
p18
L595L
sS'endtime'
p19
g14
(S'\x07\xd5\x02\x0f\x02\x1d\x1b\x00\x00\x00'
p20
tp21
Rp22
sS'phonenumber_oid'
p23
L1L
s.(dp0
S'status'
p1
S''
p2
sS'direction'
p3
S'Incoming'
p4
sS'remote'
p5
g2
sS'description'
p6
S'Voice Call'
p7
sS'callid'
p8
L1592L
sS'oid'
p9
L17833L
sS'number'
p10
g2
sS'person_oid'
p11
L94L
sS'contact'
p12
L24L
sS'starttime'
p13
cdatetime
datetime
p14
(S'\x07\xd5\x02\x0f\x02\x13 \x00\x00\x00'
p15
tp16
Rp17
sS'duration'
p18
L595L
sS'endtime'
p19
g14
(S'\x07\xd5\x02\x0f\x02\x1d\x1b\x00\x00\x00'
p20
tp21
Rp22
sS'phonenumber_oid'
p23
L1L
s.(dp0
S'status'
p1
S''
p2
sS'direction'
p3
S'Outgoing'
p4
sS'remote'
p5
g2
sS'description'
p6
S'Voice Call'
p7
sS'callid'
p8
L1593L
sS'oid'
p9
L17834L
sS'number'
p10
g2
sS'person_oid'
p11
L94L
sS'contact'
p12
L6L
sS'starttime'
p13
cdatetime
datetime
p14
(S'\x07\xd5\x02\x0f\x17!!\x00\x00\x00'
p15
tp16
Rp17
sS'duration'
p18
L105L
sS'endtime'
p19
g14
(S'\x07\xd5\x02\x0f\x17#\x12\x00\x00\x00'
p20
tp21
Rp22
sS'phonenumber_oid'
p23
L4L
s.(dp0
S'status'
p1
S''
p2
sS'direction'
p3
S'Outgoing'
p4
sS'remote'
p5
g2
sS'description'
p6
S'Voice Call'
p7
sS'callid'
p8
L1593L
sS'oid'
p9
L17836L
sS'number'
p10
g2
sS'person_oid'
p11
L94L
sS'contact'
p12
L6L
sS'starttime'
p13
cdatetime
datetime
p14
(S'\x07\xd5\x02\x0f\x17!!\x00\x00\x00'
p15
tp16
Rp17
sS'duration'
p18
L105L
sS'endtime'
p19
g14
(S'\x07\xd5\x02\x0f\x17#\x12\x00\x00\x00'
p20
tp21
Rp22
sS'phonenumber_oid'
p23
L4L
s.(dp0
S'status'
p1
S''
p2
sS'direction'
p3
S'Outgoing'
p4
sS'remote'
p5
g2
sS'description'
p6
S'Voice Call'
p7
sS'callid'
p8
L1594L
sS'oid'
p9
L17835L
sS'number'
p10
g2
sS'person_oid'
p11
L94L
sS'contact'
p12
L6L
sS'starttime'
p13
cdatetime
datetime
p14
(S'\x07\xd5\x02\x10\x030\x0e\x00\x00\x00'
p15
tp16
Rp17
sS'duration'
p18
L8L
sS'endtime'
p19
g14
(S'\x07\xd5\x02\x10\x030\x16\x00\x00\x00'
p20
tp21
Rp22
sS'phonenumber_oid'
p23
L4L
s.(dp0
S'status'
p1
S''
p2
sS'direction'
p3
S'Outgoing'
p4
sS'remote'
p5
g2
sS'description'
p6
S'Voice Call'
p7
sS'callid'
p8
L1594L
sS'oid'
p9
L17837L
sS'number'
p10
g2
sS'person_oid'
p11
L94L
sS'contact'
p12
L6L
sS'starttime'
p13
cdatetime
datetime
p14
(S'\x07\xd5\x02\x10\x030\x0e\x00\x00\x00'
p15
tp16
Rp17
sS'duration'
p18
L8L
sS'endtime'
p19
g14
(S'\x07\xd5\x02\x10\x030\x16\x00\x00\x00'
p20
tp21
Rp22
sS'phonenumber_oid'
p23
L4L
s.(dp0
S'status'
p1
S''
p2
sS'direction'
p3
S'Outgoing'
p4
sS'remote'
p5
g2
sS'description'
p6
S'Voice Call'
p7
sS'callid'
p8
L1594L
sS'oid'
p9
L17843L
sS'number'
p10
g2
sS'person_oid'
p11
L94L
sS'contact'
p12
L6L
sS'starttime'
p13
cdatetime
datetime
p14
(S'\x07\xd5\x02\x10\x030\x0e\x00\x00\x00'
p15
tp16
Rp17
sS'duration'
p18
L8L
sS'endtime'
p19
g14
(S'\x07\xd5\x02\x10\x030\x16\x00\x00\x00'
p20
tp21
Rp22
sS'phonenumber_oid'
p23
L4L
s.(dp0
S'status'
p1
S''
p2
sS'direction'
p3
S'Outgoing'
p4
sS'remote'
p5
g2
sS'description'
p6
S'Voice Call'
p7
sS'callid'
p8
L1595L
sS'oid'
p9
L17838L
sS'number'
p10
g2
sS'person_oid'
p11
L94L
sS'contact'
p12
L41L
sS'starttime'
p13
cdatetime
datetime
p14
(S'\x07\xd5\x02\x10\r\n\t\x00\x00\x00'
p15
tp16
Rp17
sS'duration'
p18
L0L
sS'endtime'
p19
g14
(S'\x07\xd5\x02\x10\r\n\t\x00\x00\x00'
p20
tp21
Rp22
sS'phonenumber_oid'
p23
L64L
s.(dp0
S'status'
p1
S''
p2
sS'direction'
p3
S'Outgoing'
p4
sS'remote'
p5
g2
sS'description'
p6
S'Voice Call'
p7
sS'callid'
p8
L1595L
sS'oid'
p9
L17844L
sS'number'
p10
g2
sS'person_oid'
p11
L94L
sS'contact'
p12
L41L
sS'starttime'
p13
cdatetime
datetime
p14
(S'\x07\xd5\x02\x10\r\n\t\x00\x00\x00'
p15
tp16
Rp17
sS'duration'
p18
L0L
sS'endtime'
p19
g14
(S'\x07\xd5\x02\x10\r\n\t\x00\x00\x00'
p20
tp21
Rp22
sS'phonenumber_oid'
p23
L64L
s.(dp0
S'status'
p1
S''
p2
sS'direction'
p3
S'Incoming'
p4
sS'remote'
p5
g2
sS'description'
p6
S'Voice Call'
p7
sS'callid'
p8
L1597L
sS'oid'
p9
L17839L
sS'number'
p10
g2
sS'person_oid'
p11
L94L
sS'contact'
p12
L21L
sS'starttime'
p13
cdatetime
datetime
p14
(S'\x07\xd5\x02\x10\x10;4\x00\x00\x00'
p15
tp16
Rp17
sS'duration'
p18
L22L
sS'endtime'
p19
g14
(S'\x07\xd5\x02\x10\x11\x00\x0e\x00\x00\x00'
p20
tp21
Rp22
sS'phonenumber_oid'
p23
L18L
s.(dp0
S'status'
p1
S''
p2
sS'direction'
p3
S'Incoming'
p4
sS'remote'
p5
g2
sS'description'
p6
S'Voice Call'
p7
sS'callid'
p8
L1597L
sS'oid'
p9
L17845L
sS'number'
p10
g2
sS'person_oid'
p11
L94L
sS'contact'
p12
L21L
sS'starttime'
p13
cdatetime
datetime
p14
(S'\x07\xd5\x02\x10\x10;4\x00\x00\x00'
p15
tp16
Rp17
sS'duration'
p18
L22L
sS'endtime'
p19
g14
(S'\x07\xd5\x02\x10\x11\x00\x0e\x00\x00\x00'
p20
tp21
Rp22
sS'phonenumber_oid'
p23
L18L
s.(dp0
S'status'
p1
S''
p2
sS'direction'
p3
S'Incoming'
p4
sS'remote'
p5
g2
sS'description'
p6
S'Voice Call'
p7
sS'callid'
p8
L1599L
sS'oid'
p9
L17840L
sS'number'
p10
g2
sS'person_oid'
p11
L94L
sS'contact'
p12
L27L
sS'starttime'
p13
cdatetime
datetime
p14
(S'\x07\xd5\x02\x10\x11\x07!\x00\x00\x00'
p15
tp16
Rp17
sS'duration'
p18
L0L
sS'endtime'
p19
g14
(S'\x07\xd5\x02\x10\x11\x07!\x00\x00\x00'
p20
tp21
Rp22
sS'phonenumber_oid'
p23
L5L
s.(dp0
S'status'
p1
S''
p2
sS'direction'
p3
S'Incoming'
p4
sS'remote'
p5
g2
sS'description'
p6
S'Voice Call'
p7
sS'callid'
p8
L1599L
sS'oid'
p9
L17846L
sS'number'
p10
g2
sS'person_oid'
p11
L94L
sS'contact'
p12
L27L
sS'starttime'
p13
cdatetime
datetime
p14
(S'\x07\xd5\x02\x10\x11\x07!\x00\x00\x00'
p15
tp16
Rp17
sS'duration'
p18
L0L
sS'endtime'
p19
g14
(S'\x07\xd5\x02\x10\x11\x07!\x00\x00\x00'
p20
tp21
Rp22
sS'phonenumber_oid'
p23
L5L
s.(dp0
S'status'
p1
S''
p2
sS'direction'
p3
S'Outgoing'
p4
sS'remote'
p5
g2
sS'description'
p6
S'Voice Call'
p7
sS'callid'
p8
L1600L
sS'oid'
p9
L17841L
sS'number'
p10
g2
sS'person_oid'
p11
L94L
sS'contact'
p12
L27L
sS'starttime'
p13
cdatetime
datetime
p14
(S'\x07\xd5\x02\x10\x15\x1d\x10\x00\x00\x00'
p15
tp16
Rp17
sS'duration'
p18
L42L
sS'endtime'
p19
g14
(S'\x07\xd5\x02\x10\x15\x1d:\x00\x00\x00'
p20
tp21
Rp22
sS'phonenumber_oid'
p23
L5L
s.(dp0
S'status'
p1
S''
p2
sS'direction'
p3
S'Outgoing'
p4
sS'remote'
p5
g2
sS'description'
p6
S'Voice Call'
p7
sS'callid'
p8
L1600L
sS'oid'
p9
L17847L
sS'number'
p10
g2
sS'person_oid'
p11
L94L
sS'contact'
p12
L27L
sS'starttime'
p13
cdatetime
datetime
p14
(S'\x07\xd5\x02\x10\x15\x1d\x10\x00\x00\x00'
p15
tp16
Rp17
sS'duration'
p18
L42L
sS'endtime'
p19
g14
(S'\x07\xd5\x02\x10\x15\x1d:\x00\x00\x00'
p20
tp21
Rp22
sS'phonenumber_oid'
p23
L5L
s.(dp0
S'status'
p1
S''
p2
sS'direction'
p3
S'Outgoing'
p4
sS'remote'
p5
g2
sS'description'
p6
S'Voice Call'
p7
sS'callid'
p8
L1601L
sS'oid'
p9
L17842L
sS'number'
p10
g2
sS'person_oid'
p11
L94L
sS'contact'
p12
L27L
sS'starttime'
p13
cdatetime
datetime
p14
(S'\x07\xd5\x02\x10\x17 ,\x00\x00\x00'
p15
tp16
Rp17
sS'duration'
p18
L62L
sS'endtime'
p19
g14
(S'\x07\xd5\x02\x10\x17!.\x00\x00\x00'
p20
tp21
Rp22
sS'phonenumber_oid'
p23
L5L
s.(dp0
S'status'
p1
S''
p2
sS'direction'
p3
S'Outgoing'
p4
sS'remote'
p5
g2
sS'description'
p6
S'Voice Call'
p7
sS'callid'
p8
L1601L
sS'oid'
p9
L17848L
sS'number'
p10
g2
sS'person_oid'
p11
L94L
sS'contact'
p12
L27L
sS'starttime'
p13
cdatetime
datetime
p14
(S'\x07\xd5\x02\x10\x17 ,\x00\x00\x00'
p15
tp16
Rp17
sS'duration'
p18
L62L
sS'endtime'
p19
g14
(S'\x07\xd5\x02\x10\x17!.\x00\x00\x00'
p20
tp21
Rp22
sS'phonenumber_oid'
p23
L5L
s.(dp0
S'status'
p1
S''
p2
sS'direction'
p3
S'Incoming'
p4
sS'remote'
p5
g2
sS'description'
p6
S'Voice Call'
p7
sS'callid'
p8
L1603L
sS'oid'
p9
L17849L
sS'number'
p10
g2
sS'person_oid'
p11
L94L
sS'contact'
p12
L27L
sS'starttime'
p13
cdatetime
datetime
p14
(S'\x07\xd5\x02\x11\x0e\x19-\x00\x00\x00'
p15
tp16
Rp17
sS'duration'
p18
L22L
sS'endtime'
p19
g14
(S'\x07\xd5\x02\x11\x0e\x1a\x07\x00\x00\x00'
p20
tp21
Rp22
sS'phonenumber_oid'
p23
L5L
s.(dp0
S'status'
p1
S''
p2
sS'direction'
p3
S'Incoming'
p4
sS'remote'
p5
g2
sS'description'
p6
S'Voice Call'
p7
sS'callid'
p8
L1603L
sS'oid'
p9
L17863L
sS'number'
p10
g2
sS'person_oid'
p11
L94L
sS'contact'
p12
L27L
sS'starttime'
p13
cdatetime
datetime
p14
(S'\x07\xd5\x02\x11\x0e\x19-\x00\x00\x00'
p15
tp16
Rp17
sS'duration'
p18
L22L
sS'endtime'
p19
g14
(S'\x07\xd5\x02\x11\x0e\x1a\x07\x00\x00\x00'
p20
tp21
Rp22
sS'phonenumber_oid'
p23
L5L
s.(dp0
S'status'
p1
S''
p2
sS'direction'
p3
S'Outgoing'
p4
sS'remote'
p5
g2
sS'description'
p6
S'Voice Call'
p7
sS'callid'
p8
L1604L
sS'oid'
p9
L17850L
sS'number'
p10
g2
sS'person_oid'
p11
L94L
sS'contact'
p12
L41L
sS'starttime'
p13
cdatetime
datetime
p14
(S'\x07\xd5\x02\x11\x12\x08*\x00\x00\x00'
p15
tp16
Rp17
sS'duration'
p18
L81L
sS'endtime'
p19
g14
(S'\x07\xd5\x02\x11\x12\n\x03\x00\x00\x00'
p20
tp21
Rp22
sS'phonenumber_oid'
p23
L64L
s.(dp0
S'status'
p1
S''
p2
sS'direction'
p3
S'Outgoing'
p4
sS'remote'
p5
g2
sS'description'
p6
S'Voice Call'
p7
sS'callid'
p8
L1604L
sS'oid'
p9
L17864L
sS'number'
p10
g2
sS'person_oid'
p11
L94L
sS'contact'
p12
L41L
sS'starttime'
p13
cdatetime
datetime
p14
(S'\x07\xd5\x02\x11\x12\x08*\x00\x00\x00'
p15
tp16
Rp17
sS'duration'
p18
L81L
sS'endtime'
p19
g14
(S'\x07\xd5\x02\x11\x12\n\x03\x00\x00\x00'
p20
tp21
Rp22
sS'phonenumber_oid'
p23
L64L
s.(dp0
S'status'
p1
S''
p2
sS'direction'
p3
S'Outgoing'
p4
sS'remote'
p5
g2
sS'description'
p6
S'Voice Call'
p7
sS'callid'
p8
L1605L
sS'oid'
p9
L17851L
sS'number'
p10
g2
sS'person_oid'
p11
L94L
sS'contact'
p12
L24L
sS'starttime'
p13
cdatetime
datetime
p14
(S'\x07\xd5\x02\x11\x12\x0b!\x00\x00\x00'
p15
tp16
Rp17
sS'duration'
p18
L49L
sS'endtime'
p19
g14
(S'\x07\xd5\x02\x11\x12\x0c\x16\x00\x00\x00'
p20
tp21
Rp22
sS'phonenumber_oid'
p23
L1L
s.(dp0
S'status'
p1
S''
p2
sS'direction'
p3
S'Outgoing'
p4
sS'remote'
p5
g2
sS'description'
p6
S'Voice Call'
p7
sS'callid'
p8
L1605L
sS'oid'
p9
L17865L
sS'number'
p10
g2
sS'person_oid'
p11
L94L
sS'contact'
p12
L24L
sS'starttime'
p13
cdatetime
datetime
p14
(S'\x07\xd5\x02\x11\x12\x0b!\x00\x00\x00'
p15
tp16
Rp17
sS'duration'
p18
L49L
sS'endtime'
p19
g14
(S'\x07\xd5\x02\x11\x12\x0c\x16\x00\x00\x00'
p20
tp21
Rp22
sS'phonenumber_oid'
p23
L1L
s.(dp0
S'status'
p1
S''
p2
sS'direction'
p3
S'Outgoing'
p4
sS'remote'
p5
g2
sS'description'
p6
S'Voice Call'
p7
sS'callid'
p8
L1606L
sS'oid'
p9
L17852L
sS'number'
p10
g2
sS'person_oid'
p11
L94L
sS'contact'
p12
L27L
sS'starttime'
p13
cdatetime
datetime
p14
(S'\x07\xd5\x02\x11\x12\x13\x19\x00\x00\x00'
p15
tp16
Rp17
sS'duration'
p18
L21L
sS'endtime'
p19
g14
(S'\x07\xd5\x02\x11\x12\x13.\x00\x00\x00'
p20
tp21
Rp22
sS'phonenumber_oid'
p23
L5L
s.(dp0
S'status'
p1
S''
p2
sS'direction'
p3
S'Outgoing'
p4
sS'remote'
p5
g2
sS'description'
p6
S'Voice Call'
p7
sS'callid'
p8
L1606L
sS'oid'
p9
L17866L
sS'number'
p10
g2
sS'person_oid'
p11
L94L
sS'contact'
p12
L27L
sS'starttime'
p13
cdatetime
datetime
p14
(S'\x07\xd5\x02\x11\x12\x13\x19\x00\x00\x00'
p15
tp16
Rp17
sS'duration'
p18
L21L
sS'endtime'
p19
g14
(S'\x07\xd5\x02\x11\x12\x13.\x00\x00\x00'
p20
tp21
Rp22
sS'phonenumber_oid'
p23
L5L
s.(dp0
S'status'
p1
S''
p2
sS'direction'
p3
S'Outgoing'
p4
sS'remote'
p5
g2
sS'description'
p6
S'Voice Call'
p7
sS'callid'
p8
L1607L
sS'oid'
p9
L17853L
sS'number'
p10
g2
sS'person_oid'
p11
L94L
sS'contact'
p12
L27L
sS'starttime'
p13
cdatetime
datetime
p14
(S'\x07\xd5\x02\x11\x13,9\x00\x00\x00'
p15
tp16
Rp17
sS'duration'
p18
L127L
sS'endtime'
p19
g14
(S'\x07\xd5\x02\x11\x13/\x04\x00\x00\x00'
p20
tp21
Rp22
sS'phonenumber_oid'
p23
L5L
s.(dp0
S'status'
p1
S''
p2
sS'direction'
p3
S'Outgoing'
p4
sS'remote'
p5
g2
sS'description'
p6
S'Voice Call'
p7
sS'callid'
p8
L1607L
sS'oid'
p9
L17867L
sS'number'
p10
g2
sS'person_oid'
p11
L94L
sS'contact'
p12
L27L
sS'starttime'
p13
cdatetime
datetime
p14
(S'\x07\xd5\x02\x11\x13,9\x00\x00\x00'
p15
tp16
Rp17
sS'duration'
p18
L127L
sS'endtime'
p19
g14
(S'\x07\xd5\x02\x11\x13/\x04\x00\x00\x00'
p20
tp21
Rp22
sS'phonenumber_oid'
p23
L5L
s.(dp0
S'status'
p1
S''
p2
sS'direction'
p3
S'Incoming'
p4
sS'remote'
p5
g2
sS'description'
p6
S'Voice Call'
p7
sS'callid'
p8
L1609L
sS'oid'
p9
L17854L
sS'number'
p10
g2
sS'person_oid'
p11
L94L
sS'contact'
p12
L27L
sS'starttime'
p13
cdatetime
datetime
p14
(S'\x07\xd5\x02\x11\x133\x14\x00\x00\x00'
p15
tp16
Rp17
sS'duration'
p18
L191L
sS'endtime'
p19
g14
(S'\x07\xd5\x02\x11\x136\x1f\x00\x00\x00'
p20
tp21
Rp22
sS'phonenumber_oid'
p23
L5L
s.(dp0
S'status'
p1
S''
p2
sS'direction'
p3
S'Incoming'
p4
sS'remote'
p5
g2
sS'description'
p6
S'Voice Call'
p7
sS'callid'
p8
L1609L
sS'oid'
p9
L17868L
sS'number'
p10
g2
sS'person_oid'
p11
L94L
sS'contact'
p12
L27L
sS'starttime'
p13
cdatetime
datetime
p14
(S'\x07\xd5\x02\x11\x133\x14\x00\x00\x00'
p15
tp16
Rp17
sS'duration'
p18
L191L
sS'endtime'
p19
g14
(S'\x07\xd5\x02\x11\x136\x1f\x00\x00\x00'
p20
tp21
Rp22
sS'phonenumber_oid'
p23
L5L
s.(dp0
S'status'
p1
S''
p2
sS'direction'
p3
S'Outgoing'
p4
sS'remote'
p5
g2
sS'description'
p6
S'Voice Call'
p7
sS'callid'
p8
L1610L
sS'oid'
p9
L17855L
sS'number'
p10
g2
sS'person_oid'
p11
L94L
sS'contact'
p12
L24L
sS'starttime'
p13
cdatetime
datetime
p14
(S'\x07\xd5\x02\x11\x137 \x00\x00\x00'
p15
tp16
Rp17
sS'duration'
p18
L142L
sS'endtime'
p19
g14
(S'\x07\xd5\x02\x11\x1396\x00\x00\x00'
p20
tp21
Rp22
sS'phonenumber_oid'
p23
L1L
s.(dp0
S'status'
p1
S''
p2
sS'direction'
p3
S'Outgoing'
p4
sS'remote'
p5
g2
sS'description'
p6
S'Voice Call'
p7
sS'callid'
p8
L1610L
sS'oid'
p9
L17869L
sS'number'
p10
g2
sS'person_oid'
p11
L94L
sS'contact'
p12
L24L
sS'starttime'
p13
cdatetime
datetime
p14
(S'\x07\xd5\x02\x11\x137 \x00\x00\x00'
p15
tp16
Rp17
sS'duration'
p18
L142L
sS'endtime'
p19
g14
(S'\x07\xd5\x02\x11\x1396\x00\x00\x00'
p20
tp21
Rp22
sS'phonenumber_oid'
p23
L1L
s.(dp0
S'status'
p1
S''
p2
sS'direction'
p3
S'Incoming'
p4
sS'remote'
p5
g2
sS'description'
p6
S'Voice Call'
p7
sS'callid'
p8
L1614L
sS'oid'
p9
L17856L
sS'number'
p10
g2
sS'person_oid'
p11
L94L
sS'contact'
p12
L27L
sS'starttime'
p13
cdatetime
datetime
p14
(S'\x07\xd5\x02\x11\x14!3\x00\x00\x00'
p15
tp16
Rp17
sS'duration'
p18
L35L
sS'endtime'
p19
g14
(S'\x07\xd5\x02\x11\x14"\x1a\x00\x00\x00'
p20
tp21
Rp22
sS'phonenumber_oid'
p23
L5L
s.(dp0
S'status'
p1
S''
p2
sS'direction'
p3
S'Incoming'
p4
sS'remote'
p5
g2
sS'description'
p6
S'Voice Call'
p7
sS'callid'
p8
L1614L
sS'oid'
p9
L17870L
sS'number'
p10
g2
sS'person_oid'
p11
L94L
sS'contact'
p12
L27L
sS'starttime'
p13
cdatetime
datetime
p14
(S'\x07\xd5\x02\x11\x14!3\x00\x00\x00'
p15
tp16
Rp17
sS'duration'
p18
L35L
sS'endtime'
p19
g14
(S'\x07\xd5\x02\x11\x14"\x1a\x00\x00\x00'
p20
tp21
Rp22
sS'phonenumber_oid'
p23
L5L
s.(dp0
S'status'
p1
S''
p2
sS'direction'
p3
S'Incoming'
p4
sS'remote'
p5
g2
sS'description'
p6
S'Voice Call'
p7
sS'callid'
p8
L1616L
sS'oid'
p9
L17857L
sS'number'
p10
g2
sS'person_oid'
p11
L94L
sS'contact'
p12
L6L
sS'starttime'
p13
cdatetime
datetime
p14
(S'\x07\xd5\x02\x11\x159\x0b\x00\x00\x00'
p15
tp16
Rp17
sS'duration'
p18
L126L
sS'endtime'
p19
g14
(S'\x07\xd5\x02\x11\x15;\x11\x00\x00\x00'
p20
tp21
Rp22
sS'phonenumber_oid'
p23
L4L
s.(dp0
S'status'
p1
S''
p2
sS'direction'
p3
S'Incoming'
p4
sS'remote'
p5
g2
sS'description'
p6
S'Voice Call'
p7
sS'callid'
p8
L1616L
sS'oid'
p9
L17871L
sS'number'
p10
g2
sS'person_oid'
p11
L94L
sS'contact'
p12
L6L
sS'starttime'
p13
cdatetime
datetime
p14
(S'\x07\xd5\x02\x11\x159\x0b\x00\x00\x00'
p15
tp16
Rp17
sS'duration'
p18
L126L
sS'endtime'
p19
g14
(S'\x07\xd5\x02\x11\x15;\x11\x00\x00\x00'
p20
tp21
Rp22
sS'phonenumber_oid'
p23
L4L
s.(dp0
S'status'
p1
S'Sent'
p2
sS'direction'
p3
S'Outgoing'
p4
sS'remote'
p5
S''
p6
sS'description'
p7
S'Short Message'
p8
sS'callid'
p9
L1617L
sS'oid'
p10
L17858L
sS'number'
p11
g6
sS'person_oid'
p12
L94L
sS'contact'
p13
L-1L
sS'starttime'
p14
cdatetime
datetime
p15
(S'\x07\xd5\x02\x11\x16\x03 \x00\x00\x00'
p16
tp17
Rp18
sS'duration'
p19
L0L
sS'endtime'
p20
g15
(S'\x07\xd5\x02\x11\x16\x03 \x00\x00\x00'
p21
tp22
Rp23
sS'phonenumber_oid'
p24
L4L
s.(dp0
S'status'
p1
S'Sent'
p2
sS'direction'
p3
S'Outgoing'
p4
sS'remote'
p5
S''
p6
sS'description'
p7
S'Short Message'
p8
sS'callid'
p9
L1617L
sS'oid'
p10
L17872L
sS'number'
p11
g6
sS'person_oid'
p12
L94L
sS'contact'
p13
L-1L
sS'starttime'
p14
cdatetime
datetime
p15
(S'\x07\xd5\x02\x11\x16\x03 \x00\x00\x00'
p16
tp17
Rp18
sS'duration'
p19
L0L
sS'endtime'
p20
g15
(S'\x07\xd5\x02\x11\x16\x03 \x00\x00\x00'
p21
tp22
Rp23
sS'phonenumber_oid'
p24
L4L
s.(dp0
S'status'
p1
S'Delivered'
p2
sS'direction'
p3
S'Incoming'
p4
sS'remote'
p5
S''
p6
sS'description'
p7
S'Short Message'
p8
sS'callid'
p9
L1618L
sS'oid'
p10
L17859L
sS'number'
p11
g6
sS'person_oid'
p12
L94L
sS'contact'
p13
L-1L
sS'starttime'
p14
cdatetime
datetime
p15
(S'\x07\xd5\x02\x11\x16#\x1d\x00\x00\x00'
p16
tp17
Rp18
sS'duration'
p19
L0L
sS'endtime'
p20
g15
(S'\x07\xd5\x02\x11\x16#\x1d\x00\x00\x00'
p21
tp22
Rp23
sS'phonenumber_oid'
p24
L4L
s.(dp0
S'status'
p1
S'Delivered'
p2
sS'direction'
p3
S'Incoming'
p4
sS'remote'
p5
S''
p6
sS'description'
p7
S'Short Message'
p8
sS'callid'
p9
L1618L
sS'oid'
p10
L17873L
sS'number'
p11
g6
sS'person_oid'
p12
L94L
sS'contact'
p13
L-1L
sS'starttime'
p14
cdatetime
datetime
p15
(S'\x07\xd5\x02\x11\x16#\x1d\x00\x00\x00'
p16
tp17
Rp18
sS'duration'
p19
L0L
sS'endtime'
p20
g15
(S'\x07\xd5\x02\x11\x16#\x1d\x00\x00\x00'
p21
tp22
Rp23
sS'phonenumber_oid'
p24
L4L
s.(dp0
S'status'
p1
S''
p2
sS'direction'
p3
S'Incoming'
p4
sS'remote'
p5
g2
sS'description'
p6
S'Voice Call'
p7
sS'callid'
p8
L1620L
sS'oid'
p9
L17860L
sS'number'
p10
g2
sS'person_oid'
p11
L94L
sS'contact'
p12
L34L
sS'starttime'
p13
cdatetime
datetime
p14
(S'\x07\xd5\x02\x11\x17-\x05\x00\x00\x00'
p15
tp16
Rp17
sS'duration'
p18
L0L
sS'endtime'
p19
g14
(S'\x07\xd5\x02\x11\x17-\x05\x00\x00\x00'
p20
tp21
Rp22
sS'phonenumber_oid'
p23
L34L
s.(dp0
S'status'
p1
S''
p2
sS'direction'
p3
S'Incoming'
p4
sS'remote'
p5
g2
sS'description'
p6
S'Voice Call'
p7
sS'callid'
p8
L1620L
sS'oid'
p9
L17874L
sS'number'
p10
g2
sS'person_oid'
p11
L94L
sS'contact'
p12
L34L
sS'starttime'
p13
cdatetime
datetime
p14
(S'\x07\xd5\x02\x11\x17-\x05\x00\x00\x00'
p15
tp16
Rp17
sS'duration'
p18
L0L
sS'endtime'
p19
g14
(S'\x07\xd5\x02\x11\x17-\x05\x00\x00\x00'
p20
tp21
Rp22
sS'phonenumber_oid'
p23
L34L
s.(dp0
S'status'
p1
S''
p2
sS'direction'
p3
S'Outgoing'
p4
sS'remote'
p5
g2
sS'description'
p6
S'Voice Call'
p7
sS'callid'
p8
L1621L
sS'oid'
p9
L17861L
sS'number'
p10
g2
sS'person_oid'
p11
L94L
sS'contact'
p12
L34L
sS'starttime'
p13
cdatetime
datetime
p14
(S'\x07\xd5\x02\x12\x02\x07$\x00\x00\x00'
p15
tp16
Rp17
sS'duration'
p18
L366L
sS'endtime'
p19
g14
(S'\x07\xd5\x02\x12\x02\r*\x00\x00\x00'
p20
tp21
Rp22
sS'phonenumber_oid'
p23
L34L
s.(dp0
S'status'
p1
S''
p2
sS'direction'
p3
S'Outgoing'
p4
sS'remote'
p5
g2
sS'description'
p6
S'Voice Call'
p7
sS'callid'
p8
L1621L
sS'oid'
p9
L17875L
sS'number'
p10
g2
sS'person_oid'
p11
L94L
sS'contact'
p12
L34L
sS'starttime'
p13
cdatetime
datetime
p14
(S'\x07\xd5\x02\x12\x02\x07$\x00\x00\x00'
p15
tp16
Rp17
sS'duration'
p18
L366L
sS'endtime'
p19
g14
(S'\x07\xd5\x02\x12\x02\r*\x00\x00\x00'
p20
tp21
Rp22
sS'phonenumber_oid'
p23
L34L
s.(dp0
S'status'
p1
S''
p2
sS'direction'
p3
S'Outgoing'
p4
sS'remote'
p5
g2
sS'description'
p6
S'Voice Call'
p7
sS'callid'
p8
L1622L
sS'oid'
p9
L17862L
sS'number'
p10
g2
sS'person_oid'
p11
L94L
sS'contact'
p12
L6L
sS'starttime'
p13
cdatetime
datetime
p14
(S'\x07\xd5\x02\x12\x02\x1e4\x00\x00\x00'
p15
tp16
Rp17
sS'duration'
p18
L9L
sS'endtime'
p19
g14
(S'\x07\xd5\x02\x12\x02\x1f\x01\x00\x00\x00'
p20
tp21
Rp22
sS'phonenumber_oid'
p23
L4L
s.(dp0
S'status'
p1
S''
p2
sS'direction'
p3
S'Outgoing'
p4
sS'remote'
p5
g2
sS'description'
p6
S'Voice Call'
p7
sS'callid'
p8
L1622L
sS'oid'
p9
L17876L
sS'number'
p10
g2
sS'person_oid'
p11
L94L
sS'contact'
p12
L6L
sS'starttime'
p13
cdatetime
datetime
p14
(S'\x07\xd5\x02\x12\x02\x1e4\x00\x00\x00'
p15
tp16
Rp17
sS'duration'
p18
L9L
sS'endtime'
p19
g14
(S'\x07\xd5\x02\x12\x02\x1f\x01\x00\x00\x00'
p20
tp21
Rp22
sS'phonenumber_oid'
p23
L4L
s.(dp0
S'status'
p1
S''
p2
sS'direction'
p3
S'Missed Call'
p4
sS'remote'
p5
g2
sS'description'
p6
S'Voice Call'
p7
sS'callid'
p8
L1623L
sS'oid'
p9
L17877L
sS'number'
p10
g2
sS'person_oid'
p11
L94L
sS'contact'
p12
L24L
sS'starttime'
p13
cdatetime
datetime
p14
(S'\x07\xd5\x02\x12\x12\x1d*\x00\x00\x00'
p15
tp16
Rp17
sS'duration'
p18
L0L
sS'endtime'
p19
g14
(S'\x07\xd5\x02\x12\x12\x1d*\x00\x00\x00'
p20
tp21
Rp22
sS'phonenumber_oid'
p23
L1L
s.(dp0
S'status'
p1
S''
p2
sS'direction'
p3
S'Missed Call'
p4
sS'remote'
p5
g2
sS'description'
p6
S'Voice Call'
p7
sS'callid'
p8
L1623L
sS'oid'
p9
L17879L
sS'number'
p10
g2
sS'person_oid'
p11
L94L
sS'contact'
p12
L24L
sS'starttime'
p13
cdatetime
datetime
p14
(S'\x07\xd5\x02\x12\x12\x1d*\x00\x00\x00'
p15
tp16
Rp17
sS'duration'
p18
L0L
sS'endtime'
p19
g14
(S'\x07\xd5\x02\x12\x12\x1d*\x00\x00\x00'
p20
tp21
Rp22
sS'phonenumber_oid'
p23
L1L
s.(dp0
S'status'
p1
S''
p2
sS'direction'
p3
S'Outgoing'
p4
sS'remote'
p5
g2
sS'description'
p6
S'Voice Call'
p7
sS'callid'
p8
L1624L
sS'oid'
p9
L17878L
sS'number'
p10
g2
sS'person_oid'
p11
L94L
sS'contact'
p12
L24L
sS'starttime'
p13
cdatetime
datetime
p14
(S'\x07\xd5\x02\x12\x122$\x00\x00\x00'
p15
tp16
Rp17
sS'duration'
p18
L0L
sS'endtime'
p19
g14
(S'\x07\xd5\x02\x12\x122$\x00\x00\x00'
p20
tp21
Rp22
sS'phonenumber_oid'
p23
L1L
s.(dp0
S'status'
p1
S''
p2
sS'direction'
p3
S'Outgoing'
p4
sS'remote'
p5
g2
sS'description'
p6
S'Voice Call'
p7
sS'callid'
p8
L1624L
sS'oid'
p9
L17880L
sS'number'
p10
g2
sS'person_oid'
p11
L94L
sS'contact'
p12
L24L
sS'starttime'
p13
cdatetime
datetime
p14
(S'\x07\xd5\x02\x12\x122$\x00\x00\x00'
p15
tp16
Rp17
sS'duration'
p18
L0L
sS'endtime'
p19
g14
(S'\x07\xd5\x02\x12\x122$\x00\x00\x00'
p20
tp21
Rp22
sS'phonenumber_oid'
p23
L1L
s.(dp0
S'status'
p1
S'Delivered'
p2
sS'direction'
p3
S'Incoming'
p4
sS'remote'
p5
S''
p6
sS'description'
p7
S'Short Message'
p8
sS'callid'
p9
L1628L
sS'oid'
p10
L17881L
sS'number'
p11
g6
sS'person_oid'
p12
L94L
sS'contact'
p13
L-1L
sS'starttime'
p14
cdatetime
datetime
p15
(S'\x07\xd5\x02\x14\x07\x03\x1e\x00\x00\x00'
p16
tp17
Rp18
sS'duration'
p19
L0L
sS'endtime'
p20
g15
(S'\x07\xd5\x02\x14\x07\x03\x1e\x00\x00\x00'
p21
tp22
Rp23
sS'phonenumber_oid'
p24
L4L
s.(dp0
S'status'
p1
S'Delivered'
p2
sS'direction'
p3
S'Incoming'
p4
sS'remote'
p5
S''
p6
sS'description'
p7
S'Short Message'
p8
sS'callid'
p9
L1628L
sS'oid'
p10
L17886L
sS'number'
p11
g6
sS'person_oid'
p12
L94L
sS'contact'
p13
L-1L
sS'starttime'
p14
cdatetime
datetime
p15
(S'\x07\xd5\x02\x14\x07\x03\x1e\x00\x00\x00'
p16
tp17
Rp18
sS'duration'
p19
L0L
sS'endtime'
p20
g15
(S'\x07\xd5\x02\x14\x07\x03\x1e\x00\x00\x00'
p21
tp22
Rp23
sS'phonenumber_oid'
p24
L4L
s.(dp0
S'status'
p1
S'Sent'
p2
sS'direction'
p3
S'Outgoing'
p4
sS'remote'
p5
S''
p6
sS'description'
p7
S'Short Message'
p8
sS'callid'
p9
L1629L
sS'oid'
p10
L17882L
sS'number'
p11
g6
sS'person_oid'
p12
L94L
sS'contact'
p13
L-1L
sS'starttime'
p14
cdatetime
datetime
p15
(S'\x07\xd5\x02\x14\x0e\x1f \x00\x00\x00'
p16
tp17
Rp18
sS'duration'
p19
L0L
sS'endtime'
p20
g15
(S'\x07\xd5\x02\x14\x0e\x1f \x00\x00\x00'
p21
tp22
Rp23
sS'phonenumber_oid'
p24
L4L
s.(dp0
S'status'
p1
S'Sent'
p2
sS'direction'
p3
S'Outgoing'
p4
sS'remote'
p5
S''
p6
sS'description'
p7
S'Short Message'
p8
sS'callid'
p9
L1629L
sS'oid'
p10
L17887L
sS'number'
p11
g6
sS'person_oid'
p12
L94L
sS'contact'
p13
L-1L
sS'starttime'
p14
cdatetime
datetime
p15
(S'\x07\xd5\x02\x14\x0e\x1f \x00\x00\x00'
p16
tp17
Rp18
sS'duration'
p19
L0L
sS'endtime'
p20
g15
(S'\x07\xd5\x02\x14\x0e\x1f \x00\x00\x00'
p21
tp22
Rp23
sS'phonenumber_oid'
p24
L4L
s.(dp0
S'status'
p1
S''
p2
sS'direction'
p3
S'Incoming'
p4
sS'remote'
p5
g2
sS'description'
p6
S'Voice Call'
p7
sS'callid'
p8
L1631L
sS'oid'
p9
L17883L
sS'number'
p10
g2
sS'person_oid'
p11
L94L
sS'contact'
p12
L6L
sS'starttime'
p13
cdatetime
datetime
p14
(S'\x07\xd5\x02\x14\x0e98\x00\x00\x00'
p15
tp16
Rp17
sS'duration'
p18
L224L
sS'endtime'
p19
g14
(S'\x07\xd5\x02\x14\x0f\x01(\x00\x00\x00'
p20
tp21
Rp22
sS'phonenumber_oid'
p23
L4L
s.(dp0
S'status'
p1
S''
p2
sS'direction'
p3
S'Incoming'
p4
sS'remote'
p5
g2
sS'description'
p6
S'Voice Call'
p7
sS'callid'
p8
L1631L
sS'oid'
p9
L17888L
sS'number'
p10
g2
sS'person_oid'
p11
L94L
sS'contact'
p12
L6L
sS'starttime'
p13
cdatetime
datetime
p14
(S'\x07\xd5\x02\x14\x0e98\x00\x00\x00'
p15
tp16
Rp17
sS'duration'
p18
L224L
sS'endtime'
p19
g14
(S'\x07\xd5\x02\x14\x0f\x01(\x00\x00\x00'
p20
tp21
Rp22
sS'phonenumber_oid'
p23
L4L
s.(dp0
S'status'
p1
S''
p2
sS'direction'
p3
S'Incoming'
p4
sS'remote'
p5
g2
sS'description'
p6
S'Voice Call'
p7
sS'callid'
p8
L1633L
sS'oid'
p9
L17884L
sS'number'
p10
g2
sS'person_oid'
p11
L94L
sS'contact'
p12
L43L
sS'starttime'
p13
cdatetime
datetime
p14
(S'\x07\xd5\x02\x14\x11\x04\x1b\x00\x00\x00'
p15
tp16
Rp17
sS'duration'
p18
L14L
sS'endtime'
p19
g14
(S'\x07\xd5\x02\x14\x11\x04)\x00\x00\x00'
p20
tp21
Rp22
sS'phonenumber_oid'
p23
L65L
s.(dp0
S'status'
p1
S''
p2
sS'direction'
p3
S'Incoming'
p4
sS'remote'
p5
g2
sS'description'
p6
S'Voice Call'
p7
sS'callid'
p8
L1633L
sS'oid'
p9
L17889L
sS'number'
p10
g2
sS'person_oid'
p11
L94L
sS'contact'
p12
L43L
sS'starttime'
p13
cdatetime
datetime
p14
(S'\x07\xd5\x02\x14\x11\x04\x1b\x00\x00\x00'
p15
tp16
Rp17
sS'duration'
p18
L14L
sS'endtime'
p19
g14
(S'\x07\xd5\x02\x14\x11\x04)\x00\x00\x00'
p20
tp21
Rp22
sS'phonenumber_oid'
p23
L65L
s.(dp0
S'status'
p1
S''
p2
sS'direction'
p3
S'Outgoing'
p4
sS'remote'
p5
g2
sS'description'
p6
S'Voice Call'
p7
sS'callid'
p8
L1634L
sS'oid'
p9
L17885L
sS'number'
p10
g2
sS'person_oid'
p11
L94L
sS'contact'
p12
L27L
sS'starttime'
p13
cdatetime
datetime
p14
(S'\x07\xd5\x02\x14\x12\x19\x19\x00\x00\x00'
p15
tp16
Rp17
sS'duration'
p18
L13L
sS'endtime'
p19
g14
(S'\x07\xd5\x02\x14\x12\x19&\x00\x00\x00'
p20
tp21
Rp22
sS'phonenumber_oid'
p23
L5L
s.(dp0
S'status'
p1
S''
p2
sS'direction'
p3
S'Outgoing'
p4
sS'remote'
p5
g2
sS'description'
p6
S'Voice Call'
p7
sS'callid'
p8
L1634L
sS'oid'
p9
L17890L
sS'number'
p10
g2
sS'person_oid'
p11
L94L
sS'contact'
p12
L27L
sS'starttime'
p13
cdatetime
datetime
p14
(S'\x07\xd5\x02\x14\x12\x19\x19\x00\x00\x00'
p15
tp16
Rp17
sS'duration'
p18
L13L
sS'endtime'
p19
g14
(S'\x07\xd5\x02\x14\x12\x19&\x00\x00\x00'
p20
tp21
Rp22
sS'phonenumber_oid'
p23
L5L
s.(dp0
S'status'
p1
S''
p2
sS'direction'
p3
S'Outgoing'
p4
sS'remote'
p5
g2
sS'description'
p6
S'Voice Call'
p7
sS'callid'
p8
L1635L
sS'oid'
p9
L17891L
sS'number'
p10
g2
sS'person_oid'
p11
L94L
sS'contact'
p12
L45L
sS'starttime'
p13
cdatetime
datetime
p14
(S'\x07\xd5\x02\x15\r15\x00\x00\x00'
p15
tp16
Rp17
sS'duration'
p18
L149L
sS'endtime'
p19
g14
(S'\x07\xd5\x02\x15\r4\x16\x00\x00\x00'
p20
tp21
Rp22
sS'phonenumber_oid'
p23
L66L
s.(dp0
S'status'
p1
S''
p2
sS'direction'
p3
S'Outgoing'
p4
sS'remote'
p5
g2
sS'description'
p6
S'Voice Call'
p7
sS'callid'
p8
L1636L
sS'oid'
p9
L17892L
sS'number'
p10
g2
sS'person_oid'
p11
L94L
sS'contact'
p12
L45L
sS'starttime'
p13
cdatetime
datetime
p14
(S'\x07\xd5\x02\x15\x0e\x05\x10\x00\x00\x00'
p15
tp16
Rp17
sS'duration'
p18
L25L
sS'endtime'
p19
g14
(S'\x07\xd5\x02\x15\x0e\x05)\x00\x00\x00'
p20
tp21
Rp22
sS'phonenumber_oid'
p23
L66L
s.(dp0
S'status'
p1
S''
p2
sS'direction'
p3
S'Outgoing'
p4
sS'remote'
p5
g2
sS'description'
p6
S'Voice Call'
p7
sS'callid'
p8
L1637L
sS'oid'
p9
L17893L
sS'number'
p10
g2
sS'person_oid'
p11
L94L
sS'contact'
p12
L45L
sS'starttime'
p13
cdatetime
datetime
p14
(S'\x07\xd5\x02\x15\x0e\x13\x0b\x00\x00\x00'
p15
tp16
Rp17
sS'duration'
p18
L53L
sS'endtime'
p19
g14
(S'\x07\xd5\x02\x15\x0e\x14\x04\x00\x00\x00'
p20
tp21
Rp22
sS'phonenumber_oid'
p23
L66L
s.(dp0
S'status'
p1
S''
p2
sS'direction'
p3
S'Missed Call'
p4
sS'remote'
p5
g2
sS'description'
p6
S'Voice Call'
p7
sS'callid'
p8
L1638L
sS'oid'
p9
L17894L
sS'number'
p10
g2
sS'person_oid'
p11
L94L
sS'contact'
p12
L45L
sS'starttime'
p13
cdatetime
datetime
p14
(S'\x07\xd5\x02\x15\x0e\x1d8\x00\x00\x00'
p15
tp16
Rp17
sS'duration'
p18
L0L
sS'endtime'
p19
g14
(S'\x07\xd5\x02\x15\x0e\x1d8\x00\x00\x00'
p20
tp21
Rp22
sS'phonenumber_oid'
p23
L66L
s.(dp0
S'status'
p1
S'Delivered'
p2
sS'direction'
p3
S'Incoming'
p4
sS'remote'
p5
S''
p6
sS'description'
p7
S'Short Message'
p8
sS'callid'
p9
L1639L
sS'oid'
p10
L17895L
sS'number'
p11
g6
sS'person_oid'
p12
L94L
sS'contact'
p13
L-1L
sS'starttime'
p14
cdatetime
datetime
p15
(S'\x07\xd5\x02\x15\x0e\x1f\x03\x00\x00\x00'
p16
tp17
Rp18
sS'duration'
p19
L0L
sS'endtime'
p20
g15
(S'\x07\xd5\x02\x15\x0e\x1f\x03\x00\x00\x00'
p21
tp22
Rp23
sS'phonenumber_oid'
p24
L7L
s.(dp0
S'status'
p1
S''
p2
sS'direction'
p3
S'Outgoing'
p4
sS'remote'
p5
g2
sS'description'
p6
S'Voice Call'
p7
sS'callid'
p8
L1641L
sS'oid'
p9
L17896L
sS'number'
p10
g2
sS'person_oid'
p11
L94L
sS'contact'
p12
L45L
sS'starttime'
p13
cdatetime
datetime
p14
(S'\x07\xd5\x02\x15\x0f\r\x11\x00\x00\x00'
p15
tp16
Rp17
sS'duration'
p18
L39L
sS'endtime'
p19
g14
(S'\x07\xd5\x02\x15\x0f\r8\x00\x00\x00'
p20
tp21
Rp22
sS'phonenumber_oid'
p23
L66L
s.(dp0
S'status'
p1
S''
p2
sS'direction'
p3
S'Missed Call'
p4
sS'remote'
p5
g2
sS'description'
p6
S'Voice Call'
p7
sS'callid'
p8
L1642L
sS'oid'
p9
L17897L
sS'number'
p10
g2
sS'person_oid'
p11
L94L
sS'contact'
p12
L27L
sS'starttime'
p13
cdatetime
datetime
p14
(S'\x07\xd5\x02\x15\x0f#\x19\x00\x00\x00'
p15
tp16
Rp17
sS'duration'
p18
L0L
sS'endtime'
p19
g14
(S'\x07\xd5\x02\x15\x0f#\x19\x00\x00\x00'
p20
tp21
Rp22
sS'phonenumber_oid'
p23
L5L
s.(dp0
S'status'
p1
S''
p2
sS'direction'
p3
S'Missed Call'
p4
sS'remote'
p5
g2
sS'description'
p6
S'Voice Call'
p7
sS'callid'
p8
L1643L
sS'oid'
p9
L17898L
sS'number'
p10
g2
sS'person_oid'
p11
L94L
sS'contact'
p12
L27L
sS'starttime'
p13
cdatetime
datetime
p14
(S'\x07\xd5\x02\x15\x0f%"\x00\x00\x00'
p15
tp16
Rp17
sS'duration'
p18
L0L
sS'endtime'
p19
g14
(S'\x07\xd5\x02\x15\x0f%"\x00\x00\x00'
p20
tp21
Rp22
sS'phonenumber_oid'
p23
L5L
s.(dp0
S'status'
p1
S''
p2
sS'direction'
p3
S'Outgoing'
p4
sS'remote'
p5
g2
sS'description'
p6
S'Voice Call'
p7
sS'callid'
p8
L1645L
sS'oid'
p9
L17899L
sS'number'
p10
g2
sS'person_oid'
p11
L94L
sS'contact'
p12
L27L
sS'starttime'
p13
cdatetime
datetime
p14
(S'\x07\xd5\x02\x15\x0f3&\x00\x00\x00'
p15
tp16
Rp17
sS'duration'
p18
L14L
sS'endtime'
p19
g14
(S'\x07\xd5\x02\x15\x0f34\x00\x00\x00'
p20
tp21
Rp22
sS'phonenumber_oid'
p23
L5L
s.(dp0
S'status'
p1
S''
p2
sS'direction'
p3
S'Outgoing'
p4
sS'remote'
p5
g2
sS'description'
p6
S'Voice Call'
p7
sS'callid'
p8
L1647L
sS'oid'
p9
L17900L
sS'number'
p10
g2
sS'person_oid'
p11
L94L
sS'contact'
p12
L27L
sS'starttime'
p13
cdatetime
datetime
p14
(S'\x07\xd5\x02\x15\x10\x00"\x00\x00\x00'
p15
tp16
Rp17
sS'duration'
p18
L88L
sS'endtime'
p19
g14
(S'\x07\xd5\x02\x15\x10\x02\x02\x00\x00\x00'
p20
tp21
Rp22
sS'phonenumber_oid'
p23
L5L
s.(dp0
S'status'
p1
S''
p2
sS'direction'
p3
S'Incoming'
p4
sS'remote'
p5
g2
sS'description'
p6
S'Voice Call'
p7
sS'callid'
p8
L1649L
sS'oid'
p9
L17901L
sS'number'
p10
g2
sS'person_oid'
p11
L94L
sS'contact'
p12
L27L
sS'starttime'
p13
cdatetime
datetime
p14
(S'\x07\xd5\x02\x15\x10\x035\x00\x00\x00'
p15
tp16
Rp17
sS'duration'
p18
L41L
sS'endtime'
p19
g14
(S'\x07\xd5\x02\x15\x10\x04"\x00\x00\x00'
p20
tp21
Rp22
sS'phonenumber_oid'
p23
L5L
s.(dp0
S'status'
p1
S''
p2
sS'direction'
p3
S'Incoming'
p4
sS'remote'
p5
g2
sS'description'
p6
S'Voice Call'
p7
sS'callid'
p8
L1651L
sS'oid'
p9
L17902L
sS'number'
p10
g2
sS'person_oid'
p11
L94L
sS'contact'
p12
L27L
sS'starttime'
p13
cdatetime
datetime
p14
(S'\x07\xd5\x02\x15\x10\x10\x12\x00\x00\x00'
p15
tp16
Rp17
sS'duration'
p18
L20L
sS'endtime'
p19
g14
(S'\x07\xd5\x02\x15\x10\x10&\x00\x00\x00'
p20
tp21
Rp22
sS'phonenumber_oid'
p23
L5L
s.(dp0
S'status'
p1
S''
p2
sS'direction'
p3
S'Outgoing'
p4
sS'remote'
p5
g2
sS'description'
p6
S'Voice Call'
p7
sS'callid'
p8
L1652L
sS'oid'
p9
L17903L
sS'number'
p10
g2
sS'person_oid'
p11
L94L
sS'contact'
p12
L27L
sS'starttime'
p13
cdatetime
datetime
p14
(S'\x07\xd5\x02\x15\x11$\x00\x00\x00\x00'
p15
tp16
Rp17
sS'duration'
p18
L58L
sS'endtime'
p19
g14
(S'\x07\xd5\x02\x15\x11$:\x00\x00\x00'
p20
tp21
Rp22
sS'phonenumber_oid'
p23
L5L
s.(dp0
S'status'
p1
S''
p2
sS'direction'
p3
S'Outgoing'
p4
sS'remote'
p5
g2
sS'description'
p6
S'Voice Call'
p7
sS'callid'
p8
L1653L
sS'oid'
p9
L17904L
sS'number'
p10
g2
sS'person_oid'
p11
L94L
sS'contact'
p12
L6L
sS'starttime'
p13
cdatetime
datetime
p14
(S'\x07\xd5\x02\x15\x11&-\x00\x00\x00'
p15
tp16
Rp17
sS'duration'
p18
L4L
sS'endtime'
p19
g14
(S'\x07\xd5\x02\x15\x11&1\x00\x00\x00'
p20
tp21
Rp22
sS'phonenumber_oid'
p23
L4L
s.(dp0
S'status'
p1
S''
p2
sS'direction'
p3
S'Outgoing'
p4
sS'remote'
p5
g2
sS'description'
p6
S'Voice Call'
p7
sS'callid'
p8
L1654L
sS'oid'
p9
L17905L
sS'number'
p10
g2
sS'person_oid'
p11
L94L
sS'contact'
p12
L6L
sS'starttime'
p13
cdatetime
datetime
p14
(S'\x07\xd5\x02\x15\x11)\x17\x00\x00\x00'
p15
tp16
Rp17
sS'duration'
p18
L8L
sS'endtime'
p19
g14
(S'\x07\xd5\x02\x15\x11)\x1f\x00\x00\x00'
p20
tp21
Rp22
sS'phonenumber_oid'
p23
L4L
s.(dp0
S'status'
p1
S''
p2
sS'direction'
p3
S'Incoming'
p4
sS'remote'
p5
g2
sS'description'
p6
S'Voice Call'
p7
sS'callid'
p8
L1656L
sS'oid'
p9
L17906L
sS'number'
p10
g2
sS'person_oid'
p11
L94L
sS'contact'
p12
L6L
sS'starttime'
p13
cdatetime
datetime
p14
(S'\x07\xd5\x02\x15\x113!\x00\x00\x00'
p15
tp16
Rp17
sS'duration'
p18
L78L
sS'endtime'
p19
g14
(S'\x07\xd5\x02\x15\x1143\x00\x00\x00'
p20
tp21
Rp22
sS'phonenumber_oid'
p23
L4L
s.(dp0
S'status'
p1
S''
p2
sS'direction'
p3
S'Outgoing'
p4
sS'remote'
p5
g2
sS'description'
p6
S'Voice Call'
p7
sS'callid'
p8
L1657L
sS'oid'
p9
L17907L
sS'number'
p10
g2
sS'person_oid'
p11
L94L
sS'contact'
p12
L27L
sS'starttime'
p13
cdatetime
datetime
p14
(S'\x07\xd5\x02\x15\x117\x16\x00\x00\x00'
p15
tp16
Rp17
sS'duration'
p18
L62L
sS'endtime'
p19
g14
(S'\x07\xd5\x02\x15\x118\x18\x00\x00\x00'
p20
tp21
Rp22
sS'phonenumber_oid'
p23
L5L
s.(dp0
S'status'
p1
S''
p2
sS'direction'
p3
S'Outgoing'
p4
sS'remote'
p5
g2
sS'description'
p6
S'Voice Call'
p7
sS'callid'
p8
L1658L
sS'oid'
p9
L17908L
sS'number'
p10
g2
sS'person_oid'
p11
L94L
sS'contact'
p12
L6L
sS'starttime'
p13
cdatetime
datetime
p14
(S'\x07\xd5\x02\x15\x12\x02$\x00\x00\x00'
p15
tp16
Rp17
sS'duration'
p18
L7L
sS'endtime'
p19
g14
(S'\x07\xd5\x02\x15\x12\x02+\x00\x00\x00'
p20
tp21
Rp22
sS'phonenumber_oid'
p23
L4L
s.(dp0
S'status'
p1
S''
p2
sS'direction'
p3
S'Outgoing'
p4
sS'remote'
p5
g2
sS'description'
p6
S'Voice Call'
p7
sS'callid'
p8
L1659L
sS'oid'
p9
L17909L
sS'number'
p10
g2
sS'person_oid'
p11
L94L
sS'contact'
p12
L6L
sS'starttime'
p13
cdatetime
datetime
p14
(S'\x07\xd5\x02\x15\x12\x047\x00\x00\x00'
p15
tp16
Rp17
sS'duration'
p18
L14L
sS'endtime'
p19
g14
(S'\x07\xd5\x02\x15\x12\x05\t\x00\x00\x00'
p20
tp21
Rp22
sS'phonenumber_oid'
p23
L4L
s.(dp0
S'status'
p1
S''
p2
sS'direction'
p3
S'Incoming'
p4
sS'remote'
p5
g2
sS'description'
p6
S'Voice Call'
p7
sS'callid'
p8
L1661L
sS'oid'
p9
L17910L
sS'number'
p10
g2
sS'person_oid'
p11
L94L
sS'contact'
p12
L6L
sS'starttime'
p13
cdatetime
datetime
p14
(S'\x07\xd5\x02\x15\x12\x064\x00\x00\x00'
p15
tp16
Rp17
sS'duration'
p18
L31L
sS'endtime'
p19
g14
(S'\x07\xd5\x02\x15\x12\x07\x17\x00\x00\x00'
p20
tp21
Rp22
sS'phonenumber_oid'
p23
L4L
s.(dp0
S'status'
p1
S''
p2
sS'direction'
p3
S'Incoming'
p4
sS'remote'
p5
g2
sS'description'
p6
S'Voice Call'
p7
sS'callid'
p8
L1663L
sS'oid'
p9
L17911L
sS'number'
p10
g2
sS'person_oid'
p11
L94L
sS'contact'
p12
L6L
sS'starttime'
p13
cdatetime
datetime
p14
(S'\x07\xd5\x02\x15\x12\x1f\x14\x00\x00\x00'
p15
tp16
Rp17
sS'duration'
p18
L14L
sS'endtime'
p19
g14
(S'\x07\xd5\x02\x15\x12\x1f"\x00\x00\x00'
p20
tp21
Rp22
sS'phonenumber_oid'
p23
L4L
s.(dp0
S'status'
p1
S''
p2
sS'direction'
p3
S'Outgoing'
p4
sS'remote'
p5
g2
sS'description'
p6
S'Voice Call'
p7
sS'callid'
p8
L1664L
sS'oid'
p9
L17912L
sS'number'
p10
g2
sS'person_oid'
p11
L94L
sS'contact'
p12
L34L
sS'starttime'
p13
cdatetime
datetime
p14
(S'\x07\xd5\x02\x15\x14./\x00\x00\x00'
p15
tp16
Rp17
sS'duration'
p18
L12L
sS'endtime'
p19
g14
(S'\x07\xd5\x02\x15\x14.;\x00\x00\x00'
p20
tp21
Rp22
sS'phonenumber_oid'
p23
L34L
s.(dp0
S'status'
p1
S''
p2
sS'direction'
p3
S'Outgoing'
p4
sS'remote'
p5
g2
sS'description'
p6
S'Voice Call'
p7
sS'callid'
p8
L1665L
sS'oid'
p9
L17913L
sS'number'
p10
g2
sS'person_oid'
p11
L94L
sS'contact'
p12
L34L
sS'starttime'
p13
cdatetime
datetime
p14
(S'\x07\xd5\x02\x15\x14/\x17\x00\x00\x00'
p15
tp16
Rp17
sS'duration'
p18
L19L
sS'endtime'
p19
g14
(S'\x07\xd5\x02\x15\x14/*\x00\x00\x00'
p20
tp21
Rp22
sS'phonenumber_oid'
p23
L34L
s.(dp0
S'status'
p1
S''
p2
sS'direction'
p3
S'Outgoing'
p4
sS'remote'
p5
g2
sS'description'
p6
S'Voice Call'
p7
sS'callid'
p8
L1666L
sS'oid'
p9
L17914L
sS'number'
p10
g2
sS'person_oid'
p11
L94L
sS'contact'
p12
L34L
sS'starttime'
p13
cdatetime
datetime
p14
(S'\x07\xd5\x02\x15\x140\x1d\x00\x00\x00'
p15
tp16
Rp17
sS'duration'
p18
L3L
sS'endtime'
p19
g14
(S'\x07\xd5\x02\x15\x140 \x00\x00\x00'
p20
tp21
Rp22
sS'phonenumber_oid'
p23
L34L
s.(dp0
S'status'
p1
S''
p2
sS'direction'
p3
S'Outgoing'
p4
sS'remote'
p5
g2
sS'description'
p6
S'Voice Call'
p7
sS'callid'
p8
L1669L
sS'oid'
p9
L17915L
sS'number'
p10
g2
sS'person_oid'
p11
L94L
sS'contact'
p12
L42L
sS'starttime'
p13
cdatetime
datetime
p14
(S'\x07\xd5\x02\x16\x10\x1a\x06\x00\x00\x00'
p15
tp16
Rp17
sS'duration'
p18
L0L
sS'endtime'
p19
g14
(S'\x07\xd5\x02\x16\x10\x1a\x06\x00\x00\x00'
p20
tp21
Rp22
sS'phonenumber_oid'
p23
L67L
s.(dp0
S'status'
p1
S''
p2
sS'direction'
p3
S'Outgoing'
p4
sS'remote'
p5
g2
sS'description'
p6
S'Voice Call'
p7
sS'callid'
p8
L1670L
sS'oid'
p9
L17916L
sS'number'
p10
g2
sS'person_oid'
p11
L94L
sS'contact'
p12
L42L
sS'starttime'
p13
cdatetime
datetime
p14
(S'\x07\xd5\x02\x16\x10\x1b!\x00\x00\x00'
p15
tp16
Rp17
sS'duration'
p18
L16L
sS'endtime'
p19
g14
(S'\x07\xd5\x02\x16\x10\x1b1\x00\x00\x00'
p20
tp21
Rp22
sS'phonenumber_oid'
p23
L67L
s.(dp0
S'status'
p1
S''
p2
sS'direction'
p3
S'Incoming'
p4
sS'remote'
p5
g2
sS'description'
p6
S'Voice Call'
p7
sS'callid'
p8
L1673L
sS'oid'
p9
L17917L
sS'number'
p10
g2
sS'person_oid'
p11
L94L
sS'contact'
p12
L27L
sS'starttime'
p13
cdatetime
datetime
p14
(S'\x07\xd5\x02\x16\x14\x1d"\x00\x00\x00'
p15
tp16
Rp17
sS'duration'
p18
L50L
sS'endtime'
p19
g14
(S'\x07\xd5\x02\x16\x14\x1e\x18\x00\x00\x00'
p20
tp21
Rp22
sS'phonenumber_oid'
p23
L5L
s.(dp0
S'status'
p1
S''
p2
sS'direction'
p3
S'Missed Call'
p4
sS'remote'
p5
g2
sS'description'
p6
S'Voice Call'
p7
sS'callid'
p8
L1674L
sS'oid'
p9
L17918L
sS'number'
p10
g2
sS'person_oid'
p11
L94L
sS'contact'
p12
L27L
sS'starttime'
p13
cdatetime
datetime
p14
(S'\x07\xd5\x02\x16\x14"/\x00\x00\x00'
p15
tp16
Rp17
sS'duration'
p18
L0L
sS'endtime'
p19
g14
(S'\x07\xd5\x02\x16\x14"/\x00\x00\x00'
p20
tp21
Rp22
sS'phonenumber_oid'
p23
L5L
s.(dp0
S'status'
p1
S''
p2
sS'direction'
p3
S'Outgoing'
p4
sS'remote'
p5
g2
sS'description'
p6
S'Voice Call'
p7
sS'callid'
p8
L1675L
sS'oid'
p9
L17919L
sS'number'
p10
g2
sS'person_oid'
p11
L94L
sS'contact'
p12
L27L
sS'starttime'
p13
cdatetime
datetime
p14
(S"\x07\xd5\x02\x16\x14'%\x00\x00\x00"
p15
tp16
Rp17
sS'duration'
p18
L39L
sS'endtime'
p19
g14
(S'\x07\xd5\x02\x16\x14(\x10\x00\x00\x00'
p20
tp21
Rp22
sS'phonenumber_oid'
p23
L5L
s.(dp0
S'status'
p1
S''
p2
sS'direction'
p3
S'Outgoing'
p4
sS'remote'
p5
g2
sS'description'
p6
S'Voice Call'
p7
sS'callid'
p8
L1676L
sS'oid'
p9
L17920L
sS'number'
p10
g2
sS'person_oid'
p11
L94L
sS'contact'
p12
L22L
sS'starttime'
p13
cdatetime
datetime
p14
(S'\x07\xd5\x02\x17\x02\x0f\t\x00\x00\x00'
p15
tp16
Rp17
sS'duration'
p18
L534L
sS'endtime'
p19
g14
(S'\x07\xd5\x02\x17\x02\x18\x03\x00\x00\x00'
p20
tp21
Rp22
sS'phonenumber_oid'
p23
L11L
s.(dp0
S'status'
p1
S''
p2
sS'direction'
p3
S'Outgoing'
p4
sS'remote'
p5
g2
sS'description'
p6
S'Voice Call'
p7
sS'callid'
p8
L1677L
sS'oid'
p9
L17921L
sS'number'
p10
g2
sS'person_oid'
p11
L94L
sS'contact'
p12
L24L
sS'starttime'
p13
cdatetime
datetime
p14
(S'\x07\xd5\x02\x17\x02\x18\x1e\x00\x00\x00'
p15
tp16
Rp17
sS'duration'
p18
L938L
sS'endtime'
p19
g14
(S'\x07\xd5\x02\x17\x02(\x08\x00\x00\x00'
p20
tp21
Rp22
sS'phonenumber_oid'
p23
L1L
s.(dp0
S'status'
p1
S''
p2
sS'direction'
p3
S'Incoming'
p4
sS'remote'
p5
g2
sS'description'
p6
S'Voice Call'
p7
sS'callid'
p8
L1679L
sS'oid'
p9
L17922L
sS'number'
p10
g2
sS'person_oid'
p11
L94L
sS'contact'
p12
L24L
sS'starttime'
p13
cdatetime
datetime
p14
(S'\x07\xd5\x02\x17\r* \x00\x00\x00'
p15
tp16
Rp17
sS'duration'
p18
L32L
sS'endtime'
p19
g14
(S'\x07\xd5\x02\x17\r+\x04\x00\x00\x00'
p20
tp21
Rp22
sS'phonenumber_oid'
p23
L1L
s.(dp0
S'status'
p1
S''
p2
sS'direction'
p3
S'Outgoing'
p4
sS'remote'
p5
g2
sS'description'
p6
S'Voice Call'
p7
sS'callid'
p8
L1680L
sS'oid'
p9
L17923L
sS'number'
p10
g2
sS'person_oid'
p11
L94L
sS'contact'
p12
L24L
sS'starttime'
p13
cdatetime
datetime
p14
(S'\x07\xd5\x02\x17\r+/\x00\x00\x00'
p15
tp16
Rp17
sS'duration'
p18
L79L
sS'endtime'
p19
g14
(S'\x07\xd5\x02\x17\r-\x06\x00\x00\x00'
p20
tp21
Rp22
sS'phonenumber_oid'
p23
L1L
s.(dp0
S'status'
p1
S''
p2
sS'direction'
p3
S'Outgoing'
p4
sS'remote'
p5
g2
sS'description'
p6
S'Voice Call'
p7
sS'callid'
p8
L1681L
sS'oid'
p9
L17924L
sS'number'
p10
g2
sS'person_oid'
p11
L94L
sS'contact'
p12
L24L
sS'starttime'
p13
cdatetime
datetime
p14
(S'\x07\xd5\x02\x17\x10\x01 \x00\x00\x00'
p15
tp16
Rp17
sS'duration'
p18
L0L
sS'endtime'
p19
g14
(S'\x07\xd5\x02\x17\x10\x01 \x00\x00\x00'
p20
tp21
Rp22
sS'phonenumber_oid'
p23
L1L
s.(dp0
S'status'
p1
S''
p2
sS'direction'
p3
S'Outgoing'
p4
sS'remote'
p5
g2
sS'description'
p6
S'Voice Call'
p7
sS'callid'
p8
L1682L
sS'oid'
p9
L17925L
sS'number'
p10
g2
sS'person_oid'
p11
L94L
sS'contact'
p12
L24L
sS'starttime'
p13
cdatetime
datetime
p14
(S'\x07\xd5\x02\x17\x10\x02\x14\x00\x00\x00'
p15
tp16
Rp17
sS'duration'
p18
L7L
sS'endtime'
p19
g14
(S'\x07\xd5\x02\x17\x10\x02\x1b\x00\x00\x00'
p20
tp21
Rp22
sS'phonenumber_oid'
p23
L1L
s.(dp0
S'status'
p1
S''
p2
sS'direction'
p3
S'Incoming'
p4
sS'remote'
p5
g2
sS'description'
p6
S'Voice Call'
p7
sS'callid'
p8
L1684L
sS'oid'
p9
L17926L
sS'number'
p10
g2
sS'person_oid'
p11
L94L
sS'contact'
p12
L24L
sS'starttime'
p13
cdatetime
datetime
p14
(S'\x07\xd5\x02\x17\x16 ;\x00\x00\x00'
p15
tp16
Rp17
sS'duration'
p18
L194L
sS'endtime'
p19
g14
(S'\x07\xd5\x02\x17\x16$\r\x00\x00\x00'
p20
tp21
Rp22
sS'phonenumber_oid'
p23
L1L
s.(dp0
S'status'
p1
S''
p2
sS'direction'
p3
S'Outgoing'
p4
sS'remote'
p5
g2
sS'description'
p6
S'Voice Call'
p7
sS'callid'
p8
L1685L
sS'oid'
p9
L17927L
sS'number'
p10
g2
sS'person_oid'
p11
L94L
sS'contact'
p12
L46L
sS'starttime'
p13
cdatetime
datetime
p14
(S'\x07\xd5\x02\x18\x00)\x19\x00\x00\x00'
p15
tp16
Rp17
sS'duration'
p18
L160L
sS'endtime'
p19
g14
(S'\x07\xd5\x02\x18\x00,\x05\x00\x00\x00'
p20
tp21
Rp22
sS'phonenumber_oid'
p23
L68L
s.(dp0
S'status'
p1
S''
p2
sS'direction'
p3
S'Outgoing'
p4
sS'remote'
p5
g2
sS'description'
p6
S'Voice Call'
p7
sS'callid'
p8
L1686L
sS'oid'
p9
L17928L
sS'number'
p10
g2
sS'person_oid'
p11
L94L
sS'contact'
p12
L27L
sS'starttime'
p13
cdatetime
datetime
p14
(S'\x07\xd5\x02\x18\x02\x16\x0c\x00\x00\x00'
p15
tp16
Rp17
sS'duration'
p18
L101L
sS'endtime'
p19
g14
(S'\x07\xd5\x02\x18\x02\x175\x00\x00\x00'
p20
tp21
Rp22
sS'phonenumber_oid'
p23
L5L
s.(dp0
S'status'
p1
S''
p2
sS'direction'
p3
S'Outgoing'
p4
sS'remote'
p5
g2
sS'description'
p6
S'Voice Call'
p7
sS'callid'
p8
L1687L
sS'oid'
p9
L17929L
sS'number'
p10
g2
sS'person_oid'
p11
L94L
sS'contact'
p12
L27L
sS'starttime'
p13
cdatetime
datetime
p14
(S'\x07\xd5\x02\x18\x04\x171\x00\x00\x00'
p15
tp16
Rp17
sS'duration'
p18
L52L
sS'endtime'
p19
g14
(S'\x07\xd5\x02\x18\x04\x18)\x00\x00\x00'
p20
tp21
Rp22
sS'phonenumber_oid'
p23
L5L
s.(dp0
S'status'
p1
S''
p2
sS'direction'
p3
S'Outgoing'
p4
sS'remote'
p5
g2
sS'description'
p6
S'Voice Call'
p7
sS'callid'
p8
L1687L
sS'oid'
p9
L17930L
sS'number'
p10
g2
sS'person_oid'
p11
L94L
sS'contact'
p12
L27L
sS'starttime'
p13
cdatetime
datetime
p14
(S'\x07\xd5\x02\x18\x04\x171\x00\x00\x00'
p15
tp16
Rp17
sS'duration'
p18
L52L
sS'endtime'
p19
g14
(S'\x07\xd5\x02\x18\x04\x18)\x00\x00\x00'
p20
tp21
Rp22
sS'phonenumber_oid'
p23
L5L
s.(dp0
S'status'
p1
S''
p2
sS'direction'
p3
S'Outgoing'
p4
sS'remote'
p5
g2
sS'description'
p6
S'Voice Call'
p7
sS'callid'
p8
L1688L
sS'oid'
p9
L17931L
sS'number'
p10
g2
sS'person_oid'
p11
L94L
sS'contact'
p12
L24L
sS'starttime'
p13
cdatetime
datetime
p14
(S'\x07\xd5\x02\x18\x17\n1\x00\x00\x00'
p15
tp16
Rp17
sS'duration'
p18
L75L
sS'endtime'
p19
g14
(S'\x07\xd5\x02\x18\x17\x0c\x04\x00\x00\x00'
p20
tp21
Rp22
sS'phonenumber_oid'
p23
L1L
s.(dp0
S'status'
p1
S''
p2
sS'direction'
p3
S'Incoming'
p4
sS'remote'
p5
g2
sS'description'
p6
S'Voice Call'
p7
sS'callid'
p8
L1690L
sS'oid'
p9
L17932L
sS'number'
p10
g2
sS'person_oid'
p11
L94L
sS'contact'
p12
L27L
sS'starttime'
p13
cdatetime
datetime
p14
(S'\x07\xd5\x02\x18\x17"5\x00\x00\x00'
p15
tp16
Rp17
sS'duration'
p18
L94L
sS'endtime'
p19
g14
(S'\x07\xd5\x02\x18\x17$\x1b\x00\x00\x00'
p20
tp21
Rp22
sS'phonenumber_oid'
p23
L5L
s.(dp0
S'status'
p1
S''
p2
sS'direction'
p3
S'Outgoing'
p4
sS'remote'
p5
g2
sS'description'
p6
S'Voice Call'
p7
sS'callid'
p8
L1691L
sS'oid'
p9
L17933L
sS'number'
p10
g2
sS'person_oid'
p11
L94L
sS'contact'
p12
L6L
sS'starttime'
p13
cdatetime
datetime
p14
(S"\x07\xd5\x02\x18\x17*'\x00\x00\x00"
p15
tp16
Rp17
sS'duration'
p18
L118L
sS'endtime'
p19
g14
(S'\x07\xd5\x02\x18\x17,%\x00\x00\x00'
p20
tp21
Rp22
sS'phonenumber_oid'
p23
L4L
s.(dp0
S'status'
p1
S''
p2
sS'direction'
p3
S'Outgoing'
p4
sS'remote'
p5
g2
sS'description'
p6
S'Voice Call'
p7
sS'callid'
p8
L1692L
sS'oid'
p9
L17934L
sS'number'
p10
g2
sS'person_oid'
p11
L94L
sS'contact'
p12
L9L
sS'starttime'
p13
cdatetime
datetime
p14
(S'\x07\xd5\x02\x19\x0f2&\x00\x00\x00'
p15
tp16
Rp17
sS'duration'
p18
L26L
sS'endtime'
p19
g14
(S'\x07\xd5\x02\x19\x0f3\x04\x00\x00\x00'
p20
tp21
Rp22
sS'phonenumber_oid'
p23
L22L
s.(dp0
S'status'
p1
S''
p2
sS'direction'
p3
S'Outgoing'
p4
sS'remote'
p5
g2
sS'description'
p6
S'Voice Call'
p7
sS'callid'
p8
L1692L
sS'oid'
p9
L17945L
sS'number'
p10
g2
sS'person_oid'
p11
L94L
sS'contact'
p12
L9L
sS'starttime'
p13
cdatetime
datetime
p14
(S'\x07\xd5\x02\x19\x0f2&\x00\x00\x00'
p15
tp16
Rp17
sS'duration'
p18
L26L
sS'endtime'
p19
g14
(S'\x07\xd5\x02\x19\x0f3\x04\x00\x00\x00'
p20
tp21
Rp22
sS'phonenumber_oid'
p23
L22L
s.(dp0
S'status'
p1
S''
p2
sS'direction'
p3
S'Outgoing'
p4
sS'remote'
p5
g2
sS'description'
p6
S'Voice Call'
p7
sS'callid'
p8
L1693L
sS'oid'
p9
L17935L
sS'number'
p10
g2
sS'person_oid'
p11
L94L
sS'contact'
p12
L13L
sS'starttime'
p13
cdatetime
datetime
p14
(S'\x07\xd5\x02\x19\x0f44\x00\x00\x00'
p15
tp16
Rp17
sS'duration'
p18
L48L
sS'endtime'
p19
g14
(S'\x07\xd5\x02\x19\x0f5(\x00\x00\x00'
p20
tp21
Rp22
sS'phonenumber_oid'
p23
L15L
s.(dp0
S'status'
p1
S''
p2
sS'direction'
p3
S'Outgoing'
p4
sS'remote'
p5
g2
sS'description'
p6
S'Voice Call'
p7
sS'callid'
p8
L1693L
sS'oid'
p9
L17946L
sS'number'
p10
g2
sS'person_oid'
p11
L94L
sS'contact'
p12
L13L
sS'starttime'
p13
cdatetime
datetime
p14
(S'\x07\xd5\x02\x19\x0f44\x00\x00\x00'
p15
tp16
Rp17
sS'duration'
p18
L48L
sS'endtime'
p19
g14
(S'\x07\xd5\x02\x19\x0f5(\x00\x00\x00'
p20
tp21
Rp22
sS'phonenumber_oid'
p23
L15L
s.(dp0
S'status'
p1
S''
p2
sS'direction'
p3
S'Incoming'
p4
sS'remote'
p5
g2
sS'description'
p6
S'Voice Call'
p7
sS'callid'
p8
L1695L
sS'oid'
p9
L17936L
sS'number'
p10
g2
sS'person_oid'
p11
L94L
sS'contact'
p12
L13L
sS'starttime'
p13
cdatetime
datetime
p14
(S'\x07\xd5\x02\x19\x10\x017\x00\x00\x00'
p15
tp16
Rp17
sS'duration'
p18
L59L
sS'endtime'
p19
g14
(S'\x07\xd5\x02\x19\x10\x026\x00\x00\x00'
p20
tp21
Rp22
sS'phonenumber_oid'
p23
L15L
s.(dp0
S'status'
p1
S''
p2
sS'direction'
p3
S'Incoming'
p4
sS'remote'
p5
g2
sS'description'
p6
S'Voice Call'
p7
sS'callid'
p8
L1695L
sS'oid'
p9
L17947L
sS'number'
p10
g2
sS'person_oid'
p11
L94L
sS'contact'
p12
L13L
sS'starttime'
p13
cdatetime
datetime
p14
(S'\x07\xd5\x02\x19\x10\x017\x00\x00\x00'
p15
tp16
Rp17
sS'duration'
p18
L59L
sS'endtime'
p19
g14
(S'\x07\xd5\x02\x19\x10\x026\x00\x00\x00'
p20
tp21
Rp22
sS'phonenumber_oid'
p23
L15L
s.(dp0
S'status'
p1
S''
p2
sS'direction'
p3
S'Outgoing'
p4
sS'remote'
p5
g2
sS'description'
p6
S'Voice Call'
p7
sS'callid'
p8
L1696L
sS'oid'
p9
L17937L
sS'number'
p10
g2
sS'person_oid'
p11
L94L
sS'contact'
p12
L4L
sS'starttime'
p13
cdatetime
datetime
p14
(S'\x07\xd5\x02\x19\x15\x03\x08\x00\x00\x00'
p15
tp16
Rp17
sS'duration'
p18
L61L
sS'endtime'
p19
g14
(S'\x07\xd5\x02\x19\x15\x04\t\x00\x00\x00'
p20
tp21
Rp22
sS'phonenumber_oid'
p23
L2L
s.(dp0
S'status'
p1
S''
p2
sS'direction'
p3
S'Outgoing'
p4
sS'remote'
p5
g2
sS'description'
p6
S'Voice Call'
p7
sS'callid'
p8
L1696L
sS'oid'
p9
L17948L
sS'number'
p10
g2
sS'person_oid'
p11
L94L
sS'contact'
p12
L4L
sS'starttime'
p13
cdatetime
datetime
p14
(S'\x07\xd5\x02\x19\x15\x03\x08\x00\x00\x00'
p15
tp16
Rp17
sS'duration'
p18
L61L
sS'endtime'
p19
g14
(S'\x07\xd5\x02\x19\x15\x04\t\x00\x00\x00'
p20
tp21
Rp22
sS'phonenumber_oid'
p23
L2L
s.(dp0
S'status'
p1
S''
p2
sS'direction'
p3
S'Incoming'
p4
sS'remote'
p5
g2
sS'description'
p6
S'Voice Call'
p7
sS'callid'
p8
L1698L
sS'oid'
p9
L17938L
sS'number'
p10
g2
sS'person_oid'
p11
L94L
sS'contact'
p12
L24L
sS'starttime'
p13
cdatetime
datetime
p14
(S'\x07\xd5\x02\x19\x15\x17!\x00\x00\x00'
p15
tp16
Rp17
sS'duration'
p18
L97L
sS'endtime'
p19
g14
(S'\x07\xd5\x02\x19\x15\x19\n\x00\x00\x00'
p20
tp21
Rp22
sS'phonenumber_oid'
p23
L1L
s.(dp0
S'status'
p1
S''
p2
sS'direction'
p3
S'Incoming'
p4
sS'remote'
p5
g2
sS'description'
p6
S'Voice Call'
p7
sS'callid'
p8
L1698L
sS'oid'
p9
L17949L
sS'number'
p10
g2
sS'person_oid'
p11
L94L
sS'contact'
p12
L24L
sS'starttime'
p13
cdatetime
datetime
p14
(S'\x07\xd5\x02\x19\x15\x17!\x00\x00\x00'
p15
tp16
Rp17
sS'duration'
p18
L97L
sS'endtime'
p19
g14
(S'\x07\xd5\x02\x19\x15\x19\n\x00\x00\x00'
p20
tp21
Rp22
sS'phonenumber_oid'
p23
L1L
s.(dp0
S'status'
p1
S''
p2
sS'direction'
p3
S'Incoming'
p4
sS'remote'
p5
g2
sS'description'
p6
S'Voice Call'
p7
sS'callid'
p8
L1700L
sS'oid'
p9
L17939L
sS'number'
p10
g2
sS'person_oid'
p11
L94L
sS'contact'
p12
L24L
sS'starttime'
p13
cdatetime
datetime
p14
(S'\x07\xd5\x02\x19\x15\x19\x1e\x00\x00\x00'
p15
tp16
Rp17
sS'duration'
p18
L0L
sS'endtime'
p19
g14
(S'\x07\xd5\x02\x19\x15\x19\x1e\x00\x00\x00'
p20
tp21
Rp22
sS'phonenumber_oid'
p23
L1L
s.(dp0
S'status'
p1
S''
p2
sS'direction'
p3
S'Incoming'
p4
sS'remote'
p5
g2
sS'description'
p6
S'Voice Call'
p7
sS'callid'
p8
L1700L
sS'oid'
p9
L17950L
sS'number'
p10
g2
sS'person_oid'
p11
L94L
sS'contact'
p12
L24L
sS'starttime'
p13
cdatetime
datetime
p14
(S'\x07\xd5\x02\x19\x15\x19\x1e\x00\x00\x00'
p15
tp16
Rp17
sS'duration'
p18
L0L
sS'endtime'
p19
g14
(S'\x07\xd5\x02\x19\x15\x19\x1e\x00\x00\x00'
p20
tp21
Rp22
sS'phonenumber_oid'
p23
L1L
s.(dp0
S'status'
p1
S''
p2
sS'direction'
p3
S'Outgoing'
p4
sS'remote'
p5
g2
sS'description'
p6
S'Voice Call'
p7
sS'callid'
p8
L1701L
sS'oid'
p9
L17940L
sS'number'
p10
g2
sS'person_oid'
p11
L94L
sS'contact'
p12
L24L
sS'starttime'
p13
cdatetime
datetime
p14
(S'\x07\xd5\x02\x19\x15\x19,\x00\x00\x00'
p15
tp16
Rp17
sS'duration'
p18
L0L
sS'endtime'
p19
g14
(S'\x07\xd5\x02\x19\x15\x19,\x00\x00\x00'
p20
tp21
Rp22
sS'phonenumber_oid'
p23
L1L
s.(dp0
S'status'
p1
S''
p2
sS'direction'
p3
S'Outgoing'
p4
sS'remote'
p5
g2
sS'description'
p6
S'Voice Call'
p7
sS'callid'
p8
L1701L
sS'oid'
p9
L17951L
sS'number'
p10
g2
sS'person_oid'
p11
L94L
sS'contact'
p12
L24L
sS'starttime'
p13
cdatetime
datetime
p14
(S'\x07\xd5\x02\x19\x15\x19,\x00\x00\x00'
p15
tp16
Rp17
sS'duration'
p18
L0L
sS'endtime'
p19
g14
(S'\x07\xd5\x02\x19\x15\x19,\x00\x00\x00'
p20
tp21
Rp22
sS'phonenumber_oid'
p23
L1L
s.(dp0
S'status'
p1
S''
p2
sS'direction'
p3
S'Outgoing'
p4
sS'remote'
p5
g2
sS'description'
p6
S'Voice Call'
p7
sS'callid'
p8
L1702L
sS'oid'
p9
L17941L
sS'number'
p10
g2
sS'person_oid'
p11
L94L
sS'contact'
p12
L24L
sS'starttime'
p13
cdatetime
datetime
p14
(S'\x07\xd5\x02\x19\x15\x1a!\x00\x00\x00'
p15
tp16
Rp17
sS'duration'
p18
L13L
sS'endtime'
p19
g14
(S'\x07\xd5\x02\x19\x15\x1a.\x00\x00\x00'
p20
tp21
Rp22
sS'phonenumber_oid'
p23
L1L
s.(dp0
S'status'
p1
S''
p2
sS'direction'
p3
S'Outgoing'
p4
sS'remote'
p5
g2
sS'description'
p6
S'Voice Call'
p7
sS'callid'
p8
L1702L
sS'oid'
p9
L17952L
sS'number'
p10
g2
sS'person_oid'
p11
L94L
sS'contact'
p12
L24L
sS'starttime'
p13
cdatetime
datetime
p14
(S'\x07\xd5\x02\x19\x15\x1a!\x00\x00\x00'
p15
tp16
Rp17
sS'duration'
p18
L13L
sS'endtime'
p19
g14
(S'\x07\xd5\x02\x19\x15\x1a.\x00\x00\x00'
p20
tp21
Rp22
sS'phonenumber_oid'
p23
L1L
s.(dp0
S'status'
p1
S'Delivered'
p2
sS'direction'
p3
S'Incoming'
p4
sS'remote'
p5
S''
p6
sS'description'
p7
S'Short Message'
p8
sS'callid'
p9
L1703L
sS'oid'
p10
L17942L
sS'number'
p11
g6
sS'person_oid'
p12
L94L
sS'contact'
p13
L-1L
sS'starttime'
p14
cdatetime
datetime
p15
(S'\x07\xd5\x02\x19\x15\x1f\t\x00\x00\x00'
p16
tp17
Rp18
sS'duration'
p19
L0L
sS'endtime'
p20
g15
(S'\x07\xd5\x02\x19\x15\x1f\t\x00\x00\x00'
p21
tp22
Rp23
sS'phonenumber_oid'
p24
L7L
s.(dp0
S'status'
p1
S'Delivered'
p2
sS'direction'
p3
S'Incoming'
p4
sS'remote'
p5
S''
p6
sS'description'
p7
S'Short Message'
p8
sS'callid'
p9
L1703L
sS'oid'
p10
L17953L
sS'number'
p11
g6
sS'person_oid'
p12
L94L
sS'contact'
p13
L-1L
sS'starttime'
p14
cdatetime
datetime
p15
(S'\x07\xd5\x02\x19\x15\x1f\t\x00\x00\x00'
p16
tp17
Rp18
sS'duration'
p19
L0L
sS'endtime'
p20
g15
(S'\x07\xd5\x02\x19\x15\x1f\t\x00\x00\x00'
p21
tp22
Rp23
sS'phonenumber_oid'
p24
L7L
s.(dp0
S'status'
p1
S''
p2
sS'direction'
p3
S'Incoming'
p4
sS'remote'
p5
g2
sS'description'
p6
S'Voice Call'
p7
sS'callid'
p8
L1705L
sS'oid'
p9
L17943L
sS'number'
p10
g2
sS'person_oid'
p11
L94L
sS'contact'
p12
L24L
sS'starttime'
p13
cdatetime
datetime
p14
(S"\x07\xd5\x02\x19\x15',\x00\x00\x00"
p15
tp16
Rp17
sS'duration'
p18
L83L
sS'endtime'
p19
g14
(S'\x07\xd5\x02\x19\x15)\x07\x00\x00\x00'
p20
tp21
Rp22
sS'phonenumber_oid'
p23
L1L
s.(dp0
S'status'
p1
S''
p2
sS'direction'
p3
S'Incoming'
p4
sS'remote'
p5
g2
sS'description'
p6
S'Voice Call'
p7
sS'callid'
p8
L1705L
sS'oid'
p9
L17954L
sS'number'
p10
g2
sS'person_oid'
p11
L94L
sS'contact'
p12
L24L
sS'starttime'
p13
cdatetime
datetime
p14
(S"\x07\xd5\x02\x19\x15',\x00\x00\x00"
p15
tp16
Rp17
sS'duration'
p18
L83L
sS'endtime'
p19
g14
(S'\x07\xd5\x02\x19\x15)\x07\x00\x00\x00'
p20
tp21
Rp22
sS'phonenumber_oid'
p23
L1L
s.(dp0
S'status'
p1
S''
p2
sS'direction'
p3
S'Outgoing'
p4
sS'remote'
p5
g2
sS'description'
p6
S'Voice Call'
p7
sS'callid'
p8
L1709L
sS'oid'
p9
L17944L
sS'number'
p10
g2
sS'person_oid'
p11
L94L
sS'contact'
p12
L27L
sS'starttime'
p13
cdatetime
datetime
p14
(S'\x07\xd5\x02\x19\x16\x0f\x06\x00\x00\x00'
p15
tp16
Rp17
sS'duration'
p18
L53L
sS'endtime'
p19
g14
(S'\x07\xd5\x02\x19\x16\x0f;\x00\x00\x00'
p20
tp21
Rp22
sS'phonenumber_oid'
p23
L5L
s.(dp0
S'status'
p1
S''
p2
sS'direction'
p3
S'Outgoing'
p4
sS'remote'
p5
g2
sS'description'
p6
S'Voice Call'
p7
sS'callid'
p8
L1709L
sS'oid'
p9
L17955L
sS'number'
p10
g2
sS'person_oid'
p11
L94L
sS'contact'
p12
L27L
sS'starttime'
p13
cdatetime
datetime
p14
(S'\x07\xd5\x02\x19\x16\x0f\x06\x00\x00\x00'
p15
tp16
Rp17
sS'duration'
p18
L53L
sS'endtime'
p19
g14
(S'\x07\xd5\x02\x19\x16\x0f;\x00\x00\x00'
p20
tp21
Rp22
sS'phonenumber_oid'
p23
L5L
s.(dp0
S'status'
p1
S''
p2
sS'direction'
p3
S'Outgoing'
p4
sS'remote'
p5
g2
sS'description'
p6
S'Voice Call'
p7
sS'callid'
p8
L1710L
sS'oid'
p9
L17956L
sS'number'
p10
g2
sS'person_oid'
p11
L94L
sS'contact'
p12
L8L
sS'starttime'
p13
cdatetime
datetime
p14
(S'\x07\xd5\x02\x1a\x0e\x0f"\x00\x00\x00'
p15
tp16
Rp17
sS'duration'
p18
L7L
sS'endtime'
p19
g14
(S'\x07\xd5\x02\x1a\x0e\x0f)\x00\x00\x00'
p20
tp21
Rp22
sS'phonenumber_oid'
p23
L8L
s.(dp0
S'status'
p1
S''
p2
sS'direction'
p3
S'Outgoing'
p4
sS'remote'
p5
g2
sS'description'
p6
S'Voice Call'
p7
sS'callid'
p8
L1710L
sS'oid'
p9
L17959L
sS'number'
p10
g2
sS'person_oid'
p11
L94L
sS'contact'
p12
L8L
sS'starttime'
p13
cdatetime
datetime
p14
(S'\x07\xd5\x02\x1a\x0e\x0f"\x00\x00\x00'
p15
tp16
Rp17
sS'duration'
p18
L7L
sS'endtime'
p19
g14
(S'\x07\xd5\x02\x1a\x0e\x0f)\x00\x00\x00'
p20
tp21
Rp22
sS'phonenumber_oid'
p23
L8L
s.(dp0
S'status'
p1
S''
p2
sS'direction'
p3
S'Outgoing'
p4
sS'remote'
p5
g2
sS'description'
p6
S'Voice Call'
p7
sS'callid'
p8
L1711L
sS'oid'
p9
L17957L
sS'number'
p10
g2
sS'person_oid'
p11
L94L
sS'contact'
p12
L27L
sS'starttime'
p13
cdatetime
datetime
p14
(S'\x07\xd5\x02\x1a\x10;\x12\x00\x00\x00'
p15
tp16
Rp17
sS'duration'
p18
L51L
sS'endtime'
p19
g14
(S'\x07\xd5\x02\x1a\x11\x00\t\x00\x00\x00'
p20
tp21
Rp22
sS'phonenumber_oid'
p23
L5L
s.(dp0
S'status'
p1
S''
p2
sS'direction'
p3
S'Outgoing'
p4
sS'remote'
p5
g2
sS'description'
p6
S'Voice Call'
p7
sS'callid'
p8
L1711L
sS'oid'
p9
L17960L
sS'number'
p10
g2
sS'person_oid'
p11
L94L
sS'contact'
p12
L27L
sS'starttime'
p13
cdatetime
datetime
p14
(S'\x07\xd5\x02\x1a\x10;\x12\x00\x00\x00'
p15
tp16
Rp17
sS'duration'
p18
L51L
sS'endtime'
p19
g14
(S'\x07\xd5\x02\x1a\x11\x00\t\x00\x00\x00'
p20
tp21
Rp22
sS'phonenumber_oid'
p23
L5L
s.(dp0
S'status'
p1
S''
p2
sS'direction'
p3
S'Incoming'
p4
sS'remote'
p5
g2
sS'description'
p6
S'Voice Call'
p7
sS'callid'
p8
L1713L
sS'oid'
p9
L17958L
sS'number'
p10
g2
sS'person_oid'
p11
L94L
sS'contact'
p12
L27L
sS'starttime'
p13
cdatetime
datetime
p14
(S'\x07\xd5\x02\x1a\x11"\x10\x00\x00\x00'
p15
tp16
Rp17
sS'duration'
p18
L0L
sS'endtime'
p19
g14
(S'\x07\xd5\x02\x1a\x11"\x10\x00\x00\x00'
p20
tp21
Rp22
sS'phonenumber_oid'
p23
L5L
s.(dp0
S'status'
p1
S''
p2
sS'direction'
p3
S'Incoming'
p4
sS'remote'
p5
g2
sS'description'
p6
S'Voice Call'
p7
sS'callid'
p8
L1713L
sS'oid'
p9
L17961L
sS'number'
p10
g2
sS'person_oid'
p11
L94L
sS'contact'
p12
L27L
sS'starttime'
p13
cdatetime
datetime
p14
(S'\x07\xd5\x02\x1a\x11"\x10\x00\x00\x00'
p15
tp16
Rp17
sS'duration'
p18
L0L
sS'endtime'
p19
g14
(S'\x07\xd5\x02\x1a\x11"\x10\x00\x00\x00'
p20
tp21
Rp22
sS'phonenumber_oid'
p23
L5L
s.(dp0
S'status'
p1
S''
p2
sS'direction'
p3
S'Outgoing'
p4
sS'remote'
p5
g2
sS'description'
p6
S'Voice Call'
p7
sS'callid'
p8
L1715L
sS'oid'
p9
L17962L
sS'number'
p10
g2
sS'person_oid'
p11
L94L
sS'contact'
p12
L24L
sS'starttime'
p13
cdatetime
datetime
p14
(S'\x07\xd5\x02\x1c\x0f\x13\x18\x00\x00\x00'
p15
tp16
Rp17
sS'duration'
p18
L47L
sS'endtime'
p19
g14
(S'\x07\xd5\x02\x1c\x0f\x14\x0b\x00\x00\x00'
p20
tp21
Rp22
sS'phonenumber_oid'
p23
L1L
s.(dp0
S'status'
p1
S''
p2
sS'direction'
p3
S'Outgoing'
p4
sS'remote'
p5
g2
sS'description'
p6
S'Voice Call'
p7
sS'callid'
p8
L1715L
sS'oid'
p9
L17965L
sS'number'
p10
g2
sS'person_oid'
p11
L94L
sS'contact'
p12
L24L
sS'starttime'
p13
cdatetime
datetime
p14
(S'\x07\xd5\x02\x1c\x0f\x13\x18\x00\x00\x00'
p15
tp16
Rp17
sS'duration'
p18
L47L
sS'endtime'
p19
g14
(S'\x07\xd5\x02\x1c\x0f\x14\x0b\x00\x00\x00'
p20
tp21
Rp22
sS'phonenumber_oid'
p23
L1L
s.(dp0
S'status'
p1
S''
p2
sS'direction'
p3
S'Outgoing'
p4
sS'remote'
p5
g2
sS'description'
p6
S'Voice Call'
p7
sS'callid'
p8
L1716L
sS'oid'
p9
L17963L
sS'number'
p10
g2
sS'person_oid'
p11
L94L
sS'contact'
p12
L27L
sS'starttime'
p13
cdatetime
datetime
p14
(S'\x07\xd5\x02\x1c\x10\x10\x03\x00\x00\x00'
p15
tp16
Rp17
sS'duration'
p18
L17L
sS'endtime'
p19
g14
(S'\x07\xd5\x02\x1c\x10\x10\x14\x00\x00\x00'
p20
tp21
Rp22
sS'phonenumber_oid'
p23
L5L
s.(dp0
S'status'
p1
S''
p2
sS'direction'
p3
S'Outgoing'
p4
sS'remote'
p5
g2
sS'description'
p6
S'Voice Call'
p7
sS'callid'
p8
L1716L
sS'oid'
p9
L17966L
sS'number'
p10
g2
sS'person_oid'
p11
L94L
sS'contact'
p12
L27L
sS'starttime'
p13
cdatetime
datetime
p14
(S'\x07\xd5\x02\x1c\x10\x10\x03\x00\x00\x00'
p15
tp16
Rp17
sS'duration'
p18
L17L
sS'endtime'
p19
g14
(S'\x07\xd5\x02\x1c\x10\x10\x14\x00\x00\x00'
p20
tp21
Rp22
sS'phonenumber_oid'
p23
L5L
s.(dp0
S'status'
p1
S''
p2
sS'direction'
p3
S'Incoming'
p4
sS'remote'
p5
g2
sS'description'
p6
S'Voice Call'
p7
sS'callid'
p8
L1718L
sS'oid'
p9
L17964L
sS'number'
p10
g2
sS'person_oid'
p11
L94L
sS'contact'
p12
L24L
sS'starttime'
p13
cdatetime
datetime
p14
(S'\x07\xd5\x02\x1c\x16+\x0b\x00\x00\x00'
p15
tp16
Rp17
sS'duration'
p18
L653L
sS'endtime'
p19
g14
(S'\x07\xd5\x02\x1c\x166\x04\x00\x00\x00'
p20
tp21
Rp22
sS'phonenumber_oid'
p23
L1L
s.(dp0
S'status'
p1
S''
p2
sS'direction'
p3
S'Incoming'
p4
sS'remote'
p5
g2
sS'description'
p6
S'Voice Call'
p7
sS'callid'
p8
L1718L
sS'oid'
p9
L17967L
sS'number'
p10
g2
sS'person_oid'
p11
L94L
sS'contact'
p12
L24L
sS'starttime'
p13
cdatetime
datetime
p14
(S'\x07\xd5\x02\x1c\x16+\x0b\x00\x00\x00'
p15
tp16
Rp17
sS'duration'
p18
L653L
sS'endtime'
p19
g14
(S'\x07\xd5\x02\x1c\x166\x04\x00\x00\x00'
p20
tp21
Rp22
sS'phonenumber_oid'
p23
L1L
s.(dp0
S'status'
p1
S''
p2
sS'direction'
p3
S'Incoming'
p4
sS'remote'
p5
g2
sS'description'
p6
S'Voice Call'
p7
sS'callid'
p8
L1720L
sS'oid'
p9
L17968L
sS'number'
p10
g2
sS'person_oid'
p11
L94L
sS'contact'
p12
L21L
sS'starttime'
p13
cdatetime
datetime
p14
(S'\x07\xd5\x03\x01\x10\x00\x0c\x00\x00\x00'
p15
tp16
Rp17
sS'duration'
p18
L122L
sS'endtime'
p19
g14
(S'\x07\xd5\x03\x01\x10\x02\x0e\x00\x00\x00'
p20
tp21
Rp22
sS'phonenumber_oid'
p23
L18L
s.(dp0
S'status'
p1
S''
p2
sS'direction'
p3
S'Incoming'
p4
sS'remote'
p5
g2
sS'description'
p6
S'Voice Call'
p7
sS'callid'
p8
L1720L
sS'oid'
p9
L17975L
sS'number'
p10
g2
sS'person_oid'
p11
L94L
sS'contact'
p12
L21L
sS'starttime'
p13
cdatetime
datetime
p14
(S'\x07\xd5\x03\x01\x10\x00\x0c\x00\x00\x00'
p15
tp16
Rp17
sS'duration'
p18
L122L
sS'endtime'
p19
g14
(S'\x07\xd5\x03\x01\x10\x02\x0e\x00\x00\x00'
p20
tp21
Rp22
sS'phonenumber_oid'
p23
L18L
s.(dp0
S'status'
p1
S''
p2
sS'direction'
p3
S'Incoming'
p4
sS'remote'
p5
g2
sS'description'
p6
S'Voice Call'
p7
sS'callid'
p8
L1722L
sS'oid'
p9
L17969L
sS'number'
p10
g2
sS'person_oid'
p11
L94L
sS'contact'
p12
L7L
sS'starttime'
p13
cdatetime
datetime
p14
(S'\x07\xd5\x03\x01\x15\x02\x15\x00\x00\x00'
p15
tp16
Rp17
sS'duration'
p18
L65L
sS'endtime'
p19
g14
(S'\x07\xd5\x03\x01\x15\x03\x1a\x00\x00\x00'
p20
tp21
Rp22
sS'phonenumber_oid'
p23
L6L
s.(dp0
S'status'
p1
S''
p2
sS'direction'
p3
S'Incoming'
p4
sS'remote'
p5
g2
sS'description'
p6
S'Voice Call'
p7
sS'callid'
p8
L1722L
sS'oid'
p9
L17976L
sS'number'
p10
g2
sS'person_oid'
p11
L94L
sS'contact'
p12
L7L
sS'starttime'
p13
cdatetime
datetime
p14
(S'\x07\xd5\x03\x01\x15\x02\x15\x00\x00\x00'
p15
tp16
Rp17
sS'duration'
p18
L65L
sS'endtime'
p19
g14
(S'\x07\xd5\x03\x01\x15\x03\x1a\x00\x00\x00'
p20
tp21
Rp22
sS'phonenumber_oid'
p23
L6L
s.(dp0
S'status'
p1
S''
p2
sS'direction'
p3
S'Outgoing'
p4
sS'remote'
p5
g2
sS'description'
p6
S'Voice Call'
p7
sS'callid'
p8
L1723L
sS'oid'
p9
L17970L
sS'number'
p10
g2
sS'person_oid'
p11
L94L
sS'contact'
p12
L7L
sS'starttime'
p13
cdatetime
datetime
p14
(S'\x07\xd5\x03\x01\x15.\x04\x00\x00\x00'
p15
tp16
Rp17
sS'duration'
p18
L8L
sS'endtime'
p19
g14
(S'\x07\xd5\x03\x01\x15.\x0c\x00\x00\x00'
p20
tp21
Rp22
sS'phonenumber_oid'
p23
L6L
s.(dp0
S'status'
p1
S''
p2
sS'direction'
p3
S'Outgoing'
p4
sS'remote'
p5
g2
sS'description'
p6
S'Voice Call'
p7
sS'callid'
p8
L1723L
sS'oid'
p9
L17977L
sS'number'
p10
g2
sS'person_oid'
p11
L94L
sS'contact'
p12
L7L
sS'starttime'
p13
cdatetime
datetime
p14
(S'\x07\xd5\x03\x01\x15.\x04\x00\x00\x00'
p15
tp16
Rp17
sS'duration'
p18
L8L
sS'endtime'
p19
g14
(S'\x07\xd5\x03\x01\x15.\x0c\x00\x00\x00'
p20
tp21
Rp22
sS'phonenumber_oid'
p23
L6L
s.(dp0
S'status'
p1
S''
p2
sS'direction'
p3
S'Incoming'
p4
sS'remote'
p5
g2
sS'description'
p6
S'Voice Call'
p7
sS'callid'
p8
L1725L
sS'oid'
p9
L17971L
sS'number'
p10
g2
sS'person_oid'
p11
L94L
sS'contact'
p12
L7L
sS'starttime'
p13
cdatetime
datetime
p14
(S'\x07\xd5\x03\x01\x15.1\x00\x00\x00'
p15
tp16
Rp17
sS'duration'
p18
L23L
sS'endtime'
p19
g14
(S'\x07\xd5\x03\x01\x15/\x0c\x00\x00\x00'
p20
tp21
Rp22
sS'phonenumber_oid'
p23
L6L
s.(dp0
S'status'
p1
S''
p2
sS'direction'
p3
S'Incoming'
p4
sS'remote'
p5
g2
sS'description'
p6
S'Voice Call'
p7
sS'callid'
p8
L1725L
sS'oid'
p9
L17978L
sS'number'
p10
g2
sS'person_oid'
p11
L94L
sS'contact'
p12
L7L
sS'starttime'
p13
cdatetime
datetime
p14
(S'\x07\xd5\x03\x01\x15.1\x00\x00\x00'
p15
tp16
Rp17
sS'duration'
p18
L23L
sS'endtime'
p19
g14
(S'\x07\xd5\x03\x01\x15/\x0c\x00\x00\x00'
p20
tp21
Rp22
sS'phonenumber_oid'
p23
L6L
s.(dp0
S'status'
p1
S''
p2
sS'direction'
p3
S'Outgoing'
p4
sS'remote'
p5
g2
sS'description'
p6
S'Voice Call'
p7
sS'callid'
p8
L1726L
sS'oid'
p9
L17972L
sS'number'
p10
g2
sS'person_oid'
p11
L94L
sS'contact'
p12
L7L
sS'starttime'
p13
cdatetime
datetime
p14
(S'\x07\xd5\x03\x01\x15/\x1e\x00\x00\x00'
p15
tp16
Rp17
sS'duration'
p18
L67L
sS'endtime'
p19
g14
(S'\x07\xd5\x03\x01\x150%\x00\x00\x00'
p20
tp21
Rp22
sS'phonenumber_oid'
p23
L6L
s.(dp0
S'status'
p1
S''
p2
sS'direction'
p3
S'Outgoing'
p4
sS'remote'
p5
g2
sS'description'
p6
S'Voice Call'
p7
sS'callid'
p8
L1726L
sS'oid'
p9
L17979L
sS'number'
p10
g2
sS'person_oid'
p11
L94L
sS'contact'
p12
L7L
sS'starttime'
p13
cdatetime
datetime
p14
(S'\x07\xd5\x03\x01\x15/\x1e\x00\x00\x00'
p15
tp16
Rp17
sS'duration'
p18
L67L
sS'endtime'
p19
g14
(S'\x07\xd5\x03\x01\x150%\x00\x00\x00'
p20
tp21
Rp22
sS'phonenumber_oid'
p23
L6L
s.(dp0
S'status'
p1
S''
p2
sS'direction'
p3
S'Outgoing'
p4
sS'remote'
p5
g2
sS'description'
p6
S'Voice Call'
p7
sS'callid'
p8
L1727L
sS'oid'
p9
L17973L
sS'number'
p10
g2
sS'person_oid'
p11
L94L
sS'contact'
p12
L2L
sS'starttime'
p13
cdatetime
datetime
p14
(S'\x07\xd5\x03\x01\x16\x0f)\x00\x00\x00'
p15
tp16
Rp17
sS'duration'
p18
L36L
sS'endtime'
p19
g14
(S'\x07\xd5\x03\x01\x16\x10\x11\x00\x00\x00'
p20
tp21
Rp22
sS'phonenumber_oid'
p23
L14L
s.(dp0
S'status'
p1
S''
p2
sS'direction'
p3
S'Outgoing'
p4
sS'remote'
p5
g2
sS'description'
p6
S'Voice Call'
p7
sS'callid'
p8
L1727L
sS'oid'
p9
L17980L
sS'number'
p10
g2
sS'person_oid'
p11
L94L
sS'contact'
p12
L2L
sS'starttime'
p13
cdatetime
datetime
p14
(S'\x07\xd5\x03\x01\x16\x0f)\x00\x00\x00'
p15
tp16
Rp17
sS'duration'
p18
L36L
sS'endtime'
p19
g14
(S'\x07\xd5\x03\x01\x16\x10\x11\x00\x00\x00'
p20
tp21
Rp22
sS'phonenumber_oid'
p23
L14L
s.(dp0
S'status'
p1
S''
p2
sS'direction'
p3
S'Outgoing'
p4
sS'remote'
p5
g2
sS'description'
p6
S'Voice Call'
p7
sS'callid'
p8
L1728L
sS'oid'
p9
L17974L
sS'number'
p10
g2
sS'person_oid'
p11
L94L
sS'contact'
p12
L27L
sS'starttime'
p13
cdatetime
datetime
p14
(S'\x07\xd5\x03\x02\x02-\x1f\x00\x00\x00'
p15
tp16
Rp17
sS'duration'
p18
L27L
sS'endtime'
p19
g14
(S'\x07\xd5\x03\x02\x02-:\x00\x00\x00'
p20
tp21
Rp22
sS'phonenumber_oid'
p23
L5L
s.(dp0
S'status'
p1
S''
p2
sS'direction'
p3
S'Outgoing'
p4
sS'remote'
p5
g2
sS'description'
p6
S'Voice Call'
p7
sS'callid'
p8
L1728L
sS'oid'
p9
L17981L
sS'number'
p10
g2
sS'person_oid'
p11
L94L
sS'contact'
p12
L27L
sS'starttime'
p13
cdatetime
datetime
p14
(S'\x07\xd5\x03\x02\x02-\x1f\x00\x00\x00'
p15
tp16
Rp17
sS'duration'
p18
L27L
sS'endtime'
p19
g14
(S'\x07\xd5\x03\x02\x02-:\x00\x00\x00'
p20
tp21
Rp22
sS'phonenumber_oid'
p23
L5L
s.(dp0
S'status'
p1
S''
p2
sS'direction'
p3
S'Outgoing'
p4
sS'remote'
p5
g2
sS'description'
p6
S'Voice Call'
p7
sS'callid'
p8
L1729L
sS'oid'
p9
L17982L
sS'number'
p10
g2
sS'person_oid'
p11
L94L
sS'contact'
p12
L27L
sS'starttime'
p13
cdatetime
datetime
p14
(S"\x07\xd5\x03\x02\x0e\x10'\x00\x00\x00"
p15
tp16
Rp17
sS'duration'
p18
L6L
sS'endtime'
p19
g14
(S'\x07\xd5\x03\x02\x0e\x10-\x00\x00\x00'
p20
tp21
Rp22
sS'phonenumber_oid'
p23
L5L
s.(dp0
S'status'
p1
S''
p2
sS'direction'
p3
S'Outgoing'
p4
sS'remote'
p5
g2
sS'description'
p6
S'Voice Call'
p7
sS'callid'
p8
L1729L
sS'oid'
p9
L17990L
sS'number'
p10
g2
sS'person_oid'
p11
L94L
sS'contact'
p12
L27L
sS'starttime'
p13
cdatetime
datetime
p14
(S"\x07\xd5\x03\x02\x0e\x10'\x00\x00\x00"
p15
tp16
Rp17
sS'duration'
p18
L6L
sS'endtime'
p19
g14
(S'\x07\xd5\x03\x02\x0e\x10-\x00\x00\x00'
p20
tp21
Rp22
sS'phonenumber_oid'
p23
L5L
s.(dp0
S'status'
p1
S'Delivered'
p2
sS'direction'
p3
S'Incoming'
p4
sS'remote'
p5
S''
p6
sS'description'
p7
S'Short Message'
p8
sS'callid'
p9
L1730L
sS'oid'
p10
L17983L
sS'number'
p11
g6
sS'person_oid'
p12
L94L
sS'contact'
p13
L-1L
sS'starttime'
p14
cdatetime
datetime
p15
(S'\x07\xd5\x03\x02\x0e\x1e&\x00\x00\x00'
p16
tp17
Rp18
sS'duration'
p19
L0L
sS'endtime'
p20
g15
(S'\x07\xd5\x03\x02\x0e\x1e&\x00\x00\x00'
p21
tp22
Rp23
sS'phonenumber_oid'
p24
L5L
s.(dp0
S'status'
p1
S'Delivered'
p2
sS'direction'
p3
S'Incoming'
p4
sS'remote'
p5
S''
p6
sS'description'
p7
S'Short Message'
p8
sS'callid'
p9
L1730L
sS'oid'
p10
L17991L
sS'number'
p11
g6
sS'person_oid'
p12
L94L
sS'contact'
p13
L-1L
sS'starttime'
p14
cdatetime
datetime
p15
(S'\x07\xd5\x03\x02\x0e\x1e&\x00\x00\x00'
p16
tp17
Rp18
sS'duration'
p19
L0L
sS'endtime'
p20
g15
(S'\x07\xd5\x03\x02\x0e\x1e&\x00\x00\x00'
p21
tp22
Rp23
sS'phonenumber_oid'
p24
L5L
s.(dp0
S'status'
p1
S'Sent'
p2
sS'direction'
p3
S'Outgoing'
p4
sS'remote'
p5
S''
p6
sS'description'
p7
S'Short Message'
p8
sS'callid'
p9
L1731L
sS'oid'
p10
L17984L
sS'number'
p11
g6
sS'person_oid'
p12
L94L
sS'contact'
p13
L-1L
sS'starttime'
p14
cdatetime
datetime
p15
(S'\x07\xd5\x03\x02\x0e7"\x00\x00\x00'
p16
tp17
Rp18
sS'duration'
p19
L0L
sS'endtime'
p20
g15
(S'\x07\xd5\x03\x02\x0e7"\x00\x00\x00'
p21
tp22
Rp23
sS'phonenumber_oid'
p24
L5L
s.(dp0
S'status'
p1
S'Sent'
p2
sS'direction'
p3
S'Outgoing'
p4
sS'remote'
p5
S''
p6
sS'description'
p7
S'Short Message'
p8
sS'callid'
p9
L1731L
sS'oid'
p10
L17992L
sS'number'
p11
g6
sS'person_oid'
p12
L94L
sS'contact'
p13
L-1L
sS'starttime'
p14
cdatetime
datetime
p15
(S'\x07\xd5\x03\x02\x0e7"\x00\x00\x00'
p16
tp17
Rp18
sS'duration'
p19
L0L
sS'endtime'
p20
g15
(S'\x07\xd5\x03\x02\x0e7"\x00\x00\x00'
p21
tp22
Rp23
sS'phonenumber_oid'
p24
L5L
s.(dp0
S'status'
p1
S''
p2
sS'direction'
p3
S'Missed Call'
p4
sS'remote'
p5
g2
sS'description'
p6
S'Voice Call'
p7
sS'callid'
p8
L1732L
sS'oid'
p9
L17985L
sS'number'
p10
g2
sS'person_oid'
p11
L94L
sS'contact'
p12
L27L
sS'starttime'
p13
cdatetime
datetime
p14
(S'\x07\xd5\x03\x02\x0e;0\x00\x00\x00'
p15
tp16
Rp17
sS'duration'
p18
L0L
sS'endtime'
p19
g14
(S'\x07\xd5\x03\x02\x0e;0\x00\x00\x00'
p20
tp21
Rp22
sS'phonenumber_oid'
p23
L5L
s.(dp0
S'status'
p1
S''
p2
sS'direction'
p3
S'Missed Call'
p4
sS'remote'
p5
g2
sS'description'
p6
S'Voice Call'
p7
sS'callid'
p8
L1732L
sS'oid'
p9
L17993L
sS'number'
p10
g2
sS'person_oid'
p11
L94L
sS'contact'
p12
L27L
sS'starttime'
p13
cdatetime
datetime
p14
(S'\x07\xd5\x03\x02\x0e;0\x00\x00\x00'
p15
tp16
Rp17
sS'duration'
p18
L0L
sS'endtime'
p19
g14
(S'\x07\xd5\x03\x02\x0e;0\x00\x00\x00'
p20
tp21
Rp22
sS'phonenumber_oid'
p23
L5L
s.(dp0
S'status'
p1
S''
p2
sS'direction'
p3
S'Incoming'
p4
sS'remote'
p5
g2
sS'description'
p6
S'Voice Call'
p7
sS'callid'
p8
L1734L
sS'oid'
p9
L17986L
sS'number'
p10
g2
sS'person_oid'
p11
L94L
sS'contact'
p12
L21L
sS'starttime'
p13
cdatetime
datetime
p14
(S'\x07\xd5\x03\x02\x16\x0e\x08\x00\x00\x00'
p15
tp16
Rp17
sS'duration'
p18
L309L
sS'endtime'
p19
g14
(S'\x07\xd5\x03\x02\x16\x13\x11\x00\x00\x00'
p20
tp21
Rp22
sS'phonenumber_oid'
p23
L18L
s.(dp0
S'status'
p1
S''
p2
sS'direction'
p3
S'Incoming'
p4
sS'remote'
p5
g2
sS'description'
p6
S'Voice Call'
p7
sS'callid'
p8
L1734L
sS'oid'
p9
L17994L
sS'number'
p10
g2
sS'person_oid'
p11
L94L
sS'contact'
p12
L21L
sS'starttime'
p13
cdatetime
datetime
p14
(S'\x07\xd5\x03\x02\x16\x0e\x08\x00\x00\x00'
p15
tp16
Rp17
sS'duration'
p18
L309L
sS'endtime'
p19
g14
(S'\x07\xd5\x03\x02\x16\x13\x11\x00\x00\x00'
p20
tp21
Rp22
sS'phonenumber_oid'
p23
L18L
s.(dp0
S'status'
p1
S''
p2
sS'direction'
p3
S'Outgoing'
p4
sS'remote'
p5
g2
sS'description'
p6
S'Voice Call'
p7
sS'callid'
p8
L1735L
sS'oid'
p9
L17987L
sS'number'
p10
g2
sS'person_oid'
p11
L94L
sS'contact'
p12
L27L
sS'starttime'
p13
cdatetime
datetime
p14
(S'\x07\xd5\x03\x03\x01\x03"\x00\x00\x00'
p15
tp16
Rp17
sS'duration'
p18
L9L
sS'endtime'
p19
g14
(S'\x07\xd5\x03\x03\x01\x03+\x00\x00\x00'
p20
tp21
Rp22
sS'phonenumber_oid'
p23
L5L
s.(dp0
S'status'
p1
S''
p2
sS'direction'
p3
S'Outgoing'
p4
sS'remote'
p5
g2
sS'description'
p6
S'Voice Call'
p7
sS'callid'
p8
L1735L
sS'oid'
p9
L17995L
sS'number'
p10
g2
sS'person_oid'
p11
L94L
sS'contact'
p12
L27L
sS'starttime'
p13
cdatetime
datetime
p14
(S'\x07\xd5\x03\x03\x01\x03"\x00\x00\x00'
p15
tp16
Rp17
sS'duration'
p18
L9L
sS'endtime'
p19
g14
(S'\x07\xd5\x03\x03\x01\x03+\x00\x00\x00'
p20
tp21
Rp22
sS'phonenumber_oid'
p23
L5L
s.(dp0
S'status'
p1
S''
p2
sS'direction'
p3
S'Incoming'
p4
sS'remote'
p5
g2
sS'description'
p6
S'Voice Call'
p7
sS'callid'
p8
L1737L
sS'oid'
p9
L17988L
sS'number'
p10
g2
sS'person_oid'
p11
L94L
sS'contact'
p12
L27L
sS'starttime'
p13
cdatetime
datetime
p14
(S'\x07\xd5\x03\x03\x01\x05&\x00\x00\x00'
p15
tp16
Rp17
sS'duration'
p18
L25L
sS'endtime'
p19
g14
(S'\x07\xd5\x03\x03\x01\x06\x03\x00\x00\x00'
p20
tp21
Rp22
sS'phonenumber_oid'
p23
L5L
s.(dp0
S'status'
p1
S''
p2
sS'direction'
p3
S'Incoming'
p4
sS'remote'
p5
g2
sS'description'
p6
S'Voice Call'
p7
sS'callid'
p8
L1737L
sS'oid'
p9
L17996L
sS'number'
p10
g2
sS'person_oid'
p11
L94L
sS'contact'
p12
L27L
sS'starttime'
p13
cdatetime
datetime
p14
(S'\x07\xd5\x03\x03\x01\x05&\x00\x00\x00'
p15
tp16
Rp17
sS'duration'
p18
L25L
sS'endtime'
p19
g14
(S'\x07\xd5\x03\x03\x01\x06\x03\x00\x00\x00'
p20
tp21
Rp22
sS'phonenumber_oid'
p23
L5L
s.(dp0
S'status'
p1
S''
p2
sS'direction'
p3
S'Outgoing'
p4
sS'remote'
p5
g2
sS'description'
p6
S'Voice Call'
p7
sS'callid'
p8
L1738L
sS'oid'
p9
L17989L
sS'number'
p10
g2
sS'person_oid'
p11
L94L
sS'contact'
p12
L24L
sS'starttime'
p13
cdatetime
datetime
p14
(S'\x07\xd5\x03\x03\x020\x08\x00\x00\x00'
p15
tp16
Rp17
sS'duration'
p18
L1L
sS'endtime'
p19
g14
(S'\x07\xd5\x03\x03\x020\t\x00\x00\x00'
p20
tp21
Rp22
sS'phonenumber_oid'
p23
L1L
s.(dp0
S'status'
p1
S''
p2
sS'direction'
p3
S'Outgoing'
p4
sS'remote'
p5
g2
sS'description'
p6
S'Voice Call'
p7
sS'callid'
p8
L1738L
sS'oid'
p9
L17997L
sS'number'
p10
g2
sS'person_oid'
p11
L94L
sS'contact'
p12
L24L
sS'starttime'
p13
cdatetime
datetime
p14
(S'\x07\xd5\x03\x03\x020\x08\x00\x00\x00'
p15
tp16
Rp17
sS'duration'
p18
L1L
sS'endtime'
p19
g14
(S'\x07\xd5\x03\x03\x020\t\x00\x00\x00'
p20
tp21
Rp22
sS'phonenumber_oid'
p23
L1L
s.(dp0
S'status'
p1
S''
p2
sS'direction'
p3
S'Incoming'
p4
sS'remote'
p5
g2
sS'description'
p6
S'Voice Call'
p7
sS'callid'
p8
L1740L
sS'oid'
p9
L17998L
sS'number'
p10
g2
sS'person_oid'
p11
L94L
sS'contact'
p12
L24L
sS'starttime'
p13
cdatetime
datetime
p14
(S'\x07\xd5\x03\x04\x12\x1d\x01\x00\x00\x00'
p15
tp16
Rp17
sS'duration'
p18
L83L
sS'endtime'
p19
g14
(S'\x07\xd5\x03\x04\x12\x1e\x18\x00\x00\x00'
p20
tp21
Rp22
sS'phonenumber_oid'
p23
L1L
s.(dp0
S'status'
p1
S''
p2
sS'direction'
p3
S'Incoming'
p4
sS'remote'
p5
g2
sS'description'
p6
S'Voice Call'
p7
sS'callid'
p8
L1740L
sS'oid'
p9
L18002L
sS'number'
p10
g2
sS'person_oid'
p11
L94L
sS'contact'
p12
L24L
sS'starttime'
p13
cdatetime
datetime
p14
(S'\x07\xd5\x03\x04\x12\x1d\x01\x00\x00\x00'
p15
tp16
Rp17
sS'duration'
p18
L83L
sS'endtime'
p19
g14
(S'\x07\xd5\x03\x04\x12\x1e\x18\x00\x00\x00'
p20
tp21
Rp22
sS'phonenumber_oid'
p23
L1L
s.(dp0
S'status'
p1
S''
p2
sS'direction'
p3
S'Outgoing'
p4
sS'remote'
p5
g2
sS'description'
p6
S'Voice Call'
p7
sS'callid'
p8
L1741L
sS'oid'
p9
L17999L
sS'number'
p10
g2
sS'person_oid'
p11
L94L
sS'contact'
p12
L2L
sS'starttime'
p13
cdatetime
datetime
p14
(S'\x07\xd5\x03\x04\x14\x1f"\x00\x00\x00'
p15
tp16
Rp17
sS'duration'
p18
L31L
sS'endtime'
p19
g14
(S'\x07\xd5\x03\x04\x14 \x05\x00\x00\x00'
p20
tp21
Rp22
sS'phonenumber_oid'
p23
L14L
s.(dp0
S'status'
p1
S''
p2
sS'direction'
p3
S'Outgoing'
p4
sS'remote'
p5
g2
sS'description'
p6
S'Voice Call'
p7
sS'callid'
p8
L1741L
sS'oid'
p9
L18003L
sS'number'
p10
g2
sS'person_oid'
p11
L94L
sS'contact'
p12
L2L
sS'starttime'
p13
cdatetime
datetime
p14
(S'\x07\xd5\x03\x04\x14\x1f"\x00\x00\x00'
p15
tp16
Rp17
sS'duration'
p18
L31L
sS'endtime'
p19
g14
(S'\x07\xd5\x03\x04\x14 \x05\x00\x00\x00'
p20
tp21
Rp22
sS'phonenumber_oid'
p23
L14L
s.(dp0
S'status'
p1
S''
p2
sS'direction'
p3
S'Outgoing'
p4
sS'remote'
p5
g2
sS'description'
p6
S'Voice Call'
p7
sS'callid'
p8
L1742L
sS'oid'
p9
L18000L
sS'number'
p10
g2
sS'person_oid'
p11
L94L
sS'contact'
p12
L24L
sS'starttime'
p13
cdatetime
datetime
p14
(S'\x07\xd5\x03\x04\x14 0\x00\x00\x00'
p15
tp16
Rp17
sS'duration'
p18
L67L
sS'endtime'
p19
g14
(S'\x07\xd5\x03\x04\x14!7\x00\x00\x00'
p20
tp21
Rp22
sS'phonenumber_oid'
p23
L1L
s.(dp0
S'status'
p1
S''
p2
sS'direction'
p3
S'Outgoing'
p4
sS'remote'
p5
g2
sS'description'
p6
S'Voice Call'
p7
sS'callid'
p8
L1742L
sS'oid'
p9
L18004L
sS'number'
p10
g2
sS'person_oid'
p11
L94L
sS'contact'
p12
L24L
sS'starttime'
p13
cdatetime
datetime
p14
(S'\x07\xd5\x03\x04\x14 0\x00\x00\x00'
p15
tp16
Rp17
sS'duration'
p18
L67L
sS'endtime'
p19
g14
(S'\x07\xd5\x03\x04\x14!7\x00\x00\x00'
p20
tp21
Rp22
sS'phonenumber_oid'
p23
L1L
s.(dp0
S'status'
p1
S''
p2
sS'direction'
p3
S'Outgoing'
p4
sS'remote'
p5
g2
sS'description'
p6
S'Voice Call'
p7
sS'callid'
p8
L1743L
sS'oid'
p9
L18001L
sS'number'
p10
g2
sS'person_oid'
p11
L94L
sS'contact'
p12
L27L
sS'starttime'
p13
cdatetime
datetime
p14
(S'\x07\xd5\x03\x04\x15%6\x00\x00\x00'
p15
tp16
Rp17
sS'duration'
p18
L68L
sS'endtime'
p19
g14
(S"\x07\xd5\x03\x04\x15'\x02\x00\x00\x00"
p20
tp21
Rp22
sS'phonenumber_oid'
p23
L5L
s.(dp0
S'status'
p1
S''
p2
sS'direction'
p3
S'Outgoing'
p4
sS'remote'
p5
g2
sS'description'
p6
S'Voice Call'
p7
sS'callid'
p8
L1743L
sS'oid'
p9
L18005L
sS'number'
p10
g2
sS'person_oid'
p11
L94L
sS'contact'
p12
L27L
sS'starttime'
p13
cdatetime
datetime
p14
(S'\x07\xd5\x03\x04\x15%6\x00\x00\x00'
p15
tp16
Rp17
sS'duration'
p18
L68L
sS'endtime'
p19
g14
(S"\x07\xd5\x03\x04\x15'\x02\x00\x00\x00"
p20
tp21
Rp22
sS'phonenumber_oid'
p23
L5L
s.(dp0
S'status'
p1
S''
p2
sS'direction'
p3
S'Outgoing'
p4
sS'remote'
p5
g2
sS'description'
p6
S'Voice Call'
p7
sS'callid'
p8
L1744L
sS'oid'
p9
L18006L
sS'number'
p10
g2
sS'person_oid'
p11
L94L
sS'contact'
p12
L27L
sS'starttime'
p13
cdatetime
datetime
p14
(S'\x07\xd5\x03\x05\x11\x058\x00\x00\x00'
p15
tp16
Rp17
sS'duration'
p18
L30L
sS'endtime'
p19
g14
(S'\x07\xd5\x03\x05\x11\x06\x1a\x00\x00\x00'
p20
tp21
Rp22
sS'phonenumber_oid'
p23
L5L
s.(dp0
S'status'
p1
S''
p2
sS'direction'
p3
S'Outgoing'
p4
sS'remote'
p5
g2
sS'description'
p6
S'Voice Call'
p7
sS'callid'
p8
L1744L
sS'oid'
p9
L18013L
sS'number'
p10
g2
sS'person_oid'
p11
L94L
sS'contact'
p12
L27L
sS'starttime'
p13
cdatetime
datetime
p14
(S'\x07\xd5\x03\x05\x11\x058\x00\x00\x00'
p15
tp16
Rp17
sS'duration'
p18
L30L
sS'endtime'
p19
g14
(S'\x07\xd5\x03\x05\x11\x06\x1a\x00\x00\x00'
p20
tp21
Rp22
sS'phonenumber_oid'
p23
L5L
s.(dp0
S'status'
p1
S''
p2
sS'direction'
p3
S'Outgoing'
p4
sS'remote'
p5
g2
sS'description'
p6
S'Voice Call'
p7
sS'callid'
p8
L1745L
sS'oid'
p9
L18007L
sS'number'
p10
g2
sS'person_oid'
p11
L94L
sS'contact'
p12
L9L
sS'starttime'
p13
cdatetime
datetime
p14
(S'\x07\xd5\x03\x05\x11"-\x00\x00\x00'
p15
tp16
Rp17
sS'duration'
p18
L3L
sS'endtime'
p19
g14
(S'\x07\xd5\x03\x05\x11"0\x00\x00\x00'
p20
tp21
Rp22
sS'phonenumber_oid'
p23
L19L
s.(dp0
S'status'
p1
S''
p2
sS'direction'
p3
S'Outgoing'
p4
sS'remote'
p5
g2
sS'description'
p6
S'Voice Call'
p7
sS'callid'
p8
L1745L
sS'oid'
p9
L18014L
sS'number'
p10
g2
sS'person_oid'
p11
L94L
sS'contact'
p12
L9L
sS'starttime'
p13
cdatetime
datetime
p14
(S'\x07\xd5\x03\x05\x11"-\x00\x00\x00'
p15
tp16
Rp17
sS'duration'
p18
L3L
sS'endtime'
p19
g14
(S'\x07\xd5\x03\x05\x11"0\x00\x00\x00'
p20
tp21
Rp22
sS'phonenumber_oid'
p23
L19L
s.(dp0
S'status'
p1
S''
p2
sS'direction'
p3
S'Outgoing'
p4
sS'remote'
p5
g2
sS'description'
p6
S'Voice Call'
p7
sS'callid'
p8
L1746L
sS'oid'
p9
L18008L
sS'number'
p10
g2
sS'person_oid'
p11
L94L
sS'contact'
p12
L9L
sS'starttime'
p13
cdatetime
datetime
p14
(S'\x07\xd5\x03\x05\x11#\x1e\x00\x00\x00'
p15
tp16
Rp17
sS'duration'
p18
L2L
sS'endtime'
p19
g14
(S'\x07\xd5\x03\x05\x11# \x00\x00\x00'
p20
tp21
Rp22
sS'phonenumber_oid'
p23
L22L
s.(dp0
S'status'
p1
S''
p2
sS'direction'
p3
S'Outgoing'
p4
sS'remote'
p5
g2
sS'description'
p6
S'Voice Call'
p7
sS'callid'
p8
L1746L
sS'oid'
p9
L18015L
sS'number'
p10
g2
sS'person_oid'
p11
L94L
sS'contact'
p12
L9L
sS'starttime'
p13
cdatetime
datetime
p14
(S'\x07\xd5\x03\x05\x11#\x1e\x00\x00\x00'
p15
tp16
Rp17
sS'duration'
p18
L2L
sS'endtime'
p19
g14
(S'\x07\xd5\x03\x05\x11# \x00\x00\x00'
p20
tp21
Rp22
sS'phonenumber_oid'
p23
L22L
s.(dp0
S'status'
p1
S''
p2
sS'direction'
p3
S'Outgoing'
p4
sS'remote'
p5
g2
sS'description'
p6
S'Voice Call'
p7
sS'callid'
p8
L1747L
sS'oid'
p9
L18009L
sS'number'
p10
g2
sS'person_oid'
p11
L94L
sS'contact'
p12
L11L
sS'starttime'
p13
cdatetime
datetime
p14
(S'\x07\xd5\x03\x05\x115 \x00\x00\x00'
p15
tp16
Rp17
sS'duration'
p18
L24L
sS'endtime'
p19
g14
(S'\x07\xd5\x03\x05\x1158\x00\x00\x00'
p20
tp21
Rp22
sS'phonenumber_oid'
p23
L69L
s.(dp0
S'status'
p1
S''
p2
sS'direction'
p3
S'Outgoing'
p4
sS'remote'
p5
g2
sS'description'
p6
S'Voice Call'
p7
sS'callid'
p8
L1747L
sS'oid'
p9
L18016L
sS'number'
p10
g2
sS'person_oid'
p11
L94L
sS'contact'
p12
L11L
sS'starttime'
p13
cdatetime
datetime
p14
(S'\x07\xd5\x03\x05\x115 \x00\x00\x00'
p15
tp16
Rp17
sS'duration'
p18
L24L
sS'endtime'
p19
g14
(S'\x07\xd5\x03\x05\x1158\x00\x00\x00'
p20
tp21
Rp22
sS'phonenumber_oid'
p23
L69L
s.(dp0
S'status'
p1
S''
p2
sS'direction'
p3
S'Incoming'
p4
sS'remote'
p5
g2
sS'description'
p6
S'Voice Call'
p7
sS'callid'
p8
L1749L
sS'oid'
p9
L18010L
sS'number'
p10
g2
sS'person_oid'
p11
L94L
sS'contact'
p12
L24L
sS'starttime'
p13
cdatetime
datetime
p14
(S'\x07\xd5\x03\x05\x13& \x00\x00\x00'
p15
tp16
Rp17
sS'duration'
p18
L63L
sS'endtime'
p19
g14
(S"\x07\xd5\x03\x05\x13'#\x00\x00\x00"
p20
tp21
Rp22
sS'phonenumber_oid'
p23
L1L
s.(dp0
S'status'
p1
S''
p2
sS'direction'
p3
S'Incoming'
p4
sS'remote'
p5
g2
sS'description'
p6
S'Voice Call'
p7
sS'callid'
p8
L1749L
sS'oid'
p9
L18017L
sS'number'
p10
g2
sS'person_oid'
p11
L94L
sS'contact'
p12
L24L
sS'starttime'
p13
cdatetime
datetime
p14
(S'\x07\xd5\x03\x05\x13& \x00\x00\x00'
p15
tp16
Rp17
sS'duration'
p18
L63L
sS'endtime'
p19
g14
(S"\x07\xd5\x03\x05\x13'#\x00\x00\x00"
p20
tp21
Rp22
sS'phonenumber_oid'
p23
L1L
s.(dp0
S'status'
p1
S''
p2
sS'direction'
p3
S'Outgoing'
p4
sS'remote'
p5
g2
sS'description'
p6
S'Voice Call'
p7
sS'callid'
p8
L1750L
sS'oid'
p9
L18011L
sS'number'
p10
g2
sS'person_oid'
p11
L94L
sS'contact'
p12
L2L
sS'starttime'
p13
cdatetime
datetime
p14
(S'\x07\xd5\x03\x05\x14\x049\x00\x00\x00'
p15
tp16
Rp17
sS'duration'
p18
L12L
sS'endtime'
p19
g14
(S'\x07\xd5\x03\x05\x14\x05\t\x00\x00\x00'
p20
tp21
Rp22
sS'phonenumber_oid'
p23
L14L
s.(dp0
S'status'
p1
S''
p2
sS'direction'
p3
S'Outgoing'
p4
sS'remote'
p5
g2
sS'description'
p6
S'Voice Call'
p7
sS'callid'
p8
L1750L
sS'oid'
p9
L18018L
sS'number'
p10
g2
sS'person_oid'
p11
L94L
sS'contact'
p12
L2L
sS'starttime'
p13
cdatetime
datetime
p14
(S'\x07\xd5\x03\x05\x14\x049\x00\x00\x00'
p15
tp16
Rp17
sS'duration'
p18
L12L
sS'endtime'
p19
g14
(S'\x07\xd5\x03\x05\x14\x05\t\x00\x00\x00'
p20
tp21
Rp22
sS'phonenumber_oid'
p23
L14L
s.(dp0
S'status'
p1
S''
p2
sS'direction'
p3
S'Incoming'
p4
sS'remote'
p5
g2
sS'description'
p6
S'Voice Call'
p7
sS'callid'
p8
L1752L
sS'oid'
p9
L18012L
sS'number'
p10
g2
sS'person_oid'
p11
L94L
sS'contact'
p12
L11L
sS'starttime'
p13
cdatetime
datetime
p14
(S'\x07\xd5\x03\x05\x14\x08$\x00\x00\x00'
p15
tp16
Rp17
sS'duration'
p18
L94L
sS'endtime'
p19
g14
(S'\x07\xd5\x03\x05\x14\n\n\x00\x00\x00'
p20
tp21
Rp22
sS'phonenumber_oid'
p23
L69L
s.(dp0
S'status'
p1
S''
p2
sS'direction'
p3
S'Incoming'
p4
sS'remote'
p5
g2
sS'description'
p6
S'Voice Call'
p7
sS'callid'
p8
L1752L
sS'oid'
p9
L18019L
sS'number'
p10
g2
sS'person_oid'
p11
L94L
sS'contact'
p12
L11L
sS'starttime'
p13
cdatetime
datetime
p14
(S'\x07\xd5\x03\x05\x14\x08$\x00\x00\x00'
p15
tp16
Rp17
sS'duration'
p18
L94L
sS'endtime'
p19
g14
(S'\x07\xd5\x03\x05\x14\n\n\x00\x00\x00'
p20
tp21
Rp22
sS'phonenumber_oid'
p23
L69L
s.(dp0
S'status'
p1
S''
p2
sS'direction'
p3
S'Missed Call'
p4
sS'remote'
p5
g2
sS'description'
p6
S'Voice Call'
p7
sS'callid'
p8
L1753L
sS'oid'
p9
L18020L
sS'number'
p10
g2
sS'person_oid'
p11
L94L
sS'contact'
p12
L24L
sS'starttime'
p13
cdatetime
datetime
p14
(S'\x07\xd5\x03\x06\x10\n:\x00\x00\x00'
p15
tp16
Rp17
sS'duration'
p18
L0L
sS'endtime'
p19
g14
(S'\x07\xd5\x03\x06\x10\n:\x00\x00\x00'
p20
tp21
Rp22
sS'phonenumber_oid'
p23
L1L
s.(dp0
S'status'
p1
S''
p2
sS'direction'
p3
S'Missed Call'
p4
sS'remote'
p5
g2
sS'description'
p6
S'Voice Call'
p7
sS'callid'
p8
L1753L
sS'oid'
p9
L18026L
sS'number'
p10
g2
sS'person_oid'
p11
L94L
sS'contact'
p12
L24L
sS'starttime'
p13
cdatetime
datetime
p14
(S'\x07\xd5\x03\x06\x10\n:\x00\x00\x00'
p15
tp16
Rp17
sS'duration'
p18
L0L
sS'endtime'
p19
g14
(S'\x07\xd5\x03\x06\x10\n:\x00\x00\x00'
p20
tp21
Rp22
sS'phonenumber_oid'
p23
L1L
s.(dp0
S'status'
p1
S''
p2
sS'direction'
p3
S'Outgoing'
p4
sS'remote'
p5
g2
sS'description'
p6
S'Voice Call'
p7
sS'callid'
p8
L1754L
sS'oid'
p9
L18021L
sS'number'
p10
g2
sS'person_oid'
p11
L94L
sS'contact'
p12
L27L
sS'starttime'
p13
cdatetime
datetime
p14
(S'\x07\xd5\x03\x06\x10\x1b\x15\x00\x00\x00'
p15
tp16
Rp17
sS'duration'
p18
L31L
sS'endtime'
p19
g14
(S'\x07\xd5\x03\x06\x10\x1b4\x00\x00\x00'
p20
tp21
Rp22
sS'phonenumber_oid'
p23
L5L
s.(dp0
S'status'
p1
S''
p2
sS'direction'
p3
S'Outgoing'
p4
sS'remote'
p5
g2
sS'description'
p6
S'Voice Call'
p7
sS'callid'
p8
L1754L
sS'oid'
p9
L18027L
sS'number'
p10
g2
sS'person_oid'
p11
L94L
sS'contact'
p12
L27L
sS'starttime'
p13
cdatetime
datetime
p14
(S'\x07\xd5\x03\x06\x10\x1b\x15\x00\x00\x00'
p15
tp16
Rp17
sS'duration'
p18
L31L
sS'endtime'
p19
g14
(S'\x07\xd5\x03\x06\x10\x1b4\x00\x00\x00'
p20
tp21
Rp22
sS'phonenumber_oid'
p23
L5L
s.(dp0
S'status'
p1
S''
p2
sS'direction'
p3
S'Incoming'
p4
sS'remote'
p5
g2
sS'description'
p6
S'Voice Call'
p7
sS'callid'
p8
L1756L
sS'oid'
p9
L18022L
sS'number'
p10
g2
sS'person_oid'
p11
L94L
sS'contact'
p12
L11L
sS'starttime'
p13
cdatetime
datetime
p14
(S'\x07\xd5\x03\x06\x12;\x18\x00\x00\x00'
p15
tp16
Rp17
sS'duration'
p18
L68L
sS'endtime'
p19
g14
(S'\x07\xd5\x03\x06\x13\x00 \x00\x00\x00'
p20
tp21
Rp22
sS'phonenumber_oid'
p23
L69L
s.(dp0
S'status'
p1
S''
p2
sS'direction'
p3
S'Incoming'
p4
sS'remote'
p5
g2
sS'description'
p6
S'Voice Call'
p7
sS'callid'
p8
L1756L
sS'oid'
p9
L18028L
sS'number'
p10
g2
sS'person_oid'
p11
L94L
sS'contact'
p12
L11L
sS'starttime'
p13
cdatetime
datetime
p14
(S'\x07\xd5\x03\x06\x12;\x18\x00\x00\x00'
p15
tp16
Rp17
sS'duration'
p18
L68L
sS'endtime'
p19
g14
(S'\x07\xd5\x03\x06\x13\x00 \x00\x00\x00'
p20
tp21
Rp22
sS'phonenumber_oid'
p23
L69L
s.(dp0
S'status'
p1
S''
p2
sS'direction'
p3
S'Outgoing'
p4
sS'remote'
p5
g2
sS'description'
p6
S'Voice Call'
p7
sS'callid'
p8
L1757L
sS'oid'
p9
L18023L
sS'number'
p10
g2
sS'person_oid'
p11
L94L
sS'contact'
p12
L15L
sS'starttime'
p13
cdatetime
datetime
p14
(S'\x07\xd5\x03\x06\x13 :\x00\x00\x00'
p15
tp16
Rp17
sS'duration'
p18
L0L
sS'endtime'
p19
g14
(S'\x07\xd5\x03\x06\x13 :\x00\x00\x00'
p20
tp21
Rp22
sS'phonenumber_oid'
p23
L24L
s.(dp0
S'status'
p1
S''
p2
sS'direction'
p3
S'Outgoing'
p4
sS'remote'
p5
g2
sS'description'
p6
S'Voice Call'
p7
sS'callid'
p8
L1757L
sS'oid'
p9
L18029L
sS'number'
p10
g2
sS'person_oid'
p11
L94L
sS'contact'
p12
L15L
sS'starttime'
p13
cdatetime
datetime
p14
(S'\x07\xd5\x03\x06\x13 :\x00\x00\x00'
p15
tp16
Rp17
sS'duration'
p18
L0L
sS'endtime'
p19
g14
(S'\x07\xd5\x03\x06\x13 :\x00\x00\x00'
p20
tp21
Rp22
sS'phonenumber_oid'
p23
L24L
s.(dp0
S'status'
p1
S''
p2
sS'direction'
p3
S'Outgoing'
p4
sS'remote'
p5
g2
sS'description'
p6
S'Voice Call'
p7
sS'callid'
p8
L1758L
sS'oid'
p9
L18024L
sS'number'
p10
g2
sS'person_oid'
p11
L94L
sS'contact'
p12
L15L
sS'starttime'
p13
cdatetime
datetime
p14
(S'\x07\xd5\x03\x06\x13!\t\x00\x00\x00'
p15
tp16
Rp17
sS'duration'
p18
L3L
sS'endtime'
p19
g14
(S'\x07\xd5\x03\x06\x13!\x0c\x00\x00\x00'
p20
tp21
Rp22
sS'phonenumber_oid'
p23
L23L
s.(dp0
S'status'
p1
S''
p2
sS'direction'
p3
S'Outgoing'
p4
sS'remote'
p5
g2
sS'description'
p6
S'Voice Call'
p7
sS'callid'
p8
L1758L
sS'oid'
p9
L18030L
sS'number'
p10
g2
sS'person_oid'
p11
L94L
sS'contact'
p12
L15L
sS'starttime'
p13
cdatetime
datetime
p14
(S'\x07\xd5\x03\x06\x13!\t\x00\x00\x00'
p15
tp16
Rp17
sS'duration'
p18
L3L
sS'endtime'
p19
g14
(S'\x07\xd5\x03\x06\x13!\x0c\x00\x00\x00'
p20
tp21
Rp22
sS'phonenumber_oid'
p23
L23L
s.(dp0
S'status'
p1
S''
p2
sS'direction'
p3
S'Outgoing'
p4
sS'remote'
p5
g2
sS'description'
p6
S'Voice Call'
p7
sS'callid'
p8
L1759L
sS'oid'
p9
L18025L
sS'number'
p10
g2
sS'person_oid'
p11
L94L
sS'contact'
p12
L15L
sS'starttime'
p13
cdatetime
datetime
p14
(S'\x07\xd5\x03\x06\x13!&\x00\x00\x00'
p15
tp16
Rp17
sS'duration'
p18
L27L
sS'endtime'
p19
g14
(S'\x07\xd5\x03\x06\x13"\x05\x00\x00\x00'
p20
tp21
Rp22
sS'phonenumber_oid'
p23
L24L
s.(dp0
S'status'
p1
S''
p2
sS'direction'
p3
S'Outgoing'
p4
sS'remote'
p5
g2
sS'description'
p6
S'Voice Call'
p7
sS'callid'
p8
L1759L
sS'oid'
p9
L18031L
sS'number'
p10
g2
sS'person_oid'
p11
L94L
sS'contact'
p12
L15L
sS'starttime'
p13
cdatetime
datetime
p14
(S'\x07\xd5\x03\x06\x13!&\x00\x00\x00'
p15
tp16
Rp17
sS'duration'
p18
L27L
sS'endtime'
p19
g14
(S'\x07\xd5\x03\x06\x13"\x05\x00\x00\x00'
p20
tp21
Rp22
sS'phonenumber_oid'
p23
L24L
s.(dp0
S'status'
p1
S''
p2
sS'direction'
p3
S'Outgoing'
p4
sS'remote'
p5
g2
sS'description'
p6
S'Voice Call'
p7
sS'callid'
p8
L1760L
sS'oid'
p9
L18032L
sS'number'
p10
g2
sS'person_oid'
p11
L94L
sS'contact'
p12
L8L
sS'starttime'
p13
cdatetime
datetime
p14
(S'\x07\xd5\x03\n\x179\x14\x00\x00\x00'
p15
tp16
Rp17
sS'duration'
p18
L100L
sS'endtime'
p19
g14
(S'\x07\xd5\x03\n\x17;\x00\x00\x00\x00'
p20
tp21
Rp22
sS'phonenumber_oid'
p23
L8L
s.(dp0
S'status'
p1
S''
p2
sS'direction'
p3
S'Outgoing'
p4
sS'remote'
p5
g2
sS'description'
p6
S'Voice Call'
p7
sS'callid'
p8
L1760L
sS'oid'
p9
L18034L
sS'number'
p10
g2
sS'person_oid'
p11
L94L
sS'contact'
p12
L8L
sS'starttime'
p13
cdatetime
datetime
p14
(S'\x07\xd5\x03\n\x179\x14\x00\x00\x00'
p15
tp16
Rp17
sS'duration'
p18
L100L
sS'endtime'
p19
g14
(S'\x07\xd5\x03\n\x17;\x00\x00\x00\x00'
p20
tp21
Rp22
sS'phonenumber_oid'
p23
L8L
s.(dp0
S'status'
p1
S''
p2
sS'direction'
p3
S'Incoming'
p4
sS'remote'
p5
g2
sS'description'
p6
S'Voice Call'
p7
sS'callid'
p8
L1762L
sS'oid'
p9
L18033L
sS'number'
p10
g2
sS'person_oid'
p11
L94L
sS'contact'
p12
L24L
sS'starttime'
p13
cdatetime
datetime
p14
(S'\x07\xd5\x03\x0b\x01\r\x1a\x00\x00\x00'
p15
tp16
Rp17
sS'duration'
p18
L987L
sS'endtime'
p19
g14
(S'\x07\xd5\x03\x0b\x01\x1d5\x00\x00\x00'
p20
tp21
Rp22
sS'phonenumber_oid'
p23
L1L
s.(dp0
S'status'
p1
S''
p2
sS'direction'
p3
S'Incoming'
p4
sS'remote'
p5
g2
sS'description'
p6
S'Voice Call'
p7
sS'callid'
p8
L1762L
sS'oid'
p9
L18035L
sS'number'
p10
g2
sS'person_oid'
p11
L94L
sS'contact'
p12
L24L
sS'starttime'
p13
cdatetime
datetime
p14
(S'\x07\xd5\x03\x0b\x01\r\x1a\x00\x00\x00'
p15
tp16
Rp17
sS'duration'
p18
L987L
sS'endtime'
p19
g14
(S'\x07\xd5\x03\x0b\x01\x1d5\x00\x00\x00'
p20
tp21
Rp22
sS'phonenumber_oid'
p23
L1L
s.(dp0
S'status'
p1
S''
p2
sS'direction'
p3
S'Outgoing'
p4
sS'remote'
p5
g2
sS'description'
p6
S'Voice Call'
p7
sS'callid'
p8
L1763L
sS'oid'
p9
L18036L
sS'number'
p10
g2
sS'person_oid'
p11
L94L
sS'contact'
p12
L27L
sS'starttime'
p13
cdatetime
datetime
p14
(S'\x07\xd5\x03\x0b\x0e.%\x00\x00\x00'
p15
tp16
Rp17
sS'duration'
p18
L6L
sS'endtime'
p19
g14
(S'\x07\xd5\x03\x0b\x0e.+\x00\x00\x00'
p20
tp21
Rp22
sS'phonenumber_oid'
p23
L5L
s.(dp0
S'status'
p1
S''
p2
sS'direction'
p3
S'Outgoing'
p4
sS'remote'
p5
g2
sS'description'
p6
S'Voice Call'
p7
sS'callid'
p8
L1763L
sS'oid'
p9
L18042L
sS'number'
p10
g2
sS'person_oid'
p11
L94L
sS'contact'
p12
L27L
sS'starttime'
p13
cdatetime
datetime
p14
(S'\x07\xd5\x03\x0b\x0e.%\x00\x00\x00'
p15
tp16
Rp17
sS'duration'
p18
L6L
sS'endtime'
p19
g14
(S'\x07\xd5\x03\x0b\x0e.+\x00\x00\x00'
p20
tp21
Rp22
sS'phonenumber_oid'
p23
L5L
s.(dp0
S'status'
p1
S''
p2
sS'direction'
p3
S'Outgoing'
p4
sS'remote'
p5
g2
sS'description'
p6
S'Voice Call'
p7
sS'callid'
p8
L1764L
sS'oid'
p9
L18037L
sS'number'
p10
g2
sS'person_oid'
p11
L94L
sS'contact'
p12
L24L
sS'starttime'
p13
cdatetime
datetime
p14
(S'\x07\xd5\x03\x0b\x0e7+\x00\x00\x00'
p15
tp16
Rp17
sS'duration'
p18
L8L
sS'endtime'
p19
g14
(S'\x07\xd5\x03\x0b\x0e73\x00\x00\x00'
p20
tp21
Rp22
sS'phonenumber_oid'
p23
L1L
s.(dp0
S'status'
p1
S''
p2
sS'direction'
p3
S'Outgoing'
p4
sS'remote'
p5
g2
sS'description'
p6
S'Voice Call'
p7
sS'callid'
p8
L1764L
sS'oid'
p9
L18043L
sS'number'
p10
g2
sS'person_oid'
p11
L94L
sS'contact'
p12
L24L
sS'starttime'
p13
cdatetime
datetime
p14
(S'\x07\xd5\x03\x0b\x0e7+\x00\x00\x00'
p15
tp16
Rp17
sS'duration'
p18
L8L
sS'endtime'
p19
g14
(S'\x07\xd5\x03\x0b\x0e73\x00\x00\x00'
p20
tp21
Rp22
sS'phonenumber_oid'
p23
L1L
s.(dp0
S'status'
p1
S''
p2
sS'direction'
p3
S'Outgoing'
p4
sS'remote'
p5
g2
sS'description'
p6
S'Voice Call'
p7
sS'callid'
p8
L1765L
sS'oid'
p9
L18038L
sS'number'
p10
g2
sS'person_oid'
p11
L94L
sS'contact'
p12
L7L
sS'starttime'
p13
cdatetime
datetime
p14
(S'\x07\xd5\x03\x0b\x0e8\x1d\x00\x00\x00'
p15
tp16
Rp17
sS'duration'
p18
L10L
sS'endtime'
p19
g14
(S"\x07\xd5\x03\x0b\x0e8'\x00\x00\x00"
p20
tp21
Rp22
sS'phonenumber_oid'
p23
L6L
s.(dp0
S'status'
p1
S''
p2
sS'direction'
p3
S'Outgoing'
p4
sS'remote'
p5
g2
sS'description'
p6
S'Voice Call'
p7
sS'callid'
p8
L1765L
sS'oid'
p9
L18044L
sS'number'
p10
g2
sS'person_oid'
p11
L94L
sS'contact'
p12
L7L
sS'starttime'
p13
cdatetime
datetime
p14
(S'\x07\xd5\x03\x0b\x0e8\x1d\x00\x00\x00'
p15
tp16
Rp17
sS'duration'
p18
L10L
sS'endtime'
p19
g14
(S"\x07\xd5\x03\x0b\x0e8'\x00\x00\x00"
p20
tp21
Rp22
sS'phonenumber_oid'
p23
L6L
s.(dp0
S'status'
p1
S''
p2
sS'direction'
p3
S'Outgoing'
p4
sS'remote'
p5
g2
sS'description'
p6
S'Voice Call'
p7
sS'callid'
p8
L1766L
sS'oid'
p9
L18039L
sS'number'
p10
g2
sS'person_oid'
p11
L94L
sS'contact'
p12
L40L
sS'starttime'
p13
cdatetime
datetime
p14
(S'\x07\xd5\x03\x0b\x10\t+\x00\x00\x00'
p15
tp16
Rp17
sS'duration'
p18
L6L
sS'endtime'
p19
g14
(S'\x07\xd5\x03\x0b\x10\t1\x00\x00\x00'
p20
tp21
Rp22
sS'phonenumber_oid'
p23
L26L
s.(dp0
S'status'
p1
S''
p2
sS'direction'
p3
S'Outgoing'
p4
sS'remote'
p5
g2
sS'description'
p6
S'Voice Call'
p7
sS'callid'
p8
L1766L
sS'oid'
p9
L18045L
sS'number'
p10
g2
sS'person_oid'
p11
L94L
sS'contact'
p12
L40L
sS'starttime'
p13
cdatetime
datetime
p14
(S'\x07\xd5\x03\x0b\x10\t+\x00\x00\x00'
p15
tp16
Rp17
sS'duration'
p18
L6L
sS'endtime'
p19
g14
(S'\x07\xd5\x03\x0b\x10\t1\x00\x00\x00'
p20
tp21
Rp22
sS'phonenumber_oid'
p23
L26L
s.(dp0
S'status'
p1
S'Delivered'
p2
sS'direction'
p3
S'Incoming'
p4
sS'remote'
p5
S''
p6
sS'description'
p7
S'Short Message'
p8
sS'callid'
p9
L1767L
sS'oid'
p10
L18040L
sS'number'
p11
g6
sS'person_oid'
p12
L94L
sS'contact'
p13
L-1L
sS'starttime'
p14
cdatetime
datetime
p15
(S'\x07\xd5\x03\x0b\x16%6\x00\x00\x00'
p16
tp17
Rp18
sS'duration'
p19
L0L
sS'endtime'
p20
g15
(S'\x07\xd5\x03\x0b\x16%6\x00\x00\x00'
p21
tp22
Rp23
sS'phonenumber_oid'
p24
L7L
s.(dp0
S'status'
p1
S'Delivered'
p2
sS'direction'
p3
S'Incoming'
p4
sS'remote'
p5
S''
p6
sS'description'
p7
S'Short Message'
p8
sS'callid'
p9
L1767L
sS'oid'
p10
L18046L
sS'number'
p11
g6
sS'person_oid'
p12
L94L
sS'contact'
p13
L-1L
sS'starttime'
p14
cdatetime
datetime
p15
(S'\x07\xd5\x03\x0b\x16%6\x00\x00\x00'
p16
tp17
Rp18
sS'duration'
p19
L0L
sS'endtime'
p20
g15
(S'\x07\xd5\x03\x0b\x16%6\x00\x00\x00'
p21
tp22
Rp23
sS'phonenumber_oid'
p24
L7L
s.(dp0
S'status'
p1
S''
p2
sS'direction'
p3
S'Outgoing'
p4
sS'remote'
p5
g2
sS'description'
p6
S'Voice Call'
p7
sS'callid'
p8
L1770L
sS'oid'
p9
L18041L
sS'number'
p10
g2
sS'person_oid'
p11
L94L
sS'contact'
p12
L24L
sS'starttime'
p13
cdatetime
datetime
p14
(S'\x07\xd5\x03\x0b\x16(\x04\x00\x00\x00'
p15
tp16
Rp17
sS'duration'
p18
L66L
sS'endtime'
p19
g14
(S'\x07\xd5\x03\x0b\x16)\n\x00\x00\x00'
p20
tp21
Rp22
sS'phonenumber_oid'
p23
L1L
s.(dp0
S'status'
p1
S''
p2
sS'direction'
p3
S'Outgoing'
p4
sS'remote'
p5
g2
sS'description'
p6
S'Voice Call'
p7
sS'callid'
p8
L1770L
sS'oid'
p9
L18047L
sS'number'
p10
g2
sS'person_oid'
p11
L94L
sS'contact'
p12
L24L
sS'starttime'
p13
cdatetime
datetime
p14
(S'\x07\xd5\x03\x0b\x16(\x04\x00\x00\x00'
p15
tp16
Rp17
sS'duration'
p18
L66L
sS'endtime'
p19
g14
(S'\x07\xd5\x03\x0b\x16)\n\x00\x00\x00'
p20
tp21
Rp22
sS'phonenumber_oid'
p23
L1L
s.(dp0
S'status'
p1
S''
p2
sS'direction'
p3
S'Outgoing'
p4
sS'remote'
p5
g2
sS'description'
p6
S'Voice Call'
p7
sS'callid'
p8
L1773L
sS'oid'
p9
L18048L
sS'number'
p10
g2
sS'person_oid'
p11
L94L
sS'contact'
p12
L24L
sS'starttime'
p13
cdatetime
datetime
p14
(S'\x07\xd5\x03\x0c\x0f\x001\x00\x00\x00'
p15
tp16
Rp17
sS'duration'
p18
L9L
sS'endtime'
p19
g14
(S'\x07\xd5\x03\x0c\x0f\x00:\x00\x00\x00'
p20
tp21
Rp22
sS'phonenumber_oid'
p23
L1L
s.(dp0
S'status'
p1
S''
p2
sS'direction'
p3
S'Outgoing'
p4
sS'remote'
p5
g2
sS'description'
p6
S'Voice Call'
p7
sS'callid'
p8
L1773L
sS'oid'
p9
L18055L
sS'number'
p10
g2
sS'person_oid'
p11
L94L
sS'contact'
p12
L24L
sS'starttime'
p13
cdatetime
datetime
p14
(S'\x07\xd5\x03\x0c\x0f\x001\x00\x00\x00'
p15
tp16
Rp17
sS'duration'
p18
L9L
sS'endtime'
p19
g14
(S'\x07\xd5\x03\x0c\x0f\x00:\x00\x00\x00'
p20
tp21
Rp22
sS'phonenumber_oid'
p23
L1L
s.(dp0
S'status'
p1
S''
p2
sS'direction'
p3
S'Outgoing'
p4
sS'remote'
p5
g2
sS'description'
p6
S'Voice Call'
p7
sS'callid'
p8
L1774L
sS'oid'
p9
L18049L
sS'number'
p10
g2
sS'person_oid'
p11
L94L
sS'contact'
p12
L27L
sS'starttime'
p13
cdatetime
datetime
p14
(S'\x07\xd5\x03\x0c\x10.&\x00\x00\x00'
p15
tp16
Rp17
sS'duration'
p18
L6L
sS'endtime'
p19
g14
(S'\x07\xd5\x03\x0c\x10.,\x00\x00\x00'
p20
tp21
Rp22
sS'phonenumber_oid'
p23
L5L
s.(dp0
S'status'
p1
S''
p2
sS'direction'
p3
S'Outgoing'
p4
sS'remote'
p5
g2
sS'description'
p6
S'Voice Call'
p7
sS'callid'
p8
L1774L
sS'oid'
p9
L18056L
sS'number'
p10
g2
sS'person_oid'
p11
L94L
sS'contact'
p12
L27L
sS'starttime'
p13
cdatetime
datetime
p14
(S'\x07\xd5\x03\x0c\x10.&\x00\x00\x00'
p15
tp16
Rp17
sS'duration'
p18
L6L
sS'endtime'
p19
g14
(S'\x07\xd5\x03\x0c\x10.,\x00\x00\x00'
p20
tp21
Rp22
sS'phonenumber_oid'
p23
L5L
s.(dp0
S'status'
p1
S''
p2
sS'direction'
p3
S'Incoming'
p4
sS'remote'
p5
g2
sS'description'
p6
S'Voice Call'
p7
sS'callid'
p8
L1776L
sS'oid'
p9
L18050L
sS'number'
p10
g2
sS'person_oid'
p11
L94L
sS'contact'
p12
L27L
sS'starttime'
p13
cdatetime
datetime
p14
(S'\x07\xd5\x03\x0c\x101\x15\x00\x00\x00'
p15
tp16
Rp17
sS'duration'
p18
L0L
sS'endtime'
p19
g14
(S'\x07\xd5\x03\x0c\x101\x15\x00\x00\x00'
p20
tp21
Rp22
sS'phonenumber_oid'
p23
L5L
s.(dp0
S'status'
p1
S''
p2
sS'direction'
p3
S'Incoming'
p4
sS'remote'
p5
g2
sS'description'
p6
S'Voice Call'
p7
sS'callid'
p8
L1776L
sS'oid'
p9
L18057L
sS'number'
p10
g2
sS'person_oid'
p11
L94L
sS'contact'
p12
L27L
sS'starttime'
p13
cdatetime
datetime
p14
(S'\x07\xd5\x03\x0c\x101\x15\x00\x00\x00'
p15
tp16
Rp17
sS'duration'
p18
L0L
sS'endtime'
p19
g14
(S'\x07\xd5\x03\x0c\x101\x15\x00\x00\x00'
p20
tp21
Rp22
sS'phonenumber_oid'
p23
L5L
s.(dp0
S'status'
p1
S''
p2
sS'direction'
p3
S'Outgoing'
p4
sS'remote'
p5
g2
sS'description'
p6
S'Voice Call'
p7
sS'callid'
p8
L1777L
sS'oid'
p9
L18051L
sS'number'
p10
g2
sS'person_oid'
p11
L94L
sS'contact'
p12
L47L
sS'starttime'
p13
cdatetime
datetime
p14
(S'\x07\xd5\x03\x0c\x108\x16\x00\x00\x00'
p15
tp16
Rp17
sS'duration'
p18
L29L
sS'endtime'
p19
g14
(S'\x07\xd5\x03\x0c\x1083\x00\x00\x00'
p20
tp21
Rp22
sS'phonenumber_oid'
p23
L70L
s.(dp0
S'status'
p1
S''
p2
sS'direction'
p3
S'Outgoing'
p4
sS'remote'
p5
g2
sS'description'
p6
S'Voice Call'
p7
sS'callid'
p8
L1777L
sS'oid'
p9
L18058L
sS'number'
p10
g2
sS'person_oid'
p11
L94L
sS'contact'
p12
L47L
sS'starttime'
p13
cdatetime
datetime
p14
(S'\x07\xd5\x03\x0c\x108\x16\x00\x00\x00'
p15
tp16
Rp17
sS'duration'
p18
L29L
sS'endtime'
p19
g14
(S'\x07\xd5\x03\x0c\x1083\x00\x00\x00'
p20
tp21
Rp22
sS'phonenumber_oid'
p23
L70L
s.(dp0
S'status'
p1
S''
p2
sS'direction'
p3
S'Outgoing'
p4
sS'remote'
p5
g2
sS'description'
p6
S'Voice Call'
p7
sS'callid'
p8
L1778L
sS'oid'
p9
L18052L
sS'number'
p10
g2
sS'person_oid'
p11
L94L
sS'contact'
p12
L47L
sS'starttime'
p13
cdatetime
datetime
p14
(S'\x07\xd5\x03\x0c\x11\x08!\x00\x00\x00'
p15
tp16
Rp17
sS'duration'
p18
L42L
sS'endtime'
p19
g14
(S'\x07\xd5\x03\x0c\x11\t\x0f\x00\x00\x00'
p20
tp21
Rp22
sS'phonenumber_oid'
p23
L70L
s.(dp0
S'status'
p1
S''
p2
sS'direction'
p3
S'Outgoing'
p4
sS'remote'
p5
g2
sS'description'
p6
S'Voice Call'
p7
sS'callid'
p8
L1778L
sS'oid'
p9
L18059L
sS'number'
p10
g2
sS'person_oid'
p11
L94L
sS'contact'
p12
L47L
sS'starttime'
p13
cdatetime
datetime
p14
(S'\x07\xd5\x03\x0c\x11\x08!\x00\x00\x00'
p15
tp16
Rp17
sS'duration'
p18
L42L
sS'endtime'
p19
g14
(S'\x07\xd5\x03\x0c\x11\t\x0f\x00\x00\x00'
p20
tp21
Rp22
sS'phonenumber_oid'
p23
L70L
s.(dp0
S'status'
p1
S''
p2
sS'direction'
p3
S'Outgoing'
p4
sS'remote'
p5
g2
sS'description'
p6
S'Voice Call'
p7
sS'callid'
p8
L1779L
sS'oid'
p9
L18053L
sS'number'
p10
g2
sS'person_oid'
p11
L94L
sS'contact'
p12
L47L
sS'starttime'
p13
cdatetime
datetime
p14
(S'\x07\xd5\x03\x0c\x11\x0c\x01\x00\x00\x00'
p15
tp16
Rp17
sS'duration'
p18
L16L
sS'endtime'
p19
g14
(S'\x07\xd5\x03\x0c\x11\x0c\x11\x00\x00\x00'
p20
tp21
Rp22
sS'phonenumber_oid'
p23
L70L
s.(dp0
S'status'
p1
S''
p2
sS'direction'
p3
S'Outgoing'
p4
sS'remote'
p5
g2
sS'description'
p6
S'Voice Call'
p7
sS'callid'
p8
L1779L
sS'oid'
p9
L18060L
sS'number'
p10
g2
sS'person_oid'
p11
L94L
sS'contact'
p12
L47L
sS'starttime'
p13
cdatetime
datetime
p14
(S'\x07\xd5\x03\x0c\x11\x0c\x01\x00\x00\x00'
p15
tp16
Rp17
sS'duration'
p18
L16L
sS'endtime'
p19
g14
(S'\x07\xd5\x03\x0c\x11\x0c\x11\x00\x00\x00'
p20
tp21
Rp22
sS'phonenumber_oid'
p23
L70L
s.(dp0
S'status'
p1
S'Delivered'
p2
sS'direction'
p3
S'Incoming'
p4
sS'remote'
p5
S''
p6
sS'description'
p7
S'Short Message'
p8
sS'callid'
p9
L1781L
sS'oid'
p10
L18054L
sS'number'
p11
g6
sS'person_oid'
p12
L94L
sS'contact'
p13
L-1L
sS'starttime'
p14
cdatetime
datetime
p15
(S'\x07\xd5\x03\x0c\x12&7\x00\x00\x00'
p16
tp17
Rp18
sS'duration'
p19
L0L
sS'endtime'
p20
g15
(S'\x07\xd5\x03\x0c\x12&7\x00\x00\x00'
p21
tp22
Rp23
sS'phonenumber_oid'
p24
L7L
s.(dp0
S'status'
p1
S'Delivered'
p2
sS'direction'
p3
S'Incoming'
p4
sS'remote'
p5
S''
p6
sS'description'
p7
S'Short Message'
p8
sS'callid'
p9
L1781L
sS'oid'
p10
L18061L
sS'number'
p11
g6
sS'person_oid'
p12
L94L
sS'contact'
p13
L-1L
sS'starttime'
p14
cdatetime
datetime
p15
(S'\x07\xd5\x03\x0c\x12&7\x00\x00\x00'
p16
tp17
Rp18
sS'duration'
p19
L0L
sS'endtime'
p20
g15
(S'\x07\xd5\x03\x0c\x12&7\x00\x00\x00'
p21
tp22
Rp23
sS'phonenumber_oid'
p24
L7L
s.(dp0
S'status'
p1
S''
p2
sS'direction'
p3
S'Missed Call'
p4
sS'remote'
p5
g2
sS'description'
p6
S'Voice Call'
p7
sS'callid'
p8
L1783L
sS'oid'
p9
L18062L
sS'number'
p10
g2
sS'person_oid'
p11
L94L
sS'contact'
p12
L47L
sS'starttime'
p13
cdatetime
datetime
p14
(S'\x07\xd5\x03\r\r6\x03\x00\x00\x00'
p15
tp16
Rp17
sS'duration'
p18
L0L
sS'endtime'
p19
g14
(S'\x07\xd5\x03\r\r6\x03\x00\x00\x00'
p20
tp21
Rp22
sS'phonenumber_oid'
p23
L70L
s.(dp0
S'status'
p1
S''
p2
sS'direction'
p3
S'Missed Call'
p4
sS'remote'
p5
g2
sS'description'
p6
S'Voice Call'
p7
sS'callid'
p8
L1783L
sS'oid'
p9
L18070L
sS'number'
p10
g2
sS'person_oid'
p11
L94L
sS'contact'
p12
L47L
sS'starttime'
p13
cdatetime
datetime
p14
(S'\x07\xd5\x03\r\r6\x03\x00\x00\x00'
p15
tp16
Rp17
sS'duration'
p18
L0L
sS'endtime'
p19
g14
(S'\x07\xd5\x03\r\r6\x03\x00\x00\x00'
p20
tp21
Rp22
sS'phonenumber_oid'
p23
L70L
s.(dp0
S'status'
p1
S''
p2
sS'direction'
p3
S'Outgoing'
p4
sS'remote'
p5
g2
sS'description'
p6
S'Voice Call'
p7
sS'callid'
p8
L1784L
sS'oid'
p9
L18063L
sS'number'
p10
g2
sS'person_oid'
p11
L94L
sS'contact'
p12
L47L
sS'starttime'
p13
cdatetime
datetime
p14
(S'\x07\xd5\x03\r\r7\x02\x00\x00\x00'
p15
tp16
Rp17
sS'duration'
p18
L75L
sS'endtime'
p19
g14
(S'\x07\xd5\x03\r\r8\x11\x00\x00\x00'
p20
tp21
Rp22
sS'phonenumber_oid'
p23
L70L
s.(dp0
S'status'
p1
S''
p2
sS'direction'
p3
S'Outgoing'
p4
sS'remote'
p5
g2
sS'description'
p6
S'Voice Call'
p7
sS'callid'
p8
L1784L
sS'oid'
p9
L18071L
sS'number'
p10
g2
sS'person_oid'
p11
L94L
sS'contact'
p12
L47L
sS'starttime'
p13
cdatetime
datetime
p14
(S'\x07\xd5\x03\r\r7\x02\x00\x00\x00'
p15
tp16
Rp17
sS'duration'
p18
L75L
sS'endtime'
p19
g14
(S'\x07\xd5\x03\r\r8\x11\x00\x00\x00'
p20
tp21
Rp22
sS'phonenumber_oid'
p23
L70L
s.(dp0
S'status'
p1
S''
p2
sS'direction'
p3
S'Outgoing'
p4
sS'remote'
p5
g2
sS'description'
p6
S'Voice Call'
p7
sS'callid'
p8
L1785L
sS'oid'
p9
L18064L
sS'number'
p10
g2
sS'person_oid'
p11
L94L
sS'contact'
p12
L47L
sS'starttime'
p13
cdatetime
datetime
p14
(S'\x07\xd5\x03\r\x0e\x1d%\x00\x00\x00'
p15
tp16
Rp17
sS'duration'
p18
L17L
sS'endtime'
p19
g14
(S'\x07\xd5\x03\r\x0e\x1d6\x00\x00\x00'
p20
tp21
Rp22
sS'phonenumber_oid'
p23
L70L
s.(dp0
S'status'
p1
S''
p2
sS'direction'
p3
S'Outgoing'
p4
sS'remote'
p5
g2
sS'description'
p6
S'Voice Call'
p7
sS'callid'
p8
L1785L
sS'oid'
p9
L18072L
sS'number'
p10
g2
sS'person_oid'
p11
L94L
sS'contact'
p12
L47L
sS'starttime'
p13
cdatetime
datetime
p14
(S'\x07\xd5\x03\r\x0e\x1d%\x00\x00\x00'
p15
tp16
Rp17
sS'duration'
p18
L17L
sS'endtime'
p19
g14
(S'\x07\xd5\x03\r\x0e\x1d6\x00\x00\x00'
p20
tp21
Rp22
sS'phonenumber_oid'
p23
L70L
s.(dp0
S'status'
p1
S''
p2
sS'direction'
p3
S'Outgoing'
p4
sS'remote'
p5
g2
sS'description'
p6
S'Voice Call'
p7
sS'callid'
p8
L1786L
sS'oid'
p9
L18065L
sS'number'
p10
g2
sS'person_oid'
p11
L94L
sS'contact'
p12
L47L
sS'starttime'
p13
cdatetime
datetime
p14
(S'\x07\xd5\x03\r\x14\x18 \x00\x00\x00'
p15
tp16
Rp17
sS'duration'
p18
L9L
sS'endtime'
p19
g14
(S'\x07\xd5\x03\r\x14\x18)\x00\x00\x00'
p20
tp21
Rp22
sS'phonenumber_oid'
p23
L70L
s.(dp0
S'status'
p1
S''
p2
sS'direction'
p3
S'Outgoing'
p4
sS'remote'
p5
g2
sS'description'
p6
S'Voice Call'
p7
sS'callid'
p8
L1786L
sS'oid'
p9
L18073L
sS'number'
p10
g2
sS'person_oid'
p11
L94L
sS'contact'
p12
L47L
sS'starttime'
p13
cdatetime
datetime
p14
(S'\x07\xd5\x03\r\x14\x18 \x00\x00\x00'
p15
tp16
Rp17
sS'duration'
p18
L9L
sS'endtime'
p19
g14
(S'\x07\xd5\x03\r\x14\x18)\x00\x00\x00'
p20
tp21
Rp22
sS'phonenumber_oid'
p23
L70L
s.(dp0
S'status'
p1
S''
p2
sS'direction'
p3
S'Outgoing'
p4
sS'remote'
p5
g2
sS'description'
p6
S'Voice Call'
p7
sS'callid'
p8
L1790L
sS'oid'
p9
L18066L
sS'number'
p10
g2
sS'person_oid'
p11
L94L
sS'contact'
p12
L47L
sS'starttime'
p13
cdatetime
datetime
p14
(S'\x07\xd5\x03\r\x14\x1d\x03\x00\x00\x00'
p15
tp16
Rp17
sS'duration'
p18
L0L
sS'endtime'
p19
g14
(S'\x07\xd5\x03\r\x14\x1d\x03\x00\x00\x00'
p20
tp21
Rp22
sS'phonenumber_oid'
p23
L70L
s.(dp0
S'status'
p1
S''
p2
sS'direction'
p3
S'Outgoing'
p4
sS'remote'
p5
g2
sS'description'
p6
S'Voice Call'
p7
sS'callid'
p8
L1790L
sS'oid'
p9
L18074L
sS'number'
p10
g2
sS'person_oid'
p11
L94L
sS'contact'
p12
L47L
sS'starttime'
p13
cdatetime
datetime
p14
(S'\x07\xd5\x03\r\x14\x1d\x03\x00\x00\x00'
p15
tp16
Rp17
sS'duration'
p18
L0L
sS'endtime'
p19
g14
(S'\x07\xd5\x03\r\x14\x1d\x03\x00\x00\x00'
p20
tp21
Rp22
sS'phonenumber_oid'
p23
L70L
s.(dp0
S'status'
p1
S''
p2
sS'direction'
p3
S'Outgoing'
p4
sS'remote'
p5
g2
sS'description'
p6
S'Voice Call'
p7
sS'callid'
p8
L1791L
sS'oid'
p9
L18067L
sS'number'
p10
g2
sS'person_oid'
p11
L94L
sS'contact'
p12
L47L
sS'starttime'
p13
cdatetime
datetime
p14
(S'\x07\xd5\x03\x0e\x008\x15\x00\x00\x00'
p15
tp16
Rp17
sS'duration'
p18
L2L
sS'endtime'
p19
g14
(S'\x07\xd5\x03\x0e\x008\x17\x00\x00\x00'
p20
tp21
Rp22
sS'phonenumber_oid'
p23
L70L
s.(dp0
S'status'
p1
S''
p2
sS'direction'
p3
S'Outgoing'
p4
sS'remote'
p5
g2
sS'description'
p6
S'Voice Call'
p7
sS'callid'
p8
L1791L
sS'oid'
p9
L18075L
sS'number'
p10
g2
sS'person_oid'
p11
L94L
sS'contact'
p12
L47L
sS'starttime'
p13
cdatetime
datetime
p14
(S'\x07\xd5\x03\x0e\x008\x15\x00\x00\x00'
p15
tp16
Rp17
sS'duration'
p18
L2L
sS'endtime'
p19
g14
(S'\x07\xd5\x03\x0e\x008\x17\x00\x00\x00'
p20
tp21
Rp22
sS'phonenumber_oid'
p23
L70L
s.(dp0
S'status'
p1
S''
p2
sS'direction'
p3
S'Outgoing'
p4
sS'remote'
p5
g2
sS'description'
p6
S'Voice Call'
p7
sS'callid'
p8
L1792L
sS'oid'
p9
L18068L
sS'number'
p10
g2
sS'person_oid'
p11
L94L
sS'contact'
p12
L24L
sS'starttime'
p13
cdatetime
datetime
p14
(S'\x07\xd5\x03\x0e\x01%\x0b\x00\x00\x00'
p15
tp16
Rp17
sS'duration'
p18
L7L
sS'endtime'
p19
g14
(S'\x07\xd5\x03\x0e\x01%\x12\x00\x00\x00'
p20
tp21
Rp22
sS'phonenumber_oid'
p23
L1L
s.(dp0
S'status'
p1
S''
p2
sS'direction'
p3
S'Outgoing'
p4
sS'remote'
p5
g2
sS'description'
p6
S'Voice Call'
p7
sS'callid'
p8
L1792L
sS'oid'
p9
L18076L
sS'number'
p10
g2
sS'person_oid'
p11
L94L
sS'contact'
p12
L24L
sS'starttime'
p13
cdatetime
datetime
p14
(S'\x07\xd5\x03\x0e\x01%\x0b\x00\x00\x00'
p15
tp16
Rp17
sS'duration'
p18
L7L
sS'endtime'
p19
g14
(S'\x07\xd5\x03\x0e\x01%\x12\x00\x00\x00'
p20
tp21
Rp22
sS'phonenumber_oid'
p23
L1L
s.(dp0
S'status'
p1
S''
p2
sS'direction'
p3
S'Outgoing'
p4
sS'remote'
p5
g2
sS'description'
p6
S'Voice Call'
p7
sS'callid'
p8
L1793L
sS'oid'
p9
L18069L
sS'number'
p10
g2
sS'person_oid'
p11
L94L
sS'contact'
p12
L25L
sS'starttime'
p13
cdatetime
datetime
p14
(S'\x07\xd5\x03\x0e\x017\x1c\x00\x00\x00'
p15
tp16
Rp17
sS'duration'
p18
L570L
sS'endtime'
p19
g14
(S'\x07\xd5\x03\x0e\x02\x04:\x00\x00\x00'
p20
tp21
Rp22
sS'phonenumber_oid'
p23
L17L
s.(dp0
S'status'
p1
S''
p2
sS'direction'
p3
S'Outgoing'
p4
sS'remote'
p5
g2
sS'description'
p6
S'Voice Call'
p7
sS'callid'
p8
L1793L
sS'oid'
p9
L18077L
sS'number'
p10
g2
sS'person_oid'
p11
L94L
sS'contact'
p12
L25L
sS'starttime'
p13
cdatetime
datetime
p14
(S'\x07\xd5\x03\x0e\x017\x1c\x00\x00\x00'
p15
tp16
Rp17
sS'duration'
p18
L570L
sS'endtime'
p19
g14
(S'\x07\xd5\x03\x0e\x02\x04:\x00\x00\x00'
p20
tp21
Rp22
sS'phonenumber_oid'
p23
L17L
s.(dp0
S'status'
p1
S''
p2
sS'direction'
p3
S'Outgoing'
p4
sS'remote'
p5
g2
sS'description'
p6
S'Voice Call'
p7
sS'callid'
p8
L1800L
sS'oid'
p9
L18078L
sS'number'
p10
g2
sS'person_oid'
p11
L94L
sS'contact'
p12
L24L
sS'starttime'
p13
cdatetime
datetime
p14
(S'\x07\xd5\x03\x0f\x17\x02#\x00\x00\x00'
p15
tp16
Rp17
sS'duration'
p18
L3L
sS'endtime'
p19
g14
(S'\x07\xd5\x03\x0f\x17\x02&\x00\x00\x00'
p20
tp21
Rp22
sS'phonenumber_oid'
p23
L1L
s.(dp0
S'status'
p1
S''
p2
sS'direction'
p3
S'Outgoing'
p4
sS'remote'
p5
g2
sS'description'
p6
S'Voice Call'
p7
sS'callid'
p8
L1800L
sS'oid'
p9
L18083L
sS'number'
p10
g2
sS'person_oid'
p11
L94L
sS'contact'
p12
L24L
sS'starttime'
p13
cdatetime
datetime
p14
(S'\x07\xd5\x03\x0f\x17\x02#\x00\x00\x00'
p15
tp16
Rp17
sS'duration'
p18
L3L
sS'endtime'
p19
g14
(S'\x07\xd5\x03\x0f\x17\x02&\x00\x00\x00'
p20
tp21
Rp22
sS'phonenumber_oid'
p23
L1L
s.(dp0
S'status'
p1
S''
p2
sS'direction'
p3
S'Outgoing'
p4
sS'remote'
p5
g2
sS'description'
p6
S'Voice Call'
p7
sS'callid'
p8
L1801L
sS'oid'
p9
L18079L
sS'number'
p10
g2
sS'person_oid'
p11
L94L
sS'contact'
p12
L25L
sS'starttime'
p13
cdatetime
datetime
p14
(S'\x07\xd5\x03\x0f\x17\x03\x07\x00\x00\x00'
p15
tp16
Rp17
sS'duration'
p18
L3L
sS'endtime'
p19
g14
(S'\x07\xd5\x03\x0f\x17\x03\n\x00\x00\x00'
p20
tp21
Rp22
sS'phonenumber_oid'
p23
L17L
s.(dp0
S'status'
p1
S''
p2
sS'direction'
p3
S'Outgoing'
p4
sS'remote'
p5
g2
sS'description'
p6
S'Voice Call'
p7
sS'callid'
p8
L1801L
sS'oid'
p9
L18084L
sS'number'
p10
g2
sS'person_oid'
p11
L94L
sS'contact'
p12
L25L
sS'starttime'
p13
cdatetime
datetime
p14
(S'\x07\xd5\x03\x0f\x17\x03\x07\x00\x00\x00'
p15
tp16
Rp17
sS'duration'
p18
L3L
sS'endtime'
p19
g14
(S'\x07\xd5\x03\x0f\x17\x03\n\x00\x00\x00'
p20
tp21
Rp22
sS'phonenumber_oid'
p23
L17L
s.(dp0
S'status'
p1
S''
p2
sS'direction'
p3
S'Incoming'
p4
sS'remote'
p5
g2
sS'description'
p6
S'Voice Call'
p7
sS'callid'
p8
L1803L
sS'oid'
p9
L18080L
sS'number'
p10
g2
sS'person_oid'
p11
L94L
sS'contact'
p12
L7L
sS'starttime'
p13
cdatetime
datetime
p14
(S'\x07\xd5\x03\x0f\x17\x0e\x00\x00\x00\x00'
p15
tp16
Rp17
sS'duration'
p18
L95L
sS'endtime'
p19
g14
(S'\x07\xd5\x03\x0f\x17\x0f#\x00\x00\x00'
p20
tp21
Rp22
sS'phonenumber_oid'
p23
L6L
s.(dp0
S'status'
p1
S''
p2
sS'direction'
p3
S'Incoming'
p4
sS'remote'
p5
g2
sS'description'
p6
S'Voice Call'
p7
sS'callid'
p8
L1803L
sS'oid'
p9
L18085L
sS'number'
p10
g2
sS'person_oid'
p11
L94L
sS'contact'
p12
L7L
sS'starttime'
p13
cdatetime
datetime
p14
(S'\x07\xd5\x03\x0f\x17\x0e\x00\x00\x00\x00'
p15
tp16
Rp17
sS'duration'
p18
L95L
sS'endtime'
p19
g14
(S'\x07\xd5\x03\x0f\x17\x0f#\x00\x00\x00'
p20
tp21
Rp22
sS'phonenumber_oid'
p23
L6L
s.(dp0
S'status'
p1
S''
p2
sS'direction'
p3
S'Missed Call'
p4
sS'remote'
p5
g2
sS'description'
p6
S'Voice Call'
p7
sS'callid'
p8
L1804L
sS'oid'
p9
L18081L
sS'number'
p10
g2
sS'person_oid'
p11
L94L
sS'contact'
p12
L24L
sS'starttime'
p13
cdatetime
datetime
p14
(S'\x07\xd5\x03\x0f\x179!\x00\x00\x00'
p15
tp16
Rp17
sS'duration'
p18
L0L
sS'endtime'
p19
g14
(S'\x07\xd5\x03\x0f\x179!\x00\x00\x00'
p20
tp21
Rp22
sS'phonenumber_oid'
p23
L1L
s.(dp0
S'status'
p1
S''
p2
sS'direction'
p3
S'Missed Call'
p4
sS'remote'
p5
g2
sS'description'
p6
S'Voice Call'
p7
sS'callid'
p8
L1804L
sS'oid'
p9
L18086L
sS'number'
p10
g2
sS'person_oid'
p11
L94L
sS'contact'
p12
L24L
sS'starttime'
p13
cdatetime
datetime
p14
(S'\x07\xd5\x03\x0f\x179!\x00\x00\x00'
p15
tp16
Rp17
sS'duration'
p18
L0L
sS'endtime'
p19
g14
(S'\x07\xd5\x03\x0f\x179!\x00\x00\x00'
p20
tp21
Rp22
sS'phonenumber_oid'
p23
L1L
s.(dp0
S'status'
p1
S''
p2
sS'direction'
p3
S'Outgoing'
p4
sS'remote'
p5
g2
sS'description'
p6
S'Voice Call'
p7
sS'callid'
p8
L1805L
sS'oid'
p9
L18082L
sS'number'
p10
g2
sS'person_oid'
p11
L94L
sS'contact'
p12
L24L
sS'starttime'
p13
cdatetime
datetime
p14
(S'\x07\xd5\x03\x0f\x17:\x05\x00\x00\x00'
p15
tp16
Rp17
sS'duration'
p18
L0L
sS'endtime'
p19
g14
(S'\x07\xd5\x03\x0f\x17:\x05\x00\x00\x00'
p20
tp21
Rp22
sS'phonenumber_oid'
p23
L1L
s.(dp0
S'status'
p1
S''
p2
sS'direction'
p3
S'Outgoing'
p4
sS'remote'
p5
g2
sS'description'
p6
S'Voice Call'
p7
sS'callid'
p8
L1805L
sS'oid'
p9
L18087L
sS'number'
p10
g2
sS'person_oid'
p11
L94L
sS'contact'
p12
L24L
sS'starttime'
p13
cdatetime
datetime
p14
(S'\x07\xd5\x03\x0f\x17:\x05\x00\x00\x00'
p15
tp16
Rp17
sS'duration'
p18
L0L
sS'endtime'
p19
g14
(S'\x07\xd5\x03\x0f\x17:\x05\x00\x00\x00'
p20
tp21
Rp22
sS'phonenumber_oid'
p23
L1L
s.(dp0
S'status'
p1
S''
p2
sS'direction'
p3
S'Outgoing'
p4
sS'remote'
p5
g2
sS'description'
p6
S'Voice Call'
p7
sS'callid'
p8
L1806L
sS'oid'
p9
L18088L
sS'number'
p10
g2
sS'person_oid'
p11
L94L
sS'contact'
p12
L24L
sS'starttime'
p13
cdatetime
datetime
p14
(S'\x07\xd5\x03\x10\x167\r\x00\x00\x00'
p15
tp16
Rp17
sS'duration'
p18
L142L
sS'endtime'
p19
g14
(S'\x07\xd5\x03\x10\x169#\x00\x00\x00'
p20
tp21
Rp22
sS'phonenumber_oid'
p23
L1L
s.(dp0
S'status'
p1
S''
p2
sS'direction'
p3
S'Outgoing'
p4
sS'remote'
p5
g2
sS'description'
p6
S'Voice Call'
p7
sS'callid'
p8
L1806L
sS'oid'
p9
L18092L
sS'number'
p10
g2
sS'person_oid'
p11
L94L
sS'contact'
p12
L24L
sS'starttime'
p13
cdatetime
datetime
p14
(S'\x07\xd5\x03\x10\x167\r\x00\x00\x00'
p15
tp16
Rp17
sS'duration'
p18
L142L
sS'endtime'
p19
g14
(S'\x07\xd5\x03\x10\x169#\x00\x00\x00'
p20
tp21
Rp22
sS'phonenumber_oid'
p23
L1L
s.(dp0
S'status'
p1
S''
p2
sS'direction'
p3
S'Outgoing'
p4
sS'remote'
p5
g2
sS'description'
p6
S'Voice Call'
p7
sS'callid'
p8
L1807L
sS'oid'
p9
L18089L
sS'number'
p10
g2
sS'person_oid'
p11
L94L
sS'contact'
p12
L24L
sS'starttime'
p13
cdatetime
datetime
p14
(S'\x07\xd5\x03\x11\x00\x064\x00\x00\x00'
p15
tp16
Rp17
sS'duration'
p18
L8L
sS'endtime'
p19
g14
(S'\x07\xd5\x03\x11\x00\x07\x00\x00\x00\x00'
p20
tp21
Rp22
sS'phonenumber_oid'
p23
L1L
s.(dp0
S'status'
p1
S''
p2
sS'direction'
p3
S'Outgoing'
p4
sS'remote'
p5
g2
sS'description'
p6
S'Voice Call'
p7
sS'callid'
p8
L1807L
sS'oid'
p9
L18093L
sS'number'
p10
g2
sS'person_oid'
p11
L94L
sS'contact'
p12
L24L
sS'starttime'
p13
cdatetime
datetime
p14
(S'\x07\xd5\x03\x11\x00\x064\x00\x00\x00'
p15
tp16
Rp17
sS'duration'
p18
L8L
sS'endtime'
p19
g14
(S'\x07\xd5\x03\x11\x00\x07\x00\x00\x00\x00'
p20
tp21
Rp22
sS'phonenumber_oid'
p23
L1L
s.(dp0
S'status'
p1
S''
p2
sS'direction'
p3
S'Incoming'
p4
sS'remote'
p5
g2
sS'description'
p6
S'Voice Call'
p7
sS'callid'
p8
L1809L
sS'oid'
p9
L18090L
sS'number'
p10
g2
sS'person_oid'
p11
L94L
sS'contact'
p12
L24L
sS'starttime'
p13
cdatetime
datetime
p14
(S'\x07\xd5\x03\x11\x00\x07\x1b\x00\x00\x00'
p15
tp16
Rp17
sS'duration'
p18
L13L
sS'endtime'
p19
g14
(S'\x07\xd5\x03\x11\x00\x07(\x00\x00\x00'
p20
tp21
Rp22
sS'phonenumber_oid'
p23
L1L
s.(dp0
S'status'
p1
S''
p2
sS'direction'
p3
S'Incoming'
p4
sS'remote'
p5
g2
sS'description'
p6
S'Voice Call'
p7
sS'callid'
p8
L1809L
sS'oid'
p9
L18094L
sS'number'
p10
g2
sS'person_oid'
p11
L94L
sS'contact'
p12
L24L
sS'starttime'
p13
cdatetime
datetime
p14
(S'\x07\xd5\x03\x11\x00\x07\x1b\x00\x00\x00'
p15
tp16
Rp17
sS'duration'
p18
L13L
sS'endtime'
p19
g14
(S'\x07\xd5\x03\x11\x00\x07(\x00\x00\x00'
p20
tp21
Rp22
sS'phonenumber_oid'
p23
L1L
s.(dp0
S'status'
p1
S''
p2
sS'direction'
p3
S'Incoming'
p4
sS'remote'
p5
g2
sS'description'
p6
S'Voice Call'
p7
sS'callid'
p8
L1811L
sS'oid'
p9
L18091L
sS'number'
p10
g2
sS'person_oid'
p11
L94L
sS'contact'
p12
L24L
sS'starttime'
p13
cdatetime
datetime
p14
(S'\x07\xd5\x03\x11\x00\x14\x19\x00\x00\x00'
p15
tp16
Rp17
sS'duration'
p18
L72L
sS'endtime'
p19
g14
(S'\x07\xd5\x03\x11\x00\x15%\x00\x00\x00'
p20
tp21
Rp22
sS'phonenumber_oid'
p23
L1L
s.(dp0
S'status'
p1
S''
p2
sS'direction'
p3
S'Incoming'
p4
sS'remote'
p5
g2
sS'description'
p6
S'Voice Call'
p7
sS'callid'
p8
L1811L
sS'oid'
p9
L18095L
sS'number'
p10
g2
sS'person_oid'
p11
L94L
sS'contact'
p12
L24L
sS'starttime'
p13
cdatetime
datetime
p14
(S'\x07\xd5\x03\x11\x00\x14\x19\x00\x00\x00'
p15
tp16
Rp17
sS'duration'
p18
L72L
sS'endtime'
p19
g14
(S'\x07\xd5\x03\x11\x00\x15%\x00\x00\x00'
p20
tp21
Rp22
sS'phonenumber_oid'
p23
L1L
s.(dp0
S'status'
p1
S''
p2
sS'direction'
p3
S'Outgoing'
p4
sS'remote'
p5
g2
sS'description'
p6
S'Voice Call'
p7
sS'callid'
p8
L1812L
sS'oid'
p9
L18096L
sS'number'
p10
g2
sS'person_oid'
p11
L94L
sS'contact'
p12
L27L
sS'starttime'
p13
cdatetime
datetime
p14
(S'\x07\xd5\x03\x12\x01\x01\x11\x00\x00\x00'
p15
tp16
Rp17
sS'duration'
p18
L13L
sS'endtime'
p19
g14
(S'\x07\xd5\x03\x12\x01\x01\x1e\x00\x00\x00'
p20
tp21
Rp22
sS'phonenumber_oid'
p23
L5L
s.(dp0
S'status'
p1
S''
p2
sS'direction'
p3
S'Outgoing'
p4
sS'remote'
p5
g2
sS'description'
p6
S'Voice Call'
p7
sS'callid'
p8
L1812L
sS'oid'
p9
L18097L
sS'number'
p10
g2
sS'person_oid'
p11
L94L
sS'contact'
p12
L27L
sS'starttime'
p13
cdatetime
datetime
p14
(S'\x07\xd5\x03\x12\x01\x01\x11\x00\x00\x00'
p15
tp16
Rp17
sS'duration'
p18
L13L
sS'endtime'
p19
g14
(S'\x07\xd5\x03\x12\x01\x01\x1e\x00\x00\x00'
p20
tp21
Rp22
sS'phonenumber_oid'
p23
L5L
s.(dp0
S'status'
p1
S''
p2
sS'direction'
p3
S'Outgoing'
p4
sS'remote'
p5
g2
sS'description'
p6
S'Voice Call'
p7
sS'callid'
p8
L1815L
sS'oid'
p9
L18098L
sS'number'
p10
g2
sS'person_oid'
p11
L94L
sS'contact'
p12
L24L
sS'starttime'
p13
cdatetime
datetime
p14
(S'\x07\xd5\x03\x12\x16\x009\x00\x00\x00'
p15
tp16
Rp17
sS'duration'
p18
L7L
sS'endtime'
p19
g14
(S'\x07\xd5\x03\x12\x16\x01\x04\x00\x00\x00'
p20
tp21
Rp22
sS'phonenumber_oid'
p23
L1L
s.(dp0
S'status'
p1
S''
p2
sS'direction'
p3
S'Outgoing'
p4
sS'remote'
p5
g2
sS'description'
p6
S'Voice Call'
p7
sS'callid'
p8
L1815L
sS'oid'
p9
L18103L
sS'number'
p10
g2
sS'person_oid'
p11
L94L
sS'contact'
p12
L24L
sS'starttime'
p13
cdatetime
datetime
p14
(S'\x07\xd5\x03\x12\x16\x009\x00\x00\x00'
p15
tp16
Rp17
sS'duration'
p18
L7L
sS'endtime'
p19
g14
(S'\x07\xd5\x03\x12\x16\x01\x04\x00\x00\x00'
p20
tp21
Rp22
sS'phonenumber_oid'
p23
L1L
s.(dp0
S'status'
p1
S''
p2
sS'direction'
p3
S'Incoming'
p4
sS'remote'
p5
g2
sS'description'
p6
S'Voice Call'
p7
sS'callid'
p8
L1817L
sS'oid'
p9
L18099L
sS'number'
p10
g2
sS'person_oid'
p11
L94L
sS'contact'
p12
L24L
sS'starttime'
p13
cdatetime
datetime
p14
(S'\x07\xd5\x03\x12\x16\x024\x00\x00\x00'
p15
tp16
Rp17
sS'duration'
p18
L155L
sS'endtime'
p19
g14
(S'\x07\xd5\x03\x12\x16\x05\x1b\x00\x00\x00'
p20
tp21
Rp22
sS'phonenumber_oid'
p23
L1L
s.(dp0
S'status'
p1
S''
p2
sS'direction'
p3
S'Incoming'
p4
sS'remote'
p5
g2
sS'description'
p6
S'Voice Call'
p7
sS'callid'
p8
L1817L
sS'oid'
p9
L18104L
sS'number'
p10
g2
sS'person_oid'
p11
L94L
sS'contact'
p12
L24L
sS'starttime'
p13
cdatetime
datetime
p14
(S'\x07\xd5\x03\x12\x16\x024\x00\x00\x00'
p15
tp16
Rp17
sS'duration'
p18
L155L
sS'endtime'
p19
g14
(S'\x07\xd5\x03\x12\x16\x05\x1b\x00\x00\x00'
p20
tp21
Rp22
sS'phonenumber_oid'
p23
L1L
s.(dp0
S'status'
p1
S''
p2
sS'direction'
p3
S'Incoming'
p4
sS'remote'
p5
g2
sS'description'
p6
S'Voice Call'
p7
sS'callid'
p8
L1819L
sS'oid'
p9
L18100L
sS'number'
p10
g2
sS'person_oid'
p11
L94L
sS'contact'
p12
L24L
sS'starttime'
p13
cdatetime
datetime
p14
(S'\x07\xd5\x03\x12\x16\x08\r\x00\x00\x00'
p15
tp16
Rp17
sS'duration'
p18
L100L
sS'endtime'
p19
g14
(S'\x07\xd5\x03\x12\x16\t5\x00\x00\x00'
p20
tp21
Rp22
sS'phonenumber_oid'
p23
L1L
s.(dp0
S'status'
p1
S''
p2
sS'direction'
p3
S'Incoming'
p4
sS'remote'
p5
g2
sS'description'
p6
S'Voice Call'
p7
sS'callid'
p8
L1819L
sS'oid'
p9
L18105L
sS'number'
p10
g2
sS'person_oid'
p11
L94L
sS'contact'
p12
L24L
sS'starttime'
p13
cdatetime
datetime
p14
(S'\x07\xd5\x03\x12\x16\x08\r\x00\x00\x00'
p15
tp16
Rp17
sS'duration'
p18
L100L
sS'endtime'
p19
g14
(S'\x07\xd5\x03\x12\x16\t5\x00\x00\x00'
p20
tp21
Rp22
sS'phonenumber_oid'
p23
L1L
s.(dp0
S'status'
p1
S''
p2
sS'direction'
p3
S'Outgoing'
p4
sS'remote'
p5
g2
sS'description'
p6
S'Voice Call'
p7
sS'callid'
p8
L1820L
sS'oid'
p9
L18101L
sS'number'
p10
g2
sS'person_oid'
p11
L94L
sS'contact'
p12
L24L
sS'starttime'
p13
cdatetime
datetime
p14
(S'\x07\xd5\x03\x12\x16\n+\x00\x00\x00'
p15
tp16
Rp17
sS'duration'
p18
L33L
sS'endtime'
p19
g14
(S'\x07\xd5\x03\x12\x16\x0b\x10\x00\x00\x00'
p20
tp21
Rp22
sS'phonenumber_oid'
p23
L1L
s.(dp0
S'status'
p1
S''
p2
sS'direction'
p3
S'Outgoing'
p4
sS'remote'
p5
g2
sS'description'
p6
S'Voice Call'
p7
sS'callid'
p8
L1820L
sS'oid'
p9
L18106L
sS'number'
p10
g2
sS'person_oid'
p11
L94L
sS'contact'
p12
L24L
sS'starttime'
p13
cdatetime
datetime
p14
(S'\x07\xd5\x03\x12\x16\n+\x00\x00\x00'
p15
tp16
Rp17
sS'duration'
p18
L33L
sS'endtime'
p19
g14
(S'\x07\xd5\x03\x12\x16\x0b\x10\x00\x00\x00'
p20
tp21
Rp22
sS'phonenumber_oid'
p23
L1L
s.(dp0
S'status'
p1
S''
p2
sS'direction'
p3
S'Incoming'
p4
sS'remote'
p5
g2
sS'description'
p6
S'Voice Call'
p7
sS'callid'
p8
L1822L
sS'oid'
p9
L18102L
sS'number'
p10
g2
sS'person_oid'
p11
L94L
sS'contact'
p12
L24L
sS'starttime'
p13
cdatetime
datetime
p14
(S'\x07\xd5\x03\x13\x01\x10$\x00\x00\x00'
p15
tp16
Rp17
sS'duration'
p18
L14L
sS'endtime'
p19
g14
(S'\x07\xd5\x03\x13\x01\x102\x00\x00\x00'
p20
tp21
Rp22
sS'phonenumber_oid'
p23
L1L
s.(dp0
S'status'
p1
S''
p2
sS'direction'
p3
S'Incoming'
p4
sS'remote'
p5
g2
sS'description'
p6
S'Voice Call'
p7
sS'callid'
p8
L1822L
sS'oid'
p9
L18107L
sS'number'
p10
g2
sS'person_oid'
p11
L94L
sS'contact'
p12
L24L
sS'starttime'
p13
cdatetime
datetime
p14
(S'\x07\xd5\x03\x13\x01\x10$\x00\x00\x00'
p15
tp16
Rp17
sS'duration'
p18
L14L
sS'endtime'
p19
g14
(S'\x07\xd5\x03\x13\x01\x102\x00\x00\x00'
p20
tp21
Rp22
sS'phonenumber_oid'
p23
L1L
s.(dp0
S'status'
p1
S''
p2
sS'direction'
p3
S'Missed Call'
p4
sS'remote'
p5
g2
sS'description'
p6
S'Voice Call'
p7
sS'callid'
p8
L1825L
sS'oid'
p9
L18108L
sS'number'
p10
g2
sS'person_oid'
p11
L94L
sS'contact'
p12
L27L
sS'starttime'
p13
cdatetime
datetime
p14
(S'\x07\xd5\x03\x15\x14.\x0b\x00\x00\x00'
p15
tp16
Rp17
sS'duration'
p18
L0L
sS'endtime'
p19
g14
(S'\x07\xd5\x03\x15\x14.\x0b\x00\x00\x00'
p20
tp21
Rp22
sS'phonenumber_oid'
p23
L5L
s.(dp0
S'status'
p1
S''
p2
sS'direction'
p3
S'Outgoing'
p4
sS'remote'
p5
g2
sS'description'
p6
S'Voice Call'
p7
sS'callid'
p8
L1826L
sS'oid'
p9
L18109L
sS'number'
p10
g2
sS'person_oid'
p11
L94L
sS'contact'
p12
L27L
sS'starttime'
p13
cdatetime
datetime
p14
(S'\x07\xd5\x03\x15\x15\x04\x17\x00\x00\x00'
p15
tp16
Rp17
sS'duration'
p18
L0L
sS'endtime'
p19
g14
(S'\x07\xd5\x03\x15\x15\x04\x17\x00\x00\x00'
p20
tp21
Rp22
sS'phonenumber_oid'
p23
L5L
s.(dp0
S'status'
p1
S''
p2
sS'direction'
p3
S'Outgoing'
p4
sS'remote'
p5
g2
sS'description'
p6
S'Voice Call'
p7
sS'callid'
p8
L1827L
sS'oid'
p9
L18110L
sS'number'
p10
g2
sS'person_oid'
p11
L94L
sS'contact'
p12
L48L
sS'starttime'
p13
cdatetime
datetime
p14
(S'\x07\xd5\x03\x17\x12\x1d\x00\x00\x00\x00'
p15
tp16
Rp17
sS'duration'
p18
L90L
sS'endtime'
p19
g14
(S'\x07\xd5\x03\x17\x12\x1e\x1e\x00\x00\x00'
p20
tp21
Rp22
sS'phonenumber_oid'
p23
L71L
s.(dp0
S'status'
p1
S''
p2
sS'direction'
p3
S'Outgoing'
p4
sS'remote'
p5
g2
sS'description'
p6
S'Voice Call'
p7
sS'callid'
p8
L1827L
sS'oid'
p9
L18112L
sS'number'
p10
g2
sS'person_oid'
p11
L94L
sS'contact'
p12
L48L
sS'starttime'
p13
cdatetime
datetime
p14
(S'\x07\xd5\x03\x17\x12\x1d\x00\x00\x00\x00'
p15
tp16
Rp17
sS'duration'
p18
L90L
sS'endtime'
p19
g14
(S'\x07\xd5\x03\x17\x12\x1e\x1e\x00\x00\x00'
p20
tp21
Rp22
sS'phonenumber_oid'
p23
L71L
s.(dp0
S'status'
p1
S''
p2
sS'direction'
p3
S'Outgoing'
p4
sS'remote'
p5
g2
sS'description'
p6
S'Voice Call'
p7
sS'callid'
p8
L1828L
sS'oid'
p9
L18111L
sS'number'
p10
g2
sS'person_oid'
p11
L94L
sS'contact'
p12
L48L
sS'starttime'
p13
cdatetime
datetime
p14
(S'\x07\xd5\x03\x17\x14\x10\x11\x00\x00\x00'
p15
tp16
Rp17
sS'duration'
p18
L55L
sS'endtime'
p19
g14
(S'\x07\xd5\x03\x17\x14\x11\x0c\x00\x00\x00'
p20
tp21
Rp22
sS'phonenumber_oid'
p23
L71L
s.(dp0
S'status'
p1
S''
p2
sS'direction'
p3
S'Outgoing'
p4
sS'remote'
p5
g2
sS'description'
p6
S'Voice Call'
p7
sS'callid'
p8
L1828L
sS'oid'
p9
L18113L
sS'number'
p10
g2
sS'person_oid'
p11
L94L
sS'contact'
p12
L48L
sS'starttime'
p13
cdatetime
datetime
p14
(S'\x07\xd5\x03\x17\x14\x10\x11\x00\x00\x00'
p15
tp16
Rp17
sS'duration'
p18
L55L
sS'endtime'
p19
g14
(S'\x07\xd5\x03\x17\x14\x11\x0c\x00\x00\x00'
p20
tp21
Rp22
sS'phonenumber_oid'
p23
L71L
s.(dp0
S'status'
p1
S''
p2
sS'direction'
p3
S'Outgoing'
p4
sS'remote'
p5
g2
sS'description'
p6
S'Voice Call'
p7
sS'callid'
p8
L1831L
sS'oid'
p9
L18114L
sS'number'
p10
g2
sS'person_oid'
p11
L94L
sS'contact'
p12
L24L
sS'starttime'
p13
cdatetime
datetime
p14
(S'\x07\xd5\x03\x18\x15\x11\x13\x00\x00\x00'
p15
tp16
Rp17
sS'duration'
p18
L70L
sS'endtime'
p19
g14
(S'\x07\xd5\x03\x18\x15\x12\x1d\x00\x00\x00'
p20
tp21
Rp22
sS'phonenumber_oid'
p23
L1L
s.(dp0
S'status'
p1
S''
p2
sS'direction'
p3
S'Outgoing'
p4
sS'remote'
p5
g2
sS'description'
p6
S'Voice Call'
p7
sS'callid'
p8
L1831L
sS'oid'
p9
L18121L
sS'number'
p10
g2
sS'person_oid'
p11
L94L
sS'contact'
p12
L24L
sS'starttime'
p13
cdatetime
datetime
p14
(S'\x07\xd5\x03\x18\x15\x11\x13\x00\x00\x00'
p15
tp16
Rp17
sS'duration'
p18
L70L
sS'endtime'
p19
g14
(S'\x07\xd5\x03\x18\x15\x12\x1d\x00\x00\x00'
p20
tp21
Rp22
sS'phonenumber_oid'
p23
L1L
s.(dp0
S'status'
p1
S''
p2
sS'direction'
p3
S'Incoming'
p4
sS'remote'
p5
g2
sS'description'
p6
S'Voice Call'
p7
sS'callid'
p8
L1833L
sS'oid'
p9
L18115L
sS'number'
p10
g2
sS'person_oid'
p11
L94L
sS'contact'
p12
L7L
sS'starttime'
p13
cdatetime
datetime
p14
(S'\x07\xd5\x03\x18\x15\x13\x12\x00\x00\x00'
p15
tp16
Rp17
sS'duration'
p18
L72L
sS'endtime'
p19
g14
(S'\x07\xd5\x03\x18\x15\x14\x1e\x00\x00\x00'
p20
tp21
Rp22
sS'phonenumber_oid'
p23
L6L
s.(dp0
S'status'
p1
S''
p2
sS'direction'
p3
S'Incoming'
p4
sS'remote'
p5
g2
sS'description'
p6
S'Voice Call'
p7
sS'callid'
p8
L1833L
sS'oid'
p9
L18122L
sS'number'
p10
g2
sS'person_oid'
p11
L94L
sS'contact'
p12
L7L
sS'starttime'
p13
cdatetime
datetime
p14
(S'\x07\xd5\x03\x18\x15\x13\x12\x00\x00\x00'
p15
tp16
Rp17
sS'duration'
p18
L72L
sS'endtime'
p19
g14
(S'\x07\xd5\x03\x18\x15\x14\x1e\x00\x00\x00'
p20
tp21
Rp22
sS'phonenumber_oid'
p23
L6L
s.(dp0
S'status'
p1
S''
p2
sS'direction'
p3
S'Outgoing'
p4
sS'remote'
p5
g2
sS'description'
p6
S'Voice Call'
p7
sS'callid'
p8
L1834L
sS'oid'
p9
L18116L
sS'number'
p10
g2
sS'person_oid'
p11
L94L
sS'contact'
p12
L24L
sS'starttime'
p13
cdatetime
datetime
p14
(S'\x07\xd5\x03\x18\x15\x1c\x1f\x00\x00\x00'
p15
tp16
Rp17
sS'duration'
p18
L7L
sS'endtime'
p19
g14
(S'\x07\xd5\x03\x18\x15\x1c&\x00\x00\x00'
p20
tp21
Rp22
sS'phonenumber_oid'
p23
L1L
s.(dp0
S'status'
p1
S''
p2
sS'direction'
p3
S'Outgoing'
p4
sS'remote'
p5
g2
sS'description'
p6
S'Voice Call'
p7
sS'callid'
p8
L1834L
sS'oid'
p9
L18123L
sS'number'
p10
g2
sS'person_oid'
p11
L94L
sS'contact'
p12
L24L
sS'starttime'
p13
cdatetime
datetime
p14
(S'\x07\xd5\x03\x18\x15\x1c\x1f\x00\x00\x00'
p15
tp16
Rp17
sS'duration'
p18
L7L
sS'endtime'
p19
g14
(S'\x07\xd5\x03\x18\x15\x1c&\x00\x00\x00'
p20
tp21
Rp22
sS'phonenumber_oid'
p23
L1L
s.(dp0
S'status'
p1
S''
p2
sS'direction'
p3
S'Outgoing'
p4
sS'remote'
p5
g2
sS'description'
p6
S'Voice Call'
p7
sS'callid'
p8
L1835L
sS'oid'
p9
L18117L
sS'number'
p10
g2
sS'person_oid'
p11
L94L
sS'contact'
p12
L7L
sS'starttime'
p13
cdatetime
datetime
p14
(S'\x07\xd5\x03\x18\x15\x1c;\x00\x00\x00'
p15
tp16
Rp17
sS'duration'
p18
L23L
sS'endtime'
p19
g14
(S'\x07\xd5\x03\x18\x15\x1d\x16\x00\x00\x00'
p20
tp21
Rp22
sS'phonenumber_oid'
p23
L6L
s.(dp0
S'status'
p1
S''
p2
sS'direction'
p3
S'Outgoing'
p4
sS'remote'
p5
g2
sS'description'
p6
S'Voice Call'
p7
sS'callid'
p8
L1835L
sS'oid'
p9
L18124L
sS'number'
p10
g2
sS'person_oid'
p11
L94L
sS'contact'
p12
L7L
sS'starttime'
p13
cdatetime
datetime
p14
(S'\x07\xd5\x03\x18\x15\x1c;\x00\x00\x00'
p15
tp16
Rp17
sS'duration'
p18
L23L
sS'endtime'
p19
g14
(S'\x07\xd5\x03\x18\x15\x1d\x16\x00\x00\x00'
p20
tp21
Rp22
sS'phonenumber_oid'
p23
L6L
s.(dp0
S'status'
p1
S''
p2
sS'direction'
p3
S'Incoming'
p4
sS'remote'
p5
g2
sS'description'
p6
S'Voice Call'
p7
sS'callid'
p8
L1837L
sS'oid'
p9
L18118L
sS'number'
p10
g2
sS'person_oid'
p11
L94L
sS'contact'
p12
L7L
sS'starttime'
p13
cdatetime
datetime
p14
(S'\x07\xd5\x03\x18\x15""\x00\x00\x00'
p15
tp16
Rp17
sS'duration'
p18
L12L
sS'endtime'
p19
g14
(S'\x07\xd5\x03\x18\x15".\x00\x00\x00'
p20
tp21
Rp22
sS'phonenumber_oid'
p23
L6L
s.(dp0
S'status'
p1
S''
p2
sS'direction'
p3
S'Incoming'
p4
sS'remote'
p5
g2
sS'description'
p6
S'Voice Call'
p7
sS'callid'
p8
L1837L
sS'oid'
p9
L18125L
sS'number'
p10
g2
sS'person_oid'
p11
L94L
sS'contact'
p12
L7L
sS'starttime'
p13
cdatetime
datetime
p14
(S'\x07\xd5\x03\x18\x15""\x00\x00\x00'
p15
tp16
Rp17
sS'duration'
p18
L12L
sS'endtime'
p19
g14
(S'\x07\xd5\x03\x18\x15".\x00\x00\x00'
p20
tp21
Rp22
sS'phonenumber_oid'
p23
L6L
s.(dp0
S'status'
p1
S''
p2
sS'direction'
p3
S'Missed Call'
p4
sS'remote'
p5
g2
sS'description'
p6
S'Voice Call'
p7
sS'callid'
p8
L1840L
sS'oid'
p9
L18119L
sS'number'
p10
g2
sS'person_oid'
p11
L94L
sS'contact'
p12
L7L
sS'starttime'
p13
cdatetime
datetime
p14
(S'\x07\xd5\x03\x18\x17\x07/\x00\x00\x00'
p15
tp16
Rp17
sS'duration'
p18
L0L
sS'endtime'
p19
g14
(S'\x07\xd5\x03\x18\x17\x07/\x00\x00\x00'
p20
tp21
Rp22
sS'phonenumber_oid'
p23
L6L
s.(dp0
S'status'
p1
S''
p2
sS'direction'
p3
S'Missed Call'
p4
sS'remote'
p5
g2
sS'description'
p6
S'Voice Call'
p7
sS'callid'
p8
L1840L
sS'oid'
p9
L18126L
sS'number'
p10
g2
sS'person_oid'
p11
L94L
sS'contact'
p12
L7L
sS'starttime'
p13
cdatetime
datetime
p14
(S'\x07\xd5\x03\x18\x17\x07/\x00\x00\x00'
p15
tp16
Rp17
sS'duration'
p18
L0L
sS'endtime'
p19
g14
(S'\x07\xd5\x03\x18\x17\x07/\x00\x00\x00'
p20
tp21
Rp22
sS'phonenumber_oid'
p23
L6L
s.(dp0
S'status'
p1
S''
p2
sS'direction'
p3
S'Outgoing'
p4
sS'remote'
p5
g2
sS'description'
p6
S'Voice Call'
p7
sS'callid'
p8
L1841L
sS'oid'
p9
L18120L
sS'number'
p10
g2
sS'person_oid'
p11
L94L
sS'contact'
p12
L7L
sS'starttime'
p13
cdatetime
datetime
p14
(S'\x07\xd5\x03\x18\x17\n\x05\x00\x00\x00'
p15
tp16
Rp17
sS'duration'
p18
L60L
sS'endtime'
p19
g14
(S'\x07\xd5\x03\x18\x17\x0b\x05\x00\x00\x00'
p20
tp21
Rp22
sS'phonenumber_oid'
p23
L6L
s.(dp0
S'status'
p1
S''
p2
sS'direction'
p3
S'Outgoing'
p4
sS'remote'
p5
g2
sS'description'
p6
S'Voice Call'
p7
sS'callid'
p8
L1841L
sS'oid'
p9
L18127L
sS'number'
p10
g2
sS'person_oid'
p11
L94L
sS'contact'
p12
L7L
sS'starttime'
p13
cdatetime
datetime
p14
(S'\x07\xd5\x03\x18\x17\n\x05\x00\x00\x00'
p15
tp16
Rp17
sS'duration'
p18
L60L
sS'endtime'
p19
g14
(S'\x07\xd5\x03\x18\x17\x0b\x05\x00\x00\x00'
p20
tp21
Rp22
sS'phonenumber_oid'
p23
L6L
s.(dp0
S'status'
p1
S''
p2
sS'direction'
p3
S'Missed Call'
p4
sS'remote'
p5
g2
sS'description'
p6
S'Voice Call'
p7
sS'callid'
p8
L1842L
sS'oid'
p9
L18128L
sS'number'
p10
g2
sS'person_oid'
p11
L94L
sS'contact'
p12
L7L
sS'starttime'
p13
cdatetime
datetime
p14
(S'\x07\xd5\x03\x19\x0e\x00(\x00\x00\x00'
p15
tp16
Rp17
sS'duration'
p18
L0L
sS'endtime'
p19
g14
(S'\x07\xd5\x03\x19\x0e\x00(\x00\x00\x00'
p20
tp21
Rp22
sS'phonenumber_oid'
p23
L6L
s.(dp0
S'status'
p1
S''
p2
sS'direction'
p3
S'Missed Call'
p4
sS'remote'
p5
g2
sS'description'
p6
S'Voice Call'
p7
sS'callid'
p8
L1842L
sS'oid'
p9
L18130L
sS'number'
p10
g2
sS'person_oid'
p11
L94L
sS'contact'
p12
L7L
sS'starttime'
p13
cdatetime
datetime
p14
(S'\x07\xd5\x03\x19\x0e\x00(\x00\x00\x00'
p15
tp16
Rp17
sS'duration'
p18
L0L
sS'endtime'
p19
g14
(S'\x07\xd5\x03\x19\x0e\x00(\x00\x00\x00'
p20
tp21
Rp22
sS'phonenumber_oid'
p23
L6L
s.(dp0
S'status'
p1
S''
p2
sS'direction'
p3
S'Outgoing'
p4
sS'remote'
p5
g2
sS'description'
p6
S'Voice Call'
p7
sS'callid'
p8
L1843L
sS'oid'
p9
L18129L
sS'number'
p10
g2
sS'person_oid'
p11
L94L
sS'contact'
p12
L7L
sS'starttime'
p13
cdatetime
datetime
p14
(S'\x07\xd5\x03\x19\x153-\x00\x00\x00'
p15
tp16
Rp17
sS'duration'
p18
L269L
sS'endtime'
p19
g14
(S'\x07\xd5\x03\x19\x158\x0e\x00\x00\x00'
p20
tp21
Rp22
sS'phonenumber_oid'
p23
L6L
s.(dp0
S'status'
p1
S''
p2
sS'direction'
p3
S'Outgoing'
p4
sS'remote'
p5
g2
sS'description'
p6
S'Voice Call'
p7
sS'callid'
p8
L1843L
sS'oid'
p9
L18131L
sS'number'
p10
g2
sS'person_oid'
p11
L94L
sS'contact'
p12
L7L
sS'starttime'
p13
cdatetime
datetime
p14
(S'\x07\xd5\x03\x19\x153-\x00\x00\x00'
p15
tp16
Rp17
sS'duration'
p18
L269L
sS'endtime'
p19
g14
(S'\x07\xd5\x03\x19\x158\x0e\x00\x00\x00'
p20
tp21
Rp22
sS'phonenumber_oid'
p23
L6L
s.(dp0
S'status'
p1
S''
p2
sS'direction'
p3
S'Missed Call'
p4
sS'remote'
p5
g2
sS'description'
p6
S'Voice Call'
p7
sS'callid'
p8
L1845L
sS'oid'
p9
L18132L
sS'number'
p10
g2
sS'person_oid'
p11
L94L
sS'contact'
p12
L7L
sS'starttime'
p13
cdatetime
datetime
p14
(S'\x07\xd5\x03\x1b\r\x029\x00\x00\x00'
p15
tp16
Rp17
sS'duration'
p18
L0L
sS'endtime'
p19
g14
(S'\x07\xd5\x03\x1b\r\x029\x00\x00\x00'
p20
tp21
Rp22
sS'phonenumber_oid'
p23
L6L
s.(dp0
S'status'
p1
S''
p2
sS'direction'
p3
S'Missed Call'
p4
sS'remote'
p5
g2
sS'description'
p6
S'Voice Call'
p7
sS'callid'
p8
L1845L
sS'oid'
p9
L18136L
sS'number'
p10
g2
sS'person_oid'
p11
L94L
sS'contact'
p12
L7L
sS'starttime'
p13
cdatetime
datetime
p14
(S'\x07\xd5\x03\x1b\r\x029\x00\x00\x00'
p15
tp16
Rp17
sS'duration'
p18
L0L
sS'endtime'
p19
g14
(S'\x07\xd5\x03\x1b\r\x029\x00\x00\x00'
p20
tp21
Rp22
sS'phonenumber_oid'
p23
L6L
s.(dp0
S'status'
p1
S''
p2
sS'direction'
p3
S'Incoming'
p4
sS'remote'
p5
g2
sS'description'
p6
S'Voice Call'
p7
sS'callid'
p8
L1847L
sS'oid'
p9
L18133L
sS'number'
p10
g2
sS'person_oid'
p11
L94L
sS'contact'
p12
L22L
sS'starttime'
p13
cdatetime
datetime
p14
(S'\x07\xd5\x03\x1b\x0f$#\x00\x00\x00'
p15
tp16
Rp17
sS'duration'
p18
L16L
sS'endtime'
p19
g14
(S'\x07\xd5\x03\x1b\x0f$3\x00\x00\x00'
p20
tp21
Rp22
sS'phonenumber_oid'
p23
L11L
s.(dp0
S'status'
p1
S''
p2
sS'direction'
p3
S'Incoming'
p4
sS'remote'
p5
g2
sS'description'
p6
S'Voice Call'
p7
sS'callid'
p8
L1847L
sS'oid'
p9
L18137L
sS'number'
p10
g2
sS'person_oid'
p11
L94L
sS'contact'
p12
L22L
sS'starttime'
p13
cdatetime
datetime
p14
(S'\x07\xd5\x03\x1b\x0f$#\x00\x00\x00'
p15
tp16
Rp17
sS'duration'
p18
L16L
sS'endtime'
p19
g14
(S'\x07\xd5\x03\x1b\x0f$3\x00\x00\x00'
p20
tp21
Rp22
sS'phonenumber_oid'
p23
L11L
s.(dp0
S'status'
p1
S''
p2
sS'direction'
p3
S'Incoming'
p4
sS'remote'
p5
g2
sS'description'
p6
S'Voice Call'
p7
sS'callid'
p8
L1849L
sS'oid'
p9
L18134L
sS'number'
p10
g2
sS'person_oid'
p11
L94L
sS'contact'
p12
L22L
sS'starttime'
p13
cdatetime
datetime
p14
(S'\x07\xd5\x03\x1b\x0f%\x19\x00\x00\x00'
p15
tp16
Rp17
sS'duration'
p18
L235L
sS'endtime'
p19
g14
(S'\x07\xd5\x03\x1b\x0f)\x14\x00\x00\x00'
p20
tp21
Rp22
sS'phonenumber_oid'
p23
L11L
s.(dp0
S'status'
p1
S''
p2
sS'direction'
p3
S'Incoming'
p4
sS'remote'
p5
g2
sS'description'
p6
S'Voice Call'
p7
sS'callid'
p8
L1849L
sS'oid'
p9
L18138L
sS'number'
p10
g2
sS'person_oid'
p11
L94L
sS'contact'
p12
L22L
sS'starttime'
p13
cdatetime
datetime
p14
(S'\x07\xd5\x03\x1b\x0f%\x19\x00\x00\x00'
p15
tp16
Rp17
sS'duration'
p18
L235L
sS'endtime'
p19
g14
(S'\x07\xd5\x03\x1b\x0f)\x14\x00\x00\x00'
p20
tp21
Rp22
sS'phonenumber_oid'
p23
L11L
s.(dp0
S'status'
p1
S''
p2
sS'direction'
p3
S'Outgoing'
p4
sS'remote'
p5
g2
sS'description'
p6
S'Voice Call'
p7
sS'callid'
p8
L1850L
sS'oid'
p9
L18135L
sS'number'
p10
g2
sS'person_oid'
p11
L94L
sS'contact'
p12
L22L
sS'starttime'
p13
cdatetime
datetime
p14
(S'\x07\xd5\x03\x1b\x14&(\x00\x00\x00'
p15
tp16
Rp17
sS'duration'
p18
L46L
sS'endtime'
p19
g14
(S"\x07\xd5\x03\x1b\x14'\x1a\x00\x00\x00"
p20
tp21
Rp22
sS'phonenumber_oid'
p23
L11L
s.(dp0
S'status'
p1
S''
p2
sS'direction'
p3
S'Outgoing'
p4
sS'remote'
p5
g2
sS'description'
p6
S'Voice Call'
p7
sS'callid'
p8
L1850L
sS'oid'
p9
L18139L
sS'number'
p10
g2
sS'person_oid'
p11
L94L
sS'contact'
p12
L22L
sS'starttime'
p13
cdatetime
datetime
p14
(S'\x07\xd5\x03\x1b\x14&(\x00\x00\x00'
p15
tp16
Rp17
sS'duration'
p18
L46L
sS'endtime'
p19
g14
(S"\x07\xd5\x03\x1b\x14'\x1a\x00\x00\x00"
p20
tp21
Rp22
sS'phonenumber_oid'
p23
L11L
s.(dp0
S'status'
p1
S''
p2
sS'direction'
p3
S'Incoming'
p4
sS'remote'
p5
g2
sS'description'
p6
S'Voice Call'
p7
sS'callid'
p8
L1852L
sS'oid'
p9
L18140L
sS'number'
p10
g2
sS'person_oid'
p11
L94L
sS'contact'
p12
L24L
sS'starttime'
p13
cdatetime
datetime
p14
(S'\x07\xd5\x03\x1c\x17\x13\x18\x00\x00\x00'
p15
tp16
Rp17
sS'duration'
p18
L139L
sS'endtime'
p19
g14
(S'\x07\xd5\x03\x1c\x17\x15+\x00\x00\x00'
p20
tp21
Rp22
sS'phonenumber_oid'
p23
L1L
s.(dp0
S'status'
p1
S''
p2
sS'direction'
p3
S'Incoming'
p4
sS'remote'
p5
g2
sS'description'
p6
S'Voice Call'
p7
sS'callid'
p8
L1852L
sS'oid'
p9
L18141L
sS'number'
p10
g2
sS'person_oid'
p11
L94L
sS'contact'
p12
L24L
sS'starttime'
p13
cdatetime
datetime
p14
(S'\x07\xd5\x03\x1c\x17\x13\x18\x00\x00\x00'
p15
tp16
Rp17
sS'duration'
p18
L139L
sS'endtime'
p19
g14
(S'\x07\xd5\x03\x1c\x17\x15+\x00\x00\x00'
p20
tp21
Rp22
sS'phonenumber_oid'
p23
L1L
s.(dp0
S'status'
p1
S''
p2
sS'direction'
p3
S'Outgoing'
p4
sS'remote'
p5
g2
sS'description'
p6
S'Voice Call'
p7
sS'callid'
p8
L1853L
sS'oid'
p9
L18142L
sS'number'
p10
g2
sS'person_oid'
p11
L94L
sS'contact'
p12
L24L
sS'starttime'
p13
cdatetime
datetime
p14
(S'\x07\xd5\x03\x1e\x01/\x11\x00\x00\x00'
p15
tp16
Rp17
sS'duration'
p18
L8L
sS'endtime'
p19
g14
(S'\x07\xd5\x03\x1e\x01/\x19\x00\x00\x00'
p20
tp21
Rp22
sS'phonenumber_oid'
p23
L1L
s.(dp0
S'status'
p1
S''
p2
sS'direction'
p3
S'Outgoing'
p4
sS'remote'
p5
g2
sS'description'
p6
S'Voice Call'
p7
sS'callid'
p8
L1853L
sS'oid'
p9
L18144L
sS'number'
p10
g2
sS'person_oid'
p11
L94L
sS'contact'
p12
L24L
sS'starttime'
p13
cdatetime
datetime
p14
(S'\x07\xd5\x03\x1e\x01/\x11\x00\x00\x00'
p15
tp16
Rp17
sS'duration'
p18
L8L
sS'endtime'
p19
g14
(S'\x07\xd5\x03\x1e\x01/\x19\x00\x00\x00'
p20
tp21
Rp22
sS'phonenumber_oid'
p23
L1L
s.(dp0
S'status'
p1
S''
p2
sS'direction'
p3
S'Outgoing'
p4
sS'remote'
p5
g2
sS'description'
p6
S'Voice Call'
p7
sS'callid'
p8
L1854L
sS'oid'
p9
L18143L
sS'number'
p10
g2
sS'person_oid'
p11
L94L
sS'contact'
p12
L7L
sS'starttime'
p13
cdatetime
datetime
p14
(S'\x07\xd5\x03\x1e\x01/7\x00\x00\x00'
p15
tp16
Rp17
sS'duration'
p18
L27L
sS'endtime'
p19
g14
(S'\x07\xd5\x03\x1e\x010\x16\x00\x00\x00'
p20
tp21
Rp22
sS'phonenumber_oid'
p23
L6L
s.(dp0
S'status'
p1
S''
p2
sS'direction'
p3
S'Outgoing'
p4
sS'remote'
p5
g2
sS'description'
p6
S'Voice Call'
p7
sS'callid'
p8
L1854L
sS'oid'
p9
L18145L
sS'number'
p10
g2
sS'person_oid'
p11
L94L
sS'contact'
p12
L7L
sS'starttime'
p13
cdatetime
datetime
p14
(S'\x07\xd5\x03\x1e\x01/7\x00\x00\x00'
p15
tp16
Rp17
sS'duration'
p18
L27L
sS'endtime'
p19
g14
(S'\x07\xd5\x03\x1e\x010\x16\x00\x00\x00'
p20
tp21
Rp22
sS'phonenumber_oid'
p23
L6L
s.(dp0
S'status'
p1
S'Delivered'
p2
sS'direction'
p3
S'Incoming'
p4
sS'remote'
p5
S''
p6
sS'description'
p7
S'Short Message'
p8
sS'callid'
p9
L1855L
sS'oid'
p10
L18146L
sS'number'
p11
g6
sS'person_oid'
p12
L94L
sS'contact'
p13
L-1L
sS'starttime'
p14
cdatetime
datetime
p15
(S'\x07\xd5\x03\x1e\x1488\x00\x00\x00'
p16
tp17
Rp18
sS'duration'
p19
L0L
sS'endtime'
p20
g15
(S'\x07\xd5\x03\x1e\x1488\x00\x00\x00'
p21
tp22
Rp23
sS'phonenumber_oid'
p24
L7L
s.(dp0
S'status'
p1
S'Delivered'
p2
sS'direction'
p3
S'Incoming'
p4
sS'remote'
p5
S''
p6
sS'description'
p7
S'Short Message'
p8
sS'callid'
p9
L1855L
sS'oid'
p10
L18147L
sS'number'
p11
g6
sS'person_oid'
p12
L94L
sS'contact'
p13
L-1L
sS'starttime'
p14
cdatetime
datetime
p15
(S'\x07\xd5\x03\x1e\x1488\x00\x00\x00'
p16
tp17
Rp18
sS'duration'
p19
L0L
sS'endtime'
p20
g15
(S'\x07\xd5\x03\x1e\x1488\x00\x00\x00'
p21
tp22
Rp23
sS'phonenumber_oid'
p24
L7L
s.