(dp0
S'survey_Provider'
p1
S''
p2
sS'survey_Texts'
p3
g2
sS'survey_Travel'
p4
g2
sS'survey_How_often_get_sick'
p5
g2
sS'phonenumber_oid'
p6
L0L
sS'survey_Neighborhood'
p7
g2
sS'survey_ML_Community'
p8
g2
sS'survey_Calling_plan'
p9
g2
sS'email'
p10
g2
sS'survey_Regular'
p11
g2
sS'oid'
p12
L1L
sS'survey_Hangouts'
p13
g2
sS'survey_Like_Intros'
p14
g2
sS'password'
p15
g2
sS'survey_Forget_phone'
p16
g2
sS'survey_Data_Plan'
p17
g2
sS'survey_Predictable_life'
p18
g2
sS'name'
p19
g2
sS'survey_Sick_Recently'
p20
g2
sS'survey_Minutes'
p21
g2
sS'survey_Position'
p22
g2
sS'survey_Hours'
p23
g2
sS'survey_Run_out_of_batteries'
p24
g2
s.(dp0
S'survey_Provider'
p1
S'verizon'
p2
sS'survey_Texts'
p3
S'never'
p4
sS'survey_Travel'
p5
S'Very often - more than a week/month'
p6
sS'survey_How_often_get_sick'
p7
S'occasionally (2-4 times a year)'
p8
sS'phonenumber_oid'
p9
L3774L
sS'survey_Neighborhood'
p10
S'Fresh Pond*'
p11
sS'survey_ML_Community'
p12
S'a little close'
p13
sS'survey_Calling_plan'
p14
S'national'
p15
sS'email'
p16
S''
p17
sS'survey_Regular'
p18
S'somewhat'
p19
sS'oid'
p20
L2L
sS'survey_Hangouts'
p21
S'working with community centers around boston*'
p22
sS'survey_Like_Intros'
p23
S'rarely'
p24
sS'password'
p25
g17
sS'survey_Forget_phone'
p26
S'occasionally'
p27
sS'survey_Data_Plan'
p28
S'None'
p29
sS'survey_Predictable_life'
p30
S'somewhat'
p31
sS'name'
p32
g17
sS'survey_Sick_Recently'
p33
S'No'
p34
sS'survey_Minutes'
p35
S'200'
p36
sS'survey_Position'
p37
S'mlgrad'
p38
sS'survey_Hours'
p39
S'9am-5pm'
p40
sS'survey_Run_out_of_batteries'
p41
S'Occasionally - once/week'
p42
s.(dp0
S'survey_Provider'
p1
S'cingular'
p2
sS'survey_Texts'
p3
S'occasionally'
p4
sS'survey_Travel'
p5
S'Sometimes - several days/month'
p6
sS'survey_How_often_get_sick'
p7
S'occasionally (2-4 times a year)'
p8
sS'phonenumber_oid'
p9
L1195L
sS'survey_Neighborhood'
p10
S'MIT'
p11
sS'survey_ML_Community'
p12
S'somewhat'
p13
sS'survey_Calling_plan'
p14
S'national'
p15
sS'email'
p16
S''
p17
sS'survey_Regular'
p18
S'very'
p19
sS'oid'
p20
L3L
sS'survey_Hangouts'
p21
S'restaurant/bar; friends; classes'
p22
sS'survey_Like_Intros'
p23
S'occasionally'
p24
sS'password'
p25
g17
sS'survey_Forget_phone'
p26
S'never'
p27
sS'survey_Data_Plan'
p28
S'None'
p29
sS'survey_Predictable_life'
p30
S'somewhat'
p31
sS'name'
p32
g17
sS'survey_Sick_Recently'
p33
S'"Yes, in the last month"'
p34
sS'survey_Minutes'
p35
S'--'
p36
sS'survey_Position'
p37
S'masfrosh'
p38
sS'survey_Hours'
p39
S'F9am-5pm*'
p40
sS'survey_Run_out_of_batteries'
p41
S'Occasionally - once/week'
p42
s.(dp0
S'survey_Provider'
p1
S''
p2
sS'survey_Texts'
p3
g2
sS'survey_Travel'
p4
g2
sS'survey_How_often_get_sick'
p5
g2
sS'phonenumber_oid'
p6
L2277L
sS'survey_Neighborhood'
p7
g2
sS'survey_ML_Community'
p8
g2
sS'survey_Calling_plan'
p9
g2
sS'email'
p10
g2
sS'survey_Regular'
p11
g2
sS'oid'
p12
L4L
sS'survey_Hangouts'
p13
g2
sS'survey_Like_Intros'
p14
g2
sS'password'
p15
g2
sS'survey_Forget_phone'
p16
g2
sS'survey_Data_Plan'
p17
g2
sS'survey_Predictable_life'
p18
g2
sS'name'
p19
g2
sS'survey_Sick_Recently'
p20
g2
sS'survey_Minutes'
p21
g2
sS'survey_Position'
p22
S'sloan'
p23
sS'survey_Hours'
p24
g2
sS'survey_Run_out_of_batteries'
p25
g2
s.(dp0
S'survey_Provider'
p1
S'T-mobile'
p2
sS'survey_Texts'
p3
S'occasionally'
p4
sS'survey_Travel'
p5
S'Rarely - several days/term'
p6
sS'survey_How_often_get_sick'
p7
S'occasionally (2-4 times a year)'
p8
sS'phonenumber_oid'
p9
L2684L
sS'survey_Neighborhood'
p10
S'Boston'
p11
sS'survey_ML_Community'
p12
S'not very close'
p13
sS'survey_Calling_plan'
p14
S'national'
p15
sS'email'
p16
S''
p17
sS'survey_Regular'
p18
S'somewhat'
p19
sS'oid'
p20
L5L
sS'survey_Hangouts'
p21
S'restaurant/bar; gym; library*'
p22
sS'survey_Like_Intros'
p23
S'rarely'
p24
sS'password'
p25
g17
sS'survey_Forget_phone'
p26
S'rarely'
p27
sS'survey_Data_Plan'
p28
S'None'
p29
sS'survey_Predictable_life'
p30
S'somewhat'
p31
sS'name'
p32
g17
sS'survey_Sick_Recently'
p33
S'No'
p34
sS'survey_Minutes'
p35
S'500'
p36
sS'survey_Position'
p37
S'newgrad'
p38
sS'survey_Hours'
p39
S'11am-8pm'
p40
sS'survey_Run_out_of_batteries'
p41
S'Rarely - once/month'
p42
s.(dp0
S'survey_Provider'
p1
S'n/a'
p2
sS'survey_Texts'
p3
S'n/a'
p4
sS'survey_Travel'
p5
S''
p6
sS'survey_How_often_get_sick'
p7
g6
sS'phonenumber_oid'
p8
L0L
sS'survey_Neighborhood'
p9
S'Boston'
p10
sS'survey_ML_Community'
p11
S'a little close'
p12
sS'survey_Calling_plan'
p13
S'n/a'
p14
sS'email'
p15
g6
sS'survey_Regular'
p16
S'very'
p17
sS'oid'
p18
L6L
sS'survey_Hangouts'
p19
S'nowhere else'
p20
sS'survey_Like_Intros'
p21
S'never'
p22
sS'password'
p23
g6
sS'survey_Forget_phone'
p24
S'occasionally'
p25
sS'survey_Data_Plan'
p26
g6
sS'survey_Predictable_life'
p27
S'very'
p28
sS'name'
p29
g6
sS'survey_Sick_Recently'
p30
g6
sS'survey_Minutes'
p31
S'n/a'
p32
sS'survey_Position'
p33
S'student'
p34
sS'survey_Hours'
p35
S'9am-12pm*'
p36
sS'survey_Run_out_of_batteries'
p37
g6
s.(dp0
S'survey_Provider'
p1
S''
p2
sS'survey_Texts'
p3
g2
sS'survey_Travel'
p4
g2
sS'survey_How_often_get_sick'
p5
g2
sS'phonenumber_oid'
p6
L701L
sS'survey_Neighborhood'
p7
g2
sS'survey_ML_Community'
p8
g2
sS'survey_Calling_plan'
p9
g2
sS'email'
p10
g2
sS'survey_Regular'
p11
g2
sS'oid'
p12
L7L
sS'survey_Hangouts'
p13
g2
sS'survey_Like_Intros'
p14
g2
sS'password'
p15
g2
sS'survey_Forget_phone'
p16
g2
sS'survey_Data_Plan'
p17
g2
sS'survey_Predictable_life'
p18
g2
sS'name'
p19
g2
sS'survey_Sick_Recently'
p20
g2
sS'survey_Minutes'
p21
g2
sS'survey_Position'
p22
g2
sS'survey_Hours'
p23
g2
sS'survey_Run_out_of_batteries'
p24
g2
s.(dp0
S'survey_Provider'
p1
S'somewhat'
p2
sS'survey_Texts'
p3
S''
p4
sS'survey_Travel'
p5
S'rarely'
p6
sS'survey_How_often_get_sick'
p7
S'national'
p8
sS'phonenumber_oid'
p9
L672L
sS'survey_Neighborhood'
p10
S'Central'
p11
sS'survey_ML_Community'
p12
g4
sS'survey_Calling_plan'
p13
g4
sS'email'
p14
g4
sS'survey_Regular'
p15
S'somewhat'
p16
sS'oid'
p17
L8L
sS'survey_Hangouts'
p18
S'restaurant/bar; gym'
p19
sS'survey_Like_Intros'
p20
g4
sS'password'
p21
g4
sS'survey_Forget_phone'
p22
S'rarely'
p23
sS'survey_Data_Plan'
p24
S'occasionally'
p25
sS'survey_Predictable_life'
p26
S'somewhat'
p27
sS'name'
p28
g4
sS'survey_Sick_Recently'
p29
S'200'
p30
sS'survey_Minutes'
p31
g4
sS'survey_Position'
p32
S'newgrad'
p33
sS'survey_Hours'
p34
S'11am-8pm'
p35
sS'survey_Run_out_of_batteries'
p36
S'AT&T'
p37
s.(dp0
S'survey_Provider'
p1
S''
p2
sS'survey_Texts'
p3
g2
sS'survey_Travel'
p4
g2
sS'survey_How_often_get_sick'
p5
g2
sS'phonenumber_oid'
p6
L1978L
sS'survey_Neighborhood'
p7
g2
sS'survey_ML_Community'
p8
g2
sS'survey_Calling_plan'
p9
g2
sS'email'
p10
g2
sS'survey_Regular'
p11
g2
sS'oid'
p12
L9L
sS'survey_Hangouts'
p13
g2
sS'survey_Like_Intros'
p14
g2
sS'password'
p15
g2
sS'survey_Forget_phone'
p16
g2
sS'survey_Data_Plan'
p17
g2
sS'survey_Predictable_life'
p18
g2
sS'name'
p19
g2
sS'survey_Sick_Recently'
p20
g2
sS'survey_Minutes'
p21
g2
sS'survey_Position'
p22
S'mlUrop'
p23
sS'survey_Hours'
p24
g2
sS'survey_Run_out_of_batteries'
p25
g2
s.(dp0
S'survey_Provider'
p1
S'T-mobile'
p2
sS'survey_Texts'
p3
S'never'
p4
sS'survey_Travel'
p5
S'Rarely - several days/term'
p6
sS'survey_How_often_get_sick'
p7
S'occasionally (2-4 times a year)'
p8
sS'phonenumber_oid'
p9
L3773L
sS'survey_Neighborhood'
p10
S'Fresh Pond*'
p11
sS'survey_ML_Community'
p12
S'a little close'
p13
sS'survey_Calling_plan'
p14
S'national'
p15
sS'email'
p16
S''
p17
sS'survey_Regular'
p18
S'very'
p19
sS'oid'
p20
L10L
sS'survey_Hangouts'
p21
S'T*'
p22
sS'survey_Like_Intros'
p23
S'occasionally'
p24
sS'password'
p25
g17
sS'survey_Forget_phone'
p26
S'never'
p27
sS'survey_Data_Plan'
p28
S'None'
p29
sS'survey_Predictable_life'
p30
S'very'
p31
sS'name'
p32
g17
sS'survey_Sick_Recently'
p33
S'No'
p34
sS'survey_Minutes'
p35
S'500'
p36
sS'survey_Position'
p37
S'mlgrad'
p38
sS'survey_Hours'
p39
S'11am-9pm*'
p40
sS'survey_Run_out_of_batteries'
p41
S'Rarely - once/month'
p42
s.(dp0
S'survey_Provider'
p1
S'AT&T'
p2
sS'survey_Texts'
p3
S'rarely'
p4
sS'survey_Travel'
p5
S'Rarely - several days/term'
p6
sS'survey_How_often_get_sick'
p7
S'rarely (once a year or less)'
p8
sS'phonenumber_oid'
p9
L3462L
sS'survey_Neighborhood'
p10
S'Central'
p11
sS'survey_ML_Community'
p12
S'a little close'
p13
sS'survey_Calling_plan'
p14
S'national'
p15
sS'email'
p16
S''
p17
sS'survey_Regular'
p18
S'somewhat'
p19
sS'oid'
p20
L11L
sS'survey_Hangouts'
p21
S'gym; friends'
p22
sS'survey_Like_Intros'
p23
S'often'
p24
sS'password'
p25
g17
sS'survey_Forget_phone'
p26
S'rarely'
p27
sS'survey_Data_Plan'
p28
S'None'
p29
sS'survey_Predictable_life'
p30
S'very'
p31
sS'name'
p32
g17
sS'survey_Sick_Recently'
p33
S'No'
p34
sS'survey_Minutes'
p35
S'800'
p36
sS'survey_Position'
p37
S'1styeargrad'
p38
sS'survey_Hours'
p39
S'11am-8pm'
p40
sS'survey_Run_out_of_batteries'
p41
S'Often - once/day'
p42
s.(dp0
S'survey_Provider'
p1
S'T-Mobile'
p2
sS'survey_Texts'
p3
S'Occasionally - once/week'
p4
sS'survey_Travel'
p5
S'Sometimes - several days/month'
p6
sS'survey_How_often_get_sick'
p7
S'rarely (once a year or less)'
p8
sS'phonenumber_oid'
p9
L1774L
sS'survey_Neighborhood'
p10
S'On/near MIT campus'
p11
sS'survey_ML_Community'
p12
S'Very close'
p13
sS'survey_Calling_plan'
p14
S'International'
p15
sS'email'
p16
S''
p17
sS'survey_Regular'
p18
S'Very'
p19
sS'oid'
p20
L12L
sS'survey_Hangouts'
p21
S'"Restaurant/Bar, friends"'
p22
sS'survey_Like_Intros'
p23
S'Rarely - once/month'
p24
sS'password'
p25
g17
sS'survey_Forget_phone'
p26
S'Never'
p27
sS'survey_Data_Plan'
p28
S'Unlimited'
p29
sS'survey_Predictable_life'
p30
S'Very'
p31
sS'name'
p32
g17
sS'survey_Sick_Recently'
p33
S'"Yes, in the last month"'
p34
sS'survey_Minutes'
p35
S'Peak hours: ~800 minutes; Unlimited Night and Weekend minutes'
p36
sS'survey_Position'
p37
S'sloan'
p38
sS'survey_Hours'
p39
S'9AM ~ 5PM'
p40
sS'survey_Run_out_of_batteries'
p41
S'Rarely - once/month'
p42
s.(dp0
S'survey_Provider'
p1
S''
p2
sS'survey_Texts'
p3
g2
sS'survey_Travel'
p4
S'Often - week/month'
p5
sS'survey_How_often_get_sick'
p6
S'rarely (once a year or less)'
p7
sS'phonenumber_oid'
p8
L3249L
sS'survey_Neighborhood'
p9
g2
sS'survey_ML_Community'
p10
g2
sS'survey_Calling_plan'
p11
g2
sS'email'
p12
g2
sS'survey_Regular'
p13
g2
sS'oid'
p14
L13L
sS'survey_Hangouts'
p15
g2
sS'survey_Like_Intros'
p16
g2
sS'password'
p17
g2
sS'survey_Forget_phone'
p18
g2
sS'survey_Data_Plan'
p19
S'None'
p20
sS'survey_Predictable_life'
p21
g2
sS'name'
p22
g2
sS'survey_Sick_Recently'
p23
S'No'
p24
sS'survey_Minutes'
p25
g2
sS'survey_Position'
p26
S'staff'
p27
sS'survey_Hours'
p28
g2
sS'survey_Run_out_of_batteries'
p29
S'Occasionally - once/week'
p30
s.(dp0
S'survey_Provider'
p1
S'T-mobile'
p2
sS'survey_Texts'
p3
S'rarely'
p4
sS'survey_Travel'
p5
S'Rarely - several days/term'
p6
sS'survey_How_often_get_sick'
p7
S'rarely (once a year or less)'
p8
sS'phonenumber_oid'
p9
L539L
sS'survey_Neighborhood'
p10
S'Central'
p11
sS'survey_ML_Community'
p12
S'a little close'
p13
sS'survey_Calling_plan'
p14
S'national'
p15
sS'email'
p16
S''
p17
sS'survey_Regular'
p18
S'somewhat'
p19
sS'oid'
p20
L14L
sS'survey_Hangouts'
p21
S'restaurant/bar; gym; friends'
p22
sS'survey_Like_Intros'
p23
S'rarely'
p24
sS'password'
p25
g17
sS'survey_Forget_phone'
p26
S'rarely'
p27
sS'survey_Data_Plan'
p28
S'None'
p29
sS'survey_Predictable_life'
p30
S'somewhat'
p31
sS'name'
p32
g17
sS'survey_Sick_Recently'
p33
S'No'
p34
sS'survey_Minutes'
p35
S'200'
p36
sS'survey_Position'
p37
S'newgrad'
p38
sS'survey_Hours'
p39
S'11am-8pm'
p40
sS'survey_Run_out_of_batteries'
p41
S'Never'
p42
s.(dp0
S'survey_Provider'
p1
S'T-mobile'
p2
sS'survey_Texts'
p3
S'rarely'
p4
sS'survey_Travel'
p5
S'Rarely - several days/term'
p6
sS'survey_How_often_get_sick'
p7
S'occasionally (2-4 times a year)'
p8
sS'phonenumber_oid'
p9
L5L
sS'survey_Neighborhood'
p10
S'MIT'
p11
sS'survey_ML_Community'
p12
S'very close'
p13
sS'survey_Calling_plan'
p14
S'national'
p15
sS'email'
p16
S''
p17
sS'survey_Regular'
p18
S'somewhat'
p19
sS'oid'
p20
L15L
sS'survey_Hangouts'
p21
S'friends; travelling*'
p22
sS'survey_Like_Intros'
p23
S'occasionally'
p24
sS'password'
p25
g17
sS'survey_Forget_phone'
p26
S'never'
p27
sS'survey_Data_Plan'
p28
S'None'
p29
sS'survey_Predictable_life'
p30
S'somewhat'
p31
sS'name'
p32
g17
sS'survey_Sick_Recently'
p33
S'"Yes, in the last two weeks"'
p34
sS'survey_Minutes'
p35
S'500'
p36
sS'survey_Position'
p37
S'newgrad'
p38
sS'survey_Hours'
p39
S'9am-5pm'
p40
sS'survey_Run_out_of_batteries'
p41
S'Often - once/day'
p42
s.(dp0
S'survey_Provider'
p1
S'T-mobile'
p2
sS'survey_Texts'
p3
S'occasionally'
p4
sS'survey_Travel'
p5
S''
p6
sS'survey_How_often_get_sick'
p7
g6
sS'phonenumber_oid'
p8
L265L
sS'survey_Neighborhood'
p9
S'Newton*'
p10
sS'survey_ML_Community'
p11
S'somewhat'
p12
sS'survey_Calling_plan'
p13
S'national'
p14
sS'email'
p15
g6
sS'survey_Regular'
p16
S'not at all'
p17
sS'oid'
p18
L16L
sS'survey_Hangouts'
p19
S'restaurant/bar; meeting with people*'
p20
sS'survey_Like_Intros'
p21
S'often'
p22
sS'password'
p23
g6
sS'survey_Forget_phone'
p24
S'rarely'
p25
sS'survey_Data_Plan'
p26
g6
sS'survey_Predictable_life'
p27
S'somewhat'
p28
sS'name'
p29
g6
sS'survey_Sick_Recently'
p30
g6
sS'survey_Minutes'
p31
S'500'
p32
sS'survey_Position'
p33
S'Ml_urop'
p34
sS'survey_Hours'
p35
S'11am-8pm'
p36
sS'survey_Run_out_of_batteries'
p37
g6
s.(dp0
S'survey_Provider'
p1
S''
p2
sS'survey_Texts'
p3
g2
sS'survey_Travel'
p4
g2
sS'survey_How_often_get_sick'
p5
g2
sS'phonenumber_oid'
p6
L0L
sS'survey_Neighborhood'
p7
g2
sS'survey_ML_Community'
p8
g2
sS'survey_Calling_plan'
p9
g2
sS'email'
p10
g2
sS'survey_Regular'
p11
g2
sS'oid'
p12
L17L
sS'survey_Hangouts'
p13
g2
sS'survey_Like_Intros'
p14
g2
sS'password'
p15
g2
sS'survey_Forget_phone'
p16
g2
sS'survey_Data_Plan'
p17
g2
sS'survey_Predictable_life'
p18
g2
sS'name'
p19
g2
sS'survey_Sick_Recently'
p20
g2
sS'survey_Minutes'
p21
g2
sS'survey_Position'
p22
S'5 year media lab'
p23
sS'survey_Hours'
p24
g2
sS'survey_Run_out_of_batteries'
p25
g2
s.(dp0
S'survey_Provider'
p1
S'T-mobile'
p2
sS'survey_Texts'
p3
S'occasionally'
p4
sS'survey_Travel'
p5
S''
p6
sS'survey_How_often_get_sick'
p7
g6
sS'phonenumber_oid'
p8
L1991L
sS'survey_Neighborhood'
p9
S'Belmont*'
p10
sS'survey_ML_Community'
p11
S'somewhat'
p12
sS'survey_Calling_plan'
p13
S'national'
p14
sS'email'
p15
g6
sS'survey_Regular'
p16
S'very'
p17
sS'oid'
p18
L18L
sS'survey_Hangouts'
p19
S'restaurant/bar'
p20
sS'survey_Like_Intros'
p21
S'often'
p22
sS'password'
p23
g6
sS'survey_Forget_phone'
p24
S'occasionally'
p25
sS'survey_Data_Plan'
p26
g6
sS'survey_Predictable_life'
p27
S'very'
p28
sS'name'
p29
g6
sS'survey_Sick_Recently'
p30
g6
sS'survey_Minutes'
p31
S'500'
p32
sS'survey_Position'
p33
S'student'
p34
sS'survey_Hours'
p35
S'9am-5pm'
p36
sS'survey_Run_out_of_batteries'
p37
g6
s.(dp0
S'survey_Provider'
p1
S''
p2
sS'survey_Texts'
p3
g2
sS'survey_Travel'
p4
g2
sS'survey_How_often_get_sick'
p5
g2
sS'phonenumber_oid'
p6
L3775L
sS'survey_Neighborhood'
p7
g2
sS'survey_ML_Community'
p8
g2
sS'survey_Calling_plan'
p9
g2
sS'email'
p10
g2
sS'survey_Regular'
p11
g2
sS'oid'
p12
L19L
sS'survey_Hangouts'
p13
g2
sS'survey_Like_Intros'
p14
g2
sS'password'
p15
g2
sS'survey_Forget_phone'
p16
g2
sS'survey_Data_Plan'
p17
g2
sS'survey_Predictable_life'
p18
g2
sS'name'
p19
g2
sS'survey_Sick_Recently'
p20
g2
sS'survey_Minutes'
p21
g2
sS'survey_Position'
p22
S'sloan'
p23
sS'survey_Hours'
p24
g2
sS'survey_Run_out_of_batteries'
p25
g2
s.(dp0
S'survey_Provider'
p1
S''
p2
sS'survey_Texts'
p3
g2
sS'survey_Travel'
p4
g2
sS'survey_How_often_get_sick'
p5
g2
sS'phonenumber_oid'
p6
L2932L
sS'survey_Neighborhood'
p7
g2
sS'survey_ML_Community'
p8
g2
sS'survey_Calling_plan'
p9
g2
sS'email'
p10
g2
sS'survey_Regular'
p11
g2
sS'oid'
p12
L20L
sS'survey_Hangouts'
p13
g2
sS'survey_Like_Intros'
p14
g2
sS'password'
p15
g2
sS'survey_Forget_phone'
p16
g2
sS'survey_Data_Plan'
p17
g2
sS'survey_Predictable_life'
p18
g2
sS'name'
p19
g2
sS'survey_Sick_Recently'
p20
g2
sS'survey_Minutes'
p21
g2
sS'survey_Position'
p22
S'sloan'
p23
sS'survey_Hours'
p24
g2
sS'survey_Run_out_of_batteries'
p25
g2
s.(dp0
S'survey_Provider'
p1
S'T-mobile'
p2
sS'survey_Texts'
p3
S'rarely'
p4
sS'survey_Travel'
p5
S''
p6
sS'survey_How_often_get_sick'
p7
g6
sS'phonenumber_oid'
p8
L133L
sS'survey_Neighborhood'
p9
S'MIT'
p10
sS'survey_ML_Community'
p11
g6
sS'survey_Calling_plan'
p12
S'national'
p13
sS'email'
p14
g6
sS'survey_Regular'
p15
S'somewhat'
p16
sS'oid'
p17
L21L
sS'survey_Hangouts'
p18
S'restaurant/bar; friends'
p19
sS'survey_Like_Intros'
p20
S'somewhat'
p21
sS'password'
p22
g6
sS'survey_Forget_phone'
p23
S'rarely'
p24
sS'survey_Data_Plan'
p25
g6
sS'survey_Predictable_life'
p26
S'somewhat'
p27
sS'name'
p28
g6
sS'survey_Sick_Recently'
p29
g6
sS'survey_Minutes'
p30
S'500'
p31
sS'survey_Position'
p32
S'mlgrad'
p33
sS'survey_Hours'
p34
S'10am-7pm*'
p35
sS'survey_Run_out_of_batteries'
p36
g6
s.(dp0
S'survey_Provider'
p1
S'AT&T Wireless'
p2
sS'survey_Texts'
p3
S'Very often - several times/day'
p4
sS'survey_Travel'
p5
S'Often - week/month'
p6
sS'survey_How_often_get_sick'
p7
S'more than 10 times a year.'
p8
sS'phonenumber_oid'
p9
L1896L
sS'survey_Neighborhood'
p10
S'Boston'
p11
sS'survey_ML_Community'
p12
S'Somewhat close'
p13
sS'survey_Calling_plan'
p14
S'National'
p15
sS'email'
p16
S''
p17
sS'survey_Regular'
p18
S'Very'
p19
sS'oid'
p20
L22L
sS'survey_Hangouts'
p21
S'"Restaurant/Bar, Gym, friends"'
p22
sS'survey_Like_Intros'
p23
S'Rarely - once/month'
p24
sS'password'
p25
g17
sS'survey_Forget_phone'
p26
S'Rarely - once/month'
p27
sS'survey_Data_Plan'
p28
S'None'
p29
sS'survey_Predictable_life'
p30
S'Very'
p31
sS'name'
p32
g17
sS'survey_Sick_Recently'
p33
S'"Yes, in the last two weeks"'
p34
sS'survey_Minutes'
p35
S'Other (please specify)'
p36
sS'survey_Position'
p37
S'sloan'
p38
sS'survey_Hours'
p39
S'9AM ~ 5PM'
p40
sS'survey_Run_out_of_batteries'
p41
S'Occasionally - once/week'
p42
s.(dp0
S'survey_Provider'
p1
S'AT&T'
p2
sS'survey_Texts'
p3
S'ocasionally'
p4
sS'survey_Travel'
p5
S'Rarely - several days/term'
p6
sS'survey_How_often_get_sick'
p7
S'occasionally (2-4 times a year)'
p8
sS'phonenumber_oid'
p9
L505L
sS'survey_Neighborhood'
p10
S'Brookline'
p11
sS'survey_ML_Community'
p12
S'a little close'
p13
sS'survey_Calling_plan'
p14
S'national'
p15
sS'email'
p16
S''
p17
sS'survey_Regular'
p18
S'somewhat'
p19
sS'oid'
p20
L23L
sS'survey_Hangouts'
p21
S'friends'
p22
sS'survey_Like_Intros'
p23
S'occasionally'
p24
sS'password'
p25
g17
sS'survey_Forget_phone'
p26
S'rarely'
p27
sS'survey_Data_Plan'
p28
S'None'
p29
sS'survey_Predictable_life'
p30
S'somewhat'
p31
sS'name'
p32
g17
sS'survey_Sick_Recently'
p33
S'No'
p34
sS'survey_Minutes'
p35
S'200'
p36
sS'survey_Position'
p37
S'sloan'
p38
sS'survey_Hours'
p39
S'9am-8pm*'
p40
sS'survey_Run_out_of_batteries'
p41
S'Rarely - once/month'
p42
s.(dp0
S'survey_Provider'
p1
S'AT&T'
p2
sS'survey_Texts'
p3
S'occasionally'
p4
sS'survey_Travel'
p5
S''
p6
sS'survey_How_often_get_sick'
p7
g6
sS'phonenumber_oid'
p8
L1698L
sS'survey_Neighborhood'
p9
S'--'
p10
sS'survey_ML_Community'
p11
S'somewhat close'
p12
sS'survey_Calling_plan'
p13
S'national'
p14
sS'email'
p15
g6
sS'survey_Regular'
p16
S'somewhat'
p17
sS'oid'
p18
L24L
sS'survey_Hangouts'
p19
S'restaurant/bar; gym; rest of campus*'
p20
sS'survey_Like_Intros'
p21
S'occasionally'
p22
sS'password'
p23
g6
sS'survey_Forget_phone'
p24
S'never'
p25
sS'survey_Data_Plan'
p26
g6
sS'survey_Predictable_life'
p27
S'somewhat'
p28
sS'name'
p29
g6
sS'survey_Sick_Recently'
p30
g6
sS'survey_Minutes'
p31
S'500'
p32
sS'survey_Position'
p33
S'masfrosh'
p34
sS'survey_Hours'
p35
S'11am-8pm; 2pm-11pm'
p36
sS'survey_Run_out_of_batteries'
p37
g6
s.(dp0
S'survey_Provider'
p1
S''
p2
sS'survey_Texts'
p3
g2
sS'survey_Travel'
p4
g2
sS'survey_How_often_get_sick'
p5
g2
sS'phonenumber_oid'
p6
L1945L
sS'survey_Neighborhood'
p7
g2
sS'survey_ML_Community'
p8
g2
sS'survey_Calling_plan'
p9
g2
sS'email'
p10
g2
sS'survey_Regular'
p11
g2
sS'oid'
p12
L25L
sS'survey_Hangouts'
p13
g2
sS'survey_Like_Intros'
p14
g2
sS'password'
p15
g2
sS'survey_Forget_phone'
p16
g2
sS'survey_Data_Plan'
p17
g2
sS'survey_Predictable_life'
p18
g2
sS'name'
p19
g2
sS'survey_Sick_Recently'
p20
g2
sS'survey_Minutes'
p21
g2
sS'survey_Position'
p22
S'sloan'
p23
sS'survey_Hours'
p24
g2
sS'survey_Run_out_of_batteries'
p25
g2
s.(dp0
S'survey_Provider'
p1
S''
p2
sS'survey_Texts'
p3
g2
sS'survey_Travel'
p4
S'Sometimes - several days/month'
p5
sS'survey_How_often_get_sick'
p6
S'occasionally (2-4 times a year)'
p7
sS'phonenumber_oid'
p8
L1005L
sS'survey_Neighborhood'
p9
g2
sS'survey_ML_Community'
p10
g2
sS'survey_Calling_plan'
p11
g2
sS'email'
p12
g2
sS'survey_Regular'
p13
g2
sS'oid'
p14
L26L
sS'survey_Hangouts'
p15
g2
sS'survey_Like_Intros'
p16
g2
sS'password'
p17
g2
sS'survey_Forget_phone'
p18
g2
sS'survey_Data_Plan'
p19
S'None'
p20
sS'survey_Predictable_life'
p21
g2
sS'name'
p22
g2
sS'survey_Sick_Recently'
p23
S'No'
p24
sS'survey_Minutes'
p25
g2
sS'survey_Position'
p26
S'1styeargrad'
p27
sS'survey_Hours'
p28
g2
sS'survey_Run_out_of_batteries'
p29
S'Rarely - once/month'
p30
s.(dp0
S'survey_Provider'
p1
S'AT&T'
p2
sS'survey_Texts'
p3
S'occasionally'
p4
sS'survey_Travel'
p5
S''
p6
sS'survey_How_often_get_sick'
p7
g6
sS'phonenumber_oid'
p8
L1267L
sS'survey_Neighborhood'
p9
S'MIT'
p10
sS'survey_ML_Community'
p11
S'a little close'
p12
sS'survey_Calling_plan'
p13
S'national'
p14
sS'email'
p15
g6
sS'survey_Regular'
p16
S'very'
p17
sS'oid'
p18
L27L
sS'survey_Hangouts'
p19
S'restaurant/bar; friends; class*'
p20
sS'survey_Like_Intros'
p21
S'occasionally'
p22
sS'password'
p23
g6
sS'survey_Forget_phone'
p24
S'rarely'
p25
sS'survey_Data_Plan'
p26
g6
sS'survey_Predictable_life'
p27
S'somewhat'
p28
sS'name'
p29
g6
sS'survey_Sick_Recently'
p30
g6
sS'survey_Minutes'
p31
S'800'
p32
sS'survey_Position'
p33
S'masfrosh'
p34
sS'survey_Hours'
p35
S'F10am-11am*'
p36
sS'survey_Run_out_of_batteries'
p37
g6
s.(dp0
S'survey_Provider'
p1
S''
p2
sS'survey_Texts'
p3
g2
sS'survey_Travel'
p4
g2
sS'survey_How_often_get_sick'
p5
g2
sS'phonenumber_oid'
p6
L3777L
sS'survey_Neighborhood'
p7
g2
sS'survey_ML_Community'
p8
g2
sS'survey_Calling_plan'
p9
g2
sS'email'
p10
g2
sS'survey_Regular'
p11
g2
sS'oid'
p12
L28L
sS'survey_Hangouts'
p13
g2
sS'survey_Like_Intros'
p14
g2
sS'password'
p15
g2
sS'survey_Forget_phone'
p16
g2
sS'survey_Data_Plan'
p17
g2
sS'survey_Predictable_life'
p18
g2
sS'name'
p19
g2
sS'survey_Sick_Recently'
p20
g2
sS'survey_Minutes'
p21
g2
sS'survey_Position'
p22
S'6years'
p23
sS'survey_Hours'
p24
g2
sS'survey_Run_out_of_batteries'
p25
g2
s.(dp0
S'survey_Provider'
p1
S'T-mobile'
p2
sS'survey_Texts'
p3
S'very often'
p4
sS'survey_Travel'
p5
S'Often - week/month'
p6
sS'survey_How_often_get_sick'
p7
S'occasionally (2-4 times a year)'
p8
sS'phonenumber_oid'
p9
L264L
sS'survey_Neighborhood'
p10
S'Boston'
p11
sS'survey_ML_Community'
p12
S'very close'
p13
sS'survey_Calling_plan'
p14
S'national'
p15
sS'email'
p16
S''
p17
sS'survey_Regular'
p18
S'somewhat'
p19
sS'oid'
p20
L29L
sS'survey_Hangouts'
p21
S'restaurant/bar; friends'
p22
sS'survey_Like_Intros'
p23
S'occasionally'
p24
sS'password'
p25
g17
sS'survey_Forget_phone'
p26
S'never'
p27
sS'survey_Data_Plan'
p28
S'Unlimited'
p29
sS'survey_Predictable_life'
p30
S'very'
p31
sS'name'
p32
g17
sS'survey_Sick_Recently'
p33
S'No'
p34
sS'survey_Minutes'
p35
S'1000*'
p36
sS'survey_Position'
p37
S'student'
p38
sS'survey_Hours'
p39
S'10am-8pm*'
p40
sS'survey_Run_out_of_batteries'
p41
S'Rarely - once/month'
p42
s.(dp0
S'survey_Provider'
p1
S'T-mobile'
p2
sS'survey_Texts'
p3
S'occasionally'
p4
sS'survey_Travel'
p5
S''
p6
sS'survey_How_often_get_sick'
p7
g6
sS'phonenumber_oid'
p8
L1432L
sS'survey_Neighborhood'
p9
S'Central'
p10
sS'survey_ML_Community'
p11
S'a little close'
p12
sS'survey_Calling_plan'
p13
S'national'
p14
sS'email'
p15
g6
sS'survey_Regular'
p16
S'not at all'
p17
sS'oid'
p18
L30L
sS'survey_Hangouts'
p19
S'friends'
p20
sS'survey_Like_Intros'
p21
S'occasionally'
p22
sS'password'
p23
g6
sS'survey_Forget_phone'
p24
S'occasionally'
p25
sS'survey_Data_Plan'
p26
g6
sS'survey_Predictable_life'
p27
S'somewhat'
p28
sS'name'
p29
g6
sS'survey_Sick_Recently'
p30
g6
sS'survey_Minutes'
p31
S'500'
p32
sS'survey_Position'
p33
S'5thyear'
p34
sS'survey_Hours'
p35
S'11am-8pm'
p36
sS'survey_Run_out_of_batteries'
p37
g6
s.(dp0
S'survey_Provider'
p1
S''
p2
sS'survey_Texts'
p3
g2
sS'survey_Travel'
p4
g2
sS'survey_How_often_get_sick'
p5
g2
sS'phonenumber_oid'
p6
L496L
sS'survey_Neighborhood'
p7
g2
sS'survey_ML_Community'
p8
g2
sS'survey_Calling_plan'
p9
g2
sS'email'
p10
g2
sS'survey_Regular'
p11
g2
sS'oid'
p12
L31L
sS'survey_Hangouts'
p13
g2
sS'survey_Like_Intros'
p14
g2
sS'password'
p15
g2
sS'survey_Forget_phone'
p16
g2
sS'survey_Data_Plan'
p17
g2
sS'survey_Predictable_life'
p18
g2
sS'name'
p19
g2
sS'survey_Sick_Recently'
p20
g2
sS'survey_Minutes'
p21
g2
sS'survey_Position'
p22
S'sloan'
p23
sS'survey_Hours'
p24
g2
sS'survey_Run_out_of_batteries'
p25
g2
s.(dp0
S'survey_Provider'
p1
S'T-mobile'
p2
sS'survey_Texts'
p3
S'rarely'
p4
sS'survey_Travel'
p5
S''
p6
sS'survey_How_often_get_sick'
p7
g6
sS'phonenumber_oid'
p8
L3783L
sS'survey_Neighborhood'
p9
S'David'
p10
sS'survey_ML_Community'
p11
S'a little close'
p12
sS'survey_Calling_plan'
p13
S'naitonal'
p14
sS'email'
p15
g6
sS'survey_Regular'
p16
S'not at all'
p17
sS'oid'
p18
L32L
sS'survey_Hangouts'
p19
S'MIT main campus*'
p20
sS'survey_Like_Intros'
p21
S'often'
p22
sS'password'
p23
g6
sS'survey_Forget_phone'
p24
S'rarely'
p25
sS'survey_Data_Plan'
p26
g6
sS'survey_Predictable_life'
p27
S'somewhat'
p28
sS'name'
p29
g6
sS'survey_Sick_Recently'
p30
g6
sS'survey_Minutes'
p31
S'500'
p32
sS'survey_Position'
p33
S'graduated'
p34
sS'survey_Hours'
p35
S'11am-8pm'
p36
sS'survey_Run_out_of_batteries'
p37
g6
s.(dp0
S'survey_Provider'
p1
S'T-mobile'
p2
sS'survey_Texts'
p3
S'rarely'
p4
sS'survey_Travel'
p5
S''
p6
sS'survey_How_often_get_sick'
p7
g6
sS'phonenumber_oid'
p8
L1763L
sS'survey_Neighborhood'
p9
S'MIT'
p10
sS'survey_ML_Community'
p11
S'somewhat close'
p12
sS'survey_Calling_plan'
p13
S'national'
p14
sS'email'
p15
g6
sS'survey_Regular'
p16
S'very'
p17
sS'oid'
p18
L33L
sS'survey_Hangouts'
p19
S'restaurant/bar; gym'
p20
sS'survey_Like_Intros'
p21
S'occasionally'
p22
sS'password'
p23
g6
sS'survey_Forget_phone'
p24
S'rarely'
p25
sS'survey_Data_Plan'
p26
g6
sS'survey_Predictable_life'
p27
S'somewhat'
p28
sS'name'
p29
g6
sS'survey_Sick_Recently'
p30
g6
sS'survey_Minutes'
p31
S'500'
p32
sS'survey_Position'
p33
S'staff'
p34
sS'survey_Hours'
p35
S'9am-5pm'
p36
sS'survey_Run_out_of_batteries'
p37
g6
s.(dp0
S'survey_Provider'
p1
S''
p2
sS'survey_Texts'
p3
g2
sS'survey_Travel'
p4
g2
sS'survey_How_often_get_sick'
p5
g2
sS'phonenumber_oid'
p6
L0L
sS'survey_Neighborhood'
p7
g2
sS'survey_ML_Community'
p8
g2
sS'survey_Calling_plan'
p9
g2
sS'email'
p10
g2
sS'survey_Regular'
p11
g2
sS'oid'
p12
L34L
sS'survey_Hangouts'
p13
g2
sS'survey_Like_Intros'
p14
g2
sS'password'
p15
g2
sS'survey_Forget_phone'
p16
g2
sS'survey_Data_Plan'
p17
g2
sS'survey_Predictable_life'
p18
g2
sS'name'
p19
g2
sS'survey_Sick_Recently'
p20
g2
sS'survey_Minutes'
p21
g2
sS'survey_Position'
p22
S'2ndyeargrad'
p23
sS'survey_Hours'
p24
g2
sS'survey_Run_out_of_batteries'
p25
g2
s.(dp0
S'survey_Provider'
p1
S'T-mobile'
p2
sS'survey_Texts'
p3
S'often'
p4
sS'survey_Travel'
p5
S''
p6
sS'survey_How_often_get_sick'
p7
g6
sS'phonenumber_oid'
p8
L0L
sS'survey_Neighborhood'
p9
S'Harvard'
p10
sS'survey_ML_Community'
p11
S'a little close'
p12
sS'survey_Calling_plan'
p13
S'national'
p14
sS'email'
p15
g6
sS'survey_Regular'
p16
S'very'
p17
sS'oid'
p18
L35L
sS'survey_Hangouts'
p19
S'restaurant/bar; friends'
p20
sS'survey_Like_Intros'
p21
S'occasionally'
p22
sS'password'
p23
g6
sS'survey_Forget_phone'
p24
S'occasionally'
p25
sS'survey_Data_Plan'
p26
g6
sS'survey_Predictable_life'
p27
S'somewhat'
p28
sS'name'
p29
g6
sS'survey_Sick_Recently'
p30
g6
sS'survey_Minutes'
p31
S'600*'
p32
sS'survey_Position'
p33
S'sloan'
p34
sS'survey_Hours'
p35
S'9am-5pm'
p36
sS'survey_Run_out_of_batteries'
p37
g6
s.(dp0
S'survey_Provider'
p1
S'AT&T Wireless'
p2
sS'survey_Texts'
p3
S'Often - once/day'
p4
sS'survey_Travel'
p5
S'Rarely - several days/term'
p6
sS'survey_How_often_get_sick'
p7
S'occasionally (2-4 times a year)'
p8
sS'phonenumber_oid'
p9
L1772L
sS'survey_Neighborhood'
p10
S'On/near MIT campus'
p11
sS'survey_ML_Community'
p12
S'Somewhat close'
p13
sS'survey_Calling_plan'
p14
S'National'
p15
sS'email'
p16
S''
p17
sS'survey_Regular'
p18
S'Very'
p19
sS'oid'
p20
L36L
sS'survey_Hangouts'
p21
S'"Restaurant/Bar, friends"'
p22
sS'survey_Like_Intros'
p23
S'Occasionally - once/week'
p24
sS'password'
p25
g17
sS'survey_Forget_phone'
p26
S'Never'
p27
sS'survey_Data_Plan'
p28
S'Pay as you go/Pay per kB'
p29
sS'survey_Predictable_life'
p30
S'Somewhat'
p31
sS'name'
p32
g17
sS'survey_Sick_Recently'
p33
S'No'
p34
sS'survey_Minutes'
p35
S'Peak hours: ~800 minutes; Unlimited Night and Weekend minutes'
p36
sS'survey_Position'
p37
S'sloan'
p38
sS'survey_Hours'
p39
S'9AM ~ 5PM'
p40
sS'survey_Run_out_of_batteries'
p41
S'Rarely - once/month'
p42
s.(dp0
S'survey_Provider'
p1
S''
p2
sS'survey_Texts'
p3
g2
sS'survey_Travel'
p4
S'Sometimes - several days/month'
p5
sS'survey_How_often_get_sick'
p6
S'rarely (once a year or less)'
p7
sS'phonenumber_oid'
p8
L3770L
sS'survey_Neighborhood'
p9
g2
sS'survey_ML_Community'
p10
g2
sS'survey_Calling_plan'
p11
g2
sS'email'
p12
g2
sS'survey_Regular'
p13
g2
sS'oid'
p14
L37L
sS'survey_Hangouts'
p15
g2
sS'survey_Like_Intros'
p16
g2
sS'password'
p17
g2
sS'survey_Forget_phone'
p18
g2
sS'survey_Data_Plan'
p19
S'Unlimited'
p20
sS'survey_Predictable_life'
p21
g2
sS'name'
p22
g2
sS'survey_Sick_Recently'
p23
S'"Yes, in the last two weeks"'
p24
sS'survey_Minutes'
p25
g2
sS'survey_Position'
p26
S'ml5'
p27
sS'survey_Hours'
p28
g2
sS'survey_Run_out_of_batteries'
p29
S'Occasionally - once/week'
p30
s.(dp0
S'survey_Provider'
p1
S''
p2
sS'survey_Texts'
p3
g2
sS'survey_Travel'
p4
g2
sS'survey_How_often_get_sick'
p5
g2
sS'phonenumber_oid'
p6
L1910L
sS'survey_Neighborhood'
p7
g2
sS'survey_ML_Community'
p8
g2
sS'survey_Calling_plan'
p9
g2
sS'email'
p10
g2
sS'survey_Regular'
p11
g2
sS'oid'
p12
L38L
sS'survey_Hangouts'
p13
g2
sS'survey_Like_Intros'
p14
g2
sS'password'
p15
g2
sS'survey_Forget_phone'
p16
g2
sS'survey_Data_Plan'
p17
g2
sS'survey_Predictable_life'
p18
g2
sS'name'
p19
g2
sS'survey_Sick_Recently'
p20
g2
sS'survey_Minutes'
p21
g2
sS'survey_Position'
p22
S'sloan'
p23
sS'survey_Hours'
p24
g2
sS'survey_Run_out_of_batteries'
p25
g2
s.(dp0
S'survey_Provider'
p1
S'a little close'
p2
sS'survey_Texts'
p3
S''
p4
sS'survey_Travel'
p5
S'occasionally'
p6
sS'survey_How_often_get_sick'
p7
S'international'
p8
sS'phonenumber_oid'
p9
L863L
sS'survey_Neighborhood'
p10
S'Porter'
p11
sS'survey_ML_Community'
p12
g4
sS'survey_Calling_plan'
p13
g4
sS'email'
p14
g4
sS'survey_Regular'
p15
S'very'
p16
sS'oid'
p17
L39L
sS'survey_Hangouts'
p18
S'harvard hillel*'
p19
sS'survey_Like_Intros'
p20
g4
sS'password'
p21
g4
sS'survey_Forget_phone'
p22
S'--'
p23
sS'survey_Data_Plan'
p24
S'rarely'
p25
sS'survey_Predictable_life'
p26
S'very'
p27
sS'name'
p28
g4
sS'survey_Sick_Recently'
p29
S'400*'
p30
sS'survey_Minutes'
p31
g4
sS'survey_Position'
p32
S'student'
p33
sS'survey_Hours'
p34
S'9am-5pm'
p35
sS'survey_Run_out_of_batteries'
p36
S'T-mobile'
p37
s.(dp0
S'survey_Provider'
p1
S'AT&T'
p2
sS'survey_Texts'
p3
S'rarely'
p4
sS'survey_Travel'
p5
S''
p6
sS'survey_How_often_get_sick'
p7
g6
sS'phonenumber_oid'
p8
L2777L
sS'survey_Neighborhood'
p9
S'Central'
p10
sS'survey_ML_Community'
p11
S'somewhat'
p12
sS'survey_Calling_plan'
p13
S'national'
p14
sS'email'
p15
g6
sS'survey_Regular'
p16
S'somewhat'
p17
sS'oid'
p18
L40L
sS'survey_Hangouts'
p19
S'restaurant/bar; gym'
p20
sS'survey_Like_Intros'
p21
S'occasionally'
p22
sS'password'
p23
g6
sS'survey_Forget_phone'
p24
S'rarely'
p25
sS'survey_Data_Plan'
p26
g6
sS'survey_Predictable_life'
p27
S'somewhat'
p28
sS'name'
p29
g6
sS'survey_Sick_Recently'
p30
g6
sS'survey_Minutes'
p31
S'200'
p32
sS'survey_Position'
p33
S'sloan'
p34
sS'survey_Hours'
p35
S'11am-8pm'
p36
sS'survey_Run_out_of_batteries'
p37
g6
s.(dp0
S'survey_Provider'
p1
S''
p2
sS'survey_Texts'
p3
g2
sS'survey_Travel'
p4
g2
sS'survey_How_often_get_sick'
p5
g2
sS'phonenumber_oid'
p6
L0L
sS'survey_Neighborhood'
p7
g2
sS'survey_ML_Community'
p8
g2
sS'survey_Calling_plan'
p9
g2
sS'email'
p10
g2
sS'survey_Regular'
p11
g2
sS'oid'
p12
L41L
sS'survey_Hangouts'
p13
g2
sS'survey_Like_Intros'
p14
g2
sS'password'
p15
g2
sS'survey_Forget_phone'
p16
g2
sS'survey_Data_Plan'
p17
g2
sS'survey_Predictable_life'
p18
g2
sS'name'
p19
g2
sS'survey_Sick_Recently'
p20
g2
sS'survey_Minutes'
p21
g2
sS'survey_Position'
p22
S'prof'
p23
sS'survey_Hours'
p24
g2
sS'survey_Run_out_of_batteries'
p25
g2
s.(dp0
S'survey_Provider'
p1
S''
p2
sS'survey_Texts'
p3
g2
sS'survey_Travel'
p4
g2
sS'survey_How_often_get_sick'
p5
g2
sS'phonenumber_oid'
p6
L1803L
sS'survey_Neighborhood'
p7
g2
sS'survey_ML_Community'
p8
g2
sS'survey_Calling_plan'
p9
g2
sS'email'
p10
g2
sS'survey_Regular'
p11
g2
sS'oid'
p12
L42L
sS'survey_Hangouts'
p13
g2
sS'survey_Like_Intros'
p14
g2
sS'password'
p15
g2
sS'survey_Forget_phone'
p16
g2
sS'survey_Data_Plan'
p17
g2
sS'survey_Predictable_life'
p18
g2
sS'name'
p19
g2
sS'survey_Sick_Recently'
p20
g2
sS'survey_Minutes'
p21
g2
sS'survey_Position'
p22
S'sloan'
p23
sS'survey_Hours'
p24
g2
sS'survey_Run_out_of_batteries'
p25
g2
s.(dp0
S'survey_Provider'
p1
S'T-mobile'
p2
sS'survey_Texts'
p3
S'very often'
p4
sS'survey_Travel'
p5
S'Sometimes - several days/month'
p6
sS'survey_How_often_get_sick'
p7
S'occasionally (2-4 times a year)'
p8
sS'phonenumber_oid'
p9
L298L
sS'survey_Neighborhood'
p10
S'Inman Square*'
p11
sS'survey_ML_Community'
p12
S'somewhat close'
p13
sS'survey_Calling_plan'
p14
S'national'
p15
sS'email'
p16
S''
p17
sS'survey_Regular'
p18
S'somewhat'
p19
sS'oid'
p20
L43L
sS'survey_Hangouts'
p21
S'restaurant/bar'
p22
sS'survey_Like_Intros'
p23
S'often'
p24
sS'password'
p25
g17
sS'survey_Forget_phone'
p26
S'never'
p27
sS'survey_Data_Plan'
p28
S'Pay as you go/Pay per kB'
p29
sS'survey_Predictable_life'
p30
S'not at all'
p31
sS'name'
p32
g17
sS'survey_Sick_Recently'
p33
S'No'
p34
sS'survey_Minutes'
p35
S'200'
p36
sS'survey_Position'
p37
S'mlgrad'
p38
sS'survey_Hours'
p39
S'2pm-11pm'
p40
sS'survey_Run_out_of_batteries'
p41
S'Occasionally - once/week'
p42
s.(dp0
S'survey_Provider'
p1
S''
p2
sS'survey_Texts'
p3
g2
sS'survey_Travel'
p4
g2
sS'survey_How_often_get_sick'
p5
g2
sS'phonenumber_oid'
p6
L3776L
sS'survey_Neighborhood'
p7
g2
sS'survey_ML_Community'
p8
g2
sS'survey_Calling_plan'
p9
g2
sS'email'
p10
g2
sS'survey_Regular'
p11
g2
sS'oid'
p12
L44L
sS'survey_Hangouts'
p13
g2
sS'survey_Like_Intros'
p14
g2
sS'password'
p15
g2
sS'survey_Forget_phone'
p16
g2
sS'survey_Data_Plan'
p17
g2
sS'survey_Predictable_life'
p18
g2
sS'name'
p19
g2
sS'survey_Sick_Recently'
p20
g2
sS'survey_Minutes'
p21
g2
sS'survey_Position'
p22
S'3rdyeargrad'
p23
sS'survey_Hours'
p24
g2
sS'survey_Run_out_of_batteries'
p25
g2
s.(dp0
S'survey_Provider'
p1
S''
p2
sS'survey_Texts'
p3
g2
sS'survey_Travel'
p4
g2
sS'survey_How_often_get_sick'
p5
g2
sS'phonenumber_oid'
p6
L2820L
sS'survey_Neighborhood'
p7
g2
sS'survey_ML_Community'
p8
g2
sS'survey_Calling_plan'
p9
g2
sS'email'
p10
g2
sS'survey_Regular'
p11
g2
sS'oid'
p12
L45L
sS'survey_Hangouts'
p13
g2
sS'survey_Like_Intros'
p14
g2
sS'password'
p15
g2
sS'survey_Forget_phone'
p16
g2
sS'survey_Data_Plan'
p17
g2
sS'survey_Predictable_life'
p18
g2
sS'name'
p19
g2
sS'survey_Sick_Recently'
p20
g2
sS'survey_Minutes'
p21
g2
sS'survey_Position'
p22
S'sloan'
p23
sS'survey_Hours'
p24
g2
sS'survey_Run_out_of_batteries'
p25
g2
s.(dp0
S'survey_Provider'
p1
S'T-mobile'
p2
sS'survey_Texts'
p3
S'rarely'
p4
sS'survey_Travel'
p5
S'Rarely - several days/term'
p6
sS'survey_How_often_get_sick'
p7
S'occasionally (2-4 times a year)'
p8
sS'phonenumber_oid'
p9
L2026L
sS'survey_Neighborhood'
p10
S'Inman Square*'
p11
sS'survey_ML_Community'
p12
S'very close'
p13
sS'survey_Calling_plan'
p14
S'national'
p15
sS'email'
p16
S''
p17
sS'survey_Regular'
p18
S'not at all'
p19
sS'oid'
p20
L46L
sS'survey_Hangouts'
p21
S'"restaurant/bar, friends"'
p22
sS'survey_Like_Intros'
p23
S'rarely'
p24
sS'password'
p25
g17
sS'survey_Forget_phone'
p26
S'rarely'
p27
sS'survey_Data_Plan'
p28
S'None'
p29
sS'survey_Predictable_life'
p30
S'somewhat'
p31
sS'name'
p32
g17
sS'survey_Sick_Recently'
p33
S'No'
p34
sS'survey_Minutes'
p35
S'500'
p36
sS'survey_Position'
p37
S'sloan'
p38
sS'survey_Hours'
p39
S'11am-8pm'
p40
sS'survey_Run_out_of_batteries'
p41
S'Rarely - once/month'
p42
s.(dp0
S'survey_Provider'
p1
S'T-mobile'
p2
sS'survey_Texts'
p3
S'ocasionally'
p4
sS'survey_Travel'
p5
S''
p6
sS'survey_How_often_get_sick'
p7
g6
sS'phonenumber_oid'
p8
L140L
sS'survey_Neighborhood'
p9
S'Porter'
p10
sS'survey_ML_Community'
p11
S'very close'
p12
sS'survey_Calling_plan'
p13
g6
sS'email'
p14
g6
sS'survey_Regular'
p15
S'somewhat'
p16
sS'oid'
p17
L47L
sS'survey_Hangouts'
p18
S'restaurant/bar; friends'
p19
sS'survey_Like_Intros'
p20
S'ocasionally'
p21
sS'password'
p22
g6
sS'survey_Forget_phone'
p23
S'rarely'
p24
sS'survey_Data_Plan'
p25
g6
sS'survey_Predictable_life'
p26
S'very'
p27
sS'name'
p28
g6
sS'survey_Sick_Recently'
p29
g6
sS'survey_Minutes'
p30
S'200'
p31
sS'survey_Position'
p32
S'6years'
p33
sS'survey_Hours'
p34
S'11am-8pm'
p35
sS'survey_Run_out_of_batteries'
p36
g6
s.(dp0
S'survey_Provider'
p1
S''
p2
sS'survey_Texts'
p3
g2
sS'survey_Travel'
p4
g2
sS'survey_How_often_get_sick'
p5
g2
sS'phonenumber_oid'
p6
L3781L
sS'survey_Neighborhood'
p7
g2
sS'survey_ML_Community'
p8
g2
sS'survey_Calling_plan'
p9
g2
sS'email'
p10
g2
sS'survey_Regular'
p11
g2
sS'oid'
p12
L48L
sS'survey_Hangouts'
p13
g2
sS'survey_Like_Intros'
p14
g2
sS'password'
p15
g2
sS'survey_Forget_phone'
p16
g2
sS'survey_Data_Plan'
p17
g2
sS'survey_Predictable_life'
p18
g2
sS'name'
p19
g2
sS'survey_Sick_Recently'
p20
g2
sS'survey_Minutes'
p21
g2
sS'survey_Position'
p22
S'Germany'
p23
sS'survey_Hours'
p24
g2
sS'survey_Run_out_of_batteries'
p25
g2
s.(dp0
S'survey_Provider'
p1
S'AT&T'
p2
sS'survey_Texts'
p3
S'never'
p4
sS'survey_Travel'
p5
S''
p6
sS'survey_How_often_get_sick'
p7
g6
sS'phonenumber_oid'
p8
L3780L
sS'survey_Neighborhood'
p9
S'MIT'
p10
sS'survey_ML_Community'
p11
S'somewhat'
p12
sS'survey_Calling_plan'
p13
S'local'
p14
sS'email'
p15
g6
sS'survey_Regular'
p16
S'very'
p17
sS'oid'
p18
L49L
sS'survey_Hangouts'
p19
S'friends'
p20
sS'survey_Like_Intros'
p21
S'occasionally'
p22
sS'password'
p23
g6
sS'survey_Forget_phone'
p24
S'occasionally'
p25
sS'survey_Data_Plan'
p26
g6
sS'survey_Predictable_life'
p27
S'very'
p28
sS'name'
p29
g6
sS'survey_Sick_Recently'
p30
g6
sS'survey_Minutes'
p31
S'200'
p32
sS'survey_Position'
p33
S'6thyeargrad'
p34
sS'survey_Hours'
p35
S'11am-8pm'
p36
sS'survey_Run_out_of_batteries'
p37
g6
s.(dp0
S'survey_Provider'
p1
S'T-mobile'
p2
sS'survey_Texts'
p3
S'very often'
p4
sS'survey_Travel'
p5
S'Rarely - several days/term'
p6
sS'survey_How_often_get_sick'
p7
S'often (5-10) times a year'
p8
sS'phonenumber_oid'
p9
L2301L
sS'survey_Neighborhood'
p10
S'Boston'
p11
sS'survey_ML_Community'
p12
S'a little close'
p13
sS'survey_Calling_plan'
p14
S'national'
p15
sS'email'
p16
S''
p17
sS'survey_Regular'
p18
S'very'
p19
sS'oid'
p20
L50L
sS'survey_Hangouts'
p21
S'restaurant/bar; gym; friends'
p22
sS'survey_Like_Intros'
p23
S'never'
p24
sS'password'
p25
g17
sS'survey_Forget_phone'
p26
S'rarely'
p27
sS'survey_Data_Plan'
p28
S'None'
p29
sS'survey_Predictable_life'
p30
S'somewhat'
p31
sS'name'
p32
g17
sS'survey_Sick_Recently'
p33
S'"Yes, in the last week"'
p34
sS'survey_Minutes'
p35
S'800'
p36
sS'survey_Position'
p37
S'sloan'
p38
sS'survey_Hours'
p39
S'9am-5pm'
p40
sS'survey_Run_out_of_batteries'
p41
S'Occasionally - once/week'
p42
s.(dp0
S'survey_Provider'
p1
S'T-mobile'
p2
sS'survey_Texts'
p3
S'never'
p4
sS'survey_Travel'
p5
S'Rarely - several days/term'
p6
sS'survey_How_often_get_sick'
p7
S'rarely (once a year or less)'
p8
sS'phonenumber_oid'
p9
L2364L
sS'survey_Neighborhood'
p10
S'Boston'
p11
sS'survey_ML_Community'
p12
S'a little close'
p13
sS'survey_Calling_plan'
p14
S'local'
p15
sS'email'
p16
S''
p17
sS'survey_Regular'
p18
S'somewhat'
p19
sS'oid'
p20
L51L
sS'survey_Hangouts'
p21
S'gym'
p22
sS'survey_Like_Intros'
p23
S'occasionally'
p24
sS'password'
p25
g17
sS'survey_Forget_phone'
p26
S'occasionally'
p27
sS'survey_Data_Plan'
p28
S'None'
p29
sS'survey_Predictable_life'
p30
S'somewhat'
p31
sS'name'
p32
g17
sS'survey_Sick_Recently'
p33
S'No'
p34
sS'survey_Minutes'
p35
S'500'
p36
sS'survey_Position'
p37
S'1styeargrad'
p38
sS'survey_Hours'
p39
S'10:30am-12pm*'
p40
sS'survey_Run_out_of_batteries'
p41
S'Occasionally - once/week'
p42
s.(dp0
S'survey_Provider'
p1
S''
p2
sS'survey_Texts'
p3
g2
sS'survey_Travel'
p4
g2
sS'survey_How_often_get_sick'
p5
g2
sS'phonenumber_oid'
p6
L0L
sS'survey_Neighborhood'
p7
g2
sS'survey_ML_Community'
p8
g2
sS'survey_Calling_plan'
p9
g2
sS'email'
p10
g2
sS'survey_Regular'
p11
g2
sS'oid'
p12
L52L
sS'survey_Hangouts'
p13
g2
sS'survey_Like_Intros'
p14
g2
sS'password'
p15
g2
sS'survey_Forget_phone'
p16
g2
sS'survey_Data_Plan'
p17
g2
sS'survey_Predictable_life'
p18
g2
sS'name'
p19
g2
sS'survey_Sick_Recently'
p20
g2
sS'survey_Minutes'
p21
g2
sS'survey_Position'
p22
g2
sS'survey_Hours'
p23
g2
sS'survey_Run_out_of_batteries'
p24
g2
s.(dp0
S'survey_Provider'
p1
S'T-mobile'
p2
sS'survey_Texts'
p3
S'often'
p4
sS'survey_Travel'
p5
S''
p6
sS'survey_How_often_get_sick'
p7
g6
sS'phonenumber_oid'
p8
L2842L
sS'survey_Neighborhood'
p9
S'MIT'
p10
sS'survey_ML_Community'
p11
S'somewhat'
p12
sS'survey_Calling_plan'
p13
S'national'
p14
sS'email'
p15
g6
sS'survey_Regular'
p16
S'very'
p17
sS'oid'
p18
L53L
sS'survey_Hangouts'
p19
S'friends'
p20
sS'survey_Like_Intros'
p21
S'rarely'
p22
sS'password'
p23
g6
sS'survey_Forget_phone'
p24
S'never'
p25
sS'survey_Data_Plan'
p26
g6
sS'survey_Predictable_life'
p27
S'very'
p28
sS'name'
p29
g6
sS'survey_Sick_Recently'
p30
g6
sS'survey_Minutes'
p31
S'500'
p32
sS'survey_Position'
p33
S'3rdyeargrad'
p34
sS'survey_Hours'
p35
S'11am-8pm'
p36
sS'survey_Run_out_of_batteries'
p37
g6
s.(dp0
S'survey_Provider'
p1
S'T-mobile'
p2
sS'survey_Texts'
p3
S'very often'
p4
sS'survey_Travel'
p5
S''
p6
sS'survey_How_often_get_sick'
p7
g6
sS'phonenumber_oid'
p8
L197L
sS'survey_Neighborhood'
p9
S'MIT'
p10
sS'survey_ML_Community'
p11
S'somewhat close'
p12
sS'survey_Calling_plan'
p13
S'national'
p14
sS'email'
p15
g6
sS'survey_Regular'
p16
S'not at all'
p17
sS'oid'
p18
L54L
sS'survey_Hangouts'
p19
S'gym'
p20
sS'survey_Like_Intros'
p21
S'ocasionally'
p22
sS'password'
p23
g6
sS'survey_Forget_phone'
p24
S'often'
p25
sS'survey_Data_Plan'
p26
g6
sS'survey_Predictable_life'
p27
S'not at all'
p28
sS'name'
p29
g6
sS'survey_Sick_Recently'
p30
g6
sS'survey_Minutes'
p31
S'500'
p32
sS'survey_Position'
p33
S'mlgrad'
p34
sS'survey_Hours'
p35
S'9am-5pm'
p36
sS'survey_Run_out_of_batteries'
p37
g6
s.(dp0
S'survey_Provider'
p1
S''
p2
sS'survey_Texts'
p3
g2
sS'survey_Travel'
p4
g2
sS'survey_How_often_get_sick'
p5
g2
sS'phonenumber_oid'
p6
L0L
sS'survey_Neighborhood'
p7
g2
sS'survey_ML_Community'
p8
g2
sS'survey_Calling_plan'
p9
g2
sS'email'
p10
g2
sS'survey_Regular'
p11
g2
sS'oid'
p12
L55L
sS'survey_Hangouts'
p13
g2
sS'survey_Like_Intros'
p14
g2
sS'password'
p15
g2
sS'survey_Forget_phone'
p16
g2
sS'survey_Data_Plan'
p17
g2
sS'survey_Predictable_life'
p18
g2
sS'name'
p19
g2
sS'survey_Sick_Recently'
p20
g2
sS'survey_Minutes'
p21
g2
sS'survey_Position'
p22
S'urop_hd'
p23
sS'survey_Hours'
p24
g2
sS'survey_Run_out_of_batteries'
p25
g2
s.(dp0
S'survey_Provider'
p1
S''
p2
sS'survey_Texts'
p3
g2
sS'survey_Travel'
p4
g2
sS'survey_How_often_get_sick'
p5
g2
sS'phonenumber_oid'
p6
L2881L
sS'survey_Neighborhood'
p7
g2
sS'survey_ML_Community'
p8
g2
sS'survey_Calling_plan'
p9
g2
sS'email'
p10
g2
sS'survey_Regular'
p11
g2
sS'oid'
p12
L56L
sS'survey_Hangouts'
p13
g2
sS'survey_Like_Intros'
p14
g2
sS'password'
p15
g2
sS'survey_Forget_phone'
p16
g2
sS'survey_Data_Plan'
p17
g2
sS'survey_Predictable_life'
p18
g2
sS'name'
p19
g2
sS'survey_Sick_Recently'
p20
g2
sS'survey_Minutes'
p21
g2
sS'survey_Position'
p22
S'sloan'
p23
sS'survey_Hours'
p24
g2
sS'survey_Run_out_of_batteries'
p25
g2
s.(dp0
S'survey_Provider'
p1
S'T-mobile'
p2
sS'survey_Texts'
p3
S'often'
p4
sS'survey_Travel'
p5
S'Sometimes - several days/month'
p6
sS'survey_How_often_get_sick'
p7
S'rarely (once a year or less)'
p8
sS'phonenumber_oid'
p9
L341L
sS'survey_Neighborhood'
p10
S'Boston'
p11
sS'survey_ML_Community'
p12
S'somewhat'
p13
sS'survey_Calling_plan'
p14
S'national'
p15
sS'email'
p16
S''
p17
sS'survey_Regular'
p18
S'very'
p19
sS'oid'
p20
L57L
sS'survey_Hangouts'
p21
S'restaurant/bar; gym'
p22
sS'survey_Like_Intros'
p23
S'often'
p24
sS'password'
p25
g17
sS'survey_Forget_phone'
p26
S'never'
p27
sS'survey_Data_Plan'
p28
S'Pay as you go/Pay per kB'
p29
sS'survey_Predictable_life'
p30
S'very'
p31
sS'name'
p32
g17
sS'survey_Sick_Recently'
p33
S'"Yes, in the last month"'
p34
sS'survey_Minutes'
p35
S'500'
p36
sS'survey_Position'
p37
S'student'
p38
sS'survey_Hours'
p39
S'2pm-11pm'
p40
sS'survey_Run_out_of_batteries'
p41
S'Rarely - once/month'
p42
s.(dp0
S'survey_Provider'
p1
S''
p2
sS'survey_Texts'
p3
g2
sS'survey_Travel'
p4
g2
sS'survey_How_often_get_sick'
p5
g2
sS'phonenumber_oid'
p6
L0L
sS'survey_Neighborhood'
p7
g2
sS'survey_ML_Community'
p8
g2
sS'survey_Calling_plan'
p9
g2
sS'email'
p10
g2
sS'survey_Regular'
p11
g2
sS'oid'
p12
L58L
sS'survey_Hangouts'
p13
g2
sS'survey_Like_Intros'
p14
g2
sS'password'
p15
g2
sS'survey_Forget_phone'
p16
g2
sS'survey_Data_Plan'
p17
g2
sS'survey_Predictable_life'
p18
g2
sS'name'
p19
g2
sS'survey_Sick_Recently'
p20
g2
sS'survey_Minutes'
p21
g2
sS'survey_Position'
p22
S'masfrosh'
p23
sS'survey_Hours'
p24
g2
sS'survey_Run_out_of_batteries'
p25
g2
s.(dp0
S'survey_Provider'
p1
S'other*'
p2
sS'survey_Texts'
p3
S'never'
p4
sS'survey_Travel'
p5
S''
p6
sS'survey_How_often_get_sick'
p7
g6
sS'phonenumber_oid'
p8
L0L
sS'survey_Neighborhood'
p9
S'MIT'
p10
sS'survey_ML_Community'
p11
S'a little close'
p12
sS'survey_Calling_plan'
p13
S'local'
p14
sS'email'
p15
g6
sS'survey_Regular'
p16
S'somewhat'
p17
sS'oid'
p18
L59L
sS'survey_Hangouts'
p19
S'restaurant/bar'
p20
sS'survey_Like_Intros'
p21
S'never'
p22
sS'password'
p23
g6
sS'survey_Forget_phone'
p24
S'occasionally'
p25
sS'survey_Data_Plan'
p26
g6
sS'survey_Predictable_life'
p27
S'somewhat'
p28
sS'name'
p29
g6
sS'survey_Sick_Recently'
p30
g6
sS'survey_Minutes'
p31
S'other*'
p32
sS'survey_Position'
p33
S'student'
p34
sS'survey_Hours'
p35
S'9am-5pm'
p36
sS'survey_Run_out_of_batteries'
p37
g6
s.(dp0
S'survey_Provider'
p1
S''
p2
sS'survey_Texts'
p3
g2
sS'survey_Travel'
p4
S'Sometimes - several days/month'
p5
sS'survey_How_often_get_sick'
p6
S'occasionally (2-4 times a year)'
p7
sS'phonenumber_oid'
p8
L3769L
sS'survey_Neighborhood'
p9
g2
sS'survey_ML_Community'
p10
g2
sS'survey_Calling_plan'
p11
g2
sS'email'
p12
g2
sS'survey_Regular'
p13
g2
sS'oid'
p14
L60L
sS'survey_Hangouts'
p15
g2
sS'survey_Like_Intros'
p16
g2
sS'password'
p17
g2
sS'survey_Forget_phone'
p18
g2
sS'survey_Data_Plan'
p19
S'Unlimited'
p20
sS'survey_Predictable_life'
p21
g2
sS'name'
p22
g2
sS'survey_Sick_Recently'
p23
S'No'
p24
sS'survey_Minutes'
p25
g2
sS'survey_Position'
p26
S'8thyear'
p27
sS'survey_Hours'
p28
g2
sS'survey_Run_out_of_batteries'
p29
S'Occasionally - once/week'
p30
s.(dp0
S'survey_Provider'
p1
S''
p2
sS'survey_Texts'
p3
g2
sS'survey_Travel'
p4
S'Rarely - several days/term'
p5
sS'survey_How_often_get_sick'
p6
S'often (5-10) times a year'
p7
sS'phonenumber_oid'
p8
L3766L
sS'survey_Neighborhood'
p9
g2
sS'survey_ML_Community'
p10
g2
sS'survey_Calling_plan'
p11
g2
sS'email'
p12
g2
sS'survey_Regular'
p13
g2
sS'oid'
p14
L61L
sS'survey_Hangouts'
p15
g2
sS'survey_Like_Intros'
p16
g2
sS'password'
p17
g2
sS'survey_Forget_phone'
p18
g2
sS'survey_Data_Plan'
p19
S'None'
p20
sS'survey_Predictable_life'
p21
g2
sS'name'
p22
g2
sS'survey_Sick_Recently'
p23
S'"Yes, in the last week"'
p24
sS'survey_Minutes'
p25
g2
sS'survey_Position'
p26
S'masfrosh'
p27
sS'survey_Hours'
p28
g2
sS'survey_Run_out_of_batteries'
p29
S'Occasionally - once/week'
p30
s.(dp0
S'survey_Provider'
p1
S'T-mobile'
p2
sS'survey_Texts'
p3
S'occasionally'
p4
sS'survey_Travel'
p5
S''
p6
sS'survey_How_often_get_sick'
p7
g6
sS'phonenumber_oid'
p8
L1962L
sS'survey_Neighborhood'
p9
S'Central'
p10
sS'survey_ML_Community'
p11
S'a little close'
p12
sS'survey_Calling_plan'
p13
S'national'
p14
sS'email'
p15
g6
sS'survey_Regular'
p16
S'very'
p17
sS'oid'
p18
L62L
sS'survey_Hangouts'
p19
S'caf\xe9*'
p20
sS'survey_Like_Intros'
p21
S'often'
p22
sS'password'
p23
g6
sS'survey_Forget_phone'
p24
S'never'
p25
sS'survey_Data_Plan'
p26
g6
sS'survey_Predictable_life'
p27
S'very'
p28
sS'name'
p29
g6
sS'survey_Sick_Recently'
p30
g6
sS'survey_Minutes'
p31
S'200'
p32
sS'survey_Position'
p33
S'csail'
p34
sS'survey_Hours'
p35
S'2pm-11pm'
p36
sS'survey_Run_out_of_batteries'
p37
g6
s.(dp0
S'survey_Provider'
p1
S''
p2
sS'survey_Texts'
p3
g2
sS'survey_Travel'
p4
S'Rarely - several days/term'
p5
sS'survey_How_often_get_sick'
p6
S'occasionally (2-4 times a year)'
p7
sS'phonenumber_oid'
p8
L0L
sS'survey_Neighborhood'
p9
g2
sS'survey_ML_Community'
p10
g2
sS'survey_Calling_plan'
p11
g2
sS'email'
p12
g2
sS'survey_Regular'
p13
g2
sS'oid'
p14
L63L
sS'survey_Hangouts'
p15
g2
sS'survey_Like_Intros'
p16
g2
sS'password'
p17
g2
sS'survey_Forget_phone'
p18
g2
sS'survey_Data_Plan'
p19
S'None'
p20
sS'survey_Predictable_life'
p21
g2
sS'name'
p22
g2
sS'survey_Sick_Recently'
p23
S'No'
p24
sS'survey_Minutes'
p25
g2
sS'survey_Position'
p26
S'mlgrad'
p27
sS'survey_Hours'
p28
g2
sS'survey_Run_out_of_batteries'
p29
S'Rarely - once/month'
p30
s.(dp0
S'survey_Provider'
p1
S'T-mobile'
p2
sS'survey_Texts'
p3
S'rarely'
p4
sS'survey_Travel'
p5
S'Often - week/month'
p6
sS'survey_How_often_get_sick'
p7
S'rarely (once a year or less)'
p8
sS'phonenumber_oid'
p9
L3772L
sS'survey_Neighborhood'
p10
S'Porter'
p11
sS'survey_ML_Community'
p12
S'somewhat'
p13
sS'survey_Calling_plan'
p14
S'national'
p15
sS'email'
p16
S''
p17
sS'survey_Regular'
p18
S'very'
p19
sS'oid'
p20
L64L
sS'survey_Hangouts'
p21
S'gym; friends'
p22
sS'survey_Like_Intros'
p23
S'occasionally'
p24
sS'password'
p25
g17
sS'survey_Forget_phone'
p26
S'rarely'
p27
sS'survey_Data_Plan'
p28
S'None'
p29
sS'survey_Predictable_life'
p30
S'very'
p31
sS'name'
p32
g17
sS'survey_Sick_Recently'
p33
S'No'
p34
sS'survey_Minutes'
p35
S'500'
p36
sS'survey_Position'
p37
S'sloan'
p38
sS'survey_Hours'
p39
S'11am-8pm'
p40
sS'survey_Run_out_of_batteries'
p41
S'Rarely - once/month'
p42
s.(dp0
S'survey_Provider'
p1
S''
p2
sS'survey_Texts'
p3
g2
sS'survey_Travel'
p4
S'Rarely - several days/term'
p5
sS'survey_How_often_get_sick'
p6
S'occasionally (2-4 times a year)'
p7
sS'phonenumber_oid'
p8
L420L
sS'survey_Neighborhood'
p9
g2
sS'survey_ML_Community'
p10
g2
sS'survey_Calling_plan'
p11
g2
sS'email'
p12
g2
sS'survey_Regular'
p13
g2
sS'oid'
p14
L65L
sS'survey_Hangouts'
p15
g2
sS'survey_Like_Intros'
p16
g2
sS'password'
p17
g2
sS'survey_Forget_phone'
p18
g2
sS'survey_Data_Plan'
p19
S'None'
p20
sS'survey_Predictable_life'
p21
g2
sS'name'
p22
g2
sS'survey_Sick_Recently'
p23
S'"Yes, in the last month"'
p24
sS'survey_Minutes'
p25
g2
sS'survey_Position'
p26
S'mlgrad'
p27
sS'survey_Hours'
p28
g2
sS'survey_Run_out_of_batteries'
p29
S'Rarely - once/month'
p30
s.(dp0
S'survey_Provider'
p1
S''
p2
sS'survey_Texts'
p3
g2
sS'survey_Travel'
p4
g2
sS'survey_How_often_get_sick'
p5
g2
sS'phonenumber_oid'
p6
L1789L
sS'survey_Neighborhood'
p7
g2
sS'survey_ML_Community'
p8
g2
sS'survey_Calling_plan'
p9
g2
sS'email'
p10
g2
sS'survey_Regular'
p11
g2
sS'oid'
p12
L66L
sS'survey_Hangouts'
p13
g2
sS'survey_Like_Intros'
p14
g2
sS'password'
p15
g2
sS'survey_Forget_phone'
p16
g2
sS'survey_Data_Plan'
p17
g2
sS'survey_Predictable_life'
p18
g2
sS'name'
p19
g2
sS'survey_Sick_Recently'
p20
g2
sS'survey_Minutes'
p21
g2
sS'survey_Position'
p22
S'sloan'
p23
sS'survey_Hours'
p24
g2
sS'survey_Run_out_of_batteries'
p25
g2
s.(dp0
S'survey_Provider'
p1
S''
p2
sS'survey_Texts'
p3
g2
sS'survey_Travel'
p4
g2
sS'survey_How_often_get_sick'
p5
g2
sS'phonenumber_oid'
p6
L1784L
sS'survey_Neighborhood'
p7
g2
sS'survey_ML_Community'
p8
g2
sS'survey_Calling_plan'
p9
g2
sS'email'
p10
g2
sS'survey_Regular'
p11
g2
sS'oid'
p12
L67L
sS'survey_Hangouts'
p13
g2
sS'survey_Like_Intros'
p14
g2
sS'password'
p15
g2
sS'survey_Forget_phone'
p16
g2
sS'survey_Data_Plan'
p17
g2
sS'survey_Predictable_life'
p18
g2
sS'name'
p19
g2
sS'survey_Sick_Recently'
p20
g2
sS'survey_Minutes'
p21
g2
sS'survey_Position'
p22
S'sloan'
p23
sS'survey_Hours'
p24
g2
sS'survey_Run_out_of_batteries'
p25
g2
s.(dp0
S'survey_Provider'
p1
S'T-mobile'
p2
sS'survey_Texts'
p3
S'often'
p4
sS'survey_Travel'
p5
S'Rarely - several days/term'
p6
sS'survey_How_often_get_sick'
p7
S'often (5-10) times a year'
p8
sS'phonenumber_oid'
p9
L1557L
sS'survey_Neighborhood'
p10
S'MIt'
p11
sS'survey_ML_Community'
p12
S'somewhat'
p13
sS'survey_Calling_plan'
p14
S'national'
p15
sS'email'
p16
S''
p17
sS'survey_Regular'
p18
S'not at all'
p19
sS'oid'
p20
L68L
sS'survey_Hangouts'
p21
S'campus*'
p22
sS'survey_Like_Intros'
p23
S'never'
p24
sS'password'
p25
g17
sS'survey_Forget_phone'
p26
S'occasionally'
p27
sS'survey_Data_Plan'
p28
S'Pay as you go/Pay per kB'
p29
sS'survey_Predictable_life'
p30
S'somewhat'
p31
sS'name'
p32
g17
sS'survey_Sick_Recently'
p33
S'"Yes, in the last two weeks"'
p34
sS'survey_Minutes'
p35
S'500;800'
p36
sS'survey_Position'
p37
S'mlfrosh'
p38
sS'survey_Hours'
p39
S'no schedule*'
p40
sS'survey_Run_out_of_batteries'
p41
S'Occasionally - once/week'
p42
s.(dp0
S'survey_Provider'
p1
S''
p2
sS'survey_Texts'
p3
g2
sS'survey_Travel'
p4
S'Rarely - several days/term'
p5
sS'survey_How_often_get_sick'
p6
S'rarely (once a year or less)'
p7
sS'phonenumber_oid'
p8
L0L
sS'survey_Neighborhood'
p9
g2
sS'survey_ML_Community'
p10
g2
sS'survey_Calling_plan'
p11
g2
sS'email'
p12
g2
sS'survey_Regular'
p13
g2
sS'oid'
p14
L69L
sS'survey_Hangouts'
p15
g2
sS'survey_Like_Intros'
p16
g2
sS'password'
p17
g2
sS'survey_Forget_phone'
p18
g2
sS'survey_Data_Plan'
p19
S'None'
p20
sS'survey_Predictable_life'
p21
g2
sS'name'
p22
g2
sS'survey_Sick_Recently'
p23
S'"Yes, in the last month"'
p24
sS'survey_Minutes'
p25
g2
sS'survey_Position'
p26
S'newgrad'
p27
sS'survey_Hours'
p28
g2
sS'survey_Run_out_of_batteries'
p29
S'Rarely - once/month'
p30
s.(dp0
S'survey_Provider'
p1
S'cingular'
p2
sS'survey_Texts'
p3
S'never'
p4
sS'survey_Travel'
p5
S'Rarely - several days/term'
p6
sS'survey_How_often_get_sick'
p7
S'occasionally (2-4 times a year)'
p8
sS'phonenumber_oid'
p9
L3011L
sS'survey_Neighborhood'
p10
S'MIT'
p11
sS'survey_ML_Community'
p12
S'a little close'
p13
sS'survey_Calling_plan'
p14
S'national'
p15
sS'email'
p16
S''
p17
sS'survey_Regular'
p18
S'somewhat'
p19
sS'oid'
p20
L70L
sS'survey_Hangouts'
p21
S'friends'
p22
sS'survey_Like_Intros'
p23
S'often'
p24
sS'password'
p25
g17
sS'survey_Forget_phone'
p26
S'never'
p27
sS'survey_Data_Plan'
p28
S'None'
p29
sS'survey_Predictable_life'
p30
S'somewhat'
p31
sS'name'
p32
g17
sS'survey_Sick_Recently'
p33
S'"Yes, in the last two weeks"'
p34
sS'survey_Minutes'
p35
S'1000'
p36
sS'survey_Position'
p37
S'masfrosh'
p38
sS'survey_Hours'
p39
S'4pm-8pm*`'
p40
sS'survey_Run_out_of_batteries'
p41
S'Occasionally - once/week'
p42
s.(dp0
S'survey_Provider'
p1
S'cingular'
p2
sS'survey_Texts'
p3
S'rarely'
p4
sS'survey_Travel'
p5
S''
p6
sS'survey_How_often_get_sick'
p7
g6
sS'phonenumber_oid'
p8
L765L
sS'survey_Neighborhood'
p9
S'MIT'
p10
sS'survey_ML_Community'
p11
S'somewhat'
p12
sS'survey_Calling_plan'
p13
S'national'
p14
sS'email'
p15
g6
sS'survey_Regular'
p16
S'somewhat'
p17
sS'oid'
p18
L71L
sS'survey_Hangouts'
p19
S'friends'
p20
sS'survey_Like_Intros'
p21
S'occasionally'
p22
sS'password'
p23
g6
sS'survey_Forget_phone'
p24
S'rarely'
p25
sS'survey_Data_Plan'
p26
g6
sS'survey_Predictable_life'
p27
S'somewhat'
p28
sS'name'
p29
g6
sS'survey_Sick_Recently'
p30
g6
sS'survey_Minutes'
p31
S'500'
p32
sS'survey_Position'
p33
S'newgrad'
p34
sS'survey_Hours'
p35
S'9am-5pm'
p36
sS'survey_Run_out_of_batteries'
p37
g6
s.(dp0
S'survey_Provider'
p1
S'T-mobile'
p2
sS'survey_Texts'
p3
S'rarely'
p4
sS'survey_Travel'
p5
S''
p6
sS'survey_How_often_get_sick'
p7
g6
sS'phonenumber_oid'
p8
L2875L
sS'survey_Neighborhood'
p9
S'Central Square'
p10
sS'survey_ML_Community'
p11
S'a little close'
p12
sS'survey_Calling_plan'
p13
S'national'
p14
sS'email'
p15
g6
sS'survey_Regular'
p16
S'very'
p17
sS'oid'
p18
L72L
sS'survey_Hangouts'
p19
S'"gym, friends"'
p20
sS'survey_Like_Intros'
p21
S'often'
p22
sS'password'
p23
g6
sS'survey_Forget_phone'
p24
S'rarely'
p25
sS'survey_Data_Plan'
p26
g6
sS'survey_Predictable_life'
p27
S'somewhat'
p28
sS'name'
p29
g6
sS'survey_Sick_Recently'
p30
g6
sS'survey_Minutes'
p31
S'200'
p32
sS'survey_Position'
p33
S'sloan'
p34
sS'survey_Hours'
p35
S'11am-8pm'
p36
sS'survey_Run_out_of_batteries'
p37
g6
s.(dp0
S'survey_Provider'
p1
S''
p2
sS'survey_Texts'
p3
g2
sS'survey_Travel'
p4
g2
sS'survey_How_often_get_sick'
p5
g2
sS'phonenumber_oid'
p6
L73L
sS'survey_Neighborhood'
p7
g2
sS'survey_ML_Community'
p8
g2
sS'survey_Calling_plan'
p9
g2
sS'email'
p10
g2
sS'survey_Regular'
p11
g2
sS'oid'
p12
L73L
sS'survey_Hangouts'
p13
g2
sS'survey_Like_Intros'
p14
g2
sS'password'
p15
g2
sS'survey_Forget_phone'
p16
g2
sS'survey_Data_Plan'
p17
g2
sS'survey_Predictable_life'
p18
g2
sS'name'
p19
g2
sS'survey_Sick_Recently'
p20
g2
sS'survey_Minutes'
p21
g2
sS'survey_Position'
p22
S'sloan'
p23
sS'survey_Hours'
p24
g2
sS'survey_Run_out_of_batteries'
p25
g2
s.(dp0
S'survey_Provider'
p1
S'T-mobile'
p2
sS'survey_Texts'
p3
S'rarely'
p4
sS'survey_Travel'
p5
S''
p6
sS'survey_How_often_get_sick'
p7
g6
sS'phonenumber_oid'
p8
L1054L
sS'survey_Neighborhood'
p9
S'Harvard'
p10
sS'survey_ML_Community'
p11
S'somewhat'
p12
sS'survey_Calling_plan'
p13
S'national'
p14
sS'email'
p15
g6
sS'survey_Regular'
p16
S'very'
p17
sS'oid'
p18
L74L
sS'survey_Hangouts'
p19
S'gym; friends'
p20
sS'survey_Like_Intros'
p21
S'occasionally'
p22
sS'password'
p23
g6
sS'survey_Forget_phone'
p24
S'rarely'
p25
sS'survey_Data_Plan'
p26
g6
sS'survey_Predictable_life'
p27
S'very'
p28
sS'name'
p29
g6
sS'survey_Sick_Recently'
p30
g6
sS'survey_Minutes'
p31
S'500'
p32
sS'survey_Position'
p33
S'2ndyeargrad'
p34
sS'survey_Hours'
p35
S'11am-8pm'
p36
sS'survey_Run_out_of_batteries'
p37
g6
s.(dp0
S'survey_Provider'
p1
S''
p2
sS'survey_Texts'
p3
g2
sS'survey_Travel'
p4
S'Rarely - several days/term'
p5
sS'survey_How_often_get_sick'
p6
S'rarely (once a year or less)'
p7
sS'phonenumber_oid'
p8
L3765L
sS'survey_Neighborhood'
p9
g2
sS'survey_ML_Community'
p10
g2
sS'survey_Calling_plan'
p11
g2
sS'email'
p12
g2
sS'survey_Regular'
p13
g2
sS'oid'
p14
L75L
sS'survey_Hangouts'
p15
g2
sS'survey_Like_Intros'
p16
g2
sS'password'
p17
g2
sS'survey_Forget_phone'
p18
g2
sS'survey_Data_Plan'
p19
S'None'
p20
sS'survey_Predictable_life'
p21
g2
sS'name'
p22
g2
sS'survey_Sick_Recently'
p23
S'No'
p24
sS'survey_Minutes'
p25
g2
sS'survey_Position'
p26
S'1styeargrad'
p27
sS'survey_Hours'
p28
g2
sS'survey_Run_out_of_batteries'
p29
S'Never'
p30
s.(dp0
S'survey_Provider'
p1
S'T-mobile'
p2
sS'survey_Texts'
p3
S'rarely'
p4
sS'survey_Travel'
p5
S'Sometimes - several days/month'
p6
sS'survey_How_often_get_sick'
p7
S'occasionally (2-4 times a year)'
p8
sS'phonenumber_oid'
p9
L3535L
sS'survey_Neighborhood'
p10
S'Central'
p11
sS'survey_ML_Community'
p12
S'somewhat'
p13
sS'survey_Calling_plan'
p14
S'national'
p15
sS'email'
p16
S''
p17
sS'survey_Regular'
p18
S'very'
p19
sS'oid'
p20
L76L
sS'survey_Hangouts'
p21
S'friends'
p22
sS'survey_Like_Intros'
p23
S'occasionally'
p24
sS'password'
p25
g17
sS'survey_Forget_phone'
p26
S'rarely'
p27
sS'survey_Data_Plan'
p28
S'None'
p29
sS'survey_Predictable_life'
p30
S'somewhat'
p31
sS'name'
p32
g17
sS'survey_Sick_Recently'
p33
S'No'
p34
sS'survey_Minutes'
p35
S'500'
p36
sS'survey_Position'
p37
S'researcher'
p38
sS'survey_Hours'
p39
S'11am-8pm'
p40
sS'survey_Run_out_of_batteries'
p41
S'Rarely - once/month'
p42
s.(dp0
S'survey_Provider'
p1
S'T-mobile'
p2
sS'survey_Texts'
p3
S'often'
p4
sS'survey_Travel'
p5
S'Sometimes - several days/month'
p6
sS'survey_How_often_get_sick'
p7
S'rarely (once a year or less)'
p8
sS'phonenumber_oid'
p9
L3476L
sS'survey_Neighborhood'
p10
S'MIT'
p11
sS'survey_ML_Community'
p12
S'somewhat close'
p13
sS'survey_Calling_plan'
p14
S'prepay'
p15
sS'email'
p16
S''
p17
sS'survey_Regular'
p18
S'somewhat'
p19
sS'oid'
p20
L77L
sS'survey_Hangouts'
p21
S'friends'
p22
sS'survey_Like_Intros'
p23
S'rarely'
p24
sS'password'
p25
g17
sS'survey_Forget_phone'
p26
S'often'
p27
sS'survey_Data_Plan'
p28
S'None'
p29
sS'survey_Predictable_life'
p30
S'very'
p31
sS'name'
p32
g17
sS'survey_Sick_Recently'
p33
S'No'
p34
sS'survey_Minutes'
p35
S'450 card*'
p36
sS'survey_Position'
p37
S'sloan'
p38
sS'survey_Hours'
p39
S'11am-8pm'
p40
sS'survey_Run_out_of_batteries'
p41
S'Never'
p42
s.(dp0
S'survey_Provider'
p1
S'T-mobile'
p2
sS'survey_Texts'
p3
S'occasionally'
p4
sS'survey_Travel'
p5
S''
p6
sS'survey_How_often_get_sick'
p7
g6
sS'phonenumber_oid'
p8
L67L
sS'survey_Neighborhood'
p9
S'Boston'
p10
sS'survey_ML_Community'
p11
S'somewhat'
p12
sS'survey_Calling_plan'
p13
S'national'
p14
sS'email'
p15
g6
sS'survey_Regular'
p16
S'somewhat'
p17
sS'oid'
p18
L78L
sS'survey_Hangouts'
p19
S'friends'
p20
sS'survey_Like_Intros'
p21
S'often'
p22
sS'password'
p23
g6
sS'survey_Forget_phone'
p24
S'never'
p25
sS'survey_Data_Plan'
p26
g6
sS'survey_Predictable_life'
p27
S'very'
p28
sS'name'
p29
g6
sS'survey_Sick_Recently'
p30
g6
sS'survey_Minutes'
p31
S'500'
p32
sS'survey_Position'
p33
S'student'
p34
sS'survey_Hours'
p35
S'11am-8pm'
p36
sS'survey_Run_out_of_batteries'
p37
g6
s.(dp0
S'survey_Provider'
p1
S''
p2
sS'survey_Texts'
p3
g2
sS'survey_Travel'
p4
g2
sS'survey_How_often_get_sick'
p5
g2
sS'phonenumber_oid'
p6
L2874L
sS'survey_Neighborhood'
p7
g2
sS'survey_ML_Community'
p8
g2
sS'survey_Calling_plan'
p9
g2
sS'email'
p10
g2
sS'survey_Regular'
p11
g2
sS'oid'
p12
L79L
sS'survey_Hangouts'
p13
g2
sS'survey_Like_Intros'
p14
g2
sS'password'
p15
g2
sS'survey_Forget_phone'
p16
g2
sS'survey_Data_Plan'
p17
g2
sS'survey_Predictable_life'
p18
g2
sS'name'
p19
g2
sS'survey_Sick_Recently'
p20
g2
sS'survey_Minutes'
p21
g2
sS'survey_Position'
p22
S'sloan'
p23
sS'survey_Hours'
p24
g2
sS'survey_Run_out_of_batteries'
p25
g2
s.(dp0
S'survey_Provider'
p1
S'T-mobile'
p2
sS'survey_Texts'
p3
S'rarely'
p4
sS'survey_Travel'
p5
S''
p6
sS'survey_How_often_get_sick'
p7
g6
sS'phonenumber_oid'
p8
L14L
sS'survey_Neighborhood'
p9
S'MIT'
p10
sS'survey_ML_Community'
p11
S'a little close'
p12
sS'survey_Calling_plan'
p13
S'national'
p14
sS'email'
p15
g6
sS'survey_Regular'
p16
S'very'
p17
sS'oid'
p18
L80L
sS'survey_Hangouts'
p19
g6
sS'survey_Like_Intros'
p20
S'occasionally'
p21
sS'password'
p22
g6
sS'survey_Forget_phone'
p23
S'occasionally'
p24
sS'survey_Data_Plan'
p25
g6
sS'survey_Predictable_life'
p26
S'very'
p27
sS'name'
p28
g6
sS'survey_Sick_Recently'
p29
g6
sS'survey_Minutes'
p30
S'500'
p31
sS'survey_Position'
p32
S'student'
p33
sS'survey_Hours'
p34
S'9am-5pm'
p35
sS'survey_Run_out_of_batteries'
p36
g6
s.(dp0
S'survey_Provider'
p1
S'T-mobile'
p2
sS'survey_Texts'
p3
S'rarely'
p4
sS'survey_Travel'
p5
S''
p6
sS'survey_How_often_get_sick'
p7
g6
sS'phonenumber_oid'
p8
L528L
sS'survey_Neighborhood'
p9
S'MIT'
p10
sS'survey_ML_Community'
p11
S'a little close'
p12
sS'survey_Calling_plan'
p13
S'national'
p14
sS'email'
p15
g6
sS'survey_Regular'
p16
S'very'
p17
sS'oid'
p18
L81L
sS'survey_Hangouts'
p19
S'friends'
p20
sS'survey_Like_Intros'
p21
S'never'
p22
sS'password'
p23
g6
sS'survey_Forget_phone'
p24
S'rarely'
p25
sS'survey_Data_Plan'
p26
g6
sS'survey_Predictable_life'
p27
S'very'
p28
sS'name'
p29
g6
sS'survey_Sick_Recently'
p30
g6
sS'survey_Minutes'
p31
S'500'
p32
sS'survey_Position'
p33
S'newgrad'
p34
sS'survey_Hours'
p35
S'9am-5pm'
p36
sS'survey_Run_out_of_batteries'
p37
g6
s.(dp0
S'survey_Provider'
p1
S'a little close'
p2
sS'survey_Texts'
p3
S''
p4
sS'survey_Travel'
p5
S'occasionally'
p6
sS'survey_How_often_get_sick'
p7
S'national'
p8
sS'phonenumber_oid'
p9
L2123L
sS'survey_Neighborhood'
p10
S'Boston'
p11
sS'survey_ML_Community'
p12
g4
sS'survey_Calling_plan'
p13
g4
sS'email'
p14
g4
sS'survey_Regular'
p15
S'not at all'
p16
sS'oid'
p17
L82L
sS'survey_Hangouts'
p18
S'class*'
p19
sS'survey_Like_Intros'
p20
g4
sS'password'
p21
g4
sS'survey_Forget_phone'
p22
S'rarely'
p23
sS'survey_Data_Plan'
p24
S'occasionally'
p25
sS'survey_Predictable_life'
p26
S'somewhat'
p27
sS'name'
p28
g4
sS'survey_Sick_Recently'
p29
S'200'
p30
sS'survey_Minutes'
p31
g4
sS'survey_Position'
p32
S'sloan'
p33
sS'survey_Hours'
p34
S'2pm-11pm'
p35
sS'survey_Run_out_of_batteries'
p36
S'cingular'
p37
s.(dp0
S'survey_Provider'
p1
S'T-mobile'
p2
sS'survey_Texts'
p3
S'often'
p4
sS'survey_Travel'
p5
S''
p6
sS'survey_How_often_get_sick'
p7
g6
sS'phonenumber_oid'
p8
L311L
sS'survey_Neighborhood'
p9
S'Mit'
p10
sS'survey_ML_Community'
p11
S'somewhat close'
p12
sS'survey_Calling_plan'
p13
S'national'
p14
sS'email'
p15
g6
sS'survey_Regular'
p16
S'somewhat'
p17
sS'oid'
p18
L83L
sS'survey_Hangouts'
p19
S'friends'
p20
sS'survey_Like_Intros'
p21
S'never'
p22
sS'password'
p23
g6
sS'survey_Forget_phone'
p24
S'occasionally'
p25
sS'survey_Data_Plan'
p26
g6
sS'survey_Predictable_life'
p27
S'somewhat'
p28
sS'name'
p29
g6
sS'survey_Sick_Recently'
p30
g6
sS'survey_Minutes'
p31
S'500'
p32
sS'survey_Position'
p33
S'student'
p34
sS'survey_Hours'
p35
S'11am-8pm'
p36
sS'survey_Run_out_of_batteries'
p37
g6
s.(dp0
S'survey_Provider'
p1
S'T-Mobile'
p2
sS'survey_Texts'
p3
S'Occasionally - once/week'
p4
sS'survey_Travel'
p5
S'Rarely - several days/term'
p6
sS'survey_How_often_get_sick'
p7
S'rarely (once a year or less)'
p8
sS'phonenumber_oid'
p9
L76L
sS'survey_Neighborhood'
p10
S'Harvard Square'
p11
sS'survey_ML_Community'
p12
S'Very close'
p13
sS'survey_Calling_plan'
p14
S'National'
p15
sS'email'
p16
S''
p17
sS'survey_Regular'
p18
S'Very'
p19
sS'oid'
p20
L84L
sS'survey_Hangouts'
p21
S'Nowhere else'
p22
sS'survey_Like_Intros'
p23
S'Occasionally - once/week'
p24
sS'password'
p25
g17
sS'survey_Forget_phone'
p26
S'Rarely - once/month'
p27
sS'survey_Data_Plan'
p28
S'None'
p29
sS'survey_Predictable_life'
p30
S'Very'
p31
sS'name'
p32
g17
sS'survey_Sick_Recently'
p33
S'No'
p34
sS'survey_Minutes'
p35
S'Peak hours: ~800 minutes; Unlimited Night and Weekend minutes'
p36
sS'survey_Position'
p37
S'sloan'
p38
sS'survey_Hours'
p39
S'9AM ~ 5PM'
p40
sS'survey_Run_out_of_batteries'
p41
S'Rarely - once/month'
p42
s.(dp0
S'survey_Provider'
p1
S'T-mobile'
p2
sS'survey_Texts'
p3
S'very often'
p4
sS'survey_Travel'
p5
S'Rarely - several days/term'
p6
sS'survey_How_often_get_sick'
p7
S'rarely (once a year or less)'
p8
sS'phonenumber_oid'
p9
L4L
sS'survey_Neighborhood'
p10
S'Porter'
p11
sS'survey_ML_Community'
p12
S'somewhat'
p13
sS'survey_Calling_plan'
p14
S'national'
p15
sS'email'
p16
S''
p17
sS'survey_Regular'
p18
S'somewhat'
p19
sS'oid'
p20
L85L
sS'survey_Hangouts'
p21
S'restaurant/bar; friends'
p22
sS'survey_Like_Intros'
p23
S'often'
p24
sS'password'
p25
g17
sS'survey_Forget_phone'
p26
S'rarely'
p27
sS'survey_Data_Plan'
p28
S'None'
p29
sS'survey_Predictable_life'
p30
S'very'
p31
sS'name'
p32
g17
sS'survey_Sick_Recently'
p33
S'No'
p34
sS'survey_Minutes'
p35
S'500'
p36
sS'survey_Position'
p37
S'mlgrad'
p38
sS'survey_Hours'
p39
S'11am-8pm'
p40
sS'survey_Run_out_of_batteries'
p41
S'Often - once/day'
p42
s.(dp0
S'survey_Provider'
p1
S'T-mobile'
p2
sS'survey_Texts'
p3
S'never'
p4
sS'survey_Travel'
p5
S'Sometimes - several days/month'
p6
sS'survey_How_often_get_sick'
p7
S'rarely (once a year or less)'
p8
sS'phonenumber_oid'
p9
L349L
sS'survey_Neighborhood'
p10
S'Central Square'
p11
sS'survey_ML_Community'
p12
S'somewhat'
p13
sS'survey_Calling_plan'
p14
S'national'
p15
sS'email'
p16
S''
p17
sS'survey_Regular'
p18
S'very'
p19
sS'oid'
p20
L86L
sS'survey_Hangouts'
p21
S'restaurant/bar'
p22
sS'survey_Like_Intros'
p23
S'often'
p24
sS'password'
p25
g17
sS'survey_Forget_phone'
p26
S'occasionally'
p27
sS'survey_Data_Plan'
p28
S'None'
p29
sS'survey_Predictable_life'
p30
S'very'
p31
sS'name'
p32
g17
sS'survey_Sick_Recently'
p33
S'"Yes, in the last week"'
p34
sS'survey_Minutes'
p35
S'500'
p36
sS'survey_Position'
p37
S'student'
p38
sS'survey_Hours'
p39
S'2pm-11pm'
p40
sS'survey_Run_out_of_batteries'
p41
S'Often - once/day'
p42
s.(dp0
S'survey_Provider'
p1
S''
p2
sS'survey_Texts'
p3
g2
sS'survey_Travel'
p4
S'Often - week/month'
p5
sS'survey_How_often_get_sick'
p6
S'occasionally (2-4 times a year)'
p7
sS'phonenumber_oid'
p8
L1413L
sS'survey_Neighborhood'
p9
g2
sS'survey_ML_Community'
p10
g2
sS'survey_Calling_plan'
p11
g2
sS'email'
p12
g2
sS'survey_Regular'
p13
g2
sS'oid'
p14
L87L
sS'survey_Hangouts'
p15
g2
sS'survey_Like_Intros'
p16
g2
sS'password'
p17
g2
sS'survey_Forget_phone'
p18
g2
sS'survey_Data_Plan'
p19
S'Unlimited'
p20
sS'survey_Predictable_life'
p21
g2
sS'name'
p22
g2
sS'survey_Sick_Recently'
p23
S'"Yes, in the last month"'
p24
sS'survey_Minutes'
p25
g2
sS'survey_Position'
p26
S'neil'
p27
sS'survey_Hours'
p28
g2
sS'survey_Run_out_of_batteries'
p29
S'Occasionally - once/week'
p30
s.(dp0
S'survey_Provider'
p1
S'T-mobile'
p2
sS'survey_Texts'
p3
S'very often'
p4
sS'survey_Travel'
p5
S'Often - week/month'
p6
sS'survey_How_often_get_sick'
p7
S'rarely (once a year or less)'
p8
sS'phonenumber_oid'
p9
L0L
sS'survey_Neighborhood'
p10
S'Brookline'
p11
sS'survey_ML_Community'
p12
S'very close'
p13
sS'survey_Calling_plan'
p14
S'national'
p15
sS'email'
p16
S''
p17
sS'survey_Regular'
p18
S'very'
p19
sS'oid'
p20
L88L
sS'survey_Hangouts'
p21
S'restaurant/bar'
p22
sS'survey_Like_Intros'
p23
S'occasionally'
p24
sS'password'
p25
g17
sS'survey_Forget_phone'
p26
S'rarely'
p27
sS'survey_Data_Plan'
p28
S'Unlimited'
p29
sS'survey_Predictable_life'
p30
S'very'
p31
sS'name'
p32
g17
sS'survey_Sick_Recently'
p33
S'No'
p34
sS'survey_Minutes'
p35
S'200'
p36
sS'survey_Position'
p37
S'staff'
p38
sS'survey_Hours'
p39
S'9am-5pm'
p40
sS'survey_Run_out_of_batteries'
p41
S'Rarely - once/month'
p42
s.(dp0
S'survey_Provider'
p1
S'T-mobile'
p2
sS'survey_Texts'
p3
S'never'
p4
sS'survey_Travel'
p5
S''
p6
sS'survey_How_often_get_sick'
p7
g6
sS'phonenumber_oid'
p8
L718L
sS'survey_Neighborhood'
p9
S'MIT'
p10
sS'survey_ML_Community'
p11
S'a little close'
p12
sS'survey_Calling_plan'
p13
S'national'
p14
sS'email'
p15
g6
sS'survey_Regular'
p16
S'very'
p17
sS'oid'
p18
L89L
sS'survey_Hangouts'
p19
S'dorm*'
p20
sS'survey_Like_Intros'
p21
S'often'
p22
sS'password'
p23
g6
sS'survey_Forget_phone'
p24
S'never'
p25
sS'survey_Data_Plan'
p26
g6
sS'survey_Predictable_life'
p27
S'very'
p28
sS'name'
p29
g6
sS'survey_Sick_Recently'
p30
g6
sS'survey_Minutes'
p31
S'200'
p32
sS'survey_Position'
p33
S'newgrad'
p34
sS'survey_Hours'
p35
S'11am-8pm'
p36
sS'survey_Run_out_of_batteries'
p37
g6
s.(dp0
S'survey_Provider'
p1
S'O2'
p2
sS'survey_Texts'
p3
S'often'
p4
sS'survey_Travel'
p5
S'Rarely - several days/term'
p6
sS'survey_How_often_get_sick'
p7
S'rarely (once a year or less)'
p8
sS'phonenumber_oid'
p9
L1997L
sS'survey_Neighborhood'
p10
S'Dublin*'
p11
sS'survey_ML_Community'
p12
S'somewhat close'
p13
sS'survey_Calling_plan'
p14
S'Prepay'
p15
sS'email'
p16
S''
p17
sS'survey_Regular'
p18
S'very'
p19
sS'oid'
p20
L90L
sS'survey_Hangouts'
p21
S'restaurant/bar; in town*'
p22
sS'survey_Like_Intros'
p23
S'often'
p24
sS'password'
p25
g17
sS'survey_Forget_phone'
p26
S'rarely'
p27
sS'survey_Data_Plan'
p28
S'Unlimited'
p29
sS'survey_Predictable_life'
p30
S'somewhat'
p31
sS'name'
p32
g17
sS'survey_Sick_Recently'
p33
S'No'
p34
sS'survey_Minutes'
p35
S'Prepay'
p36
sS'survey_Position'
p37
g17
sS'survey_Hours'
p38
S'11am-8pm'
p39
sS'survey_Run_out_of_batteries'
p40
S'Often - once/day'
p41
s.(dp0
S'survey_Provider'
p1
S'T-mobile'
p2
sS'survey_Texts'
p3
S'occasionally'
p4
sS'survey_Travel'
p5
S''
p6
sS'survey_How_often_get_sick'
p7
g6
sS'phonenumber_oid'
p8
L1054L
sS'survey_Neighborhood'
p9
S'Boston'
p10
sS'survey_ML_Community'
p11
S'somewhat'
p12
sS'survey_Calling_plan'
p13
S'national'
p14
sS'email'
p15
g6
sS'survey_Regular'
p16
S'somewhat'
p17
sS'oid'
p18
L91L
sS'survey_Hangouts'
p19
S'new york*'
p20
sS'survey_Like_Intros'
p21
S'occasionally'
p22
sS'password'
p23
g6
sS'survey_Forget_phone'
p24
S'occasionally'
p25
sS'survey_Data_Plan'
p26
g6
sS'survey_Predictable_life'
p27
S'very'
p28
sS'name'
p29
g6
sS'survey_Sick_Recently'
p30
g6
sS'survey_Minutes'
p31
S'500'
p32
sS'survey_Position'
p33
S'mlgrad'
p34
sS'survey_Hours'
p35
S'11am-8pm'
p36
sS'survey_Run_out_of_batteries'
p37
g6
s.(dp0
S'survey_Provider'
p1
S''
p2
sS'survey_Texts'
p3
g2
sS'survey_Travel'
p4
g2
sS'survey_How_often_get_sick'
p5
g2
sS'phonenumber_oid'
p6
L1847L
sS'survey_Neighborhood'
p7
g2
sS'survey_ML_Community'
p8
g2
sS'survey_Calling_plan'
p9
g2
sS'email'
p10
g2
sS'survey_Regular'
p11
g2
sS'oid'
p12
L92L
sS'survey_Hangouts'
p13
g2
sS'survey_Like_Intros'
p14
g2
sS'password'
p15
g2
sS'survey_Forget_phone'
p16
g2
sS'survey_Data_Plan'
p17
g2
sS'survey_Predictable_life'
p18
g2
sS'name'
p19
g2
sS'survey_Sick_Recently'
p20
g2
sS'survey_Minutes'
p21
g2
sS'survey_Position'
p22
S'sloan'
p23
sS'survey_Hours'
p24
g2
sS'survey_Run_out_of_batteries'
p25
g2
s.(dp0
S'survey_Provider'
p1
S'cingular'
p2
sS'survey_Texts'
p3
S'often'
p4
sS'survey_Travel'
p5
S''
p6
sS'survey_How_often_get_sick'
p7
g6
sS'phonenumber_oid'
p8
L3768L
sS'survey_Neighborhood'
p9
S'Central'
p10
sS'survey_ML_Community'
p11
S'a little close'
p12
sS'survey_Calling_plan'
p13
S'local'
p14
sS'email'
p15
g6
sS'survey_Regular'
p16
S'somewhat'
p17
sS'oid'
p18
L93L
sS'survey_Hangouts'
p19
S'church*'
p20
sS'survey_Like_Intros'
p21
S'occasionally'
p22
sS'password'
p23
g6
sS'survey_Forget_phone'
p24
S'occasionally'
p25
sS'survey_Data_Plan'
p26
g6
sS'survey_Predictable_life'
p27
S'very'
p28
sS'name'
p29
g6
sS'survey_Sick_Recently'
p30
g6
sS'survey_Minutes'
p31
S'500'
p32
sS'survey_Position'
p33
S'3rdyeargrad'
p34
sS'survey_Hours'
p35
S'11am-8pm'
p36
sS'survey_Run_out_of_batteries'
p37
g6
s.(dp0
S'survey_Provider'
p1
S'T-mobile'
p2
sS'survey_Texts'
p3
S'never'
p4
sS'survey_Travel'
p5
S'Rarely - several days/term'
p6
sS'survey_How_often_get_sick'
p7
S'occasionally (2-4 times a year)'
p8
sS'phonenumber_oid'
p9
L510L
sS'survey_Neighborhood'
p10
S'MIT'
p11
sS'survey_ML_Community'
p12
S'somewhat close'
p13
sS'survey_Calling_plan'
p14
S'national'
p15
sS'email'
p16
S''
p17
sS'survey_Regular'
p18
S'very'
p19
sS'oid'
p20
L94L
sS'survey_Hangouts'
p21
S'friends; daycare at stata*'
p22
sS'survey_Like_Intros'
p23
S'often'
p24
sS'password'
p25
g17
sS'survey_Forget_phone'
p26
S'occasionally'
p27
sS'survey_Data_Plan'
p28
S'None'
p29
sS'survey_Predictable_life'
p30
S'very'
p31
sS'name'
p32
g17
sS'survey_Sick_Recently'
p33
S'"Yes, in the last month"'
p34
sS'survey_Minutes'
p35
S'family plan'
p36
sS'survey_Position'
p37
S'mlgrad'
p38
sS'survey_Hours'
p39
S'9am-5pm'
p40
sS'survey_Run_out_of_batteries'
p41
S'Occasionally - once/week'
p42
s.(dp0
S'survey_Provider'
p1
S'T-mobile'
p2
sS'survey_Texts'
p3
S'rarely'
p4
sS'survey_Travel'
p5
S'Often - week/month'
p6
sS'survey_How_often_get_sick'
p7
S'rarely (once a year or less)'
p8
sS'phonenumber_oid'
p9
L3778L
sS'survey_Neighborhood'
p10
S'Lexington*'
p11
sS'survey_ML_Community'
p12
S'very close'
p13
sS'survey_Calling_plan'
p14
S'international'
p15
sS'email'
p16
S''
p17
sS'survey_Regular'
p18
S'very'
p19
sS'oid'
p20
L95L
sS'survey_Hangouts'
p21
S'car*'
p22
sS'survey_Like_Intros'
p23
S'often'
p24
sS'password'
p25
g17
sS'survey_Forget_phone'
p26
S'rarely'
p27
sS'survey_Data_Plan'
p28
S'Unlimited'
p29
sS'survey_Predictable_life'
p30
S'very'
p31
sS'name'
p32
g17
sS'survey_Sick_Recently'
p33
S'No'
p34
sS'survey_Minutes'
p35
S'500'
p36
sS'survey_Position'
p37
S'professor'
p38
sS'survey_Hours'
p39
S'9am-5pm'
p40
sS'survey_Run_out_of_batteries'
p41
S'Never'
p42
s.(dp0
S'survey_Provider'
p1
S'T-mobile'
p2
sS'survey_Texts'
p3
S'never'
p4
sS'survey_Travel'
p5
S'Sometimes - several days/month'
p6
sS'survey_How_often_get_sick'
p7
S'occasionally (2-4 times a year)'
p8
sS'phonenumber_oid'
p9
L0L
sS'survey_Neighborhood'
p10
S'Central Square'
p11
sS'survey_ML_Community'
p12
S'a little close'
p13
sS'survey_Calling_plan'
p14
S'national'
p15
sS'email'
p16
S''
p17
sS'survey_Regular'
p18
S'somewhat'
p19
sS'oid'
p20
L96L
sS'survey_Hangouts'
p21
S'restaurant/bar'
p22
sS'survey_Like_Intros'
p23
S'often'
p24
sS'password'
p25
g17
sS'survey_Forget_phone'
p26
S'rarely'
p27
sS'survey_Data_Plan'
p28
S'None'
p29
sS'survey_Predictable_life'
p30
S'somewhat'
p31
sS'name'
p32
g17
sS'survey_Sick_Recently'
p33
S'"Yes, in the last week"'
p34
sS'survey_Minutes'
p35
S'500'
p36
sS'survey_Position'
p37
S'student'
p38
sS'survey_Hours'
p39
S'11am-8pm'
p40
sS'survey_Run_out_of_batteries'
p41
S'Rarely - once/month'
p42
s.(dp0
S'survey_Provider'
p1
S'cingular'
p2
sS'survey_Texts'
p3
S'often'
p4
sS'survey_Travel'
p5
S'Sometimes - several days/month'
p6
sS'survey_How_often_get_sick'
p7
S'occasionally (2-4 times a year)'
p8
sS'phonenumber_oid'
p9
L1372L
sS'survey_Neighborhood'
p10
S'Boston'
p11
sS'survey_ML_Community'
p12
S'somewhat'
p13
sS'survey_Calling_plan'
p14
S'national'
p15
sS'email'
p16
S''
p17
sS'survey_Regular'
p18
S'somewhat'
p19
sS'oid'
p20
L97L
sS'survey_Hangouts'
p21
S'--'
p22
sS'survey_Like_Intros'
p23
S'rarely'
p24
sS'password'
p25
g17
sS'survey_Forget_phone'
p26
S'rarely'
p27
sS'survey_Data_Plan'
p28
S'Pay as you go/Pay per kB'
p29
sS'survey_Predictable_life'
p30
S'somewhat'
p31
sS'name'
p32
g17
sS'survey_Sick_Recently'
p33
S'No'
p34
sS'survey_Minutes'
p35
S'500'
p36
sS'survey_Position'
p37
S'newgrad'
p38
sS'survey_Hours'
p39
S'11am-8pm'
p40
sS'survey_Run_out_of_batteries'
p41
S'Often - once/day'
p42
s.