(dp0
S'person_oid'
p1
L94L
sS'oid'
p2
L1L
sS'celltower_oid'
p3
L1L
sS'name'
p4
S'ML'
p5
s.(dp0
S'person_oid'
p1
L94L
sS'oid'
p2
L2L
sS'celltower_oid'
p3
L2L
sS'name'
p4
S'ML'
p5
s.(dp0
S'person_oid'
p1
L94L
sS'oid'
p2
L3L
sS'celltower_oid'
p3
L3L
sS'name'
p4
S'SP'
p5
s.(dp0
S'person_oid'
p1
L94L
sS'oid'
p2
L4L
sS'celltower_oid'
p3
L4L
sS'name'
p4
S'Home'
p5
s.(dp0
S'person_oid'
p1
L94L
sS'oid'
p2
L5L
sS'celltower_oid'
p3
L5L
sS'name'
p4
S'Red house'
p5
s.(dp0
S'person_oid'
p1
L94L
sS'oid'
p2
L6L
sS'celltower_oid'
p3
L6L
sS'name'
p4
S'Relative'
p5
s.(dp0
S'person_oid'
p1
L94L
sS'oid'
p2
L7L
sS'celltower_oid'
p3
L7L
sS'name'
p4
S'Central'
p5
s.(dp0
S'person_oid'
p1
L94L
sS'oid'
p2
L8L
sS'celltower_oid'
p3
L8L
sS'name'
p4
S'Parents'
p5
s.(dp0
S'person_oid'
p1
L94L
sS'oid'
p2
L9L
sS'celltower_oid'
p3
L9L
sS'name'
p4
S'Parents'
p5
s.(dp0
S'person_oid'
p1
L94L
sS'oid'
p2
L10L
sS'celltower_oid'
p3
L10L
sS'name'
p4
S'Caesars'
p5
s.(dp0
S'person_oid'
p1
L94L
sS'oid'
p2
L11L
sS'celltower_oid'
p3
L11L
sS'name'
p4
S'Badlands'
p5
s.(dp0
S'person_oid'
p1
L94L
sS'oid'
p2
L12L
sS'celltower_oid'
p3
L12L
sS'name'
p4
S'Grandparents'
p5
s.(dp0
S'person_oid'
p1
L94L
sS'oid'
p2
L13L
sS'celltower_oid'
p3
L13L
sS'name'
p4
S'Friends'
p5
s.(dp0
S'person_oid'
p1
L94L
sS'oid'
p2
L14L
sS'celltower_oid'
p3
L14L
sS'name'
p4
S'Friends place'
p5
s.(dp0
S'person_oid'
p1
L94L
sS'oid'
p2
L15L
sS'celltower_oid'
p3
L15L
sS'name'
p4
S'Sd'
p5
s.(dp0
S'person_oid'
p1
L94L
sS'oid'
p2
L16L
sS'celltower_oid'
p3
L16L
sS'name'
p4
S'Sd'
p5
s.(dp0
S'person_oid'
p1
L94L
sS'oid'
p2
L17L
sS'celltower_oid'
p3
L17L
sS'name'
p4
S'Sd'
p5
s.(dp0
S'person_oid'
p1
L94L
sS'oid'
p2
L18L
sS'celltower_oid'
p3
L18L
sS'name'
p4
S'Airport'
p5
s.(dp0
S'person_oid'
p1
L94L
sS'oid'
p2
L19L
sS'celltower_oid'
p3
L19L
sS'name'
p4
S'Club'
p5
s.(dp0
S'person_oid'
p1
L94L
sS'oid'
p2
L20L
sS'celltower_oid'
p3
L20L
sS'name'
p4
S'Cinema'
p5
s.(dp0
S'person_oid'
p1
L94L
sS'oid'
p2
L21L
sS'celltower_oid'
p3
L21L
sS'name'
p4
S'Soho'
p5
s.(dp0
S'person_oid'
p1
L94L
sS'oid'
p2
L22L
sS'celltower_oid'
p3
L22L
sS'name'
p4
S'Miro cafe'
p5
s.(dp0
S'person_oid'
p1
L94L
sS'oid'
p2
L23L
sS'celltower_oid'
p3
L23L
sS'name'
p4
S'Soho'
p5
s.(dp0
S'person_oid'
p1
L94L
sS'oid'
p2
L24L
sS'celltower_oid'
p3
L24L
sS'name'
p4
S'East village'
p5
s.(dp0
S'person_oid'
p1
L94L
sS'oid'
p2
L25L
sS'celltower_oid'
p3
L25L
sS'name'
p4
S'East village'
p5
s.(dp0
S'person_oid'
p1
L94L
sS'oid'
p2
L26L
sS'celltower_oid'
p3
L26L
sS'name'
p4
S'Ny club'
p5
s.(dp0
S'person_oid'
p1
L94L
sS'oid'
p2
L27L
sS'celltower_oid'
p3
L27L
sS'name'
p4
S'East village'
p5
s.(dp0
S'person_oid'
p1
L94L
sS'oid'
p2
L28L
sS'celltower_oid'
p3
L28L
sS'name'
p4
S'Diesel cafe'
p5
s.(dp0
S'person_oid'
p1
L94L
sS'oid'
p2
L29L
sS'celltower_oid'
p3
L29L
sS'name'
p4
S'ML'
p5
s.(dp0
S'person_oid'
p1
L94L
sS'oid'
p2
L30L
sS'celltower_oid'
p3
L30L
sS'name'
p4
S'Mit'
p5
s.(dp0
S'person_oid'
p1
L94L
sS'oid'
p2
L31L
sS'celltower_oid'
p3
L31L
sS'name'
p4
S'Davis square'
p5
s.(dp0
S'person_oid'
p1
L94L
sS'oid'
p2
L32L
sS'celltower_oid'
p3
L32L
sS'name'
p4
S'Friends place'
p5
s.(dp0
S'person_oid'
p1
L94L
sS'oid'
p2
L33L
sS'celltower_oid'
p3
L33L
sS'name'
p4
S'Friends house'
p5
s.(dp0
S'person_oid'
p1
L94L
sS'oid'
p2
L34L
sS'celltower_oid'
p3
L34L
sS'name'
p4
S'Anna taqueria'
p5
s.(dp0
S'person_oid'
p1
L94L
sS'oid'
p2
L35L
sS'celltower_oid'
p3
L35L
sS'name'
p4
S'Home'
p5
s.(dp0
S'person_oid'
p1
L94L
sS'oid'
p2
L36L
sS'celltower_oid'
p3
L36L
sS'name'
p4
S'Hay market'
p5
s.(dp0
S'person_oid'
p1
L75L
sS'oid'
p2
L37L
sS'celltower_oid'
p3
L1L
sS'name'
p4
S'ML'
p5
s.(dp0
S'person_oid'
p1
L75L
sS'oid'
p2
L38L
sS'celltower_oid'
p3
L2L
sS'name'
p4
S'ML'
p5
s.(dp0
S'person_oid'
p1
L75L
sS'oid'
p2
L39L
sS'celltower_oid'
p3
L3L
sS'name'
p4
S'SP'
p5
s.(dp0
S'person_oid'
p1
L75L
sS'oid'
p2
L40L
sS'celltower_oid'
p3
L4L
sS'name'
p4
S'Home'
p5
s.(dp0
S'person_oid'
p1
L75L
sS'oid'
p2
L41L
sS'celltower_oid'
p3
L5L
sS'name'
p4
S'Red house'
p5
s.(dp0
S'person_oid'
p1
L43L
sS'oid'
p2
L42L
sS'celltower_oid'
p3
L1842L
sS'name'
p4
S'ML'
p5
s.(dp0
S'person_oid'
p1
L43L
sS'oid'
p2
L43L
sS'celltower_oid'
p3
L1843L
sS'name'
p4
S'Cambridge st'
p5
s.(dp0
S'person_oid'
p1
L43L
sS'oid'
p2
L44L
sS'celltower_oid'
p3
L1844L
sS'name'
p4
S'Media lab'
p5
s.(dp0
S'person_oid'
p1
L43L
sS'oid'
p2
L45L
sS'celltower_oid'
p3
L1845L
sS'name'
p4
S'M'
p5
s.(dp0
S'person_oid'
p1
L43L
sS'oid'
p2
L46L
sS'celltower_oid'
p3
L1846L
sS'name'
p4
S'A'
p5
s.(dp0
S'person_oid'
p1
L16L
sS'oid'
p2
L47L
sS'celltower_oid'
p3
L5L
sS'name'
p4
S'Brattle theater'
p5
s.(dp0
S'person_oid'
p1
L16L
sS'oid'
p2
L48L
sS'celltower_oid'
p3
L20L
sS'name'
p4
S'155 webster ave'
p5
s.(dp0
S'person_oid'
p1
L16L
sS'oid'
p2
L49L
sS'celltower_oid'
p3
L44L
sS'name'
p4
S'29 tremont'
p5
s.(dp0
S'person_oid'
p1
L16L
sS'oid'
p2
L50L
sS'celltower_oid'
p3
L1L
sS'name'
p4
S'Media lab'
p5
s.(dp0
S'person_oid'
p1
L16L
sS'oid'
p2
L51L
sS'celltower_oid'
p3
L7L
sS'name'
p4
S'B-side lounge'
p5
s.(dp0
S'person_oid'
p1
L16L
sS'oid'
p2
L52L
sS'celltower_oid'
p3
L82L
sS'name'
p4
S'Whole foods'
p5
s.(dp0
S'person_oid'
p1
L16L
sS'oid'
p2
L53L
sS'celltower_oid'
p3
L2445L
sS'name'
p4
S'Martha'
p5
s.(dp0
S'person_oid'
p1
L16L
sS'oid'
p2
L54L
sS'celltower_oid'
p3
L72L
sS'name'
p4
S'29 tremont st'
p5
s.(dp0
S'person_oid'
p1
L16L
sS'oid'
p2
L55L
sS'celltower_oid'
p3
L66L
sS'name'
p4
S'Main st'
p5
s.(dp0
S'person_oid'
p1
L16L
sS'oid'
p2
L56L
sS'celltower_oid'
p3
L408L
sS'name'
p4
S'Newton'
p5
s.(dp0
S'person_oid'
p1
L16L
sS'oid'
p2
L57L
sS'celltower_oid'
p3
L76L
sS'name'
p4
S'Porter square'
p5
s.(dp0
S'person_oid'
p1
L16L
sS'oid'
p2
L58L
sS'celltower_oid'
p3
L75L
sS'name'
p4
S'Harvard divinity'
p5
s.(dp0
S'person_oid'
p1
L16L
sS'oid'
p2
L59L
sS'celltower_oid'
p3
L80L
sS'name'
p4
S'Harvard divinity'
p5
s.(dp0
S'person_oid'
p1
L16L
sS'oid'
p2
L60L
sS'celltower_oid'
p3
L74L
sS'name'
p4
S'Kirkland'
p5
s.(dp0
S'person_oid'
p1
L16L
sS'oid'
p2
L61L
sS'celltower_oid'
p3
L71L
sS'name'
p4
S'Medialab'
p5
s.(dp0
S'person_oid'
p1
L16L
sS'oid'
p2
L62L
sS'celltower_oid'
p3
L73L
sS'name'
p4
S'Toscanini'
p5
s.(dp0
S'person_oid'
p1
L16L
sS'oid'
p2
L63L
sS'celltower_oid'
p3
L2L
sS'name'
p4
S'Media lab'
p5
s.(dp0
S'person_oid'
p1
L16L
sS'oid'
p2
L64L
sS'celltower_oid'
p3
L61L
sS'name'
p4
S'Mit 10'
p5
s.(dp0
S'person_oid'
p1
L16L
sS'oid'
p2
L65L
sS'celltower_oid'
p3
L35L
sS'name'
p4
S'Mit 7'
p5
s.(dp0
S'person_oid'
p1
L16L
sS'oid'
p2
L66L
sS'celltower_oid'
p3
L154L
sS'name'
p4
S"Oona's"
p5
s.(dp0
S'person_oid'
p1
L16L
sS'oid'
p2
L67L
sS'celltower_oid'
p3
L280L
sS'name'
p4
S'Brookline house'
p5
s.(dp0
S'person_oid'
p1
L16L
sS'oid'
p2
L68L
sS'celltower_oid'
p3
L3L
sS'name'
p4
S' Erie and brookline st'
p5
s.(dp0
S'person_oid'
p1
L16L
sS'oid'
p2
L69L
sS'celltower_oid'
p3
L4L
sS'name'
p4
S'Harvard design and architecture'
p5
s.(dp0
S'person_oid'
p1
L16L
sS'oid'
p2
L70L
sS'celltower_oid'
p3
L83L
sS'name'
p4
S'1cc'
p5
s.(dp0
S'person_oid'
p1
L16L
sS'oid'
p2
L71L
sS'celltower_oid'
p3
L31L
sS'name'
p4
S'Break'
p5
s.(dp0
S'person_oid'
p1
L16L
sS'oid'
p2
L72L
sS'celltower_oid'
p3
L77L
sS'name'
p4
S'Porter'
p5
s.(dp0
S'person_oid'
p1
L16L
sS'oid'
p2
L73L
sS'celltower_oid'
p3
L34L
sS'name'
p4
S'Someday cafe'
p5
s.(dp0
S'person_oid'
p1
L16L
sS'oid'
p2
L74L
sS'celltower_oid'
p3
L78L
sS'name'
p4
S"Christopher's"
p5
s.(dp0
S'person_oid'
p1
L16L
sS'oid'
p2
L75L
sS'celltower_oid'
p3
L2446L
sS'name'
p4
S'Brainscan'
p5
s.(dp0
S'person_oid'
p1
L16L
sS'oid'
p2
L76L
sS'celltower_oid'
p3
L2447L
sS'name'
p4
S'Bryan'
p5
s.(dp0
S'person_oid'
p1
L16L
sS'oid'
p2
L77L
sS'celltower_oid'
p3
L2448L
sS'name'
p4
S'This is a commonmost blah'
p5
s.(dp0
S'person_oid'
p1
L16L
sS'oid'
p2
L78L
sS'celltower_oid'
p3
L2449L
sS'name'
p4
S'Wareham'
p5
s.(dp0
S'person_oid'
p1
L16L
sS'oid'
p2
L79L
sS'celltower_oid'
p3
L395L
sS'name'
p4
S'Media lab'
p5
s.(dp0
S'person_oid'
p1
L16L
sS'oid'
p2
L80L
sS'celltower_oid'
p3
L176L
sS'name'
p4
S'Porter T Stop'
p5
s.(dp0
S'person_oid'
p1
L16L
sS'oid'
p2
L81L
sS'celltower_oid'
p3
L81L
sS'name'
p4
S'Monkey'
p5
s.(dp0
S'person_oid'
p1
L21L
sS'oid'
p2
L82L
sS'celltower_oid'
p3
L1844L
sS'name'
p4
S'ML'
p5
s.(dp0
S'person_oid'
p1
L62L
sS'oid'
p2
L83L
sS'celltower_oid'
p3
L1846L
sS'name'
p4
S'Home'
p5
s.(dp0
S'person_oid'
p1
L62L
sS'oid'
p2
L84L
sS'celltower_oid'
p3
L1844L
sS'name'
p4
S'Abp'
p5
s.(dp0
S'person_oid'
p1
L62L
sS'oid'
p2
L85L
sS'celltower_oid'
p3
L1858L
sS'name'
p4
S'Killian'
p5
s.(dp0
S'person_oid'
p1
L62L
sS'oid'
p2
L86L
sS'celltower_oid'
p3
L1948L
sS'name'
p4
S'Harvard sq'
p5
s.(dp0
S'person_oid'
p1
L62L
sS'oid'
p2
L87L
sS'celltower_oid'
p3
L1851L
sS'name'
p4
S'1369 cafe'
p5
s.(dp0
S'person_oid'
p1
L62L
sS'oid'
p2
L88L
sS'celltower_oid'
p3
L1852L
sS'name'
p4
S'Central t'
p5
s.(dp0
S'person_oid'
p1
L62L
sS'oid'
p2
L89L
sS'celltower_oid'
p3
L1845L
sS'name'
p4
S'Bertuccis main st'
p5
s.(dp0
S'person_oid'
p1
L62L
sS'oid'
p2
L90L
sS'celltower_oid'
p3
L1861L
sS'name'
p4
S'MIT main campus'
p5
s.(dp0
S'person_oid'
p1
L62L
sS'oid'
p2
L91L
sS'celltower_oid'
p3
L1842L
sS'name'
p4
S'Charles MGH'
p5
s.(dp0
S'person_oid'
p1
L62L
sS'oid'
p2
L92L
sS'celltower_oid'
p3
L1927L
sS'name'
p4
S'Park st'
p5
s.(dp0
S'person_oid'
p1
L62L
sS'oid'
p2
L93L
sS'celltower_oid'
p3
L1997L
sS'name'
p4
S'Park'
p5
s.(dp0
S'person_oid'
p1
L62L
sS'oid'
p2
L94L
sS'celltower_oid'
p3
L1883L
sS'name'
p4
S'Blandford st'
p5
s.(dp0
S'person_oid'
p1
L62L
sS'oid'
p2
L95L
sS'celltower_oid'
p3
L1857L
sS'name'
p4
S'Kenmore'
p5
s.(dp0
S'person_oid'
p1
L62L
sS'oid'
p2
L96L
sS'celltower_oid'
p3
L1896L
sS'name'
p4
S'Beacon/mass av'
p5
s.(dp0
S'person_oid'
p1
L39L
sS'oid'
p2
L97L
sS'celltower_oid'
p3
L1844L
sS'name'
p4
S'Lab'
p5
s.(dp0
S'person_oid'
p1
L39L
sS'oid'
p2
L98L
sS'celltower_oid'
p3
L1842L
sS'name'
p4
S'Lab'
p5
s.(dp0
S'person_oid'
p1
L39L
sS'oid'
p2
L99L
sS'celltower_oid'
p3
L1966L
sS'name'
p4
S'Home'
p5
s.(dp0
S'person_oid'
p1
L39L
sS'oid'
p2
L100L
sS'celltower_oid'
p3
L1948L
sS'name'
p4
S'5'
p5
s.(dp0
S'person_oid'
p1
L39L
sS'oid'
p2
L101L
sS'celltower_oid'
p3
L1964L
sS'name'
p4
S'Shaw1'
p5
s.(dp0
S'person_oid'
p1
L39L
sS'oid'
p2
L102L
sS'celltower_oid'
p3
L1852L
sS'name'
p4
S'Whole f.'
p5
s.(dp0
S'person_oid'
p1
L39L
sS'oid'
p2
L103L
sS'celltower_oid'
p3
L1973L
sS'name'
p4
S'Ha'
p5
s.(dp0
S'person_oid'
p1
L39L
sS'oid'
p2
L104L
sS'celltower_oid'
p3
L2858L
sS'name'
p4
S'Logan airport'
p5
s.(dp0
S'person_oid'
p1
L39L
sS'oid'
p2
L105L
sS'celltower_oid'
p3
L2859L
sS'name'
p4
S'Dt zrh'
p5
s.(dp0
S'person_oid'
p1
L39L
sS'oid'
p2
L106L
sS'celltower_oid'
p3
L1923L
sS'name'
p4
S'BU Dental'
p5
s.(dp0
S'person_oid'
p1
L39L
sS'oid'
p2
L107L
sS'celltower_oid'
p3
L1985L
sS'name'
p4
S'DB dental'
p5
s.(dp0
S'person_oid'
p1
L39L
sS'oid'
p2
L108L
sS'celltower_oid'
p3
L1950L
sS'name'
p4
S'Dentist'
p5
s.(dp0
S'person_oid'
p1
L39L
sS'oid'
p2
L109L
sS'celltower_oid'
p3
L1847L
sS'name'
p4
S'Way home'
p5
s.(dp0
S'person_oid'
p1
L39L
sS'oid'
p2
L110L
sS'celltower_oid'
p3
L1890L
sS'name'
p4
S'Brooklinde'
p5
s.(dp0
S'person_oid'
p1
L78L
sS'oid'
p2
L111L
sS'celltower_oid'
p3
L3392L
sS'name'
p4
S'Office'
p5
s.(dp0
S'person_oid'
p1
L78L
sS'oid'
p2
L112L
sS'celltower_oid'
p3
L3393L
sS'name'
p4
S'Office'
p5
s.(dp0
S'person_oid'
p1
L78L
sS'oid'
p2
L113L
sS'celltower_oid'
p3
L3394L
sS'name'
p4
S'S&p'
p5
s.(dp0
S'person_oid'
p1
L78L
sS'oid'
p2
L114L
sS'celltower_oid'
p3
L3395L
sS'name'
p4
S'Home'
p5
s.(dp0
S'person_oid'
p1
L78L
sS'oid'
p2
L115L
sS'celltower_oid'
p3
L3396L
sS'name'
p4
S'Amys house'
p5
s.(dp0
S'person_oid'
p1
L78L
sS'oid'
p2
L116L
sS'celltower_oid'
p3
L3397L
sS'name'
p4
S'Uc berkeley soda'
p5
s.(dp0
S'person_oid'
p1
L78L
sS'oid'
p2
L117L
sS'celltower_oid'
p3
L3398L
sS'name'
p4
S'Uc berkeley cnmat'
p5
s.(dp0
S'person_oid'
p1
L78L
sS'oid'
p2
L118L
sS'celltower_oid'
p3
L3399L
sS'name'
p4
S'Uc berkeley cnmat'
p5
s.(dp0
S'person_oid'
p1
L78L
sS'oid'
p2
L119L
sS'celltower_oid'
p3
L3400L
sS'name'
p4
S'Uc berkeley cnmat'
p5
s.(dp0
S'person_oid'
p1
L78L
sS'oid'
p2
L120L
sS'celltower_oid'
p3
L3401L
sS'name'
p4
S'Uc berkeley cnmat'
p5
s.(dp0
S'person_oid'
p1
L78L
sS'oid'
p2
L121L
sS'celltower_oid'
p3
L30L
sS'name'
p4
S'Redwood city'
p5
s.(dp0
S'person_oid'
p1
L78L
sS'oid'
p2
L122L
sS'celltower_oid'
p3
L3402L
sS'name'
p4
S'Mountain view'
p5
s.(dp0
S'person_oid'
p1
L78L
sS'oid'
p2
L123L
sS'celltower_oid'
p3
L3403L
sS'name'
p4
S'Mountain view safeway'
p5
s.(dp0
S'person_oid'
p1
L78L
sS'oid'
p2
L124L
sS'celltower_oid'
p3
L3404L
sS'name'
p4
S'Ca central valley'
p5
s.(dp0
S'person_oid'
p1
L78L
sS'oid'
p2
L125L
sS'celltower_oid'
p3
L3405L
sS'name'
p4
S'Watsonville'
p5
s.(dp0
S'person_oid'
p1
L78L
sS'oid'
p2
L126L
sS'celltower_oid'
p3
L3406L
sS'name'
p4
S'Aptos'
p5
s.(dp0
S'person_oid'
p1
L78L
sS'oid'
p2
L127L
sS'celltower_oid'
p3
L3407L
sS'name'
p4
S'Google'
p5
s.(dp0
S'person_oid'
p1
L78L
sS'oid'
p2
L128L
sS'celltower_oid'
p3
L3408L
sS'name'
p4
S'Stanford'
p5
s.(dp0
S'person_oid'
p1
L78L
sS'oid'
p2
L129L
sS'celltower_oid'
p3
L3409L
sS'name'
p4
S'Palo alto'
p5
s.(dp0
S'person_oid'
p1
L78L
sS'oid'
p2
L130L
sS'celltower_oid'
p3
L3410L
sS'name'
p4
S'Stanford'
p5
s.(dp0
S'person_oid'
p1
L78L
sS'oid'
p2
L131L
sS'celltower_oid'
p3
L3411L
sS'name'
p4
S'San fransisco'
p5
s.(dp0
S'person_oid'
p1
L78L
sS'oid'
p2
L132L
sS'celltower_oid'
p3
L3412L
sS'name'
p4
S'San fransisco'
p5
s.(dp0
S'person_oid'
p1
L78L
sS'oid'
p2
L133L
sS'celltower_oid'
p3
L3413L
sS'name'
p4
S'San fransisco mission'
p5
s.(dp0
S'person_oid'
p1
L78L
sS'oid'
p2
L134L
sS'celltower_oid'
p3
L3414L
sS'name'
p4
S'Sf'
p5
s.(dp0
S'person_oid'
p1
L78L
sS'oid'
p2
L135L
sS'celltower_oid'
p3
L3415L
sS'name'
p4
S'280 near stanford'
p5
s.(dp0
S'person_oid'
p1
L78L
sS'oid'
p2
L136L
sS'celltower_oid'
p3
L3416L
sS'name'
p4
S'Los gatos'
p5
s.(dp0
S'person_oid'
p1
L78L
sS'oid'
p2
L137L
sS'celltower_oid'
p3
L3417L
sS'name'
p4
S'Hwy 17 idylwild drive'
p5
s.(dp0
S'person_oid'
p1
L78L
sS'oid'
p2
L138L
sS'celltower_oid'
p3
L3418L
sS'name'
p4
S'Hwy17 vine hill rd'
p5
s.(dp0
S'person_oid'
p1
L78L
sS'oid'
p2
L139L
sS'celltower_oid'
p3
L3419L
sS'name'
p4
S'Santa cruz 17 and 1'
p5
s.(dp0
S'person_oid'
p1
L78L
sS'oid'
p2
L140L
sS'celltower_oid'
p3
L3420L
sS'name'
p4
S'Santa cruz 1 and soquel ave'
p5
s.(dp0
S'person_oid'
p1
L78L
sS'oid'
p2
L141L
sS'celltower_oid'
p3
L3421L
sS'name'
p4
S'Soquel'
p5
s.(dp0
S'person_oid'
p1
L78L
sS'oid'
p2
L142L
sS'celltower_oid'
p3
L3422L
sS'name'
p4
S'Soquel'
p5
s.(dp0
S'person_oid'
p1
L78L
sS'oid'
p2
L143L
sS'celltower_oid'
p3
L3423L
sS'name'
p4
S'Aptos state park dr'
p5
s.(dp0
S'person_oid'
p1
L78L
sS'oid'
p2
L144L
sS'celltower_oid'
p3
L3424L
sS'name'
p4
S'Boston logan airport'
p5
s.(dp0
S'person_oid'
p1
L78L
sS'oid'
p2
L145L
sS'celltower_oid'
p3
L3425L
sS'name'
p4
S'Boston logan 2'
p5
s.(dp0
S'person_oid'
p1
L78L
sS'oid'
p2
L146L
sS'celltower_oid'
p3
L3426L
sS'name'
p4
S'Boston cambridge st'
p5
s.(dp0
S'person_oid'
p1
L78L
sS'oid'
p2
L147L
sS'celltower_oid'
p3
L3427L
sS'name'
p4
S'Beacon hill phillips'
p5
s.(dp0
S'person_oid'
p1
L78L
sS'oid'
p2
L148L
sS'celltower_oid'
p3
L3428L
sS'name'
p4
S'Porter sq'
p5
s.(dp0
S'person_oid'
p1
L78L
sS'oid'
p2
L149L
sS'celltower_oid'
p3
L3429L
sS'name'
p4
S'Cambridge beacon and oxford st'
p5
s.(dp0
S'person_oid'
p1
L78L
sS'oid'
p2
L150L
sS'celltower_oid'
p3
L3430L
sS'name'
p4
S'Inman square'
p5
s.(dp0
S'person_oid'
p1
L78L
sS'oid'
p2
L151L
sS'celltower_oid'
p3
L3431L
sS'name'
p4
S'Inman sq 2'
p5
s.(dp0
S'person_oid'
p1
L78L
sS'oid'
p2
L152L
sS'celltower_oid'
p3
L3432L
sS'name'
p4
S'Porter sq shopping center'
p5
s.(dp0
S'person_oid'
p1
L78L
sS'oid'
p2
L153L
sS'celltower_oid'
p3
L3433L
sS'name'
p4
S'Boston common'
p5
s.(dp0
S'person_oid'
p1
L78L
sS'oid'
p2
L154L
sS'celltower_oid'
p3
L3434L
sS'name'
p4
S'Boston harpers ferry'
p5
s.(dp0
S'person_oid'
p1
L78L
sS'oid'
p2
L155L
sS'celltower_oid'
p3
L3435L
sS'name'
p4
S'Dominican'
p5
s.(dp0
S'person_oid'
p1
L78L
sS'oid'
p2
L156L
sS'celltower_oid'
p3
L2446L
sS'name'
p4
S'Aptos piggie mkt'
p5
s.(dp0
S'person_oid'
p1
L90L
sS'oid'
p2
L157L
sS'celltower_oid'
p3
L42L
sS'name'
p4
S'Office'
p5
s.(dp0
S'person_oid'
p1
L90L
sS'oid'
p2
L158L
sS'celltower_oid'
p3
L5990L
sS'name'
p4
S'Chinatown'
p5
s.(dp0
S'person_oid'
p1
L90L
sS'oid'
p2
L159L
sS'celltower_oid'
p3
L39L
sS'name'
p4
S'B common'
p5
s.(dp0
S'person_oid'
p1
L90L
sS'oid'
p2
L160L
sS'celltower_oid'
p3
L5991L
sS'name'
p4
S'Otherside'
p5
s.(dp0
S'person_oid'
p1
L90L
sS'oid'
p2
L161L
sS'celltower_oid'
p3
L1556L
sS'name'
p4
S'Home  pearl st'
p5
s.(dp0
S'person_oid'
p1
L90L
sS'oid'
p2
L162L
sS'celltower_oid'
p3
L1552L
sS'name'
p4
S'Au bon pain'
p5
s.(dp0
S'person_oid'
p1
L90L
sS'oid'
p2
L163L
sS'celltower_oid'
p3
L5992L
sS'name'
p4
S'Porter exch'
p5
s.(dp0
S'person_oid'
p1
L90L
sS'oid'
p2
L164L
sS'celltower_oid'
p3
L5993L
sS'name'
p4
S'Inman'
p5
s.(dp0
S'person_oid'
p1
L90L
sS'oid'
p2
L165L
sS'celltower_oid'
p3
L1859L
sS'name'
p4
S'Newbury'
p5
s.(dp0
S'person_oid'
p1
L90L
sS'oid'
p2
L166L
sS'celltower_oid'
p3
L1842L
sS'name'
p4
S'ML'
p5
s.(dp0
S'person_oid'
p1
L90L
sS'oid'
p2
L167L
sS'celltower_oid'
p3
L1846L
sS'name'
p4
S'.Ajd'
p5
s.(dp0
S'person_oid'
p1
L90L
sS'oid'
p2
L168L
sS'celltower_oid'
p3
L1845L
sS'name'
p4
S'Cambpidgd'
p5
s.(dp0
S'person_oid'
p1
L90L
sS'oid'
p2
L169L
sS'celltower_oid'
p3
L1948L
sS'name'
p4
S'Pdpt'
p5
s.(dp0
S'person_oid'
p1
L90L
sS'oid'
p2
L170L
sS'celltower_oid'
p3
L1851L
sS'name'
p4
S"Heemin's house"
p5
s.(dp0
S'person_oid'
p1
L90L
sS'oid'
p2
L171L
sS'celltower_oid'
p3
L5994L
sS'name'
p4
S'Home apt dublin'
p5
s.(dp0
S'person_oid'
p1
L90L
sS'oid'
p2
L172L
sS'celltower_oid'
p3
L5995L
sS'name'
p4
S'Work mle guinness hops store'
p5
s.(dp0
S'person_oid'
p1
L90L
sS'oid'
p2
L173L
sS'celltower_oid'
p3
L5996L
sS'name'
p4
S'Lab 3rd floor dublin crane st'
p5
s.(dp0
S'person_oid'
p1
L90L
sS'oid'
p2
L174L
sS'celltower_oid'
p3
L30L
sS'name'
p4
S'Home apt dublin'
p5
s.(dp0
S'person_oid'
p1
L90L
sS'oid'
p2
L175L
sS'celltower_oid'
p3
L5997L
sS'name'
p4
S'#'
p5
s.(dp0
S'person_oid'
p1
L90L
sS'oid'
p2
L176L
sS'celltower_oid'
p3
L1844L
sS'name'
p4
S'Rebeccas'
p5
s.(dp0
S'person_oid'
p1
L90L
sS'oid'
p2
L177L
sS'celltower_oid'
p3
L2398L
sS'name'
p4
S'Marriott residence'
p5
s.(dp0
S'person_oid'
p1
L15L
sS'oid'
p2
L178L
sS'celltower_oid'
p3
L40L
sS'name'
p4
S'A'
p5
s.(dp0
S'person_oid'
p1
L15L
sS'oid'
p2
L179L
sS'celltower_oid'
p3
L3451L
sS'name'
p4
S'Home'
p5
s.(dp0
S'person_oid'
p1
L15L
sS'oid'
p2
L180L
sS'celltower_oid'
p3
L3392L
sS'name'
p4
S'Stata'
p5
s.(dp0
S'person_oid'
p1
L15L
sS'oid'
p2
L181L
sS'celltower_oid'
p3
L2446L
sS'name'
p4
S'Office'
p5
s.(dp0
S'person_oid'
p1
L15L
sS'oid'
p2
L182L
sS'celltower_oid'
p3
L5270L
sS'name'
p4
S'Walden pond'
p5
s.(dp0
S'person_oid'
p1
L15L
sS'oid'
p2
L183L
sS'celltower_oid'
p3
L3433L
sS'name'
p4
S'Boston common'
p5
s.(dp0
S'person_oid'
p1
L15L
sS'oid'
p2
L184L
sS'celltower_oid'
p3
L4541L
sS'name'
p4
S'Yoav'
p5
s.(dp0
S'person_oid'
p1
L15L
sS'oid'
p2
L185L
sS'celltower_oid'
p3
L3393L
sS'name'
p4
S'Office'
p5
s.(dp0
S'person_oid'
p1
L15L
sS'oid'
p2
L186L
sS'celltower_oid'
p3
L4374L
sS'name'
p4
S'Watertown target'
p5
s.(dp0
S'person_oid'
p1
L15L
sS'oid'
p2
L187L
sS'celltower_oid'
p3
L4384L
sS'name'
p4
S'Quincy market'
p5
s.(dp0
S'person_oid'
p1
L15L
sS'oid'
p2
L188L
sS'celltower_oid'
p3
L3943L
sS'name'
p4
S'Cambridge galeria'
p5
s.(dp0
S'person_oid'
p1
L14L
sS'oid'
p2
L189L
sS'celltower_oid'
p3
L1L
sS'name'
p4
S'ML'
p5
s.(dp0
S'person_oid'
p1
L14L
sS'oid'
p2
L190L
sS'celltower_oid'
p3
L2L
sS'name'
p4
S'ML'
p5
s.(dp0
S'person_oid'
p1
L14L
sS'oid'
p2
L191L
sS'celltower_oid'
p3
L43L
sS'name'
p4
S'ML'
p5
s.(dp0
S'person_oid'
p1
L14L
sS'oid'
p2
L192L
sS'celltower_oid'
p3
L302L
sS'name'
p4
S'Park Street T'
p5
s.(dp0
S'person_oid'
p1
L14L
sS'oid'
p2
L193L
sS'celltower_oid'
p3
L62L
sS'name'
p4
S'Fenway Park'
p5
s.(dp0
S'person_oid'
p1
L14L
sS'oid'
p2
L194L
sS'celltower_oid'
p3
L279L
sS'name'
p4
S'Boylston T Stop'
p5
s.(dp0
S'person_oid'
p1
L14L
sS'oid'
p2
L195L
sS'celltower_oid'
p3
L293L
sS'name'
p4
S'Charles MGH T Stop'
p5
s.(dp0
S'person_oid'
p1
L14L
sS'oid'
p2
L196L
sS'celltower_oid'
p3
L46L
sS'name'
p4
S'Charles MGH T Stop'
p5
s.(dp0
S'person_oid'
p1
L14L
sS'oid'
p2
L197L
sS'celltower_oid'
p3
L49L
sS'name'
p4
S'Bigelow St'
p5
s.(dp0
S'person_oid'
p1
L14L
sS'oid'
p2
L198L
sS'celltower_oid'
p3
L3L
sS'name'
p4
S'Bigelow St'
p5
s.(dp0
S'person_oid'
p1
L14L
sS'oid'
p2
L199L
sS'celltower_oid'
p3
L82L
sS'name'
p4
S'Bigelow St'
p5
s.(dp0
S'person_oid'
p1
L14L
sS'oid'
p2
L200L
sS'celltower_oid'
p3
L7L
sS'name'
p4
S'ML'
p5
s.(dp0
S'person_oid'
p1
L14L
sS'oid'
p2
L201L
sS'celltower_oid'
p3
L4L
sS'name'
p4
S'Trader Joe'
p5
s.(dp0
S'person_oid'
p1
L14L
sS'oid'
p2
L202L
sS'celltower_oid'
p3
L64L
sS'name'
p4
S"Trader Joe's"
p5
s.(dp0
S'person_oid'
p1
L14L
sS'oid'
p2
L203L
sS'celltower_oid'
p3
L70L
sS'name'
p4
S'ML'
p5
s.(dp0
S'person_oid'
p1
L14L
sS'oid'
p2
L204L
sS'celltower_oid'
p3
L29L
sS'name'
p4
S'ML'
p5
s.(dp0
S'person_oid'
p1
L14L
sS'oid'
p2
L205L
sS'celltower_oid'
p3
L2539L
sS'name'
p4
S'Greenlawn Ave'
p5
s.(dp0
S'person_oid'
p1
L14L
sS'oid'
p2
L206L
sS'celltower_oid'
p3
L6734L
sS'name'
p4
S'Wellesley'
p5
s.(dp0
S'person_oid'
p1
L14L
sS'oid'
p2
L207L
sS'celltower_oid'
p3
L2526L
sS'name'
p4
S'Newton centre'
p5
s.(dp0
S'person_oid'
p1
L14L
sS'oid'
p2
L208L
sS'celltower_oid'
p3
L5L
sS'name'
p4
S'Harvard Sq'
p5
s.(dp0
S'person_oid'
p1
L14L
sS'oid'
p2
L209L
sS'celltower_oid'
p3
L68L
sS'name'
p4
S'Belmont'
p5
s.(dp0
S'person_oid'
p1
L14L
sS'oid'
p2
L210L
sS'celltower_oid'
p3
L283L
sS'name'
p4
S'Belmont'
p5
s.(dp0
S'person_oid'
p1
L14L
sS'oid'
p2
L211L
sS'celltower_oid'
p3
L52L
sS'name'
p4
S'North End'
p5
s.(dp0
S'person_oid'
p1
L14L
sS'oid'
p2
L212L
sS'celltower_oid'
p3
L288L
sS'name'
p4
S'South Boston'
p5
s.(dp0
S'person_oid'
p1
L14L
sS'oid'
p2
L213L
sS'celltower_oid'
p3
L2641L
sS'name'
p4
S'South Boston'
p5
s.(dp0
S'person_oid'
p1
L14L
sS'oid'
p2
L214L
sS'celltower_oid'
p3
L65L
sS'name'
p4
S'Watertown'
p5
s.(dp0
S'person_oid'
p1
L14L
sS'oid'
p2
L215L
sS'celltower_oid'
p3
L47L
sS'name'
p4
S'Coolidge Corner'
p5
s.(dp0
S'person_oid'
p1
L14L
sS'oid'
p2
L216L
sS'celltower_oid'
p3
L178L
sS'name'
p4
S'Brookline'
p5
s.(dp0
S'person_oid'
p1
L14L
sS'oid'
p2
L217L
sS'celltower_oid'
p3
L152L
sS'name'
p4
S'ML'
p5
s.(dp0
S'person_oid'
p1
L14L
sS'oid'
p2
L218L
sS'celltower_oid'
p3
L77L
sS'name'
p4
S'Porter Sq'
p5
s.(dp0
S'person_oid'
p1
L14L
sS'oid'
p2
L219L
sS'celltower_oid'
p3
L32L
sS'name'
p4
S'Davis Sq'
p5
s.(dp0
S'person_oid'
p1
L14L
sS'oid'
p2
L220L
sS'celltower_oid'
p3
L312L
sS'name'
p4
S'Boston'
p5
s.(dp0
S'person_oid'
p1
L14L
sS'oid'
p2
L221L
sS'celltower_oid'
p3
L2548L
sS'name'
p4
S'Newton'
p5
s.(dp0
S'person_oid'
p1
L14L
sS'oid'
p2
L222L
sS'celltower_oid'
p3
L407L
sS'name'
p4
S'N'
p5
s.(dp0
S'person_oid'
p1
L14L
sS'oid'
p2
L223L
sS'celltower_oid'
p3
L2528L
sS'name'
p4
S'Newton'
p5
s.(dp0
S'person_oid'
p1
L14L
sS'oid'
p2
L224L
sS'celltower_oid'
p3
L182L
sS'name'
p4
S'Jp'
p5
s.(dp0
S'person_oid'
p1
L14L
sS'oid'
p2
L225L
sS'celltower_oid'
p3
L6735L
sS'name'
p4
S'Vienna VA'
p5
s.(dp0
S'person_oid'
p1
L14L
sS'oid'
p2
L226L
sS'celltower_oid'
p3
L6736L
sS'name'
p4
S'Arlington VA'
p5
s.(dp0
S'person_oid'
p1
L14L
sS'oid'
p2
L227L
sS'celltower_oid'
p3
L115L
sS'name'
p4
S'NW DC'
p5
s.(dp0
S'person_oid'
p1
L14L
sS'oid'
p2
L228L
sS'celltower_oid'
p3
L6737L
sS'name'
p4
S'Falls Church'
p5
s.(dp0
S'person_oid'
p1
L14L
sS'oid'
p2
L229L
sS'celltower_oid'
p3
L6738L
sS'name'
p4
S'Woodley Park'
p5
s.(dp0
S'person_oid'
p1
L14L
sS'oid'
p2
L230L
sS'celltower_oid'
p3
L6739L
sS'name'
p4
S'Adams Morgan DC'
p5
s.(dp0
S'person_oid'
p1
L14L
sS'oid'
p2
L231L
sS'celltower_oid'
p3
L18L
sS'name'
p4
S'Logan Airport'
p5
s.(dp0
S'person_oid'
p1
L14L
sS'oid'
p2
L232L
sS'celltower_oid'
p3
L67L
sS'name'
p4
S'Media Lab'
p5
s.(dp0
S'person_oid'
p1
L14L
sS'oid'
p2
L233L
sS'celltower_oid'
p3
L314L
sS'name'
p4
S'Copley Square'
p5
s.(dp0
S'person_oid'
p1
L14L
sS'oid'
p2
L234L
sS'celltower_oid'
p3
L184L
sS'name'
p4
S'Kenmore Sq'
p5
s.(dp0
S'person_oid'
p1
L14L
sS'oid'
p2
L235L
sS'celltower_oid'
p3
L1545L
sS'name'
p4
S'Kenmore Sq'
p5
s.(dp0
S'person_oid'
p1
L14L
sS'oid'
p2
L236L
sS'celltower_oid'
p3
L276L
sS'name'
p4
S'Coolidge Corner'
p5
s.(dp0
S'person_oid'
p1
L14L
sS'oid'
p2
L237L
sS'celltower_oid'
p3
L177L
sS'name'
p4
S'Coolidge Corner'
p5
s.(dp0
S'person_oid'
p1
L14L
sS'oid'
p2
L238L
sS'celltower_oid'
p3
L2527L
sS'name'
p4
S'Chestnut Hill'
p5
s.(dp0
S'person_oid'
p1
L14L
sS'oid'
p2
L239L
sS'celltower_oid'
p3
L83L
sS'name'
p4
S'Cambridge Galleria'
p5
s.(dp0
S'person_oid'
p1
L14L
sS'oid'
p2
L240L
sS'celltower_oid'
p3
L61L
sS'name'
p4
S'Back Bay'
p5
s.(dp0
S'person_oid'
p1
L14L
sS'oid'
p2
L241L
sS'celltower_oid'
p3
L292L
sS'name'
p4
S'Downtown Crossing'
p5
s.(dp0
S'person_oid'
p1
L14L
sS'oid'
p2
L242L
sS'celltower_oid'
p3
L2538L
sS'name'
p4
S'Staples'
p5
s.(dp0
S'person_oid'
p1
L14L
sS'oid'
p2
L243L
sS'celltower_oid'
p3
L154L
sS'name'
p4
S'Media Lab'
p5
s.(dp0
S'person_oid'
p1
L14L
sS'oid'
p2
L244L
sS'celltower_oid'
p3
L301L
sS'name'
p4
S'Theatre Dist'
p5
s.(dp0
S'person_oid'
p1
L88L
sS'oid'
p2
L245L
sS'celltower_oid'
p3
L308L
sS'name'
p4
S'Beacon st'
p5
s.(dp0
S'person_oid'
p1
L88L
sS'oid'
p2
L246L
sS'celltower_oid'
p3
L7465L
sS'name'
p4
S'Thatcher Street'
p5
s.(dp0
S'person_oid'
p1
L88L
sS'oid'
p2
L247L
sS'celltower_oid'
p3
L63L
sS'name'
p4
S'Thatcher street'
p5
s.(dp0
S'person_oid'
p1
L88L
sS'oid'
p2
L248L
sS'celltower_oid'
p3
L2L
sS'name'
p4
S'ML'
p5
s.(dp0
S'person_oid'
p1
L88L
sS'oid'
p2
L249L
sS'celltower_oid'
p3
L1L
sS'name'
p4
S'ML'
p5
s.(dp0
S'person_oid'
p1
L88L
sS'oid'
p2
L250L
sS'celltower_oid'
p3
L61L
sS'name'
p4
S'Newbury St.'
p5
s.(dp0
S'person_oid'
p1
L88L
sS'oid'
p2
L251L
sS'celltower_oid'
p3
L182L
sS'name'
p4
S'Harvard st.'
p5
s.(dp0
S'person_oid'
p1
L88L
sS'oid'
p2
L252L
sS'celltower_oid'
p3
L7466L
sS'name'
p4
S'Fallmouth'
p5
s.(dp0
S'person_oid'
p1
L88L
sS'oid'
p2
L253L
sS'celltower_oid'
p3
L2507L
sS'name'
p4
S'Falmouth'
p5
s.(dp0
S'person_oid'
p1
L88L
sS'oid'
p2
L254L
sS'celltower_oid'
p3
L2517L
sS'name'
p4
S'Fallmouth'
p5
s.(dp0
S'person_oid'
p1
L88L
sS'oid'
p2
L255L
sS'celltower_oid'
p3
L405L
sS'name'
p4
S'Dexter Park'
p5
s.(dp0
S'person_oid'
p1
L88L
sS'oid'
p2
L256L
sS'celltower_oid'
p3
L19L
sS'name'
p4
S'Colonial'
p5
s.(dp0
S'person_oid'
p1
L88L
sS'oid'
p2
L257L
sS'celltower_oid'
p3
L314L
sS'name'
p4
S'Colonial'
p5
s.(dp0
S'person_oid'
p1
L88L
sS'oid'
p2
L258L
sS'celltower_oid'
p3
L2527L
sS'name'
p4
S'Newton center'
p5
s.(dp0
S'person_oid'
p1
L88L
sS'oid'
p2
L259L
sS'celltower_oid'
p3
L50L
sS'name'
p4
S'MGH'
p5
s.(dp0
S'person_oid'
p1
L88L
sS'oid'
p2
L260L
sS'celltower_oid'
p3
L46L
sS'name'
p4
S'GVMT CTR'
p5
s.(dp0
S'person_oid'
p1
L88L
sS'oid'
p2
L261L
sS'celltower_oid'
p3
L48L
sS'name'
p4
S'Kent st'
p5
s.(dp0
S'person_oid'
p1
L88L
sS'oid'
p2
L262L
sS'celltower_oid'
p3
L154L
sS'name'
p4
S'Common'
p5
s.(dp0
S'person_oid'
p1
L88L
sS'oid'
p2
L263L
sS'celltower_oid'
p3
L293L
sS'name'
p4
S'Combat zone'
p5
s.(dp0
S'person_oid'
p1
L88L
sS'oid'
p2
L264L
sS'celltower_oid'
p3
L36L
sS'name'
p4
S'Aquarium'
p5
s.(dp0
S'person_oid'
p1
L88L
sS'oid'
p2
L265L
sS'celltower_oid'
p3
L53L
sS'name'
p4
S'Fennuil hall'
p5
s.(dp0
S'person_oid'
p1
L88L
sS'oid'
p2
L266L
sS'celltower_oid'
p3
L7467L
sS'name'
p4
S'Patmos'
p5
s.(dp0
S'person_oid'
p1
L88L
sS'oid'
p2
L267L
sS'celltower_oid'
p3
L43L
sS'name'
p4
S'Bu bridge'
p5
s.(dp0
S'person_oid'
p1
L88L
sS'oid'
p2
L268L
sS'celltower_oid'
p3
L35L
sS'name'
p4
S'Longwood'
p5
s.(dp0
S'person_oid'
p1
L88L
sS'oid'
p2
L269L
sS'celltower_oid'
p3
L184L
sS'name'
p4
S'Aspinwall'
p5
s.(dp0
S'person_oid'
p1
L88L
sS'oid'
p2
L270L
sS'celltower_oid'
p3
L180L
sS'name'
p4
S'Beacon st.'
p5
s.(dp0
S'person_oid'
p1
L88L
sS'oid'
p2
L271L
sS'celltower_oid'
p3
L62L
sS'name'
p4
S'Kenmore'
p5
s.(dp0
S'person_oid'
p1
L88L
sS'oid'
p2
L272L
sS'celltower_oid'
p3
L181L
sS'name'
p4
S'Longwood'
p5
s.(dp0
S'person_oid'
p1
L88L
sS'oid'
p2
L273L
sS'celltower_oid'
p3
L1545L
sS'name'
p4
S'Longwood'
p5
s.(dp0
S'person_oid'
p1
L88L
sS'oid'
p2
L274L
sS'celltower_oid'
p3
L47L
sS'name'
p4
S'Back bay'
p5
s.(dp0
S'person_oid'
p1
L88L
sS'oid'
p2
L275L
sS'celltower_oid'
p3
L311L
sS'name'
p4
S'Hynes'
p5
s.(dp0
S'person_oid'
p1
L88L
sS'oid'
p2
L276L
sS'celltower_oid'
p3
L191L
sS'name'
p4
S'Beacon'
p5
s.(dp0
S'person_oid'
p1
L88L
sS'oid'
p2
L277L
sS'celltower_oid'
p3
L280L
sS'name'
p4
S'Brookline village'
p5
s.(dp0
S'person_oid'
p1
L88L
sS'oid'
p2
L278L
sS'celltower_oid'
p3
L49L
sS'name'
p4
S'MGH'
p5
s.(dp0
S'person_oid'
p1
L88L
sS'oid'
p2
L279L
sS'celltower_oid'
p3
L51L
sS'name'
p4
S'Mgh'
p5
s.(dp0
S'person_oid'
p1
L88L
sS'oid'
p2
L280L
sS'celltower_oid'
p3
L29L
sS'name'
p4
S'Gvmt ctr'
p5
s.(dp0
S'person_oid'
p1
L88L
sS'oid'
p2
L281L
sS'celltower_oid'
p3
L52L
sS'name'
p4
S'Gvmt ctr'
p5
s.(dp0
S'person_oid'
p1
L88L
sS'oid'
p2
L282L
sS'celltower_oid'
p3
L299L
sS'name'
p4
S'City hall'
p5
s.(dp0
S'person_oid'
p1
L88L
sS'oid'
p2
L283L
sS'celltower_oid'
p3
L81L
sS'name'
p4
S'Kendall sq'
p5
s.(dp0
S'person_oid'
p1
L88L
sS'oid'
p2
L284L
sS'celltower_oid'
p3
L152L
sS'name'
p4
S'Ml'
p5
s.(dp0
S'person_oid'
p1
L88L
sS'oid'
p2
L285L
sS'celltower_oid'
p3
L274L
sS'name'
p4
S'Hynes'
p5
s.(dp0
S'person_oid'
p1
L88L
sS'oid'
p2
L286L
sS'celltower_oid'
p3
L312L
sS'name'
p4
S'Harvard st'
p5
s.(dp0
S'person_oid'
p1
L88L
sS'oid'
p2
L287L
sS'celltower_oid'
p3
L156L
sS'name'
p4
S'Allston'
p5
s.(dp0
S'person_oid'
p1
L88L
sS'oid'
p2
L288L
sS'celltower_oid'
p3
L4L
sS'name'
p4
S'Mass av &'
p5
s.(dp0
S'person_oid'
p1
L88L
sS'oid'
p2
L289L
sS'celltower_oid'
p3
L5L
sS'name'
p4
S'Harvard sq'
p5
s.(dp0
S'person_oid'
p1
L88L
sS'oid'
p2
L290L
sS'celltower_oid'
p3
L313L
sS'name'
p4
S'Clarendon'
p5
s.(dp0
S'person_oid'
p1
L88L
sS'oid'
p2
L291L
sS'celltower_oid'
p3
L398L
sS'name'
p4
S'Clarendon'
p5
s.(dp0
S'person_oid'
p1
L88L
sS'oid'
p2
L292L
sS'celltower_oid'
p3
L65L
sS'name'
p4
S'BU bridge'
p5
s.(dp0
S'person_oid'
p1
L88L
sS'oid'
p2
L293L
sS'celltower_oid'
p3
L177L
sS'name'
p4
S'CC'
p5
s.(dp0
S'person_oid'
p1
L88L
sS'oid'
p2
L294L
sS'celltower_oid'
p3
L183L
sS'name'
p4
S'CC'
p5
s.(dp0
S'person_oid'
p1
L88L
sS'oid'
p2
L295L
sS'celltower_oid'
p3
L7468L
sS'name'
p4
S'Sebastopol'
p5
s.(dp0
S'person_oid'
p1
L88L
sS'oid'
p2
L296L
sS'celltower_oid'
p3
L7469L
sS'name'
p4
S"O'reilly"
p5
s.(dp0
S'person_oid'
p1
L88L
sS'oid'
p2
L297L
sS'celltower_oid'
p3
L7470L
sS'name'
p4
S"O'reilly"
p5
s.(dp0
S'person_oid'
p1
L88L
sS'oid'
p2
L298L
sS'celltower_oid'
p3
L18L
sS'name'
p4
S'Logan'
p5
s.(dp0
S'person_oid'
p1
L88L
sS'oid'
p2
L299L
sS'celltower_oid'
p3
L325L
sS'name'
p4
S'Logan'
p5
s.(dp0
S'person_oid'
p1
L88L
sS'oid'
p2
L300L
sS'celltower_oid'
p3
L320L
sS'name'
p4
S'Bigdig'
p5
s.(dp0
S'person_oid'
p1
L88L
sS'oid'
p2
L301L
sS'celltower_oid'
p3
L68L
sS'name'
p4
S'Border Cafe'
p5
s.(dp0
S'person_oid'
p1
L88L
sS'oid'
p2
L302L
sS'celltower_oid'
p3
L69L
sS'name'
p4
S'Border Cafe'
p5
s.(dp0
S'person_oid'
p1
L88L
sS'oid'
p2
L303L
sS'celltower_oid'
p3
L197L
sS'name'
p4
S'Haymarket'
p5
s.(dp0
S'person_oid'
p1
L88L
sS'oid'
p2
L304L
sS'celltower_oid'
p3
L59L
sS'name'
p4
S'Mgh'
p5
s.(dp0
S'person_oid'
p1
L88L
sS'oid'
p2
L305L
sS'celltower_oid'
p3
L288L
sS'name'
p4
S'Penang'
p5
s.(dp0
S'person_oid'
p1
L88L
sS'oid'
p2
L306L
sS'celltower_oid'
p3
L54L
sS'name'
p4
S'City Hall'
p5
s.(dp0
S'person_oid'
p1
L88L
sS'oid'
p2
L307L
sS'celltower_oid'
p3
L6955L
sS'name'
p4
S'Wellesley'
p5
s.(dp0
S'person_oid'
p1
L88L
sS'oid'
p2
L308L
sS'celltower_oid'
p3
L83L
sS'name'
p4
S'E15-473c'
p5
s.(dp0
S'person_oid'
p1
L88L
sS'oid'
p2
L309L
sS'celltower_oid'
p3
L178L
sS'name'
p4
S'Lonwood'
p5
s.(dp0
S'person_oid'
p1
L88L
sS'oid'
p2
L310L
sS'celltower_oid'
p3
L403L
sS'name'
p4
S'Rt9'
p5
s.(dp0
S'person_oid'
p1
L88L
sS'oid'
p2
L311L
sS'celltower_oid'
p3
L1562L
sS'name'
p4
S'Aquarium'
p5
s.(dp0
S'person_oid'
p1
L88L
sS'oid'
p2
L312L
sS'celltower_oid'
p3
L7471L
sS'name'
p4
S'Colonia'
p5
s.(dp0
S'person_oid'
p1
L88L
sS'oid'
p2
L313L
sS'celltower_oid'
p3
L7472L
sS'name'
p4
S'Athens airport'
p5
s.(dp0
S'person_oid'
p1
L88L
sS'oid'
p2
L314L
sS'celltower_oid'
p3
L7473L
sS'name'
p4
S'Athens airport'
p5
s.(dp0
S'person_oid'
p1
L88L
sS'oid'
p2
L315L
sS'celltower_oid'
p3
L7474L
sS'name'
p4
S'Chania airport'
p5
s.(dp0
S'person_oid'
p1
L88L
sS'oid'
p2
L316L
sS'celltower_oid'
p3
L7475L
sS'name'
p4
S'Souda'
p5
s.(dp0
S'person_oid'
p1
L88L
sS'oid'
p2
L317L
sS'celltower_oid'
p3
L7476L
sS'name'
p4
S'Chania'
p5
s.(dp0
S'person_oid'
p1
L88L
sS'oid'
p2
L318L
sS'celltower_oid'
p3
L7477L
sS'name'
p4
S'Koum kapi'
p5
s.(dp0
S'person_oid'
p1
L88L
sS'oid'
p2
L319L
sS'celltower_oid'
p3
L7478L
sS'name'
p4
S'Chania alma'
p5
s.(dp0
S'person_oid'
p1
L88L
sS'oid'
p2
L320L
sS'celltower_oid'
p3
L7479L
sS'name'
p4
S'Chania alma'
p5
s.(dp0
S'person_oid'
p1
L88L
sS'oid'
p2
L321L
sS'celltower_oid'
p3
L7480L
sS'name'
p4
S'Athens airport'
p5
s.(dp0
S'person_oid'
p1
L88L
sS'oid'
p2
L322L
sS'celltower_oid'
p3
L7481L
sS'name'
p4
S'Kolonaki'
p5
s.(dp0
S'person_oid'
p1
L88L
sS'oid'
p2
L323L
sS'celltower_oid'
p3
L7482L
sS'name'
p4
S'Kefalari'
p5
s.(dp0
S'person_oid'
p1
L88L
sS'oid'
p2
L324L
sS'celltower_oid'
p3
L7483L
sS'name'
p4
S'Jfk'
p5
s.(dp0
S'person_oid'
p1
L88L
sS'oid'
p2
L325L
sS'celltower_oid'
p3
L7484L
sS'name'
p4
S'Jfk'
p5
s.(dp0
S'person_oid'
p1
L88L
sS'oid'
p2
L326L
sS'celltower_oid'
p3
L7117L
sS'name'
p4
S'Atrium mall'
p5
s.(dp0
S'person_oid'
p1
L8L
sS'oid'
p2
L327L
sS'celltower_oid'
p3
L1L
sS'name'
p4
S'Ml'
p5
s.(dp0
S'person_oid'
p1
L8L
sS'oid'
p2
L328L
sS'celltower_oid'
p3
L7484L
sS'name'
p4
S'Jfk gate 23 trm 8'
p5
s.(dp0
S'person_oid'
p1
L8L
sS'oid'
p2
L329L
sS'celltower_oid'
p3
L8254L
sS'name'
p4
S'Helsinki airport g30'
p5
s.(dp0
S'person_oid'
p1
L8L
sS'oid'
p2
L330L
sS'celltower_oid'
p3
L8255L
sS'name'
p4
S'Island s of h'
p5
s.(dp0
S'person_oid'
p1
L8L
sS'oid'
p2
L331L
sS'celltower_oid'
p3
L8256L
sS'name'
p4
S'Helsinki center'
p5
s.(dp0
S'person_oid'
p1
L8L
sS'oid'
p2
L332L
sS'celltower_oid'
p3
L8257L
sS'name'
p4
S'Budapest airport'
p5
s.(dp0
S'person_oid'
p1
L8L
sS'oid'
p2
L333L
sS'celltower_oid'
p3
L8258L
sS'name'
p4
S'Gallert baths'
p5
s.(dp0
S'person_oid'
p1
L8L
sS'oid'
p2
L334L
sS'celltower_oid'
p3
L8259L
sS'name'
p4
S'Bud econ univ'
p5
s.(dp0
S'person_oid'
p1
L8L
sS'oid'
p2
L335L
sS'celltower_oid'
p3
L8260L
sS'name'
p4
S'Bub gate 18'
p5
s.(dp0
S'person_oid'
p1
L8L
sS'oid'
p2
L336L
sS'celltower_oid'
p3
L442L
sS'name'
p4
S'I 90 exit 11'
p5
s.(dp0
S'person_oid'
p1
L8L
sS'oid'
p2
L337L
sS'celltower_oid'
p3
L76L
sS'name'
p4
S'Porter'
p5
s.(dp0
S'person_oid'
p1
L8L
sS'oid'
p2
L338L
sS'celltower_oid'
p3
L44L
sS'name'
p4
S'B-side'
p5
s.(dp0
S'person_oid'
p1
L8L
sS'oid'
p2
L339L
sS'celltower_oid'
p3
L72L
sS'name'
p4
S'Thirsty scholar'
p5
s.(dp0
S'person_oid'
p1
L8L
sS'oid'
p2
L340L
sS'celltower_oid'
p3
L2L
sS'name'
p4
S'ML'
p5
s.(dp0
S'person_oid'
p1
L8L
sS'oid'
p2
L341L
sS'celltower_oid'
p3
L60L
sS'name'
p4
S'Bldg 6'
p5
s.(dp0
S'person_oid'
p1
L8L
sS'oid'
p2
L342L
sS'celltower_oid'
p3
L152L
sS'name'
p4
S'Eastgate'
p5
s.(dp0
S'person_oid'
p1
L8L
sS'oid'
p2
L343L
sS'celltower_oid'
p3
L71L
sS'name'
p4
S'Inman'
p5
s.(dp0
S'person_oid'
p1
L8L
sS'oid'
p2
L344L
sS'celltower_oid'
p3
L75L
sS'name'
p4
S'Hampshire & elm'
p5
s.(dp0
S'person_oid'
p1
L8L
sS'oid'
p2
L345L
sS'celltower_oid'
p3
L81L
sS'name'
p4
S'Atasca'
p5
s.(dp0
S'person_oid'
p1
L8L
sS'oid'
p2
L346L
sS'celltower_oid'
p3
L61L
sS'name'
p4
S'Ml south'
p5
s.(dp0
S'person_oid'
p1
L8L
sS'oid'
p2
L347L
sS'celltower_oid'
p3
L29L
sS'name'
p4
S'Jaes'
p5
s.(dp0
S'person_oid'
p1
L8L
sS'oid'
p2
L348L
sS'celltower_oid'
p3
L293L
sS'name'
p4
S'Jaes'
p5
s.(dp0
S'person_oid'
p1
L8L
sS'oid'
p2
L349L
sS'celltower_oid'
p3
L31L
sS'name'
p4
S'0'
p5
s.(dp0
S'person_oid'
p1
L7L
sS'oid'
p2
L350L
sS'celltower_oid'
p3
L42L
sS'name'
p4
S'Jlllld'
p5
s.(dp0
S'person_oid'
p1
L7L
sS'oid'
p2
L351L
sS'celltower_oid'
p3
L39L
sS'name'
p4
S'Lllla'
p5
s.(dp0
S'person_oid'
p1
L71L
sS'oid'
p2
L352L
sS'celltower_oid'
p3
L1842L
sS'name'
p4
S'ML'
p5
s.(dp0
S'person_oid'
p1
L71L
sS'oid'
p2
L353L
sS'celltower_oid'
p3
L42L
sS'name'
p4
S'ML'
p5
s.(dp0
S'person_oid'
p1
L71L
sS'oid'
p2
L354L
sS'celltower_oid'
p3
L41L
sS'name'
p4
S'Rm495'
p5
s.(dp0
S'person_oid'
p1
L71L
sS'oid'
p2
L355L
sS'celltower_oid'
p3
L1552L
sS'name'
p4
S'Medical'
p5
s.(dp0
S'person_oid'
p1
L71L
sS'oid'
p2
L356L
sS'celltower_oid'
p3
L1556L
sS'name'
p4
S'Home'
p5
s.(dp0
S'person_oid'
p1
L71L
sS'oid'
p2
L357L
sS'celltower_oid'
p3
L8811L
sS'name'
p4
S'New Hampshire'
p5
s.(dp0
S'person_oid'
p1
L71L
sS'oid'
p2
L358L
sS'celltower_oid'
p3
L8812L
sS'name'
p4
S'Harbor'
p5
s.(dp0
S'person_oid'
p1
L71L
sS'oid'
p2
L359L
sS'celltower_oid'
p3
L8813L
sS'name'
p4
S'Mass Ave 350'
p5
s.(dp0
S'person_oid'
p1
L71L
sS'oid'
p2
L360L
sS'celltower_oid'
p3
L6005L
sS'name'
p4
S'Green House'
p5
s.(dp0
S'person_oid'
p1
L71L
sS'oid'
p2
L361L
sS'celltower_oid'
p3
L8814L
sS'name'
p4
S'BU Medical'
p5
s.(dp0
S'person_oid'
p1
L71L
sS'oid'
p2
L362L
sS'celltower_oid'
p3
L8815L
sS'name'
p4
S'South Station'
p5
s.(dp0
S'person_oid'
p1
L71L
sS'oid'
p2
L363L
sS'celltower_oid'
p3
L1553L
sS'name'
p4
S'Harvard High Energy Lab'
p5
s.(dp0
S'person_oid'
p1
L71L
sS'oid'
p2
L364L
sS'celltower_oid'
p3
L6011L
sS'name'
p4
S'Museum tower'
p5
s.(dp0
S'person_oid'
p1
L71L
sS'oid'
p2
L365L
sS'celltower_oid'
p3
L8816L
sS'name'
p4
S'Museum Towers'
p5
s.(dp0
S'person_oid'
p1
L7L
sS'oid'
p2
L366L
sS'celltower_oid'
p3
L77L
sS'name'
p4
S'Home'
p5
s.(dp0
S'person_oid'
p1
L7L
sS'oid'
p2
L367L
sS'celltower_oid'
p3
L78L
sS'name'
p4
S'Home'
p5
s.(dp0
S'person_oid'
p1
L7L
sS'oid'
p2
L368L
sS'celltower_oid'
p3
L31L
sS'name'
p4
S'Dick'
p5
s.(dp0
S'person_oid'
p1
L7L
sS'oid'
p2
L369L
sS'celltower_oid'
p3
L1L
sS'name'
p4
S'Media lab'
p5
s.(dp0
S'person_oid'
p1
L7L
sS'oid'
p2
L370L
sS'celltower_oid'
p3
L2L
sS'name'
p4
S'Media lab'
p5
s.(dp0
S'person_oid'
p1
L7L
sS'oid'
p2
L371L
sS'celltower_oid'
p3
L9032L
sS'name'
p4
S'Mike'
p5
s.(dp0
S'person_oid'
p1
L7L
sS'oid'
p2
L372L
sS'celltower_oid'
p3
L9033L
sS'name'
p4
S'South africa'
p5
s.(dp0
S'person_oid'
p1
L7L
sS'oid'
p2
L373L
sS'celltower_oid'
p3
L9034L
sS'name'
p4
S'Nunavut'
p5
s.(dp0
S'person_oid'
p1
L7L
sS'oid'
p2
L374L
sS'celltower_oid'
p3
L7L
sS'name'
p4
S'Central'
p5
s.(dp0
S'person_oid'
p1
L7L
sS'oid'
p2
L375L
sS'celltower_oid'
p3
L2532L
sS'name'
p4
S'Addis abbaba'
p5
s.(dp0
S'person_oid'
p1
L7L
sS'oid'
p2
L376L
sS'celltower_oid'
p3
L5L
sS'name'
p4
S'Harvard'
p5
s.(dp0
S'person_oid'
p1
L7L
sS'oid'
p2
L377L
sS'celltower_oid'
p3
L4L
sS'name'
p4
S'Harvard gsd'
p5
s.(dp0
S'person_oid'
p1
L7L
sS'oid'
p2
L378L
sS'celltower_oid'
p3
L74L
sS'name'
p4
S'Gsd'
p5
s.(dp0
S'person_oid'
p1
L97L
sS'oid'
p2
L379L
sS'celltower_oid'
p3
L1L
sS'name'
p4
S'ML'
p5
s.(dp0
S'person_oid'
p1
L57L
sS'oid'
p2
L380L
sS'celltower_oid'
p3
L1842L
sS'name'
p4
S'Office'
p5
s.(dp0
S'person_oid'
p1
L57L
sS'oid'
p2
L381L
sS'celltower_oid'
p3
L10254L
sS'name'
p4
S'Gov center'
p5
s.(dp0
S'person_oid'
p1
L57L
sS'oid'
p2
L382L
sS'celltower_oid'
p3
L1862L
sS'name'
p4
S'Jon home'
p5
s.(dp0
S'person_oid'
p1
L57L
sS'oid'
p2
L383L
sS'celltower_oid'
p3
L2446L
sS'name'
p4
S'Harvard coop'
p5
s.(dp0
S'person_oid'
p1
L57L
sS'oid'
p2
L384L
sS'celltower_oid'
p3
L1861L
sS'name'
p4
S'Charles mgh t stop'
p5
s.(dp0
S'person_oid'
p1
L57L
sS'oid'
p2
L385L
sS'celltower_oid'
p3
L2848L
sS'name'
p4
S'Park street t'
p5
s.(dp0
S'person_oid'
p1
L57L
sS'oid'
p2
L386L
sS'celltower_oid'
p3
L1909L
sS'name'
p4
S'Fenway park'
p5
s.(dp0
S'person_oid'
p1
L57L
sS'oid'
p2
L387L
sS'celltower_oid'
p3
L1899L
sS'name'
p4
S'Pravda'
p5
s.(dp0
S'person_oid'
p1
L57L
sS'oid'
p2
L388L
sS'celltower_oid'
p3
L1944L
sS'name'
p4
S'Sports club la'
p5
s.(dp0
S'person_oid'
p1
L57L
sS'oid'
p2
L389L
sS'celltower_oid'
p3
L1901L
sS'name'
p4
S'Harvard'
p5
s.(dp0
S'person_oid'
p1
L57L
sS'oid'
p2
L390L
sS'celltower_oid'
p3
L10255L
sS'name'
p4
S'Medfield'
p5
s.(dp0
S'person_oid'
p1
L57L
sS'oid'
p2
L391L
sS'celltower_oid'
p3
L10256L
sS'name'
p4
S'San diego'
p5
s.(dp0
S'person_oid'
p1
L57L
sS'oid'
p2
L392L
sS'celltower_oid'
p3
L10257L
sS'name'
p4
S'Nj'
p5
s.(dp0
S'person_oid'
p1
L57L
sS'oid'
p2
L393L
sS'celltower_oid'
p3
L2838L
sS'name'
p4
S'Gang bang'
p5
s.(dp0
S'person_oid'
p1
L5L
sS'oid'
p2
L394L
sS'celltower_oid'
p3
L3393L
sS'name'
p4
S'ML'
p5
s.(dp0
S'person_oid'
p1
L5L
sS'oid'
p2
L395L
sS'celltower_oid'
p3
L3392L
sS'name'
p4
S'Ml'
p5
s.(dp0
S'person_oid'
p1
L5L
sS'oid'
p2
L396L
sS'celltower_oid'
p3
L4006L
sS'name'
p4
S'Beacon hill'
p5
s.(dp0
S'person_oid'
p1
L5L
sS'oid'
p2
L397L
sS'celltower_oid'
p3
L3428L
sS'name'
p4
S'Home'
p5
s.(dp0
S'person_oid'
p1
L5L
sS'oid'
p2
L398L
sS'celltower_oid'
p3
L3923L
sS'name'
p4
S'Tristan'
p5
s.(dp0
S'person_oid'
p1
L5L
sS'oid'
p2
L399L
sS'celltower_oid'
p3
L4380L
sS'name'
p4
S'Dusp'
p5
s.(dp0
S'person_oid'
p1
L96L
sS'oid'
p2
L400L
sS'celltower_oid'
p3
L1845L
sS'name'
p4
S'Home'
p5
s.(dp0
S'person_oid'
p1
L96L
sS'oid'
p2
L401L
sS'celltower_oid'
p3
L1842L
sS'name'
p4
S'Office'
p5
s.(dp0
S'person_oid'
p1
L96L
sS'oid'
p2
L402L
sS'celltower_oid'
p3
L1846L
sS'name'
p4
S'Central sqr'
p5
s.(dp0
S'person_oid'
p1
L96L
sS'oid'
p2
L403L
sS'celltower_oid'
p3
L1900L
sS'name'
p4
S'Boston common'
p5
s.(dp0
S'person_oid'
p1
L96L
sS'oid'
p2
L404L
sS'celltower_oid'
p3
L1853L
sS'name'
p4
S'Central sqr'
p5
s.(dp0
S'person_oid'
p1
L96L
sS'oid'
p2
L405L
sS'celltower_oid'
p3
L1850L
sS'name'
p4
S'Inman sqt'
p5
s.(dp0
S'person_oid'
p1
L96L
sS'oid'
p2
L406L
sS'celltower_oid'
p3
L1844L
sS'name'
p4
S'ML'
p5
s.(dp0
S'person_oid'
p1
L96L
sS'oid'
p2
L407L
sS'celltower_oid'
p3
L1890L
sS'name'
p4
S'Harpers ferry'
p5
s.(dp0
S'person_oid'
p1
L96L
sS'oid'
p2
L408L
sS'celltower_oid'
p3
L1847L
sS'name'
p4
S'Home'
p5
s.(dp0
S'person_oid'
p1
L96L
sS'oid'
p2
L409L
sS'celltower_oid'
p3
L30L
sS'name'
p4
S'Media lab'
p5
s.(dp0
S'person_oid'
p1
L96L
sS'oid'
p2
L410L
sS'celltower_oid'
p3
L1971L
sS'name'
p4
S'Davis sqr'
p5
s.(dp0
S'person_oid'
p1
L96L
sS'oid'
p2
L411L
sS'celltower_oid'
p3
L1856L
sS'name'
p4
S'Mit campus'
p5
s.(dp0
S'person_oid'
p1
L96L
sS'oid'
p2
L412L
sS'celltower_oid'
p3
L1872L
sS'name'
p4
S'Air port'
p5
s.(dp0
S'person_oid'
p1
L96L
sS'oid'
p2
L413L
sS'celltower_oid'
p3
L10448L
sS'name'
p4
S'Catamaran hotel iui san diego'
p5
s.(dp0
S'person_oid'
p1
L96L
sS'oid'
p2
L414L
sS'celltower_oid'
p3
L11876L
sS'name'
p4
S'Catamaran hotel iui conference san diego'
p5
s.(dp0
S'person_oid'
p1
L96L
sS'oid'
p2
L415L
sS'celltower_oid'
p3
L11877L
sS'name'
p4
S'#'
p5
s.(dp0
S'person_oid'
p1
L89L
sS'oid'
p2
L416L
sS'celltower_oid'
p3
L42L
sS'name'
p4
S'Ml'
p5
s.(dp0
S'person_oid'
p1
L89L
sS'oid'
p2
L417L
sS'celltower_oid'
p3
L2L
sS'name'
p4
S'ML'
p5
s.(dp0
S'person_oid'
p1
L89L
sS'oid'
p2
L418L
sS'celltower_oid'
p3
L1L
sS'name'
p4
S'Media Lab'
p5
s.(dp0
S'person_oid'
p1
L89L
sS'oid'
p2
L419L
sS'celltower_oid'
p3
L35L
sS'name'
p4
S'Inf corr'
p5
s.(dp0
S'person_oid'
p1
L89L
sS'oid'
p2
L420L
sS'celltower_oid'
p3
L46L
sS'name'
p4
S'Tang'
p5
s.(dp0
S'person_oid'
p1
L89L
sS'oid'
p2
L421L
sS'celltower_oid'
p3
L279L
sS'name'
p4
S'Tang'
p5
s.(dp0
S'person_oid'
p1
L89L
sS'oid'
p2
L422L
sS'celltower_oid'
p3
L395L
sS'name'
p4
S'Tang'
p5
s.(dp0
S'person_oid'
p1
L89L
sS'oid'
p2
L423L
sS'celltower_oid'
p3
L162L
sS'name'
p4
S'0'
p5
s.(dp0
S'person_oid'
p1
L89L
sS'oid'
p2
L424L
sS'celltower_oid'
p3
L164L
sS'name'
p4
S'Gateway'
p5
s.(dp0
S'person_oid'
p1
L89L
sS'oid'
p2
L425L
sS'celltower_oid'
p3
L61L
sS'name'
p4
S'Gh'
p5
s.(dp0
S'person_oid'
p1
L89L
sS'oid'
p2
L426L
sS'celltower_oid'
p3
L330L
sS'name'
p4
S'Downtown'
p5
s.(dp0
S'person_oid'
p1
L89L
sS'oid'
p2
L427L
sS'celltower_oid'
p3
L60L
sS'name'
p4
S'Inf'
p5
s.(dp0
S'person_oid'
p1
L89L
sS'oid'
p2
L428L
sS'celltower_oid'
p3
L271L
sS'name'
p4
S'Tang'
p5
s.(dp0
S'person_oid'
p1
L89L
sS'oid'
p2
L429L
sS'celltower_oid'
p3
L292L
sS'name'
p4
S'Chinatown'
p5
s.(dp0
S'person_oid'
p1
L89L
sS'oid'
p2
L430L
sS'celltower_oid'
p3
L5L
sS'name'
p4
S'Sp'
p5
s.(dp0
S'person_oid'
p1
L89L
sS'oid'
p2
L431L
sS'celltower_oid'
p3
L280L
sS'name'
p4
S'Bu'
p5
s.(dp0
S'person_oid'
p1
L80L
sS'oid'
p2
L432L
sS'celltower_oid'
p3
L1842L
sS'name'
p4
S'Kendal'
p5
s.(dp0
S'person_oid'
p1
L80L
sS'oid'
p2
L433L
sS'celltower_oid'
p3
L1859L
sS'name'
p4
S'Westgate'
p5
s.(dp0
S'person_oid'
p1
L80L
sS'oid'
p2
L434L
sS'celltower_oid'
p3
L1856L
sS'name'
p4
S'Home'
p5
s.(dp0
S'person_oid'
p1
L80L
sS'oid'
p2
L435L
sS'celltower_oid'
p3
L12052L
sS'name'
p4
S'Nyc'
p5
s.(dp0
S'person_oid'
p1
L80L
sS'oid'
p2
L436L
sS'celltower_oid'
p3
L12053L
sS'name'
p4
S'Upper west'
p5
s.(dp0
S'person_oid'
p1
L80L
sS'oid'
p2
L437L
sS'celltower_oid'
p3
L30L
sS'name'
p4
S'Central'
p5
s.(dp0
S'person_oid'
p1
L80L
sS'oid'
p2
L438L
sS'celltower_oid'
p3
L1846L
sS'name'
p4
S'Mass ave'
p5
s.(dp0
S'person_oid'
p1
L80L
sS'oid'
p2
L439L
sS'celltower_oid'
p3
L11018L
sS'name'
p4
S'Wm .M.'
p5
s.(dp0
S'person_oid'
p1
L69L
sS'oid'
p2
L440L
sS'celltower_oid'
p3
L1L
sS'name'
p4
S'ML'
p5
s.(dp0
S'person_oid'
p1
L69L
sS'oid'
p2
L441L
sS'celltower_oid'
p3
L2L
sS'name'
p4
S'Ml'
p5
s.(dp0
S'person_oid'
p1
L69L
sS'oid'
p2
L442L
sS'celltower_oid'
p3
L35L
sS'name'
p4
S'Home'
p5
s.(dp0
S'person_oid'
p1
L69L
sS'oid'
p2
L443L
sS'celltower_oid'
p3
L184L
sS'name'
p4
S'Gp'
p5
s.(dp0
S'person_oid'
p1
L69L
sS'oid'
p2
L444L
sS'celltower_oid'
p3
L70L
sS'name'
p4
S'Home'
p5
s.(dp0
S'person_oid'
p1
L69L
sS'oid'
p2
L445L
sS'celltower_oid'
p3
L279L
sS'name'
p4
S'77 mass'
p5
s.(dp0
S'person_oid'
p1
L69L
sS'oid'
p2
L446L
sS'celltower_oid'
p3
L67L
sS'name'
p4
S'Home-tang'
p5
s.(dp0
S'person_oid'
p1
L69L
sS'oid'
p2
L447L
sS'celltower_oid'
p3
L61L
sS'name'
p4
S'Home'
p5
s.(dp0
S'person_oid'
p1
L69L
sS'oid'
p2
L448L
sS'celltower_oid'
p3
L65L
sS'name'
p4
S'Tang'
p5
s.(dp0
S'person_oid'
p1
L69L
sS'oid'
p2
L449L
sS'celltower_oid'
p3
L81L
sS'name'
p4
S'1cc'
p5
s.(dp0
S'person_oid'
p1
L69L
sS'oid'
p2
L450L
sS'celltower_oid'
p3
L196L
sS'name'
p4
S'Tang'
p5
s.(dp0
S'person_oid'
p1
L69L
sS'oid'
p2
L451L
sS'celltower_oid'
p3
L395L
sS'name'
p4
S'Tang'
p5
s.(dp0
S'person_oid'
p1
L2L
sS'oid'
p2
L452L
sS'celltower_oid'
p3
L2446L
sS'name'
p4
S'ML'
p5
s.(dp0
S'person_oid'
p1
L2L
sS'oid'
p2
L453L
sS'celltower_oid'
p3
L4539L
sS'name'
p4
S'Home'
p5
s.(dp0
S'person_oid'
p1
L18L
sS'oid'
p2
L454L
sS'celltower_oid'
p3
L5L
sS'name'
p4
S'Harvard sq'
p5
s.(dp0
S'person_oid'
p1
L18L
sS'oid'
p2
L455L
sS'celltower_oid'
p3
L283L
sS'name'
p4
S'Oakley country club'
p5
s.(dp0
S'person_oid'
p1
L18L
sS'oid'
p2
L456L
sS'celltower_oid'
p3
L6962L
sS'name'
p4
S'Home'
p5
s.(dp0
S'person_oid'
p1
L18L
sS'oid'
p2
L457L
sS'celltower_oid'
p3
L2L
sS'name'
p4
S'Office'
p5
s.(dp0
S'person_oid'
p1
L18L
sS'oid'
p2
L458L
sS'celltower_oid'
p3
L1L
sS'name'
p4
S'Sloan'
p5
s.(dp0
S'person_oid'
p1
L18L
sS'oid'
p2
L459L
sS'celltower_oid'
p3
L175L
sS'name'
p4
S'Bhs'
p5
s.(dp0
S'person_oid'
p1
L18L
sS'oid'
p2
L460L
sS'celltower_oid'
p3
L30L
sS'name'
p4
S'Bhs'
p5
s.(dp0
S'person_oid'
p1
L18L
sS'oid'
p2
L461L
sS'celltower_oid'
p3
L191L
sS'name'
p4
S'Taverna de haro'
p5
s.(dp0
S'person_oid'
p1
L18L
sS'oid'
p2
L462L
sS'celltower_oid'
p3
L276L
sS'name'
p4
S'Commonwealth and washington'
p5
s.(dp0
S'person_oid'
p1
L18L
sS'oid'
p2
L463L
sS'celltower_oid'
p3
L9426L
sS'name'
p4
S'Concord center'
p5
s.(dp0
S'person_oid'
p1
L18L
sS'oid'
p2
L464L
sS'celltower_oid'
p3
L1600L
sS'name'
p4
S'Beal'
p5
s.(dp0
S'person_oid'
p1
L18L
sS'oid'
p2
L465L
sS'celltower_oid'
p3
L297L
sS'name'
p4
S'Loews park street'
p5
s.(dp0
S'person_oid'
p1
L18L
sS'oid'
p2
L466L
sS'celltower_oid'
p3
L69L
sS'name'
p4
S'Mount arbourn hosp'
p5
s.(dp0
S'person_oid'
p1
L18L
sS'oid'
p2
L467L
sS'celltower_oid'
p3
L12441L
sS'name'
p4
S'Hilton richmond va'
p5
s.(dp0
S'person_oid'
p1
L18L
sS'oid'
p2
L468L
sS'celltower_oid'
p3
L12442L
sS'name'
p4
S'Hilton richmond vancouver'
p5
s.(dp0
S'person_oid'
p1
L18L
sS'oid'
p2
L469L
sS'celltower_oid'
p3
L158L
sS'name'
p4
S'Mt auburn'
p5
s.(dp0
S'person_oid'
p1
L18L
sS'oid'
p2
L470L
sS'celltower_oid'
p3
L12443L
sS'name'
p4
S'Farolito'
p5
s.(dp0
S'person_oid'
p1
L18L
sS'oid'
p2
L471L
sS'celltower_oid'
p3
L12444L
sS'name'
p4
S'Sabana'
p5
s.(dp0
S'person_oid'
p1
L18L
sS'oid'
p2
L472L
sS'celltower_oid'
p3
L12445L
sS'name'
p4
S'Casa oscar arias'
p5
s.(dp0
S'person_oid'
p1
L18L
sS'oid'
p2
L473L
sS'celltower_oid'
p3
L12446L
sS'name'
p4
S'Dota'
p5
s.(dp0
S'person_oid'
p1
L18L
sS'oid'
p2
L474L
sS'celltower_oid'
p3
L12447L
sS'name'
p4
S'Llanos'
p5
s.(dp0
S'person_oid'
p1
L18L
sS'oid'
p2
L475L
sS'celltower_oid'
p3
L12448L
sS'name'
p4
S'Guadalupe'
p5
s.(dp0
S'person_oid'
p1
L18L
sS'oid'
p2
L476L
sS'celltower_oid'
p3
L35L
sS'name'
p4
S'Student center'
p5
s.(dp0
S'person_oid'
p1
L18L
sS'oid'
p2
L477L
sS'celltower_oid'
p3
L7L
sS'name'
p4
S'Baraca pearl street'
p5
s.(dp0
S'person_oid'
p1
L3L
sS'oid'
p2
L478L
sS'celltower_oid'
p3
L1L
sS'name'
p4
S'ML'
p5
s.(dp0
S'person_oid'
p1
L3L
sS'oid'
p2
L479L
sS'celltower_oid'
p3
L35L
sS'name'
p4
S'Infinite'
p5
s.(dp0
S'person_oid'
p1
L3L
sS'oid'
p2
L480L
sS'celltower_oid'
p3
L7L
sS'name'
p4
S'Green'
p5
s.(dp0
S'person_oid'
p1
L3L
sS'oid'
p2
L481L
sS'celltower_oid'
p3
L2L
sS'name'
p4
S'Student center'
p5
s.(dp0
S'person_oid'
p1
L3L
sS'oid'
p2
L482L
sS'celltower_oid'
p3
L62L
sS'name'
p4
S'East campus'
p5
s.(dp0
S'person_oid'
p1
L3L
sS'oid'
p2
L483L
sS'celltower_oid'
p3
L61L
sS'name'
p4
S'Next'
p5
s.(dp0
S'person_oid'
p1
L3L
sS'oid'
p2
L484L
sS'celltower_oid'
p3
L36L
sS'name'
p4
S'Downtown boston'
p5
s.(dp0
S'person_oid'
p1
L3L
sS'oid'
p2
L485L
sS'celltower_oid'
p3
L326L
sS'name'
p4
S'World trade center'
p5
s.(dp0
S'person_oid'
p1
L3L
sS'oid'
p2
L486L
sS'celltower_oid'
p3
L5L
sS'name'
p4
S'Harvard'
p5
s.(dp0
S'person_oid'
p1
L3L
sS'oid'
p2
L487L
sS'celltower_oid'
p3
L69L
sS'name'
p4
S'Burdicks'
p5
s.(dp0
S'person_oid'
p1
L3L
sS'oid'
p2
L488L
sS'celltower_oid'
p3
L1558L
sS'name'
p4
S'Field'
p5
s.(dp0
S'person_oid'
p1
L3L
sS'oid'
p2
L489L
sS'celltower_oid'
p3
L43L
sS'name'
p4
S'Mit'
p5
s.(dp0
S'person_oid'
p1
L3L
sS'oid'
p2
L490L
sS'celltower_oid'
p3
L42L
sS'name'
p4
S'Infinite'
p5
s.(dp0
S'person_oid'
p1
L3L
sS'oid'
p2
L491L
sS'celltower_oid'
p3
L406L
sS'name'
p4
S'Saads house'
p5
s.(dp0
S'person_oid'
p1
L3L
sS'oid'
p2
L492L
sS'celltower_oid'
p3
L4L
sS'name'
p4
S'Harvard'
p5
s.(dp0
S'person_oid'
p1
L3L
sS'oid'
p2
L493L
sS'celltower_oid'
p3
L46L
sS'name'
p4
S'Sukkah'
p5
s.(dp0
S'person_oid'
p1
L3L
sS'oid'
p2
L494L
sS'celltower_oid'
p3
L60L
sS'name'
p4
S'Next'
p5
s.(dp0
S'person_oid'
p1
L3L
sS'oid'
p2
L495L
sS'celltower_oid'
p3
L172L
sS'name'
p4
S'4k .'
p5
s.(dp0
S'person_oid'
p1
L3L
sS'oid'
p2
L496L
sS'celltower_oid'
p3
L30L
sS'name'
p4
S'Number six'
p5
s.(dp0
S'person_oid'
p1
L3L
sS'oid'
p2
L497L
sS'celltower_oid'
p3
L12837L
sS'name'
p4
S'Queens'
p5
s.(dp0
S'person_oid'
p1
L3L
sS'oid'
p2
L498L
sS'celltower_oid'
p3
L12838L
sS'name'
p4
S'Nyc'
p5
s.(dp0
S'person_oid'
p1
L3L
sS'oid'
p2
L499L
sS'celltower_oid'
p3
L12839L
sS'name'
p4
S'Brat'
p5
s.(dp0
S'person_oid'
p1
L58L
sS'oid'
p2
L500L
sS'celltower_oid'
p3
L1552L
sS'name'
p4
S'ML'
p5
s.(dp0
S'person_oid'
p1
L58L
sS'oid'
p2
L501L
sS'celltower_oid'
p3
L5991L
sS'name'
p4
S'Ml'
p5
s.(dp0
S'person_oid'
p1
L58L
sS'oid'
p2
L502L
sS'celltower_oid'
p3
L8962L
sS'name'
p4
S'Ml'
p5
s.(dp0
S'person_oid'
p1
L58L
sS'oid'
p2
L503L
sS'celltower_oid'
p3
L42L
sS'name'
p4
S'Ml'
p5
s.(dp0
S'person_oid'
p1
L58L
sS'oid'
p2
L504L
sS'celltower_oid'
p3
L41L
sS'name'
p4
S'Ml'
p5
s.(dp0
S'person_oid'
p1
L58L
sS'oid'
p2
L505L
sS'celltower_oid'
p3
L1556L
sS'name'
p4
S'Ml'
p5
s.(dp0
S'person_oid'
p1
L58L
sS'oid'
p2
L506L
sS'celltower_oid'
p3
L1558L
sS'name'
p4
S'Ml'
p5
s.(dp0
S'person_oid'
p1
L58L
sS'oid'
p2
L507L
sS'celltower_oid'
p3
L6005L
sS'name'
p4
S'Ml'
p5
s.(dp0
S'person_oid'
p1
L58L
sS'oid'
p2
L508L
sS'celltower_oid'
p3
L6004L
sS'name'
p4
S'Ml'
p5
s.(dp0
S'person_oid'
p1
L58L
sS'oid'
p2
L509L
sS'celltower_oid'
p3
L7465L
sS'name'
p4
S'Ml'
p5
s.(dp0
S'person_oid'
p1
L58L
sS'oid'
p2
L510L
sS'celltower_oid'
p3
L8970L
sS'name'
p4
S'Ml'
p5
s.(dp0
S'person_oid'
p1
L58L
sS'oid'
p2
L511L
sS'celltower_oid'
p3
L8818L
sS'name'
p4
S'Ml'
p5
s.(dp0
S'person_oid'
p1
L27L
sS'oid'
p2
L512L
sS'celltower_oid'
p3
L42L
sS'name'
p4
S'ML'
p5
s.(dp0
S'person_oid'
p1
L27L
sS'oid'
p2
L513L
sS'celltower_oid'
p3
L2446L
sS'name'
p4
S'Bexley'
p5
s.(dp0
S'person_oid'
p1
L27L
sS'oid'
p2
L514L
sS'celltower_oid'
p3
L1556L
sS'name'
p4
S'Infinite'
p5
s.(dp0
S'person_oid'
p1
L27L
sS'oid'
p2
L515L
sS'celltower_oid'
p3
L6006L
sS'name'
p4
S'Bex'
p5
s.(dp0
S'person_oid'
p1
L27L
sS'oid'
p2
L516L
sS'celltower_oid'
p3
L41L
sS'name'
p4
S'A'
p5
s.(dp0
S'person_oid'
p1
L27L
sS'oid'
p2
L517L
sS'celltower_oid'
p3
L5991L
sS'name'
p4
S'Aj'
p5
s.(dp0
S'person_oid'
p1
L27L
sS'oid'
p2
L518L
sS'celltower_oid'
p3
L6012L
sS'name'
p4
S'T'
p5
s.(dp0
S'person_oid'
p1
L27L
sS'oid'
p2
L519L
sS'celltower_oid'
p3
L13058L
sS'name'
p4
S'Abowl'
p5
s.(dp0
S'person_oid'
p1
L27L
sS'oid'
p2
L520L
sS'celltower_oid'
p3
L1559L
sS'name'
p4
S'Jnjwj'
p5
s.(dp0
S'person_oid'
p1
L27L
sS'oid'
p2
L521L
sS'celltower_oid'
p3
L8962L
sS'name'
p4
S'Jp\xa3'
p5
s.(dp0
S'person_oid'
p1
L27L
sS'oid'
p2
L522L
sS'celltower_oid'
p3
L13185L
sS'name'
p4
S'Blarg'
p5
s.(dp0
S'person_oid'
p1
L91L
sS'oid'
p2
L523L
sS'celltower_oid'
p3
L3393L
sS'name'
p4
S'ML'
p5
s.(dp0
S'person_oid'
p1
L91L
sS'oid'
p2
L524L
sS'celltower_oid'
p3
L4417L
sS'name'
p4
S'Home1'
p5
s.(dp0
S'person_oid'
p1
L91L
sS'oid'
p2
L525L
sS'celltower_oid'
p3
L2446L
sS'name'
p4
S'Ml2'
p5
s.(dp0
S'person_oid'
p1
L10L
sS'oid'
p2
L526L
sS'celltower_oid'
p3
L1842L
sS'name'
p4
S'ML'
p5
s.(dp0
S'person_oid'
p1
L10L
sS'oid'
p2
L527L
sS'celltower_oid'
p3
L1844L
sS'name'
p4
S'ML'
p5
s.(dp0
S'person_oid'
p1
L10L
sS'oid'
p2
L528L
sS'celltower_oid'
p3
L1977L
sS'name'
p4
S'700 Huron Ave'
p5
s.(dp0
S'person_oid'
p1
L10L
sS'oid'
p2
L529L
sS'celltower_oid'
p3
L2001L
sS'name'
p4
S'Haggerty school'
p5
s.(dp0
S'person_oid'
p1
L10L
sS'oid'
p2
L530L
sS'celltower_oid'
p3
L1899L
sS'name'
p4
S'Building 14'
p5
s.(dp0
S'person_oid'
p1
L68L
sS'oid'
p2
L531L
sS'celltower_oid'
p3
L1L
sS'name'
p4
S'ML'
p5
s.(dp0
S'person_oid'
p1
L68L
sS'oid'
p2
L532L
sS'celltower_oid'
p3
L35L
sS'name'
p4
S'McCormick'
p5
s.(dp0
S'person_oid'
p1
L68L
sS'oid'
p2
L533L
sS'celltower_oid'
p3
L3L
sS'name'
p4
S'Next Inside'
p5
s.(dp0
S'person_oid'
p1
L68L
sS'oid'
p2
L534L
sS'celltower_oid'
p3
L61L
sS'name'
p4
S'Next'
p5
s.(dp0
S'person_oid'
p1
L68L
sS'oid'
p2
L535L
sS'celltower_oid'
p3
L62L
sS'name'
p4
S'Hyatt'
p5
s.(dp0
S'person_oid'
p1
L68L
sS'oid'
p2
L536L
sS'celltower_oid'
p3
L7398L
sS'name'
p4
S'Wellesley'
p5
s.(dp0
S'person_oid'
p1
L68L
sS'oid'
p2
L537L
sS'celltower_oid'
p3
L7401L
sS'name'
p4
S'Next'
p5
s.(dp0
S'person_oid'
p1
L68L
sS'oid'
p2
L538L
sS'celltower_oid'
p3
L154L
sS'name'
p4
S'Next'
p5
s.(dp0
S'person_oid'
p1
L68L
sS'oid'
p2
L539L
sS'celltower_oid'
p3
L2L
sS'name'
p4
S'Pbe'
p5
s.(dp0
S'person_oid'
p1
L68L
sS'oid'
p2
L540L
sS'celltower_oid'
p3
L7L
sS'name'
p4
S'Tdc'
p5
s.(dp0
S'person_oid'
p1
L68L
sS'oid'
p2
L541L
sS'celltower_oid'
p3
L1138L
sS'name'
p4
S'New york'
p5
s.(dp0
S'person_oid'
p1
L68L
sS'oid'
p2
L542L
sS'celltower_oid'
p3
L14853L
sS'name'
p4
S'Berkeley, CA'
p5
s.(dp0
S'person_oid'
p1
L6L
sS'oid'
p2
L543L
sS'celltower_oid'
p3
L16438L
sS'name'
p4
S'Office'
p5
s.(dp0
S'person_oid'
p1
L6L
sS'oid'
p2
L544L
sS'celltower_oid'
p3
L40L
sS'name'
p4
S'Office'
p5
s.(dp0
S'person_oid'
p1
L6L
sS'oid'
p2
L545L
sS'celltower_oid'
p3
L3392L
sS'name'
p4
S'Office'
p5
s.(dp0
S'person_oid'
p1
L6L
sS'oid'
p2
L546L
sS'celltower_oid'
p3
L4001L
sS'name'
p4
S"Wen Dong's Home"
p5
s.(dp0
S'person_oid'
p1
L6L
sS'oid'
p2
L547L
sS'celltower_oid'
p3
L3393L
sS'name'
p4
S'Office'
p5
s.(dp0
S'person_oid'
p1
L70L
sS'oid'
p2
L548L
sS'celltower_oid'
p3
L42L
sS'name'
p4
S'ML'
p5
s.(dp0
S'person_oid'
p1
L70L
sS'oid'
p2
L549L
sS'celltower_oid'
p3
L41L
sS'name'
p4
S'End Inf cor'
p5
s.(dp0
S'person_oid'
p1
L70L
sS'oid'
p2
L550L
sS'celltower_oid'
p3
L1556L
sS'name'
p4
S'New house'
p5
s.(dp0
S'person_oid'
p1
L70L
sS'oid'
p2
L551L
sS'celltower_oid'
p3
L5991L
sS'name'
p4
S'Inf corridor'
p5
s.(dp0
S'person_oid'
p1
L70L
sS'oid'
p2
L552L
sS'celltower_oid'
p3
L16439L
sS'name'
p4
S'Miami'
p5
s.(dp0
S'person_oid'
p1
L70L
sS'oid'
p2
L553L
sS'celltower_oid'
p3
L16440L
sS'name'
p4
S'Miami'
p5
s.(dp0
S'person_oid'
p1
L70L
sS'oid'
p2
L554L
sS'celltower_oid'
p3
L16441L
sS'name'
p4
S'Springfield'
p5
s.(dp0
S'person_oid'
p1
L33L
sS'oid'
p2
L555L
sS'celltower_oid'
p3
L2L
sS'name'
p4
S'ML'
p5
s.(dp0
S'person_oid'
p1
L33L
sS'oid'
p2
L556L
sS'celltower_oid'
p3
L1L
sS'name'
p4
S'Ml'
p5
s.(dp0
S'person_oid'
p1
L33L
sS'oid'
p2
L557L
sS'celltower_oid'
p3
L46L
sS'name'
p4
S'Ml'
p5
s.(dp0
S'person_oid'
p1
L33L
sS'oid'
p2
L558L
sS'celltower_oid'
p3
L32L
sS'name'
p4
S'Davis Square'
p5
s.(dp0
S'person_oid'
p1
L33L
sS'oid'
p2
L559L
sS'celltower_oid'
p3
L293L
sS'name'
p4
S'South End'
p5
s.(dp0
S'person_oid'
p1
L33L
sS'oid'
p2
L560L
sS'celltower_oid'
p3
L85L
sS'name'
p4
S'Beacon Hill'
p5
s.(dp0
S'person_oid'
p1
L33L
sS'oid'
p2
L561L
sS'celltower_oid'
p3
L8620L
sS'name'
p4
S'New York City'
p5
s.(dp0
S'person_oid'
p1
L33L
sS'oid'
p2
L562L
sS'celltower_oid'
p3
L6927L
sS'name'
p4
S'NYC'
p5
s.(dp0
S'person_oid'
p1
L33L
sS'oid'
p2
L563L
sS'celltower_oid'
p3
L709L
sS'name'
p4
S'NYC'
p5
s.(dp0
S'person_oid'
p1
L33L
sS'oid'
p2
L564L
sS'celltower_oid'
p3
L10037L
sS'name'
p4
S'Salem'
p5
s.(dp0
S'person_oid'
p1
L33L
sS'oid'
p2
L565L
sS'celltower_oid'
p3
L12045L
sS'name'
p4
S'Salem'
p5
s.(dp0
S'person_oid'
p1
L33L
sS'oid'
p2
L566L
sS'celltower_oid'
p3
L1128L
sS'name'
p4
S'NYC'
p5
s.(dp0
S'person_oid'
p1
L33L
sS'oid'
p2
L567L
sS'celltower_oid'
p3
L16825L
sS'name'
p4
S'NYC'
p5
s.(dp0
S'person_oid'
p1
L33L
sS'oid'
p2
L568L
sS'celltower_oid'
p3
L30L
sS'name'
p4
S'Salem'
p5
s.(dp0
S'person_oid'
p1
L66L
sS'oid'
p2
L569L
sS'celltower_oid'
p3
L1551L
sS'name'
p4
S'Home'
p5
s.(dp0
S'person_oid'
p1
L66L
sS'oid'
p2
L570L
sS'celltower_oid'
p3
L40L
sS'name'
p4
S'Sloan'
p5
s.(dp0
S'person_oid'
p1
L66L
sS'oid'
p2
L571L
sS'celltower_oid'
p3
L41L
sS'name'
p4
S'Sloan'
p5
s.(dp0
S'person_oid'
p1
L66L
sS'oid'
p2
L572L
sS'celltower_oid'
p3
L42L
sS'name'
p4
S'Doc'
p5
s.(dp0
S'person_oid'
p1
L66L
sS'oid'
p2
L573L
sS'celltower_oid'
p3
L8963L
sS'name'
p4
S'Doctor'
p5
s.(dp0
S'person_oid'
p1
L66L
sS'oid'
p2
L574L
sS'celltower_oid'
p3
L1552L
sS'name'
p4
S'Sloan'
p5
s.(dp0
S'person_oid'
p1
L66L
sS'oid'
p2
L575L
sS'celltower_oid'
p3
L39L
sS'name'
p4
S'Sloan'
p5
s.(dp0
S'person_oid'
p1
L66L
sS'oid'
p2
L576L
sS'celltower_oid'
p3
L5991L
sS'name'
p4
S'Home'
p5
s.(dp0
S'person_oid'
p1
L66L
sS'oid'
p2
L577L
sS'celltower_oid'
p3
L8966L
sS'name'
p4
S'Sloan'
p5
s.(dp0
S'person_oid'
p1
L66L
sS'oid'
p2
L578L
sS'celltower_oid'
p3
L7272L
sS'name'
p4
S'Ny'
p5
s.(dp0
S'person_oid'
p1
L66L
sS'oid'
p2
L579L
sS'celltower_oid'
p3
L7271L
sS'name'
p4
S'Ny'
p5
s.(dp0
S'person_oid'
p1
L66L
sS'oid'
p2
L580L
sS'celltower_oid'
p3
L7249L
sS'name'
p4
S'Ny'
p5
s.(dp0
S'person_oid'
p1
L66L
sS'oid'
p2
L581L
sS'celltower_oid'
p3
L8928L
sS'name'
p4
S'Home'
p5
s.(dp0
S'person_oid'
p1
L66L
sS'oid'
p2
L582L
sS'celltower_oid'
p3
L8930L
sS'name'
p4
S'Sloan'
p5
s.(dp0
S'person_oid'
p1
L66L
sS'oid'
p2
L583L
sS'celltower_oid'
p3
L16964L
sS'name'
p4
S'Sloan'
p5
s.(dp0
S'person_oid'
p1
L66L
sS'oid'
p2
L584L
sS'celltower_oid'
p3
L8984L
sS'name'
p4
S'Home'
p5
s.(dp0
S'person_oid'
p1
L66L
sS'oid'
p2
L585L
sS'celltower_oid'
p3
L8922L
sS'name'
p4
S'Home'
p5
s.(dp0
S'person_oid'
p1
L66L
sS'oid'
p2
L586L
sS'celltower_oid'
p3
L16965L
sS'name'
p4
S'Newport ri'
p5
s.(dp0
S'person_oid'
p1
L66L
sS'oid'
p2
L587L
sS'celltower_oid'
p3
L16966L
sS'name'
p4
S'New port'
p5
s.(dp0
S'person_oid'
p1
L66L
sS'oid'
p2
L588L
sS'celltower_oid'
p3
L16967L
sS'name'
p4
S'New port'
p5
s.(dp0
S'person_oid'
p1
L66L
sS'oid'
p2
L589L
sS'celltower_oid'
p3
L8821L
sS'name'
p4
S'Higway'
p5
s.(dp0
S'person_oid'
p1
L66L
sS'oid'
p2
L590L
sS'celltower_oid'
p3
L6003L
sS'name'
p4
S'Pfchang'
p5
s.(dp0
S'person_oid'
p1
L66L
sS'oid'
p2
L591L
sS'celltower_oid'
p3
L8824L
sS'name'
p4
S'Train to woburn'
p5
s.(dp0
S'person_oid'
p1
L92L
sS'oid'
p2
L592L
sS'celltower_oid'
p3
L17254L
sS'name'
p4
S'Home'
p5
s.(dp0
S'person_oid'
p1
L92L
sS'oid'
p2
L593L
sS'celltower_oid'
p3
L17366L
sS'name'
p4
S'Tang'
p5
s.(dp0
S'person_oid'
p1
L92L
sS'oid'
p2
L594L
sS'celltower_oid'
p3
L40L
sS'name'
p4
S'Tang'
p5
s.(dp0
S'person_oid'
p1
L92L
sS'oid'
p2
L595L
sS'celltower_oid'
p3
L42L
sS'name'
p4
S'Tang'
p5
s.(dp0
S'person_oid'
p1
L92L
sS'oid'
p2
L596L
sS'celltower_oid'
p3
L41L
sS'name'
p4
S'Tang'
p5
s.(dp0
S'person_oid'
p1
L92L
sS'oid'
p2
L597L
sS'celltower_oid'
p3
L39L
sS'name'
p4
S'Cam'
p5
s.(dp0
S'person_oid'
p1
L92L
sS'oid'
p2
L598L
sS'celltower_oid'
p3
L8917L
sS'name'
p4
S'Home'
p5
s.(dp0
S'person_oid'
p1
L92L
sS'oid'
p2
L599L
sS'celltower_oid'
p3
L8829L
sS'name'
p4
S'Home'
p5
s.(dp0
S'person_oid'
p1
L92L
sS'oid'
p2
L600L
sS'celltower_oid'
p3
L17367L
sS'name'
p4
S'Home'
p5
s.(dp0
S'person_oid'
p1
L92L
sS'oid'
p2
L601L
sS'celltower_oid'
p3
L5992L
sS'name'
p4
S'Cam'
p5
s.(dp0
S'person_oid'
p1
L92L
sS'oid'
p2
L602L
sS'celltower_oid'
p3
L1551L
sS'name'
p4
S'Tang'
p5
s.(dp0
S'person_oid'
p1
L92L
sS'oid'
p2
L603L
sS'celltower_oid'
p3
L1552L
sS'name'
p4
S'Tang'
p5
s.(dp0
S'person_oid'
p1
L92L
sS'oid'
p2
L604L
sS'celltower_oid'
p3
L5998L
sS'name'
p4
S'Home'
p5
s.(dp0
S'person_oid'
p1
L92L
sS'oid'
p2
L605L
sS'celltower_oid'
p3
L8821L
sS'name'
p4
S'Home'
p5
s.(dp0
S'person_oid'
p1
L92L
sS'oid'
p2
L606L
sS'celltower_oid'
p3
L8823L
sS'name'
p4
S'Med'
p5
s.(dp0
S'person_oid'
p1
L92L
sS'oid'
p2
L607L
sS'celltower_oid'
p3
L8825L
sS'name'
p4
S'T'
p5
s.(dp0
S'person_oid'
p1
L92L
sS'oid'
p2
L608L
sS'celltower_oid'
p3
L8819L
sS'name'
p4
S'Cam'
p5
s.(dp0
S'person_oid'
p1
L92L
sS'oid'
p2
L609L
sS'celltower_oid'
p3
L1559L
sS'name'
p4
S'Cam'
p5
s.(dp0
S'person_oid'
p1
L92L
sS'oid'
p2
L610L
sS'celltower_oid'
p3
L6010L
sS'name'
p4
S'Mit'
p5
s.(dp0
S'person_oid'
p1
L92L
sS'oid'
p2
L611L
sS'celltower_oid'
p3
L1558L
sS'name'
p4
S'Cam'
p5
s.(dp0
S'person_oid'
p1
L92L
sS'oid'
p2
L612L
sS'celltower_oid'
p3
L8818L
sS'name'
p4
S'Cam'
p5
s.(dp0
S'person_oid'
p1
L92L
sS'oid'
p2
L613L
sS'celltower_oid'
p3
L8956L
sS'name'
p4
S'Cam'
p5
s.(dp0
S'person_oid'
p1
L92L
sS'oid'
p2
L614L
sS'celltower_oid'
p3
L8981L
sS'name'
p4
S'Wat'
p5
s.(dp0
S'person_oid'
p1
L92L
sS'oid'
p2
L615L
sS'celltower_oid'
p3
L17028L
sS'name'
p4
S'Wat'
p5
s.(dp0
S'person_oid'
p1
L92L
sS'oid'
p2
L616L
sS'celltower_oid'
p3
L9018L
sS'name'
p4
S'Wel'
p5
s.(dp0
S'person_oid'
p1
L92L
sS'oid'
p2
L617L
sS'celltower_oid'
p3
L17368L
sS'name'
p4
S'Pea'
p5
s.(dp0
S'person_oid'
p1
L92L
sS'oid'
p2
L618L
sS'celltower_oid'
p3
L17369L
sS'name'
p4
S'Pea'
p5
s.(dp0
S'person_oid'
p1
L92L
sS'oid'
p2
L619L
sS'celltower_oid'
p3
L6008L
sS'name'
p4
S'Tang'
p5
s.(dp0
S'person_oid'
p1
L92L
sS'oid'
p2
L620L
sS'celltower_oid'
p3
L1555L
sS'name'
p4
S'Sloan'
p5
s.(dp0
S'person_oid'
p1
L92L
sS'oid'
p2
L621L
sS'celltower_oid'
p3
L1556L
sS'name'
p4
S'Mit'
p5
s.(dp0
S'person_oid'
p1
L92L
sS'oid'
p2
L622L
sS'celltower_oid'
p3
L6013L
sS'name'
p4
S'T'
p5
s.(dp0
S'person_oid'
p1
L92L
sS'oid'
p2
L623L
sS'celltower_oid'
p3
L8918L
sS'name'
p4
S'Mit'
p5
s.(dp0
S'person_oid'
p1
L22L
sS'oid'
p2
L624L
sS'celltower_oid'
p3
L42L
sS'name'
p4
S'Saint'
p5
s.(dp0
S'person_oid'
p1
L22L
sS'oid'
p2
L625L
sS'celltower_oid'
p3
L40L
sS'name'
p4
S'Sloan'
p5
s.(dp0
S'person_oid'
p1
L22L
sS'oid'
p2
L626L
sS'celltower_oid'
p3
L5991L
sS'name'
p4
S'H6e'
p5
s.(dp0
S'person_oid'
p1
L22L
sS'oid'
p2
L627L
sS'celltower_oid'
p3
L39L
sS'name'
p4
S'Sloan'
p5
s.(dp0
S'person_oid'
p1
L22L
sS'oid'
p2
L628L
sS'celltower_oid'
p3
L1552L
sS'name'
p4
S'Sloan'
p5
s.(dp0
S'person_oid'
p1
L22L
sS'oid'
p2
L629L
sS'celltower_oid'
p3
L41L
sS'name'
p4
S'Sloan'
p5
s.(dp0
S'person_oid'
p1
L22L
sS'oid'
p2
L630L
sS'celltower_oid'
p3
L17502L
sS'name'
p4
S'Nyc'
p5
s.(dp0
S'person_oid'
p1
L22L
sS'oid'
p2
L631L
sS'celltower_oid'
p3
L17503L
sS'name'
p4
S'Nyc'
p5
s.(dp0
S'person_oid'
p1
L22L
sS'oid'
p2
L632L
sS'celltower_oid'
p3
L6008L
sS'name'
p4
S'Boston'
p5
s.(dp0
S'person_oid'
p1
L22L
sS'oid'
p2
L633L
sS'celltower_oid'
p3
L8967L
sS'name'
p4
S' B'
p5
s.(dp0
S'person_oid'
p1
L22L
sS'oid'
p2
L634L
sS'celltower_oid'
p3
L17504L
sS'name'
p4
S'Sloan'
p5
s.(dp0
S'person_oid'
p1
L22L
sS'oid'
p2
L635L
sS'celltower_oid'
p3
L6006L
sS'name'
p4
S'Sloan'
p5
s.(dp0
S'person_oid'
p1
L22L
sS'oid'
p2
L636L
sS'celltower_oid'
p3
L6005L
sS'name'
p4
S'Home'
p5
s.(dp0
S'person_oid'
p1
L22L
sS'oid'
p2
L637L
sS'celltower_oid'
p3
L6013L
sS'name'
p4
S'K'
p5
s.(dp0
S'person_oid'
p1
L22L
sS'oid'
p2
L638L
sS'celltower_oid'
p3
L1559L
sS'name'
p4
S'Sloan'
p5
s.(dp0
S'person_oid'
p1
L22L
sS'oid'
p2
L639L
sS'celltower_oid'
p3
L6004L
sS'name'
p4
S'Home'
p5
s.(dp0
S'person_oid'
p1
L22L
sS'oid'
p2
L640L
sS'celltower_oid'
p3
L6000L
sS'name'
p4
S'Ritz'
p5
s.(dp0
S'person_oid'
p1
L22L
sS'oid'
p2
L641L
sS'celltower_oid'
p3
L17505L
sS'name'
p4
S'Nyc'
p5
s.(dp0
S'person_oid'
p1
L22L
sS'oid'
p2
L642L
sS'celltower_oid'
p3
L17506L
sS'name'
p4
S'Nyc'
p5
s.(dp0
S'person_oid'
p1
L29L
sS'oid'
p2
L643L
sS'celltower_oid'
p3
L3393L
sS'name'
p4
S'ML'
p5
s.(dp0
S'person_oid'
p1
L29L
sS'oid'
p2
L644L
sS'celltower_oid'
p3
L19290L
sS'name'
p4
S'Office'
p5
s.(dp0
S'person_oid'
p1
L29L
sS'oid'
p2
L645L
sS'celltower_oid'
p3
L19291L
sS'name'
p4
S"Greg's apt"
p5
s.(dp0
S'person_oid'
p1
L29L
sS'oid'
p2
L646L
sS'celltower_oid'
p3
L4373L
sS'name'
p4
S"Greg's apt"
p5
s.(dp0
S'person_oid'
p1
L29L
sS'oid'
p2
L647L
sS'celltower_oid'
p3
L4377L
sS'name'
p4
S"Greg's apt"
p5
s.(dp0
S'person_oid'
p1
L29L
sS'oid'
p2
L648L
sS'celltower_oid'
p3
L3442L
sS'name'
p4
S"Jon's apartment"
p5
s.(dp0
S'person_oid'
p1
L29L
sS'oid'
p2
L649L
sS'celltower_oid'
p3
L3427L
sS'name'
p4
S'Red hat'
p5
s.(dp0
S'person_oid'
p1
L29L
sS'oid'
p2
L650L
sS'celltower_oid'
p3
L3428L
sS'name'
p4
S"Nathan's apt"
p5
s.(dp0
S'person_oid'
p1
L29L
sS'oid'
p2
L651L
sS'celltower_oid'
p3
L19292L
sS'name'
p4
S'Porter sq t'
p5
s.(dp0
S'person_oid'
p1
L29L
sS'oid'
p2
L652L
sS'celltower_oid'
p3
L1861L
sS'name'
p4
S'Home'
p5
s.(dp0
S'person_oid'
p1
L29L
sS'oid'
p2
L653L
sS'celltower_oid'
p3
L3392L
sS'name'
p4
S'Off\xecce'
p5
s.(dp0
S'person_oid'
p1
L29L
sS'oid'
p2
L654L
sS'celltower_oid'
p3
L3450L
sS'name'
p4
S'Muddy'
p5
s.(dp0
S'person_oid'
p1
L29L
sS'oid'
p2
L655L
sS'celltower_oid'
p3
L4016L
sS'name'
p4
S'Mass ave/newbury'
p5
s.(dp0
S'person_oid'
p1
L29L
sS'oid'
p2
L656L
sS'celltower_oid'
p3
L3452L
sS'name'
p4
S'Trident bookstore'
p5
s.(dp0
S'person_oid'
p1
L29L
sS'oid'
p2
L657L
sS'celltower_oid'
p3
L3451L
sS'name'
p4
S'St\xf6rrow'
p5
s.(dp0
S'person_oid'
p1
L29L
sS'oid'
p2
L658L
sS'celltower_oid'
p3
L3938L
sS'name'
p4
S'Chinatown'
p5
s.(dp0
S'person_oid'
p1
L29L
sS'oid'
p2
L659L
sS'celltower_oid'
p3
L3933L
sS'name'
p4
S"Mike's apt"
p5
s.(dp0
S'person_oid'
p1
L29L
sS'oid'
p2
L660L
sS'celltower_oid'
p3
L2446L
sS'name'
p4
S'None'
p5
s.(dp0
S'person_oid'
p1
L29L
sS'oid'
p2
L661L
sS'celltower_oid'
p3
L19293L
sS'name'
p4
S'NH liquor barn'
p5
s.(dp0
S'person_oid'
p1
L29L
sS'oid'
p2
L662L
sS'celltower_oid'
p3
L3581L
sS'name'
p4
S'Poor peoples pub'
p5
s.(dp0
S'person_oid'
p1
L29L
sS'oid'
p2
L663L
sS'celltower_oid'
p3
L4009L
sS'name'
p4
S'Harvard sq'
p5
s.(dp0
S'person_oid'
p1
L29L
sS'oid'
p2
L664L
sS'celltower_oid'
p3
L3454L
sS'name'
p4
S'Top o hub'
p5
s.(dp0
S'person_oid'
p1
L29L
sS'oid'
p2
L665L
sS'celltower_oid'
p3
L5652L
sS'name'
p4
S'Top o hub'
p5
s.(dp0
S'person_oid'
p1
L29L
sS'oid'
p2
L666L
sS'celltower_oid'
p3
L3396L
sS'name'
p4
S'Mellon'
p5
s.(dp0
S'person_oid'
p1
L29L
sS'oid'
p2
L667L
sS'celltower_oid'
p3
L3456L
sS'name'
p4
S'CBC'
p5
s.(dp0
S'person_oid'
p1
L29L
sS'oid'
p2
L668L
sS'celltower_oid'
p3
L3925L
sS'name'
p4
S'Rohit'
p5
s.(dp0
S'person_oid'
p1
L29L
sS'oid'
p2
L669L
sS'celltower_oid'
p3
L3465L
sS'name'
p4
S'Gov cntr'
p5
s.(dp0
S'person_oid'
p1
L29L
sS'oid'
p2
L670L
sS'celltower_oid'
p3
L3471L
sS'name'
p4
S'Airport'
p5
s.(dp0
S'person_oid'
p1
L29L
sS'oid'
p2
L671L
sS'celltower_oid'
p3
L3424L
sS'name'
p4
S'Airport'
p5
s.(dp0
S'person_oid'
p1
L29L
sS'oid'
p2
L672L
sS'celltower_oid'
p3
L19294L
sS'name'
p4
S'Chicago o hare'
p5
s.(dp0
S'person_oid'
p1
L29L
sS'oid'
p2
L673L
sS'celltower_oid'
p3
L19295L
sS'name'
p4
S'Chicago o hare'
p5
s.(dp0
S'person_oid'
p1
L29L
sS'oid'
p2
L674L
sS'celltower_oid'
p3
L19296L
sS'name'
p4
S'Milwaukee Hyatt'
p5
s.(dp0
S'person_oid'
p1
L29L
sS'oid'
p2
L675L
sS'celltower_oid'
p3
L19297L
sS'name'
p4
S'Milwauke Hyatt'
p5
s.(dp0
S'person_oid'
p1
L29L
sS'oid'
p2
L676L
sS'celltower_oid'
p3
L19298L
sS'name'
p4
S'Milwaukee'
p5
s.(dp0
S'person_oid'
p1
L29L
sS'oid'
p2
L677L
sS'celltower_oid'
p3
L19299L
sS'name'
p4
S'Milwaukee airport'
p5
s.(dp0
S'person_oid'
p1
L29L
sS'oid'
p2
L678L
sS'celltower_oid'
p3
L13453L
sS'name'
p4
S'St louis airport'
p5
s.(dp0
S'person_oid'
p1
L29L
sS'oid'
p2
L679L
sS'celltower_oid'
p3
L3469L
sS'name'
p4
S'Airport'
p5
s.(dp0
S'person_oid'
p1
L29L
sS'oid'
p2
L680L
sS'celltower_oid'
p3
L4734L
sS'name'
p4
S'Airport'
p5
s.(dp0
S'person_oid'
p1
L29L
sS'oid'
p2
L681L
sS'celltower_oid'
p3
L4020L
sS'name'
p4
S'Marvin'
p5
s.(dp0
S'person_oid'
p1
L29L
sS'oid'
p2
L682L
sS'celltower_oid'
p3
L4577L
sS'name'
p4
S'Santa cruz boardwalk'
p5
s.(dp0
S'person_oid'
p1
L29L
sS'oid'
p2
L683L
sS'celltower_oid'
p3
L19300L
sS'name'
p4
S'Corral de Tierra'
p5
s.(dp0
S'person_oid'
p1
L29L
sS'oid'
p2
L684L
sS'celltower_oid'
p3
L5668L
sS'name'
p4
S'Highway 68'
p5
s.(dp0
S'person_oid'
p1
L29L
sS'oid'
p2
L685L
sS'celltower_oid'
p3
L19301L
sS'name'
p4
S'Del Monte'
p5
s.(dp0
S'person_oid'
p1
L29L
sS'oid'
p2
L686L
sS'celltower_oid'
p3
L4563L
sS'name'
p4
S'M Bay Aquarium'
p5
s.(dp0
S'person_oid'
p1
L29L
sS'oid'
p2
L687L
sS'celltower_oid'
p3
L19302L
sS'name'
p4
S'Grandparents'
p5
s.(dp0
S'person_oid'
p1
L29L
sS'oid'
p2
L688L
sS'celltower_oid'
p3
L4750L
sS'name'
p4
S'Carpintera'
p5
s.(dp0
S'person_oid'
p1
L29L
sS'oid'
p2
L689L
sS'celltower_oid'
p3
L3687L
sS'name'
p4
S'SF hyatt'
p5
s.(dp0
S'person_oid'
p1
L29L
sS'oid'
p2
L690L
sS'celltower_oid'
p3
L3688L
sS'name'
p4
S'SFO'
p5
s.(dp0
S'person_oid'
p1
L29L
sS'oid'
p2
L691L
sS'celltower_oid'
p3
L3438L
sS'name'
p4
S'MGH'
p5
s.(dp0
S'person_oid'
p1
L29L
sS'oid'
p2
L692L
sS'celltower_oid'
p3
L19303L
sS'name'
p4
S'Adm'
p5
s.(dp0
S'person_oid'
p1
L29L
sS'oid'
p2
L693L
sS'celltower_oid'
p3
L5292L
sS'name'
p4
S'Fin dist'
p5
s.(dp0
S'person_oid'
p1
L29L
sS'oid'
p2
L694L
sS'celltower_oid'
p3
L5647L
sS'name'
p4
S'Fan hall'
p5
s.(dp0
S'person_oid'
p1
L29L
sS'oid'
p2
L695L
sS'celltower_oid'
p3
L4607L
sS'name'
p4
S'Happy donuts'
p5
s.(dp0
S'person_oid'
p1
L29L
sS'oid'
p2
L696L
sS'celltower_oid'
p3
L4610L
sS'name'
p4
S'Hyatt Palo alto'
p5
s.(dp0
S'person_oid'
p1
L29L
sS'oid'
p2
L697L
sS'celltower_oid'
p3
L3407L
sS'name'
p4
S'Google'
p5
s.(dp0
S'person_oid'
p1
L29L
sS'oid'
p2
L698L
sS'celltower_oid'
p3
L19304L
sS'name'
p4
S'Clift hotel SF'
p5
s.(dp0
S'person_oid'
p1
L29L
sS'oid'
p2
L699L
sS'celltower_oid'
p3
L3717L
sS'name'
p4
S'Clift SF'
p5
s.(dp0
S'person_oid'
p1
L29L
sS'oid'
p2
L700L
sS'celltower_oid'
p3
L19305L
sS'name'
p4
S'CTIA SF'
p5
s.(dp0
S'person_oid'
p1
L29L
sS'oid'
p2
L701L
sS'celltower_oid'
p3
L19306L
sS'name'
p4
S'CTIA'
p5
s.(dp0
S'person_oid'
p1
L29L
sS'oid'
p2
L702L
sS'celltower_oid'
p3
L19307L
sS'name'
p4
S'Nokia rest. SF'
p5
s.(dp0
S'person_oid'
p1
L29L
sS'oid'
p2
L703L
sS'celltower_oid'
p3
L15398L
sS'name'
p4
S'Tapas, Oxford'
p5
s.(dp0
S'person_oid'
p1
L29L
sS'oid'
p2
L704L
sS'celltower_oid'
p3
L15369L
sS'name'
p4
S"Caroline's flat"
p5
s.(dp0
S'person_oid'
p1
L29L
sS'oid'
p2
L705L
sS'celltower_oid'
p3
L3926L
sS'name'
p4
S'NECSI'
p5
s.(dp0
S'person_oid'
p1
L29L
sS'oid'
p2
L706L
sS'celltower_oid'
p3
L3943L
sS'name'
p4
S'Boca grande'
p5
s.(dp0
S'person_oid'
p1
L29L
sS'oid'
p2
L707L
sS'celltower_oid'
p3
L4013L
sS'name'
p4
S'Molly apt'
p5
s.(dp0
S'person_oid'
p1
L29L
sS'oid'
p2
L708L
sS'celltower_oid'
p3
L3937L
sS'name'
p4
S'Loews'
p5
s.(dp0
S'person_oid'
p1
L29L
sS'oid'
p2
L709L
sS'celltower_oid'
p3
L19308L
sS'name'
p4
S'Fox'
p5
s.(dp0
S'person_oid'
p1
L29L
sS'oid'
p2
L710L
sS'celltower_oid'
p3
L19309L
sS'name'
p4
S'Lonoke'
p5
s.(dp0
S'person_oid'
p1
L29L
sS'oid'
p2
L711L
sS'celltower_oid'
p3
L19310L
sS'name'
p4
S'Little rock'
p5
s.(dp0
S'person_oid'
p1
L29L
sS'oid'
p2
L712L
sS'celltower_oid'
p3
L19311L
sS'name'
p4
S'Pac bell park'
p5
s.(dp0
S'person_oid'
p1
L29L
sS'oid'
p2
L713L
sS'celltower_oid'
p3
L3425L
sS'name'
p4
S'Logan'
p5
s.(dp0
S'person_oid'
p1
L29L
sS'oid'
p2
L714L
sS'celltower_oid'
p3
L3935L
sS'name'
p4
S'Swiss house'
p5
s.(dp0
S'person_oid'
p1
L29L
sS'oid'
p2
L715L
sS'celltower_oid'
p3
L3446L
sS'name'
p4
S'Newbury/berkley'
p5
s.(dp0
S'person_oid'
p1
L29L
sS'oid'
p2
L716L
sS'celltower_oid'
p3
L3942L
sS'name'
p4
S'Swawn pond'
p5
s.(dp0
S'person_oid'
p1
L29L
sS'oid'
p2
L717L
sS'celltower_oid'
p3
L30L
sS'name'
p4
S'Office'
p5
s.(dp0
S'person_oid'
p1
L29L
sS'oid'
p2
L718L
sS'celltower_oid'
p3
L19312L
sS'name'
p4
S'Office'
p5
s.(dp0
S'person_oid'
p1
L29L
sS'oid'
p2
L719L
sS'celltower_oid'
p3
L6013L
sS'name'
p4
S'Home'
p5
s.(dp0
S'person_oid'
p1
L29L
sS'oid'
p2
L720L
sS'celltower_oid'
p3
L42L
sS'name'
p4
S'L'
p5
s.(dp0
S'person_oid'
p1
L29L
sS'oid'
p2
L721L
sS'celltower_oid'
p3
L40L
sS'name'
p4
S'Office'
p5
s.(dp0
S'person_oid'
p1
L29L
sS'oid'
p2
L722L
sS'celltower_oid'
p3
L41L
sS'name'
p4
S'Office'
p5
s.(dp0
S'person_oid'
p1
L29L
sS'oid'
p2
L723L
sS'celltower_oid'
p3
L5999L
sS'name'
p4
S'Movie theater'
p5
s.(dp0
S'person_oid'
p1
L29L
sS'oid'
p2
L724L
sS'celltower_oid'
p3
L6012L
sS'name'
p4
S'Home'
p5
s.(dp0
S'person_oid'
p1
L29L
sS'oid'
p2
L725L
sS'celltower_oid'
p3
L1552L
sS'name'
p4
S'S best'
p5
s.(dp0
S'person_oid'
p1
L29L
sS'oid'
p2
L726L
sS'celltower_oid'
p3
L1844L
sS'name'
p4
S'Office'
p5
s.(dp0
S'person_oid'
p1
L29L
sS'oid'
p2
L727L
sS'celltower_oid'
p3
L1964L
sS'name'
p4
S'318 beacon'
p5
s.(dp0
S'person_oid'
p1
L29L
sS'oid'
p2
L728L
sS'celltower_oid'
p3
L1965L
sS'name'
p4
S'Porter sq t'
p5
s.(dp0
S'person_oid'
p1
L29L
sS'oid'
p2
L729L
sS'celltower_oid'
p3
L19313L
sS'name'
p4
S'none'
p5
s.(dp0
S'person_oid'
p1
L49L
sS'oid'
p2
L730L
sS'celltower_oid'
p3
L42L
sS'name'
p4
S'ML'
p5
s.(dp0
S'person_oid'
p1
L49L
sS'oid'
p2
L731L
sS'celltower_oid'
p3
L1552L
sS'name'
p4
S'B56'
p5
s.(dp0
S'person_oid'
p1
L49L
sS'oid'
p2
L732L
sS'celltower_oid'
p3
L1558L
sS'name'
p4
S'Student center'
p5
s.(dp0
S'person_oid'
p1
L49L
sS'oid'
p2
L733L
sS'celltower_oid'
p3
L41L
sS'name'
p4
S'Ml'
p5
s.(dp0
S'person_oid'
p1
L49L
sS'oid'
p2
L734L
sS'celltower_oid'
p3
L1556L
sS'name'
p4
S'Green'
p5
s.(dp0
S'person_oid'
p1
L49L
sS'oid'
p2
L735L
sS'celltower_oid'
p3
L5991L
sS'name'
p4
S'Green'
p5
s.(dp0
S'person_oid'
p1
L42L
sS'oid'
p2
L736L
sS'celltower_oid'
p3
L1842L
sS'name'
p4
S'LFM'
p5
s.(dp0
S'person_oid'
p1
L42L
sS'oid'
p2
L737L
sS'celltower_oid'
p3
L1844L
sS'name'
p4
S'LFM'
p5
s.(dp0
S'person_oid'
p1
L42L
sS'oid'
p2
L738L
sS'celltower_oid'
p3
L1858L
sS'name'
p4
S'Tang'
p5
s.(dp0
S'person_oid'
p1
L42L
sS'oid'
p2
L739L
sS'celltower_oid'
p3
L1975L
sS'name'
p4
S'Home'
p5
s.(dp0
S'person_oid'
p1
L42L
sS'oid'
p2
L740L
sS'celltower_oid'
p3
L1976L
sS'name'
p4
S'Home'
p5
s.(dp0
S'person_oid'
p1
L42L
sS'oid'
p2
L741L
sS'celltower_oid'
p3
L1856L
sS'name'
p4
S'MIT Main'
p5
s.(dp0
S'person_oid'
p1
L35L
sS'oid'
p2
L742L
sS'celltower_oid'
p3
L1844L
sS'name'
p4
S'E51'
p5
s.(dp0
S'person_oid'
p1
L35L
sS'oid'
p2
L743L
sS'celltower_oid'
p3
L1842L
sS'name'
p4
S'E51'
p5
s.(dp0
S'person_oid'
p1
L35L
sS'oid'
p2
L744L
sS'celltower_oid'
p3
L1856L
sS'name'
p4
S'Johnson'
p5
s.(dp0
S'person_oid'
p1
L35L
sS'oid'
p2
L745L
sS'celltower_oid'
p3
L1861L
sS'name'
p4
S'E51'
p5
s.(dp0
S'person_oid'
p1
L35L
sS'oid'
p2
L746L
sS'celltower_oid'
p3
L1863L
sS'name'
p4
S'Beacon hill'
p5
s.(dp0
S'person_oid'
p1
L35L
sS'oid'
p2
L747L
sS'celltower_oid'
p3
L1882L
sS'name'
p4
S'Back bay'
p5
s.(dp0
S'person_oid'
p1
L35L
sS'oid'
p2
L748L
sS'celltower_oid'
p3
L1853L
sS'name'
p4
S'Central square'
p5
s.(dp0
S'person_oid'
p1
L35L
sS'oid'
p2
L749L
sS'celltower_oid'
p3
L1846L
sS'name'
p4
S'100 memorial'
p5
s.(dp0
S'person_oid'
p1
L35L
sS'oid'
p2
L750L
sS'celltower_oid'
p3
L2707L
sS'name'
p4
S'New brunswick'
p5
s.(dp0
S'person_oid'
p1
L35L
sS'oid'
p2
L751L
sS'celltower_oid'
p3
L20481L
sS'name'
p4
S'New brunswick'
p5
s.(dp0
S'person_oid'
p1
L35L
sS'oid'
p2
L752L
sS'celltower_oid'
p3
L20482L
sS'name'
p4
S'Nyc'
p5
s.(dp0
S'person_oid'
p1
L35L
sS'oid'
p2
L753L
sS'celltower_oid'
p3
L1934L
sS'name'
p4
S'South end'
p5
s.(dp0
S'person_oid'
p1
L35L
sS'oid'
p2
L754L
sS'celltower_oid'
p3
L1899L
sS'name'
p4
S'Clubs'
p5
s.(dp0
S'person_oid'
p1
L35L
sS'oid'
p2
L755L
sS'celltower_oid'
p3
L1933L
sS'name'
p4
S'100 memorial'
p5
s.(dp0
S'person_oid'
p1
L35L
sS'oid'
p2
L756L
sS'celltower_oid'
p3
L1880L
sS'name'
p4
S'Nnrth station'
p5
s.(dp0
S'person_oid'
p1
L35L
sS'oid'
p2
L757L
sS'celltower_oid'
p3
L1859L
sS'name'
p4
S'Student center'
p5
s.(dp0
S'person_oid'
p1
L35L
sS'oid'
p2
L758L
sS'celltower_oid'
p3
L1915L
sS'name'
p4
S'Student center'
p5
s.(dp0
S'person_oid'
p1
L35L
sS'oid'
p2
L759L
sS'celltower_oid'
p3
L1862L
sS'name'
p4
S'100 memorial'
p5
s.(dp0
S'person_oid'
p1
L35L
sS'oid'
p2
L760L
sS'celltower_oid'
p3
L1962L
sS'name'
p4
S'Somerville'
p5
s.(dp0
S'person_oid'
p1
L35L
sS'oid'
p2
L761L
sS'celltower_oid'
p3
L1963L
sS'name'
p4
S'Somerville'
p5
s.(dp0
S'person_oid'
p1
L35L
sS'oid'
p2
L762L
sS'celltower_oid'
p3
L14255L
sS'name'
p4
S'New york'
p5
s.(dp0
S'person_oid'
p1
L35L
sS'oid'
p2
L763L
sS'celltower_oid'
p3
L1945L
sS'name'
p4
S'J'
p5
s.(dp0
S'person_oid'
p1
L35L
sS'oid'
p2
L764L
sS'celltower_oid'
p3
L1855L
sS'name'
p4
S'M'
p5
s.(dp0
S'person_oid'
p1
L35L
sS'oid'
p2
L765L
sS'celltower_oid'
p3
L1858L
sS'name'
p4
S'Ml'
p5
s.(dp0
S'person_oid'
p1
L35L
sS'oid'
p2
L766L
sS'celltower_oid'
p3
L308L
sS'name'
p4
S'Beacon st'
p5
s.(dp0
S'person_oid'
p1
L35L
sS'oid'
p2
L767L
sS'celltower_oid'
p3
L7465L
sS'name'
p4
S'Thatcher Street'
p5
s.(dp0
S'person_oid'
p1
L35L
sS'oid'
p2
L768L
sS'celltower_oid'
p3
L63L
sS'name'
p4
S'Thatcher street'
p5
s.(dp0
S'person_oid'
p1
L35L
sS'oid'
p2
L769L
sS'celltower_oid'
p3
L2L
sS'name'
p4
S'ML'
p5
s.(dp0
S'person_oid'
p1
L35L
sS'oid'
p2
L770L
sS'celltower_oid'
p3
L1L
sS'name'
p4
S'ML'
p5
s.(dp0
S'person_oid'
p1
L35L
sS'oid'
p2
L771L
sS'celltower_oid'
p3
L61L
sS'name'
p4
S'Newbury St.'
p5
s.(dp0
S'person_oid'
p1
L35L
sS'oid'
p2
L772L
sS'celltower_oid'
p3
L182L
sS'name'
p4
S'Harvard st.'
p5
s.(dp0
S'person_oid'
p1
L35L
sS'oid'
p2
L773L
sS'celltower_oid'
p3
L7466L
sS'name'
p4
S'Fallmouth'
p5
s.(dp0
S'person_oid'
p1
L35L
sS'oid'
p2
L774L
sS'celltower_oid'
p3
L2507L
sS'name'
p4
S'Falmouth'
p5
s.(dp0
S'person_oid'
p1
L35L
sS'oid'
p2
L775L
sS'celltower_oid'
p3
L2517L
sS'name'
p4
S'Fallmouth'
p5
s.(dp0
S'person_oid'
p1
L35L
sS'oid'
p2
L776L
sS'celltower_oid'
p3
L405L
sS'name'
p4
S'Dexter Park'
p5
s.(dp0
S'person_oid'
p1
L35L
sS'oid'
p2
L777L
sS'celltower_oid'
p3
L19L
sS'name'
p4
S'Colonial'
p5
s.(dp0
S'person_oid'
p1
L35L
sS'oid'
p2
L778L
sS'celltower_oid'
p3
L314L
sS'name'
p4
S'Colonial'
p5
s.(dp0
S'person_oid'
p1
L35L
sS'oid'
p2
L779L
sS'celltower_oid'
p3
L2527L
sS'name'
p4
S'Newton center'
p5
s.(dp0
S'person_oid'
p1
L35L
sS'oid'
p2
L780L
sS'celltower_oid'
p3
L50L
sS'name'
p4
S'MGH'
p5
s.(dp0
S'person_oid'
p1
L35L
sS'oid'
p2
L781L
sS'celltower_oid'
p3
L46L
sS'name'
p4
S'GVMT CTR'
p5
s.(dp0
S'person_oid'
p1
L35L
sS'oid'
p2
L782L
sS'celltower_oid'
p3
L48L
sS'name'
p4
S'Kent st'
p5
s.(dp0
S'person_oid'
p1
L35L
sS'oid'
p2
L783L
sS'celltower_oid'
p3
L154L
sS'name'
p4
S'Common'
p5
s.(dp0
S'person_oid'
p1
L35L
sS'oid'
p2
L784L
sS'celltower_oid'
p3
L293L
sS'name'
p4
S'Combat zone'
p5
s.(dp0
S'person_oid'
p1
L35L
sS'oid'
p2
L785L
sS'celltower_oid'
p3
L36L
sS'name'
p4
S'Aquarium'
p5
s.(dp0
S'person_oid'
p1
L35L
sS'oid'
p2
L786L
sS'celltower_oid'
p3
L53L
sS'name'
p4
S'Fennuil hall'
p5
s.(dp0
S'person_oid'
p1
L35L
sS'oid'
p2
L787L
sS'celltower_oid'
p3
L7467L
sS'name'
p4
S'Patmos'
p5
s.(dp0
S'person_oid'
p1
L35L
sS'oid'
p2
L788L
sS'celltower_oid'
p3
L43L
sS'name'
p4
S'Bu bridge'
p5
s.(dp0
S'person_oid'
p1
L35L
sS'oid'
p2
L789L
sS'celltower_oid'
p3
L35L
sS'name'
p4
S'Longwood'
p5
s.(dp0
S'person_oid'
p1
L35L
sS'oid'
p2
L790L
sS'celltower_oid'
p3
L184L
sS'name'
p4
S'Aspinwall'
p5
s.(dp0
S'person_oid'
p1
L35L
sS'oid'
p2
L791L
sS'celltower_oid'
p3
L180L
sS'name'
p4
S'Beacon st.'
p5
s.(dp0
S'person_oid'
p1
L35L
sS'oid'
p2
L792L
sS'celltower_oid'
p3
L62L
sS'name'
p4
S'Kenmore'
p5
s.(dp0
S'person_oid'
p1
L35L
sS'oid'
p2
L793L
sS'celltower_oid'
p3
L181L
sS'name'
p4
S'Longwood'
p5
s.(dp0
S'person_oid'
p1
L35L
sS'oid'
p2
L794L
sS'celltower_oid'
p3
L1545L
sS'name'
p4
S'Longwood'
p5
s.(dp0
S'person_oid'
p1
L35L
sS'oid'
p2
L795L
sS'celltower_oid'
p3
L47L
sS'name'
p4
S'Back bay'
p5
s.(dp0
S'person_oid'
p1
L35L
sS'oid'
p2
L796L
sS'celltower_oid'
p3
L311L
sS'name'
p4
S'Hynes'
p5
s.(dp0
S'person_oid'
p1
L35L
sS'oid'
p2
L797L
sS'celltower_oid'
p3
L191L
sS'name'
p4
S'Beacon'
p5
s.(dp0
S'person_oid'
p1
L35L
sS'oid'
p2
L798L
sS'celltower_oid'
p3
L280L
sS'name'
p4
S'Brookline village'
p5
s.(dp0
S'person_oid'
p1
L35L
sS'oid'
p2
L799L
sS'celltower_oid'
p3
L49L
sS'name'
p4
S'MGH'
p5
s.(dp0
S'person_oid'
p1
L35L
sS'oid'
p2
L800L
sS'celltower_oid'
p3
L51L
sS'name'
p4
S'Mgh'
p5
s.(dp0
S'person_oid'
p1
L35L
sS'oid'
p2
L801L
sS'celltower_oid'
p3
L29L
sS'name'
p4
S'Gvmt ctr'
p5
s.(dp0
S'person_oid'
p1
L35L
sS'oid'
p2
L802L
sS'celltower_oid'
p3
L52L
sS'name'
p4
S'Gvmt ctr'
p5
s.(dp0
S'person_oid'
p1
L35L
sS'oid'
p2
L803L
sS'celltower_oid'
p3
L299L
sS'name'
p4
S'City hall'
p5
s.(dp0
S'person_oid'
p1
L35L
sS'oid'
p2
L804L
sS'celltower_oid'
p3
L81L
sS'name'
p4
S'Kendall sq'
p5
s.(dp0
S'person_oid'
p1
L35L
sS'oid'
p2
L805L
sS'celltower_oid'
p3
L152L
sS'name'
p4
S'Ml'
p5
s.(dp0
S'person_oid'
p1
L35L
sS'oid'
p2
L806L
sS'celltower_oid'
p3
L274L
sS'name'
p4
S'Hynes'
p5
s.(dp0
S'person_oid'
p1
L35L
sS'oid'
p2
L807L
sS'celltower_oid'
p3
L312L
sS'name'
p4
S'Harvard st'
p5
s.(dp0
S'person_oid'
p1
L35L
sS'oid'
p2
L808L
sS'celltower_oid'
p3
L156L
sS'name'
p4
S'Allston'
p5
s.(dp0
S'person_oid'
p1
L35L
sS'oid'
p2
L809L
sS'celltower_oid'
p3
L4L
sS'name'
p4
S'Mass av &'
p5
s.(dp0
S'person_oid'
p1
L35L
sS'oid'
p2
L810L
sS'celltower_oid'
p3
L5L
sS'name'
p4
S'Harvard sq'
p5
s.(dp0
S'person_oid'
p1
L35L
sS'oid'
p2
L811L
sS'celltower_oid'
p3
L313L
sS'name'
p4
S'Clarendon'
p5
s.(dp0
S'person_oid'
p1
L35L
sS'oid'
p2
L812L
sS'celltower_oid'
p3
L398L
sS'name'
p4
S'Clarendon'
p5
s.(dp0
S'person_oid'
p1
L35L
sS'oid'
p2
L813L
sS'celltower_oid'
p3
L65L
sS'name'
p4
S'BU bridge'
p5
s.(dp0
S'person_oid'
p1
L35L
sS'oid'
p2
L814L
sS'celltower_oid'
p3
L177L
sS'name'
p4
S'CC'
p5
s.(dp0
S'person_oid'
p1
L35L
sS'oid'
p2
L815L
sS'celltower_oid'
p3
L183L
sS'name'
p4
S'CC'
p5
s.(dp0
S'person_oid'
p1
L35L
sS'oid'
p2
L816L
sS'celltower_oid'
p3
L7468L
sS'name'
p4
S'Sebastopol'
p5
s.(dp0
S'person_oid'
p1
L35L
sS'oid'
p2
L817L
sS'celltower_oid'
p3
L7469L
sS'name'
p4
S"O'reilly"
p5
s.(dp0
S'person_oid'
p1
L35L
sS'oid'
p2
L818L
sS'celltower_oid'
p3
L7470L
sS'name'
p4
S"O'reilly"
p5
s.(dp0
S'person_oid'
p1
L35L
sS'oid'
p2
L819L
sS'celltower_oid'
p3
L18L
sS'name'
p4
S'Logan'
p5
s.(dp0
S'person_oid'
p1
L35L
sS'oid'
p2
L820L
sS'celltower_oid'
p3
L325L
sS'name'
p4
S'Logan'
p5
s.(dp0
S'person_oid'
p1
L35L
sS'oid'
p2
L821L
sS'celltower_oid'
p3
L320L
sS'name'
p4
S'Bigdig'
p5
s.(dp0
S'person_oid'
p1
L35L
sS'oid'
p2
L822L
sS'celltower_oid'
p3
L68L
sS'name'
p4
S'Border Cafe'
p5
s.(dp0
S'person_oid'
p1
L35L
sS'oid'
p2
L823L
sS'celltower_oid'
p3
L69L
sS'name'
p4
S'Border Cafe'
p5
s.(dp0
S'person_oid'
p1
L35L
sS'oid'
p2
L824L
sS'celltower_oid'
p3
L197L
sS'name'
p4
S'Haymarket'
p5
s.(dp0
S'person_oid'
p1
L35L
sS'oid'
p2
L825L
sS'celltower_oid'
p3
L59L
sS'name'
p4
S'Mgh'
p5
s.(dp0
S'person_oid'
p1
L35L
sS'oid'
p2
L826L
sS'celltower_oid'
p3
L288L
sS'name'
p4
S'Penang'
p5
s.(dp0
S'person_oid'
p1
L35L
sS'oid'
p2
L827L
sS'celltower_oid'
p3
L54L
sS'name'
p4
S'City Hall'
p5
s.(dp0
S'person_oid'
p1
L35L
sS'oid'
p2
L828L
sS'celltower_oid'
p3
L6955L
sS'name'
p4
S'Wellesley'
p5
s.(dp0
S'person_oid'
p1
L65L
sS'oid'
p2
L829L
sS'celltower_oid'
p3
L3393L
sS'name'
p4
S'ML'
p5
s.(dp0
S'person_oid'
p1
L65L
sS'oid'
p2
L830L
sS'celltower_oid'
p3
L3392L
sS'name'
p4
S'B side'
p5
s.(dp0
S'person_oid'
p1
L65L
sS'oid'
p2
L831L
sS'celltower_oid'
p3
L3458L
sS'name'
p4
S'Hess'
p5
s.(dp0
S'person_oid'
p1
L65L
sS'oid'
p2
L832L
sS'celltower_oid'
p3
L3432L
sS'name'
p4
S'Home'
p5
s.(dp0
S'person_oid'
p1
L65L
sS'oid'
p2
L833L
sS'celltower_oid'
p3
L3431L
sS'name'
p4
S'Thirsty'
p5
s.(dp0
S'person_oid'
p1
L65L
sS'oid'
p2
L834L
sS'celltower_oid'
p3
L3454L
sS'name'
p4
S'Dp//tmj'
p5
s.(dp0
S'person_oid'
p1
L65L
sS'oid'
p2
L835L
sS'celltower_oid'
p3
L21152L
sS'name'
p4
S'Magmd'
p5
s.(dp0
S'person_oid'
p1
L65L
sS'oid'
p2
L836L
sS'celltower_oid'
p3
L3457L
sS'name'
p4
S'Kiras'
p5
s.(dp0
S'person_oid'
p1
L65L
sS'oid'
p2
L837L
sS'celltower_oid'
p3
L3452L
sS'name'
p4
S'Ml'
p5
s.(dp0
S'person_oid'
p1
L65L
sS'oid'
p2
L838L
sS'celltower_oid'
p3
L3925L
sS'name'
p4
S'Pool'
p5
s.(dp0
S'person_oid'
p1
L65L
sS'oid'
p2
L839L
sS'celltower_oid'
p3
L19365L
sS'name'
p4
S'Wgpam'
p5
s.(dp0
S'person_oid'
p1
L65L
sS'oid'
p2
L840L
sS'celltower_oid'
p3
L21153L
sS'name'
p4
S'Wisco'
p5
s.(dp0
S'person_oid'
p1
L65L
sS'oid'
p2
L841L
sS'celltower_oid'
p3
L3430L
sS'name'
p4
S'hess'
p5
s.(dp0
S'person_oid'
p1
L65L
sS'oid'
p2
L842L
sS'celltower_oid'
p3
L3931L
sS'name'
p4
S'Sunoco'
p5
s.(dp0
S'person_oid'
p1
L65L
sS'oid'
p2
L843L
sS'celltower_oid'
p3
L6485L
sS'name'
p4
S'..Aolo'
p5
s.(dp0
S'person_oid'
p1
L65L
sS'oid'
p2
L844L
sS'celltower_oid'
p3
L6517L
sS'name'
p4
S'SilverthorneCO'
p5
s.(dp0
S'person_oid'
p1
L65L
sS'oid'
p2
L845L
sS'celltower_oid'
p3
L21154L
sS'name'
p4
S'Copper'
p5
s.(dp0
S'person_oid'
p1
L65L
sS'oid'
p2
L846L
sS'celltower_oid'
p3
L21155L
sS'name'
p4
S'Co'
p5
s.(dp0
S'person_oid'
p1
L65L
sS'oid'
p2
L847L
sS'celltower_oid'
p3
L30L
sS'name'
p4
S'Jga'
p5
s.(dp0
S'person_oid'
p1
L65L
sS'oid'
p2
L848L
sS'celltower_oid'
p3
L3396L
sS'name'
p4
S'Zoes'
p5
s.(dp0
S'person_oid'
p1
L65L
sS'oid'
p2
L849L
sS'celltower_oid'
p3
L3447L
sS'name'
p4
S'Porter'
p5
s.(dp0
S'person_oid'
p1
L65L
sS'oid'
p2
L850L
sS'celltower_oid'
p3
L3933L
sS'name'
p4
S'Heem'
p5
s.(dp0
S'person_oid'
p1
L65L
sS'oid'
p2
L851L
sS'celltower_oid'
p3
L4009L
sS'name'
p4
S'Red'
p5
s.(dp0
S'person_oid'
p1
L36L
sS'oid'
p2
L852L
sS'celltower_oid'
p3
L6004L
sS'name'
p4
S'Back bay boston'
p5
s.(dp0
S'person_oid'
p1
L36L
sS'oid'
p2
L853L
sS'celltower_oid'
p3
L1551L
sS'name'
p4
S'Home in cambridge'
p5
s.(dp0
S'person_oid'
p1
L36L
sS'oid'
p2
L854L
sS'celltower_oid'
p3
L40L
sS'name'
p4
S'E51 second floor'
p5
s.(dp0
S'person_oid'
p1
L36L
sS'oid'
p2
L855L
sS'celltower_oid'
p3
L42L
sS'name'
p4
S'E51-e52 bridge'
p5
s.(dp0
S'person_oid'
p1
L36L
sS'oid'
p2
L856L
sS'celltower_oid'
p3
L41L
sS'name'
p4
S'E51-e52 bridge'
p5
s.(dp0
S'person_oid'
p1
L36L
sS'oid'
p2
L857L
sS'celltower_oid'
p3
L1555L
sS'name'
p4
S'Inman sqare'
p5
s.(dp0
S'person_oid'
p1
L36L
sS'oid'
p2
L858L
sS'celltower_oid'
p3
L6013L
sS'name'
p4
S'Charles street'
p5
s.(dp0
S'person_oid'
p1
L36L
sS'oid'
p2
L859L
sS'celltower_oid'
p3
L39L
sS'name'
p4
S'Kendall'
p5
s.(dp0
S'person_oid'
p1
L36L
sS'oid'
p2
L860L
sS'celltower_oid'
p3
L6017L
sS'name'
p4
S'Inman square'
p5
s.(dp0
S'person_oid'
p1
L36L
sS'oid'
p2
L861L
sS'celltower_oid'
p3
L1557L
sS'name'
p4
S'Cambridgeport'
p5
s.(dp0
S'person_oid'
p1
L36L
sS'oid'
p2
L862L
sS'celltower_oid'
p3
L6001L
sS'name'
p4
S'Beacon hill'
p5
s.(dp0
S'person_oid'
p1
L36L
sS'oid'
p2
L863L
sS'celltower_oid'
p3
L8966L
sS'name'
p4
S'Back bay'
p5
s.(dp0
S'person_oid'
p1
L36L
sS'oid'
p2
L864L
sS'celltower_oid'
p3
L6018L
sS'name'
p4
S'Inman square'
p5
s.(dp0
S'person_oid'
p1
L36L
sS'oid'
p2
L865L
sS'celltower_oid'
p3
L18305L
sS'name'
p4
S'Home in cambridge'
p5
s.(dp0
S'person_oid'
p1
L36L
sS'oid'
p2
L866L
sS'celltower_oid'
p3
L18341L
sS'name'
p4
S'Park plaza boston'
p5
s.(dp0
S'person_oid'
p1
L36L
sS'oid'
p2
L867L
sS'celltower_oid'
p3
L13273L
sS'name'
p4
S'Central square'
p5
s.(dp0
S'person_oid'
p1
L36L
sS'oid'
p2
L868L
sS'celltower_oid'
p3
L13276L
sS'name'
p4
S'Home in cambridge'
p5
s.(dp0
S'person_oid'
p1
L36L
sS'oid'
p2
L869L
sS'celltower_oid'
p3
L13185L
sS'name'
p4
S'Sloan'
p5
s.(dp0
S'person_oid'
p1
L36L
sS'oid'
p2
L870L
sS'celltower_oid'
p3
L21293L
sS'name'
p4
S'Brighton'
p5
s.(dp0
S'person_oid'
p1
L36L
sS'oid'
p2
L871L
sS'celltower_oid'
p3
L18303L
sS'name'
p4
S'Back bay'
p5
s.(dp0
S'person_oid'
p1
L36L
sS'oid'
p2
L872L
sS'celltower_oid'
p3
L21294L
sS'name'
p4
S'Palm beach gardens'
p5
s.(dp0
S'person_oid'
p1
L36L
sS'oid'
p2
L873L
sS'celltower_oid'
p3
L21295L
sS'name'
p4
S'Palm beach gardens'
p5
s.(dp0
S'person_oid'
p1
L36L
sS'oid'
p2
L874L
sS'celltower_oid'
p3
L18447L
sS'name'
p4
S'Marlowe'
p5
s.(dp0
S'person_oid'
p1
L4L
sS'oid'
p2
L875L
sS'celltower_oid'
p3
L3393L
sS'name'
p4
S'Sloan'
p5
s.(dp0
S'person_oid'
p1
L4L
sS'oid'
p2
L876L
sS'celltower_oid'
p3
L3392L
sS'name'
p4
S'Sloan'
p5
s.(dp0
S'person_oid'
p1
L4L
sS'oid'
p2
L877L
sS'celltower_oid'
p3
L3450L
sS'name'
p4
S'Sloan'
p5
s.(dp0
S'person_oid'
p1
L4L
sS'oid'
p2
L878L
sS'celltower_oid'
p3
L3942L
sS'name'
p4
S'Sloan'
p5
s.(dp0
S'person_oid'
p1
L4L
sS'oid'
p2
L879L
sS'celltower_oid'
p3
L3451L
sS'name'
p4
S'Home'
p5
s.(dp0
S'person_oid'
p1
L4L
sS'oid'
p2
L880L
sS'celltower_oid'
p3
L3938L
sS'name'
p4
S'Lowes'
p5
s.(dp0
S'person_oid'
p1
L4L
sS'oid'
p2
L881L
sS'celltower_oid'
p3
L3926L
sS'name'
p4
S'Home'
p5
s.(dp0
S'person_oid'
p1
L4L
sS'oid'
p2
L882L
sS'celltower_oid'
p3
L3928L
sS'name'
p4
S'Party'
p5
s.(dp0
S'person_oid'
p1
L4L
sS'oid'
p2
L883L
sS'celltower_oid'
p3
L5646L
sS'name'
p4
S'Sloan'
p5
s.(dp0
S'person_oid'
p1
L4L
sS'oid'
p2
L884L
sS'celltower_oid'
p3
L3925L
sS'name'
p4
S'Albani'
p5
s.(dp0
S'person_oid'
p1
L4L
sS'oid'
p2
L885L
sS'celltower_oid'
p3
L3934L
sS'name'
p4
S'Home'
p5
s.(dp0
S'person_oid'
p1
L4L
sS'oid'
p2
L886L
sS'celltower_oid'
p3
L3394L
sS'name'
p4
S'Home'
p5
s.(dp0
S'person_oid'
p1
L4L
sS'oid'
p2
L887L
sS'celltower_oid'
p3
L3452L
sS'name'
p4
S'Sloan'
p5
s.(dp0
S'person_oid'
p1
L4L
sS'oid'
p2
L888L
sS'celltower_oid'
p3
L12561L
sS'name'
p4
S'Mt'
p5
s.(dp0
S'person_oid'
p1
L4L
sS'oid'
p2
L889L
sS'celltower_oid'
p3
L4009L
sS'name'
p4
S'Home'
p5
s.(dp0
S'person_oid'
p1
L19L
sS'oid'
p2
L890L
sS'celltower_oid'
p3
L3393L
sS'name'
p4
S'Diebold'
p5
s.(dp0
S'person_oid'
p1
L19L
sS'oid'
p2
L891L
sS'celltower_oid'
p3
L3392L
sS'name'
p4
S'Diebold'
p5
s.(dp0
S'person_oid'
p1
L19L
sS'oid'
p2
L892L
sS'celltower_oid'
p3
L3450L
sS'name'
p4
S'Walker'
p5
s.(dp0
S'person_oid'
p1
L19L
sS'oid'
p2
L893L
sS'celltower_oid'
p3
L3451L
sS'name'
p4
S'Sidney'
p5
s.(dp0
S'person_oid'
p1
L19L
sS'oid'
p2
L894L
sS'celltower_oid'
p3
L3925L
sS'name'
p4
S'Sidney'
p5
s.(dp0
S'person_oid'
p1
L19L
sS'oid'
p2
L895L
sS'celltower_oid'
p3
L4011L
sS'name'
p4
S'Prudential'
p5
s.(dp0
S'person_oid'
p1
L19L
sS'oid'
p2
L896L
sS'celltower_oid'
p3
L3927L
sS'name'
p4
S'Sydney'
p5
s.(dp0
S'person_oid'
p1
L19L
sS'oid'
p2
L897L
sS'celltower_oid'
p3
L3934L
sS'name'
p4
S'Sidney'
p5
s.(dp0
S'person_oid'
p1
L19L
sS'oid'
p2
L898L
sS'celltower_oid'
p3
L3394L
sS'name'
p4
S'Sidney'
p5
s.(dp0
S'person_oid'
p1
L19L
sS'oid'
p2
L899L
sS'celltower_oid'
p3
L3428L
sS'name'
p4
S'Tang'
p5
s.(dp0
S'person_oid'
p1
L19L
sS'oid'
p2
L900L
sS'celltower_oid'
p3
L3931L
sS'name'
p4
S'Sydney'
p5
s.(dp0
S'person_oid'
p1
L19L
sS'oid'
p2
L901L
sS'celltower_oid'
p3
L4008L
sS'name'
p4
S'33'
p5
s.(dp0
S'person_oid'
p1
L19L
sS'oid'
p2
L902L
sS'celltower_oid'
p3
L21562L
sS'name'
p4
S'Car race'
p5
s.(dp0
S'person_oid'
p1
L19L
sS'oid'
p2
L903L
sS'celltower_oid'
p3
L3469L
sS'name'
p4
S'Airport'
p5
s.(dp0
S'person_oid'
p1
L38L
sS'oid'
p2
L904L
sS'celltower_oid'
p3
L1844L
sS'name'
p4
S'E51'
p5
s.(dp0
S'person_oid'
p1
L38L
sS'oid'
p2
L905L
sS'celltower_oid'
p3
L1842L
sS'name'
p4
S'E51'
p5
s.(dp0
S'person_oid'
p1
L38L
sS'oid'
p2
L906L
sS'celltower_oid'
p3
L1856L
sS'name'
p4
S'Johnson'
p5
s.(dp0
S'person_oid'
p1
L38L
sS'oid'
p2
L907L
sS'celltower_oid'
p3
L1861L
sS'name'
p4
S'E51'
p5
s.(dp0
S'person_oid'
p1
L38L
sS'oid'
p2
L908L
sS'celltower_oid'
p3
L1863L
sS'name'
p4
S'Beacon hill'
p5
s.(dp0
S'person_oid'
p1
L38L
sS'oid'
p2
L909L
sS'celltower_oid'
p3
L1882L
sS'name'
p4
S'Back bay'
p5
s.(dp0
S'person_oid'
p1
L38L
sS'oid'
p2
L910L
sS'celltower_oid'
p3
L1853L
sS'name'
p4
S'Central square'
p5
s.(dp0
S'person_oid'
p1
L38L
sS'oid'
p2
L911L
sS'celltower_oid'
p3
L1846L
sS'name'
p4
S'100 memorial'
p5
s.(dp0
S'person_oid'
p1
L38L
sS'oid'
p2
L912L
sS'celltower_oid'
p3
L2707L
sS'name'
p4
S'New brunswick'
p5
s.(dp0
S'person_oid'
p1
L38L
sS'oid'
p2
L913L
sS'celltower_oid'
p3
L20481L
sS'name'
p4
S'New brunswick'
p5
s.(dp0
S'person_oid'
p1
L38L
sS'oid'
p2
L914L
sS'celltower_oid'
p3
L20482L
sS'name'
p4
S'Nyc'
p5
s.(dp0
S'person_oid'
p1
L38L
sS'oid'
p2
L915L
sS'celltower_oid'
p3
L1934L
sS'name'
p4
S'South end'
p5
s.(dp0
S'person_oid'
p1
L38L
sS'oid'
p2
L916L
sS'celltower_oid'
p3
L1899L
sS'name'
p4
S'Clubs'
p5
s.(dp0
S'person_oid'
p1
L38L
sS'oid'
p2
L917L
sS'celltower_oid'
p3
L1933L
sS'name'
p4
S'100 memorial'
p5
s.(dp0
S'person_oid'
p1
L38L
sS'oid'
p2
L918L
sS'celltower_oid'
p3
L1880L
sS'name'
p4
S'Nnrth station'
p5
s.(dp0
S'person_oid'
p1
L38L
sS'oid'
p2
L919L
sS'celltower_oid'
p3
L1859L
sS'name'
p4
S'Student center'
p5
s.(dp0
S'person_oid'
p1
L38L
sS'oid'
p2
L920L
sS'celltower_oid'
p3
L1915L
sS'name'
p4
S'Student center'
p5
s.(dp0
S'person_oid'
p1
L38L
sS'oid'
p2
L921L
sS'celltower_oid'
p3
L1862L
sS'name'
p4
S'100 memorial'
p5
s.(dp0
S'person_oid'
p1
L38L
sS'oid'
p2
L922L
sS'celltower_oid'
p3
L1962L
sS'name'
p4
S'Somerville'
p5
s.(dp0
S'person_oid'
p1
L38L
sS'oid'
p2
L923L
sS'celltower_oid'
p3
L1963L
sS'name'
p4
S'Somerville'
p5
s.(dp0
S'person_oid'
p1
L38L
sS'oid'
p2
L924L
sS'celltower_oid'
p3
L14255L
sS'name'
p4
S'New york'
p5
s.(dp0
S'person_oid'
p1
L38L
sS'oid'
p2
L925L
sS'celltower_oid'
p3
L1945L
sS'name'
p4
S'J'
p5
s.(dp0
S'person_oid'
p1
L38L
sS'oid'
p2
L926L
sS'celltower_oid'
p3
L1855L
sS'name'
p4
S'M'
p5
s.(dp0
S'person_oid'
p1
L38L
sS'oid'
p2
L927L
sS'celltower_oid'
p3
L1858L
sS'name'
p4
S'Ml'
p5
s.(dp0
S'person_oid'
p1
L51L
sS'oid'
p2
L928L
sS'celltower_oid'
p3
L1L
sS'name'
p4
S'ML'
p5
s.(dp0
S'person_oid'
p1
L51L
sS'oid'
p2
L929L
sS'celltower_oid'
p3
L2L
sS'name'
p4
S'ML'
p5
s.(dp0
S'person_oid'
p1
L51L
sS'oid'
p2
L930L
sS'celltower_oid'
p3
L70L
sS'name'
p4
S'Ml'
p5
s.(dp0
S'person_oid'
p1
L51L
sS'oid'
p2
L931L
sS'celltower_oid'
p3
L398L
sS'name'
p4
S'Home'
p5
s.(dp0
S'person_oid'
p1
L51L
sS'oid'
p2
L932L
sS'celltower_oid'
p3
L184L
sS'name'
p4
S'Home'
p5
s.(dp0
S'person_oid'
p1
L51L
sS'oid'
p2
L933L
sS'celltower_oid'
p3
L311L
sS'name'
p4
S'Record store'
p5
s.(dp0
S'person_oid'
p1
L51L
sS'oid'
p2
L934L
sS'celltower_oid'
p3
L7L
sS'name'
p4
S'Middle east'
p5
s.(dp0
S'person_oid'
p1
L51L
sS'oid'
p2
L935L
sS'celltower_oid'
p3
L35L
sS'name'
p4
S'Home'
p5
s.(dp0
S'person_oid'
p1
L51L
sS'oid'
p2
L936L
sS'celltower_oid'
p3
L272L
sS'name'
p4
S'Home'
p5
s.(dp0
S'person_oid'
p1
L51L
sS'oid'
p2
L937L
sS'celltower_oid'
p3
L22071L
sS'name'
p4
S'Airport'
p5
s.(dp0
S'person_oid'
p1
L51L
sS'oid'
p2
L938L
sS'celltower_oid'
p3
L68L
sS'name'
p4
S'Harvard'
p5
s.(dp0
S'person_oid'
p1
L83L
sS'oid'
p2
L939L
sS'celltower_oid'
p3
L44L
sS'name'
p4
S'Shaws'
p5
s.(dp0
S'person_oid'
p1
L83L
sS'oid'
p2
L940L
sS'celltower_oid'
p3
L75L
sS'name'
p4
S'Home'
p5
s.(dp0
S'person_oid'
p1
L83L
sS'oid'
p2
L941L
sS'celltower_oid'
p3
L1L
sS'name'
p4
S'Maqs ave'
p5
s.(dp0
S'person_oid'
p1
L83L
sS'oid'
p2
L942L
sS'celltower_oid'
p3
L30L
sS'name'
p4
S'77 mass ave'
p5
s.(dp0
S'person_oid'
p1
L83L
sS'oid'
p2
L943L
sS'celltower_oid'
p3
L1544L
sS'name'
p4
S'Home'
p5
s.(dp0
S'person_oid'
p1
L83L
sS'oid'
p2
L944L
sS'celltower_oid'
p3
L5L
sS'name'
p4
S'Harvard'
p5
s.(dp0
S'person_oid'
p1
L83L
sS'oid'
p2
L945L
sS'celltower_oid'
p3
L46L
sS'name'
p4
S'Charles'
p5
s.(dp0
S'person_oid'
p1
L83L
sS'oid'
p2
L946L
sS'celltower_oid'
p3
L35L
sS'name'
p4
S'Ml'
p5
s.(dp0
S'person_oid'
p1
L83L
sS'oid'
p2
L947L
sS'celltower_oid'
p3
L289L
sS'name'
p4
S'Home'
p5
s.(dp0
S'person_oid'
p1
L83L
sS'oid'
p2
L948L
sS'celltower_oid'
p3
L22109L
sS'name'
p4
S'Tmronto'
p5
s.(dp0
S'person_oid'
p1
L83L
sS'oid'
p2
L949L
sS'celltower_oid'
p3
L22110L
sS'name'
p4
S'T'
p5
s.(dp0
S'person_oid'
p1
L83L
sS'oid'
p2
L950L
sS'celltower_oid'
p3
L22111L
sS'name'
p4
S'T'
p5
s.(dp0
S'person_oid'
p1
L83L
sS'oid'
p2
L951L
sS'celltower_oid'
p3
L22112L
sS'name'
p4
S'P.'
p5
s.(dp0
S'person_oid'
p1
L83L
sS'oid'
p2
L952L
sS'celltower_oid'
p3
L22113L
sS'name'
p4
S'T'
p5
s.(dp0
S'person_oid'
p1
L83L
sS'oid'
p2
L953L
sS'celltower_oid'
p3
L22114L
sS'name'
p4
S'T'
p5
s.(dp0
S'person_oid'
p1
L83L
sS'oid'
p2
L954L
sS'celltower_oid'
p3
L22115L
sS'name'
p4
S'T'
p5
s.(dp0
S'person_oid'
p1
L83L
sS'oid'
p2
L955L
sS'celltower_oid'
p3
L22116L
sS'name'
p4
S'Uft'
p5
s.(dp0
S'person_oid'
p1
L83L
sS'oid'
p2
L956L
sS'celltower_oid'
p3
L22117L
sS'name'
p4
S'Uft'
p5
s.(dp0
S'person_oid'
p1
L83L
sS'oid'
p2
L957L
sS'celltower_oid'
p3
L22118L
sS'name'
p4
S'Fo'
p5
s.(dp0
S'person_oid'
p1
L83L
sS'oid'
p2
L958L
sS'celltower_oid'
p3
L22119L
sS'name'
p4
S'Dm'
p5
s.(dp0
S'person_oid'
p1
L83L
sS'oid'
p2
L959L
sS'celltower_oid'
p3
L22120L
sS'name'
p4
S'H'
p5
s.(dp0
S'person_oid'
p1
L83L
sS'oid'
p2
L960L
sS'celltower_oid'
p3
L22121L
sS'name'
p4
S'Jatin'
p5
s.(dp0
S'person_oid'
p1
L83L
sS'oid'
p2
L961L
sS'celltower_oid'
p3
L22122L
sS'name'
p4
S'J'
p5
s.(dp0
S'person_oid'
p1
L83L
sS'oid'
p2
L962L
sS'celltower_oid'
p3
L22123L
sS'name'
p4
S'J'
p5
s.(dp0
S'person_oid'
p1
L83L
sS'oid'
p2
L963L
sS'celltower_oid'
p3
L22124L
sS'name'
p4
S'Club'
p5
s.(dp0
S'person_oid'
p1
L83L
sS'oid'
p2
L964L
sS'celltower_oid'
p3
L22125L
sS'name'
p4
S'C'
p5
s.(dp0
S'person_oid'
p1
L83L
sS'oid'
p2
L965L
sS'celltower_oid'
p3
L279L
sS'name'
p4
S'\xa3j'
p5
s.(dp0
S'person_oid'
p1
L83L
sS'oid'
p2
L966L
sS'celltower_oid'
p3
L45L
sS'name'
p4
S'H'
p5
s.(dp0
S'person_oid'
p1
L83L
sS'oid'
p2
L967L
sS'celltower_oid'
p3
L61L
sS'name'
p4
S'Ml'
p5
s.(dp0
S'person_oid'
p1
L83L
sS'oid'
p2
L968L
sS'celltower_oid'
p3
L28L
sS'name'
p4
S'Home'
p5
s.(dp0
S'person_oid'
p1
L83L
sS'oid'
p2
L969L
sS'celltower_oid'
p3
L81L
sS'name'
p4
S'Cbc'
p5
s.(dp0
S'person_oid'
p1
L83L
sS'oid'
p2
L970L
sS'celltower_oid'
p3
L184L
sS'name'
p4
S'H'
p5
s.(dp0
S'person_oid'
p1
L83L
sS'oid'
p2
L971L
sS'celltower_oid'
p3
L22126L
sS'name'
p4
S'A'
p5
s.(dp0
S'person_oid'
p1
L39L
sS'oid'
p2
L972L
sS'celltower_oid'
p3
L11876L
sS'name'
p4
S'Iui'
p5
s.(dp0
S'person_oid'
p1
L39L
sS'oid'
p2
L973L
sS'celltower_oid'
p3
L1901L
sS'name'
p4
S'Harvard square'
p5
s.(dp0
S'person_oid'
p1
L39L
sS'oid'
p2
L974L
sS'celltower_oid'
p3
L30L
sS'name'
p4
S'Media lab'
p5
s.(dp0
S'person_oid'
p1
L39L
sS'oid'
p2
L975L
sS'celltower_oid'
p3
L14625L
sS'name'
p4
S'New york'
p5
s.(dp0
S'person_oid'
p1
L39L
sS'oid'
p2
L976L
sS'celltower_oid'
p3
L1965L
sS'name'
p4
S'Hillel'
p5
s.(dp0
S'person_oid'
p1
L39L
sS'oid'
p2
L977L
sS'celltower_oid'
p3
L1853L
sS'name'
p4
S'Central s.'
p5
s.(dp0
S'person_oid'
p1
L39L
sS'oid'
p2
L978L
sS'celltower_oid'
p3
L3087L
sS'name'
p4
S'Home ch'
p5
s.(dp0
S'person_oid'
p1
L39L
sS'oid'
p2
L979L
sS'celltower_oid'
p3
L1899L
sS'name'
p4
S'Sloan'
p5
s.(dp0
S'person_oid'
p1
L23L
sS'oid'
p2
L980L
sS'celltower_oid'
p3
L40L
sS'name'
p4
S'E51'
p5
s.(dp0
S'person_oid'
p1
L23L
sS'oid'
p2
L981L
sS'celltower_oid'
p3
L42L
sS'name'
p4
S'E51'
p5
s.(dp0
S'person_oid'
p1
L23L
sS'oid'
p2
L982L
sS'celltower_oid'
p3
L1551L
sS'name'
p4
S'B'
p5
s.(dp0
S'person_oid'
p1
L23L
sS'oid'
p2
L983L
sS'celltower_oid'
p3
L17595L
sS'name'
p4
S'New York'
p5
s.(dp0
S'person_oid'
p1
L23L
sS'oid'
p2
L984L
sS'celltower_oid'
p3
L23108L
sS'name'
p4
S'New york apt.'
p5
s.(dp0
S'person_oid'
p1
L23L
sS'oid'
p2
L985L
sS'celltower_oid'
p3
L20638L
sS'name'
p4
S'New york apt.'
p5
s.(dp0
S'person_oid'
p1
L23L
sS'oid'
p2
L986L
sS'celltower_oid'
p3
L23109L
sS'name'
p4
S'New york apt.'
p5
s.(dp0
S'person_oid'
p1
L23L
sS'oid'
p2
L987L
sS'celltower_oid'
p3
L23110L
sS'name'
p4
S'New york 9 Ave.'
p5
s.(dp0
S'person_oid'
p1
L23L
sS'oid'
p2
L988L
sS'celltower_oid'
p3
L23111L
sS'name'
p4
S'New york'
p5
s.(dp0
S'person_oid'
p1
L23L
sS'oid'
p2
L989L
sS'celltower_oid'
p3
L20629L
sS'name'
p4
S'New york apt.'
p5
s.(dp0
S'person_oid'
p1
L23L
sS'oid'
p2
L990L
sS'celltower_oid'
p3
L20586L
sS'name'
p4
S'Stanford,CT'
p5
s.(dp0
S'person_oid'
p1
L23L
sS'oid'
p2
L991L
sS'celltower_oid'
p3
L23112L
sS'name'
p4
S'MASS turnpike'
p5
s.(dp0
S'person_oid'
p1
L23L
sS'oid'
p2
L992L
sS'celltower_oid'
p3
L23113L
sS'name'
p4
S'Centeral sq.'
p5
s.(dp0
S'person_oid'
p1
L23L
sS'oid'
p2
L993L
sS'celltower_oid'
p3
L23114L
sS'name'
p4
S'Easgate'
p5
s.(dp0
S'person_oid'
p1
L23L
sS'oid'
p2
L994L
sS'celltower_oid'
p3
L17945L
sS'name'
p4
S'Home Eastgate'
p5
s.(dp0
S'person_oid'
p1
L23L
sS'oid'
p2
L995L
sS'celltower_oid'
p3
L20695L
sS'name'
p4
S'Home Eastgate'
p5
s.(dp0
S'person_oid'
p1
L23L
sS'oid'
p2
L996L
sS'celltower_oid'
p3
L20694L
sS'name'
p4
S'Eastgate home'
p5
s.(dp0
S'person_oid'
p1
L23L
sS'oid'
p2
L997L
sS'celltower_oid'
p3
L20693L
sS'name'
p4
S'E51'
p5
s.(dp0
S'person_oid'
p1
L23L
sS'oid'
p2
L998L
sS'celltower_oid'
p3
L17943L
sS'name'
p4
S'E51'
p5
s.(dp0
S'person_oid'
p1
L23L
sS'oid'
p2
L999L
sS'celltower_oid'
p3
L1556L
sS'name'
p4
S'Centeral sqr'
p5
s.(dp0
S'person_oid'
p1
L23L
sS'oid'
p2
L1000L
sS'celltower_oid'
p3
L6013L
sS'name'
p4
S'Eastgate'
p5
s.(dp0
S'person_oid'
p1
L26L
sS'oid'
p2
L1001L
sS'celltower_oid'
p3
L42L
sS'name'
p4
S'ML'
p5
s.(dp0
S'person_oid'
p1
L26L
sS'oid'
p2
L1002L
sS'celltower_oid'
p3
L41L
sS'name'
p4
S'ML'
p5
s.(dp0
S'person_oid'
p1
L26L
sS'oid'
p2
L1003L
sS'celltower_oid'
p3
L39L
sS'name'
p4
S'ML'
p5
s.(dp0
S'person_oid'
p1
L26L
sS'oid'
p2
L1004L
sS'celltower_oid'
p3
L40L
sS'name'
p4
S'ML'
p5
s.(dp0
S'person_oid'
p1
L26L
sS'oid'
p2
L1005L
sS'celltower_oid'
p3
L1552L
sS'name'
p4
S'Ml\\500'
p5
s.(dp0
S'person_oid'
p1
L26L
sS'oid'
p2
L1006L
sS'celltower_oid'
p3
L1558L
sS'name'
p4
S'Nw86'
p5
s.(dp0
S'person_oid'
p1
L26L
sS'oid'
p2
L1007L
sS'celltower_oid'
p3
L8972L
sS'name'
p4
S'Family'
p5
s.(dp0
S'person_oid'
p1
L26L
sS'oid'
p2
L1008L
sS'celltower_oid'
p3
L7465L
sS'name'
p4
S'Friends'
p5
s.(dp0
S'person_oid'
p1
L26L
sS'oid'
p2
L1009L
sS'celltower_oid'
p3
L8817L
sS'name'
p4
S'Tempel'
p5
s.(dp0
S'person_oid'
p1
L26L
sS'oid'
p2
L1010L
sS'celltower_oid'
p3
L8970L
sS'name'
p4
S'Family'
p5
s.(dp0
S'person_oid'
p1
L26L
sS'oid'
p2
L1011L
sS'celltower_oid'
p3
L8971L
sS'name'
p4
S'Ml'
p5
s.(dp0
S'person_oid'
p1
L26L
sS'oid'
p2
L1012L
sS'celltower_oid'
p3
L6001L
sS'name'
p4
S'T stop'
p5
s.(dp0
S'person_oid'
p1
L26L
sS'oid'
p2
L1013L
sS'celltower_oid'
p3
L9012L
sS'name'
p4
S'.'
p5
s.(dp0
S'person_oid'
p1
L93L
sS'oid'
p2
L1014L
sS'celltower_oid'
p3
L42L
sS'name'
p4
S'ML'
p5
s.(dp0
S'person_oid'
p1
L93L
sS'oid'
p2
L1015L
sS'celltower_oid'
p3
L1556L
sS'name'
p4
S'Gg'
p5
s.(dp0
S'person_oid'
p1
L93L
sS'oid'
p2
L1016L
sS'celltower_oid'
p3
L1558L
sS'name'
p4
S'home'
p5
s.(dp0
S'person_oid'
p1
L93L
sS'oid'
p2
L1017L
sS'celltower_oid'
p3
L1557L
sS'name'
p4
S'Home'
p5
s.(dp0
S'person_oid'
p1
L93L
sS'oid'
p2
L1018L
sS'celltower_oid'
p3
L41L
sS'name'
p4
S'Sidpac'
p5
s.(dp0
S'person_oid'
p1
L93L
sS'oid'
p2
L1019L
sS'celltower_oid'
p3
L6001L
sS'name'
p4
S'Prkst'
p5
s.(dp0
S'person_oid'
p1
L93L
sS'oid'
p2
L1020L
sS'celltower_oid'
p3
L6007L
sS'name'
p4
S'Lab'
p5
s.(dp0
S'person_oid'
p1
L60L
sS'oid'
p2
L1021L
sS'celltower_oid'
p3
L42L
sS'name'
p4
S'Media lab'
p5
s.(dp0
S'person_oid'
p1
L60L
sS'oid'
p2
L1022L
sS'celltower_oid'
p3
L1551L
sS'name'
p4
S'Kendall t'
p5
s.(dp0
S'person_oid'
p1
L60L
sS'oid'
p2
L1023L
sS'celltower_oid'
p3
L20269L
sS'name'
p4
S"Luigi's office"
p5
s.(dp0
S'person_oid'
p1
L60L
sS'oid'
p2
L1024L
sS'celltower_oid'
p3
L8945L
sS'name'
p4
S'Home'
p5
s.(dp0
S'person_oid'
p1
L60L
sS'oid'
p2
L1025L
sS'celltower_oid'
p3
L1552L
sS'name'
p4
S"Martina's doctor"
p5
s.(dp0
S'person_oid'
p1
L60L
sS'oid'
p2
L1026L
sS'celltower_oid'
p3
L13179L
sS'name'
p4
S'Moni'
p5
s.(dp0
S'person_oid'
p1
L8L
sS'oid'
p2
L1027L
sS'celltower_oid'
p3
L395L
sS'name'
p4
S'Ml'
p5
s.(dp0
S'person_oid'
p1
L8L
sS'oid'
p2
L1028L
sS'celltower_oid'
p3
L274L
sS'name'
p4
S'Jaes'
p5
s.(dp0
S'person_oid'
p1
L8L
sS'oid'
p2
L1029L
sS'celltower_oid'
p3
L24635L
sS'name'
p4
S'Rockport'
p5
s.(dp0
S'person_oid'
p1
L8L
sS'oid'
p2
L1030L
sS'celltower_oid'
p3
L24636L
sS'name'
p4
S'Rockport center'
p5
s.(dp0
S'person_oid'
p1
L8L
sS'oid'
p2
L1031L
sS'celltower_oid'
p3
L197L
sS'name'
p4
S'Kenmore'
p5
s.(dp0
S'person_oid'
p1
L8L
sS'oid'
p2
L1032L
sS'celltower_oid'
p3
L311L
sS'name'
p4
S'Newbury st'
p5
s.(dp0
S'person_oid'
p1
L8L
sS'oid'
p2
L1033L
sS'celltower_oid'
p3
L4L
sS'name'
p4
S'Harvard bridge @ boston'
p5
s.(dp0
S'person_oid'
p1
L8L
sS'oid'
p2
L1034L
sS'celltower_oid'
p3
L314L
sS'name'
p4
S'E 51'
p5
s.(dp0
S'person_oid'
p1
L8L
sS'oid'
p2
L1035L
sS'celltower_oid'
p3
L832L
sS'name'
p4
S'Times square'
p5
s.(dp0
S'person_oid'
p1
L8L
sS'oid'
p2
L1036L
sS'celltower_oid'
p3
L1500L
sS'name'
p4
S'Park slope'
p5
s.(dp0
S'person_oid'
p1
L8L
sS'oid'
p2
L1037L
sS'celltower_oid'
p3
L8779L
sS'name'
p4
S'South ferry'
p5
s.(dp0
S'person_oid'
p1
L8L
sS'oid'
p2
L1038L
sS'celltower_oid'
p3
L24637L
sS'name'
p4
S'Statue of liberty'
p5
s.(dp0
S'person_oid'
p1
L8L
sS'oid'
p2
L1039L
sS'celltower_oid'
p3
L8787L
sS'name'
p4
S'S. Ferry'
p5
s.(dp0
S'person_oid'
p1
L8L
sS'oid'
p2
L1040L
sS'celltower_oid'
p3
L7265L
sS'name'
p4
S'Port auth bus term'
p5
s.(dp0
S'person_oid'
p1
L8L
sS'oid'
p2
L1041L
sS'celltower_oid'
p3
L101L
sS'name'
p4
S'Rt 1 hilltop steak'
p5
s.(dp0
S'person_oid'
p1
L8L
sS'oid'
p2
L1042L
sS'celltower_oid'
p3
L389L
sS'name'
p4
S'Rt 1 sq 1 mall'
p5
s.(dp0
S'person_oid'
p1
L8L
sS'oid'
p2
L1043L
sS'celltower_oid'
p3
L95L
sS'name'
p4
S'North somerville'
p5
s.(dp0
S'person_oid'
p1
L8L
sS'oid'
p2
L1044L
sS'celltower_oid'
p3
L2558L
sS'name'
p4
S'Powderhouse circle'
p5
s.(dp0
S'person_oid'
p1
L85L
sS'oid'
p2
L1045L
sS'celltower_oid'
p3
L3393L
sS'name'
p4
S'Media lab'
p5
s.(dp0
S'person_oid'
p1
L85L
sS'oid'
p2
L1046L
sS'celltower_oid'
p3
L3394L
sS'name'
p4
S'Sidney Pacific'
p5
s.(dp0
S'person_oid'
p1
L85L
sS'oid'
p2
L1047L
sS'celltower_oid'
p3
L3457L
sS'name'
p4
S'Sidney Pacific'
p5
s.(dp0
S'person_oid'
p1
L85L
sS'oid'
p2
L1048L
sS'celltower_oid'
p3
L3449L
sS'name'
p4
S'East gate'
p5
s.(dp0
S'person_oid'
p1
L85L
sS'oid'
p2
L1049L
sS'celltower_oid'
p3
L3451L
sS'name'
p4
S'Eastgate'
p5
s.(dp0
S'person_oid'
p1
L85L
sS'oid'
p2
L1050L
sS'celltower_oid'
p3
L3450L
sS'name'
p4
S'Eastgatd'
p5
s.(dp0
S'person_oid'
p1
L85L
sS'oid'
p2
L1051L
sS'celltower_oid'
p3
L3392L
sS'name'
p4
S'Media lab'
p5
s.(dp0
S'person_oid'
p1
L85L
sS'oid'
p2
L1052L
sS'celltower_oid'
p3
L5280L
sS'name'
p4
S'Walden'
p5
s.(dp0
S'person_oid'
p1
L85L
sS'oid'
p2
L1053L
sS'celltower_oid'
p3
L3929L
sS'name'
p4
S'Westgate'
p5
s.(dp0
S'person_oid'
p1
L85L
sS'oid'
p2
L1054L
sS'celltower_oid'
p3
L3446L
sS'name'
p4
S'MGH'
p5
s.(dp0
S'person_oid'
p1
L85L
sS'oid'
p2
L1055L
sS'celltower_oid'
p3
L3453L
sS'name'
p4
S'Eastgate'
p5
s.(dp0
S'person_oid'
p1
L85L
sS'oid'
p2
L1056L
sS'celltower_oid'
p3
L4011L
sS'name'
p4
S'Eastgate'
p5
s.(dp0
S'person_oid'
p1
L85L
sS'oid'
p2
L1057L
sS'celltower_oid'
p3
L3454L
sS'name'
p4
S'Eastgate'
p5
s.(dp0
S'person_oid'
p1
L85L
sS'oid'
p2
L1058L
sS'celltower_oid'
p3
L3927L
sS'name'
p4
S'Media lab'
p5
s.(dp0
S'person_oid'
p1
L85L
sS'oid'
p2
L1059L
sS'celltower_oid'
p3
L3431L
sS'name'
p4
S'Inman square'
p5
s.(dp0
S'person_oid'
p1
L85L
sS'oid'
p2
L1060L
sS'celltower_oid'
p3
L4012L
sS'name'
p4
S'Westgate'
p5
s.(dp0
S'person_oid'
p1
L85L
sS'oid'
p2
L1061L
sS'celltower_oid'
p3
L3925L
sS'name'
p4
S'Home'
p5
s.(dp0
S'person_oid'
p1
L85L
sS'oid'
p2
L1062L
sS'celltower_oid'
p3
L3924L
sS'name'
p4
S'Home'
p5
s.(dp0
S'person_oid'
p1
L85L
sS'oid'
p2
L1063L
sS'celltower_oid'
p3
L3923L
sS'name'
p4
S'Home'
p5
s.(dp0
S'person_oid'
p1
L85L
sS'oid'
p2
L1064L
sS'celltower_oid'
p3
L4020L
sS'name'
p4
S'Mass pike'
p5
s.(dp0
S'person_oid'
p1
L85L
sS'oid'
p2
L1065L
sS'celltower_oid'
p3
L4635L
sS'name'
p4
S'Brooklyn'
p5
s.(dp0
S'person_oid'
p1
L85L
sS'oid'
p2
L1066L
sS'celltower_oid'
p3
L3428L
sS'name'
p4
S'Media lab'
p5
s.(dp0
S'person_oid'
p1
L85L
sS'oid'
p2
L1067L
sS'celltower_oid'
p3
L4537L
sS'name'
p4
S'Home'
p5
s.(dp0
S'person_oid'
p1
L85L
sS'oid'
p2
L1068L
sS'celltower_oid'
p3
L3430L
sS'name'
p4
S'Paula'
p5
s.(dp0
S'person_oid'
p1
L85L
sS'oid'
p2
L1069L
sS'celltower_oid'
p3
L3432L
sS'name'
p4
S'Paula'
p5
s.(dp0
S'person_oid'
p1
L85L
sS'oid'
p2
L1070L
sS'celltower_oid'
p3
L3935L
sS'name'
p4
S'Home'
p5
s.(dp0
S'person_oid'
p1
L85L
sS'oid'
p2
L1071L
sS'celltower_oid'
p3
L3934L
sS'name'
p4
S'Westgate'
p5
s.(dp0
S'person_oid'
p1
L85L
sS'oid'
p2
L1072L
sS'celltower_oid'
p3
L4120L
sS'name'
p4
S'New york'
p5
s.(dp0
S'person_oid'
p1
L85L
sS'oid'
p2
L1073L
sS'celltower_oid'
p3
L6614L
sS'name'
p4
S'New york'
p5
s.(dp0
S'person_oid'
p1
L85L
sS'oid'
p2
L1074L
sS'celltower_oid'
p3
L25153L
sS'name'
p4
S'B'
p5
s.(dp0
S'person_oid'
p1
L85L
sS'oid'
p2
L1075L
sS'celltower_oid'
p3
L5291L
sS'name'
p4
S'Media lab'
p5
s.(dp0
S'person_oid'
p1
L85L
sS'oid'
p2
L1076L
sS'celltower_oid'
p3
L5263L
sS'name'
p4
S'T'
p5
s.(dp0
S'person_oid'
p1
L85L
sS'oid'
p2
L1077L
sS'celltower_oid'
p3
L4000L
sS'name'
p4
S'Boston globe'
p5
s.(dp0
S'person_oid'
p1
L85L
sS'oid'
p2
L1078L
sS'celltower_oid'
p3
L3461L
sS'name'
p4
S'Kendall'
p5
s.(dp0
S'person_oid'
p1
L85L
sS'oid'
p2
L1079L
sS'celltower_oid'
p3
L3436L
sS'name'
p4
S'Medialab'
p5
s.(dp0
S'person_oid'
p1
L85L
sS'oid'
p2
L1080L
sS'celltower_oid'
p3
L3936L
sS'name'
p4
S'Boylston'
p5
s.(dp0
S'person_oid'
p1
L85L
sS'oid'
p2
L1081L
sS'celltower_oid'
p3
L3926L
sS'name'
p4
S'Home'
p5
s.(dp0
S'person_oid'
p1
L85L
sS'oid'
p2
L1082L
sS'celltower_oid'
p3
L4009L
sS'name'
p4
S'Harvard'
p5
s.(dp0
S'person_oid'
p1
L85L
sS'oid'
p2
L1083L
sS'celltower_oid'
p3
L3427L
sS'name'
p4
S'Logan'
p5
s.(dp0
S'person_oid'
p1
L85L
sS'oid'
p2
L1084L
sS'celltower_oid'
p3
L5091L
sS'name'
p4
S'Dc'
p5
s.(dp0
S'person_oid'
p1
L85L
sS'oid'
p2
L1085L
sS'celltower_oid'
p3
L13364L
sS'name'
p4
S'Dc'
p5
s.(dp0
S'person_oid'
p1
L85L
sS'oid'
p2
L1086L
sS'celltower_oid'
p3
L4209L
sS'name'
p4
S'Dc'
p5
s.(dp0
S'person_oid'
p1
L85L
sS'oid'
p2
L1087L
sS'celltower_oid'
p3
L3424L
sS'name'
p4
S'Logan'
p5
s.(dp0
S'person_oid'
p1
L73L
sS'oid'
p2
L1088L
sS'celltower_oid'
p3
L2L
sS'name'
p4
S'Tang'
p5
s.(dp0
S'person_oid'
p1
L73L
sS'oid'
p2
L1089L
sS'celltower_oid'
p3
L1L
sS'name'
p4
S'Tang'
p5
s.(dp0
S'person_oid'
p1
L73L
sS'oid'
p2
L1090L
sS'celltower_oid'
p3
L43L
sS'name'
p4
S'Tang'
p5
s.(dp0
S'person_oid'
p1
L73L
sS'oid'
p2
L1091L
sS'celltower_oid'
p3
L22200L
sS'name'
p4
S'Ny'
p5
s.(dp0
S'person_oid'
p1
L73L
sS'oid'
p2
L1092L
sS'celltower_oid'
p3
L2633L
sS'name'
p4
S'300m'
p5
s.(dp0
S'person_oid'
p1
L73L
sS'oid'
p2
L1093L
sS'celltower_oid'
p3
L511L
sS'name'
p4
S'300m'
p5
s.(dp0
S'person_oid'
p1
L73L
sS'oid'
p2
L1094L
sS'celltower_oid'
p3
L16825L
sS'name'
p4
S'Tang'
p5
s.(dp0
S'person_oid'
p1
L73L
sS'oid'
p2
L1095L
sS'celltower_oid'
p3
L16922L
sS'name'
p4
S'New york'
p5
s.(dp0
S'person_oid'
p1
L73L
sS'oid'
p2
L1096L
sS'celltower_oid'
p3
L25632L
sS'name'
p4
S'New york'
p5
s.(dp0
S'person_oid'
p1
L73L
sS'oid'
p2
L1097L
sS'celltower_oid'
p3
L6927L
sS'name'
p4
S'New york'
p5
s.(dp0
S'person_oid'
p1
L73L
sS'oid'
p2
L1098L
sS'celltower_oid'
p3
L16924L
sS'name'
p4
S'New york'
p5
s.(dp0
S'person_oid'
p1
L73L
sS'oid'
p2
L1099L
sS'celltower_oid'
p3
L16948L
sS'name'
p4
S'New york'
p5
s.(dp0
S'person_oid'
p1
L73L
sS'oid'
p2
L1100L
sS'celltower_oid'
p3
L468L
sS'name'
p4
S'New york'
p5
s.(dp0
S'person_oid'
p1
L73L
sS'oid'
p2
L1101L
sS'celltower_oid'
p3
L462L
sS'name'
p4
S'New york'
p5
s.(dp0
S'person_oid'
p1
L73L
sS'oid'
p2
L1102L
sS'celltower_oid'
p3
L455L
sS'name'
p4
S'Ny'
p5
s.(dp0
S'person_oid'
p1
L73L
sS'oid'
p2
L1103L
sS'celltower_oid'
p3
L454L
sS'name'
p4
S'Ny'
p5
s.(dp0
S'person_oid'
p1
L73L
sS'oid'
p2
L1104L
sS'celltower_oid'
p3
L450L
sS'name'
p4
S'Ny'
p5
s.(dp0
S'person_oid'
p1
L73L
sS'oid'
p2
L1105L
sS'celltower_oid'
p3
L466L
sS'name'
p4
S'Mass pike'
p5
s.(dp0
S'person_oid'
p1
L73L
sS'oid'
p2
L1106L
sS'celltower_oid'
p3
L456L
sS'name'
p4
S'Mass pike'
p5
s.(dp0
S'person_oid'
p1
L73L
sS'oid'
p2
L1107L
sS'celltower_oid'
p3
L449L
sS'name'
p4
S'Mass pike'
p5
s.(dp0
S'person_oid'
p1
L73L
sS'oid'
p2
L1108L
sS'celltower_oid'
p3
L437L
sS'name'
p4
S'Mass pike'
p5
s.(dp0
S'person_oid'
p1
L73L
sS'oid'
p2
L1109L
sS'celltower_oid'
p3
L429L
sS'name'
p4
S'Mass pike'
p5
s.(dp0
S'person_oid'
p1
L73L
sS'oid'
p2
L1110L
sS'celltower_oid'
p3
L461L
sS'name'
p4
S'Brandeis'
p5
s.(dp0
S'person_oid'
p1
L73L
sS'oid'
p2
L1111L
sS'celltower_oid'
p3
L442L
sS'name'
p4
S'Brandeis'
p5
s.(dp0
S'person_oid'
p1
L73L
sS'oid'
p2
L1112L
sS'celltower_oid'
p3
L81L
sS'name'
p4
S'Cambridge'
p5
s.(dp0
S'person_oid'
p1
L73L
sS'oid'
p2
L1113L
sS'celltower_oid'
p3
L46L
sS'name'
p4
S'Kendall'
p5
s.(dp0
S'person_oid'
p1
L73L
sS'oid'
p2
L1114L
sS'celltower_oid'
p3
L154L
sS'name'
p4
S'E52'
p5
s.(dp0
S'person_oid'
p1
L73L
sS'oid'
p2
L1115L
sS'celltower_oid'
p3
L5L
sS'name'
p4
S'Hbs'
p5
s.(dp0
S'person_oid'
p1
L73L
sS'oid'
p2
L1116L
sS'celltower_oid'
p3
L4L
sS'name'
p4
S'Hbs'
p5
s.(dp0
S'person_oid'
p1
L73L
sS'oid'
p2
L1117L
sS'celltower_oid'
p3
L65L
sS'name'
p4
S'Hbs'
p5
s.(dp0
S'person_oid'
p1
L73L
sS'oid'
p2
L1118L
sS'celltower_oid'
p3
L20L
sS'name'
p4
S'Eastgate'
p5
s.(dp0
S'person_oid'
p1
L73L
sS'oid'
p2
L1119L
sS'celltower_oid'
p3
L152L
sS'name'
p4
S'Eastgate'
p5
s.(dp0
S'person_oid'
p1
L73L
sS'oid'
p2
L1120L
sS'celltower_oid'
p3
L7L
sS'name'
p4
S'300m'
p5
s.(dp0
S'person_oid'
p1
L73L
sS'oid'
p2
L1121L
sS'celltower_oid'
p3
L294L
sS'name'
p4
S'300m'
p5
s.(dp0
S'person_oid'
p1
L73L
sS'oid'
p2
L1122L
sS'celltower_oid'
p3
L398L
sS'name'
p4
S'Tang'
p5
s.(dp0
S'person_oid'
p1
L73L
sS'oid'
p2
L1123L
sS'celltower_oid'
p3
L302L
sS'name'
p4
S'Park'
p5
s.(dp0
S'person_oid'
p1
L73L
sS'oid'
p2
L1124L
sS'celltower_oid'
p3
L293L
sS'name'
p4
S'Park'
p5
s.(dp0
S'person_oid'
p1
L73L
sS'oid'
p2
L1125L
sS'celltower_oid'
p3
L61L
sS'name'
p4
S'Copley'
p5
s.(dp0
S'person_oid'
p1
L73L
sS'oid'
p2
L1126L
sS'celltower_oid'
p3
L36L
sS'name'
p4
S'Quincy'
p5
s.(dp0
S'person_oid'
p1
L73L
sS'oid'
p2
L1127L
sS'celltower_oid'
p3
L1562L
sS'name'
p4
S'Quincy'
p5
s.(dp0
S'person_oid'
p1
L73L
sS'oid'
p2
L1128L
sS'celltower_oid'
p3
L56L
sS'name'
p4
S'Quincy'
p5
s.(dp0
S'person_oid'
p1
L73L
sS'oid'
p2
L1129L
sS'celltower_oid'
p3
L50L
sS'name'
p4
S'Harvard'
p5
s.(dp0
S'person_oid'
p1
L73L
sS'oid'
p2
L1130L
sS'celltower_oid'
p3
L83L
sS'name'
p4
S'Galeria'
p5
s.(dp0
S'person_oid'
p1
L73L
sS'oid'
p2
L1131L
sS'celltower_oid'
p3
L64L
sS'name'
p4
S'Hbs'
p5
s.(dp0
S'person_oid'
p1
L73L
sS'oid'
p2
L1132L
sS'celltower_oid'
p3
L68L
sS'name'
p4
S'Harvard'
p5
s.(dp0
S'person_oid'
p1
L73L
sS'oid'
p2
L1133L
sS'celltower_oid'
p3
L191L
sS'name'
p4
S'Fenway'
p5
s.(dp0
S'person_oid'
p1
L73L
sS'oid'
p2
L1134L
sS'celltower_oid'
p3
L279L
sS'name'
p4
S'Fenway'
p5
s.(dp0
S'person_oid'
p1
L73L
sS'oid'
p2
L1135L
sS'celltower_oid'
p3
L67L
sS'name'
p4
S'Lfm'
p5
s.(dp0
S'person_oid'
p1
L73L
sS'oid'
p2
L1136L
sS'celltower_oid'
p3
L2525L
sS'name'
p4
S'Brandeis'
p5
s.(dp0
S'person_oid'
p1
L73L
sS'oid'
p2
L1137L
sS'celltower_oid'
p3
L409L
sS'name'
p4
S'Brandeis'
p5
s.(dp0
S'person_oid'
p1
L73L
sS'oid'
p2
L1138L
sS'celltower_oid'
p3
L415L
sS'name'
p4
S'Ny'
p5
s.(dp0
S'person_oid'
p1
L73L
sS'oid'
p2
L1139L
sS'celltower_oid'
p3
L441L
sS'name'
p4
S'Ny'
p5
s.(dp0
S'person_oid'
p1
L73L
sS'oid'
p2
L1140L
sS'celltower_oid'
p3
L7254L
sS'name'
p4
S'Ny'
p5
s.(dp0
S'person_oid'
p1
L73L
sS'oid'
p2
L1141L
sS'celltower_oid'
p3
L788L
sS'name'
p4
S'Ny'
p5
s.(dp0
S'person_oid'
p1
L73L
sS'oid'
p2
L1142L
sS'celltower_oid'
p3
L789L
sS'name'
p4
S'Ny'
p5
s.(dp0
S'person_oid'
p1
L73L
sS'oid'
p2
L1143L
sS'celltower_oid'
p3
L692L
sS'name'
p4
S'Central park'
p5
s.(dp0
S'person_oid'
p1
L73L
sS'oid'
p2
L1144L
sS'celltower_oid'
p3
L713L
sS'name'
p4
S'Ny'
p5
s.(dp0
S'person_oid'
p1
L73L
sS'oid'
p2
L1145L
sS'celltower_oid'
p3
L1182L
sS'name'
p4
S'Ny'
p5
s.(dp0
S'person_oid'
p1
L73L
sS'oid'
p2
L1146L
sS'celltower_oid'
p3
L80L
sS'name'
p4
S'Home'
p5
s.(dp0
S'person_oid'
p1
L73L
sS'oid'
p2
L1147L
sS'celltower_oid'
p3
L29L
sS'name'
p4
S'Porter'
p5
s.(dp0
S'person_oid'
p1
L73L
sS'oid'
p2
L1148L
sS'celltower_oid'
p3
L156L
sS'name'
p4
S'Hbs'
p5
s.(dp0
S'person_oid'
p1
L73L
sS'oid'
p2
L1149L
sS'celltower_oid'
p3
L60L
sS'name'
p4
S'E51'
p5
s.(dp0
S'person_oid'
p1
L73L
sS'oid'
p2
L1150L
sS'celltower_oid'
p3
L274L
sS'name'
p4
S'Prudential'
p5
s.(dp0
S'person_oid'
p1
L73L
sS'oid'
p2
L1151L
sS'celltower_oid'
p3
L1596L
sS'name'
p4
S'Double tree'
p5
s.(dp0
S'person_oid'
p1
L73L
sS'oid'
p2
L1152L
sS'celltower_oid'
p3
L308L
sS'name'
p4
S'Bu'
p5
s.(dp0
S'person_oid'
p1
L73L
sS'oid'
p2
L1153L
sS'celltower_oid'
p3
L76L
sS'name'
p4
S'Porter'
p5
s.(dp0
S'person_oid'
p1
L73L
sS'oid'
p2
L1154L
sS'celltower_oid'
p3
L1560L
sS'name'
p4
S'G'
p5
s.(dp0
S'person_oid'
p1
L73L
sS'oid'
p2
L1155L
sS'celltower_oid'
p3
L288L
sS'name'
p4
S'Station'
p5
s.(dp0
S'person_oid'
p1
L73L
sS'oid'
p2
L1156L
sS'celltower_oid'
p3
L14099L
sS'name'
p4
S'White plains'
p5
s.(dp0
S'person_oid'
p1
L73L
sS'oid'
p2
L1157L
sS'celltower_oid'
p3
L412L
sS'name'
p4
S'Brandeis'
p5
s.(dp0
S'person_oid'
p1
L44L
sS'oid'
p2
L1158L
sS'celltower_oid'
p3
L1L
sS'name'
p4
S'ML'
p5
s.(dp0
S'person_oid'
p1
L44L
sS'oid'
p2
L1159L
sS'celltower_oid'
p3
L2L
sS'name'
p4
S'Off phm'
p5
s.(dp0
S'person_oid'
p1
L44L
sS'oid'
p2
L1160L
sS'celltower_oid'
p3
L35L
sS'name'
p4
S'Stud center'
p5
s.(dp0
S'person_oid'
p1
L44L
sS'oid'
p2
L1161L
sS'celltower_oid'
p3
L300L
sS'name'
p4
S'Ashdown'
p5
s.(dp0
S'person_oid'
p1
L44L
sS'oid'
p2
L1162L
sS'celltower_oid'
p3
L26033L
sS'name'
p4
S'Dartmouth hannover'
p5
s.(dp0
S'person_oid'
p1
L44L
sS'oid'
p2
L1163L
sS'celltower_oid'
p3
L83L
sS'name'
p4
S'Galleria'
p5
s.(dp0
S'person_oid'
p1
L44L
sS'oid'
p2
L1164L
sS'celltower_oid'
p3
L283L
sS'name'
p4
S'Water town'
p5
s.(dp0
S'person_oid'
p1
L44L
sS'oid'
p2
L1165L
sS'celltower_oid'
p3
L421L
sS'name'
p4
S'Natik'
p5
s.(dp0
S'person_oid'
p1
L20L
sS'oid'
p2
L1166L
sS'celltower_oid'
p3
L1552L
sS'name'
p4
S'Hundred memorial'
p5
s.(dp0
S'person_oid'
p1
L20L
sS'oid'
p2
L1167L
sS'celltower_oid'
p3
L42L
sS'name'
p4
S'Tang'
p5
s.(dp0
S'person_oid'
p1
L20L
sS'oid'
p2
L1168L
sS'celltower_oid'
p3
L1551L
sS'name'
p4
S'Mit medical'
p5
s.(dp0
S'person_oid'
p1
L20L
sS'oid'
p2
L1169L
sS'celltower_oid'
p3
L5992L
sS'name'
p4
S'Porter'
p5
s.(dp0
S'person_oid'
p1
L20L
sS'oid'
p2
L1170L
sS'celltower_oid'
p3
L6004L
sS'name'
p4
S'Copley'
p5
s.(dp0
S'person_oid'
p1
L20L
sS'oid'
p2
L1171L
sS'celltower_oid'
p3
L1L
sS'name'
p4
S'100 memorial'
p5
s.(dp0
S'person_oid'
p1
L20L
sS'oid'
p2
L1172L
sS'celltower_oid'
p3
L39L
sS'name'
p4
S'Anils sofa'
p5
s.(dp0
S'person_oid'
p1
L20L
sS'oid'
p2
L1173L
sS'celltower_oid'
p3
L41L
sS'name'
p4
S'Tanh'
p5
s.(dp0
S'person_oid'
p1
L20L
sS'oid'
p2
L1174L
sS'celltower_oid'
p3
L1556L
sS'name'
p4
S'Asgard'
p5
s.(dp0
S'person_oid'
p1
L20L
sS'oid'
p2
L1175L
sS'celltower_oid'
p3
L1559L
sS'name'
p4
S'Charles hotel'
p5
s.(dp0
S'person_oid'
p1
L20L
sS'oid'
p2
L1176L
sS'celltower_oid'
p3
L8818L
sS'name'
p4
S'S&p'
p5
s.(dp0
S'person_oid'
p1
L74L
sS'oid'
p2
L1177L
sS'celltower_oid'
p3
L1842L
sS'name'
p4
S'ML'
p5
s.(dp0
S'person_oid'
p1
L74L
sS'oid'
p2
L1178L
sS'celltower_oid'
p3
L1913L
sS'name'
p4
S'Ml'
p5
s.(dp0
S'person_oid'
p1
L74L
sS'oid'
p2
L1179L
sS'celltower_oid'
p3
L1844L
sS'name'
p4
S'Ml'
p5
s.(dp0
S'person_oid'
p1
L74L
sS'oid'
p2
L1180L
sS'celltower_oid'
p3
L1915L
sS'name'
p4
S'Ml'
p5
s.(dp0
S'person_oid'
p1
L74L
sS'oid'
p2
L1181L
sS'celltower_oid'
p3
L1928L
sS'name'
p4
S'Home'
p5
s.(dp0
S'person_oid'
p1
L74L
sS'oid'
p2
L1182L
sS'celltower_oid'
p3
L11417L
sS'name'
p4
S'ny'
p5
s.(dp0
S'person_oid'
p1
L74L
sS'oid'
p2
L1183L
sS'celltower_oid'
p3
L6195L
sS'name'
p4
S'ny'
p5
s.(dp0
S'person_oid'
p1
L74L
sS'oid'
p2
L1184L
sS'celltower_oid'
p3
L11459L
sS'name'
p4
S'ny'
p5
s.(dp0
S'person_oid'
p1
L74L
sS'oid'
p2
L1185L
sS'celltower_oid'
p3
L11423L
sS'name'
p4
S'Ny'
p5
s.(dp0
S'person_oid'
p1
L74L
sS'oid'
p2
L1186L
sS'celltower_oid'
p3
L11421L
sS'name'
p4
S'Ny'
p5
s.(dp0
S'person_oid'
p1
L74L
sS'oid'
p2
L1187L
sS'celltower_oid'
p3
L22053L
sS'name'
p4
S'Ny'
p5
s.(dp0
S'person_oid'
p1
L74L
sS'oid'
p2
L1188L
sS'celltower_oid'
p3
L11460L
sS'name'
p4
S'Ny'
p5
s.(dp0
S'person_oid'
p1
L74L
sS'oid'
p2
L1189L
sS'celltower_oid'
p3
L11422L
sS'name'
p4
S'Ny home'
p5
s.(dp0
S'person_oid'
p1
L74L
sS'oid'
p2
L1190L
sS'celltower_oid'
p3
L12250L
sS'name'
p4
S'Ny'
p5
s.(dp0
S'person_oid'
p1
L74L
sS'oid'
p2
L1191L
sS'celltower_oid'
p3
L2275L
sS'name'
p4
S'Ny'
p5
s.(dp0
S'person_oid'
p1
L74L
sS'oid'
p2
L1192L
sS'celltower_oid'
p3
L21964L
sS'name'
p4
S'Soho'
p5
s.(dp0
S'person_oid'
p1
L74L
sS'oid'
p2
L1193L
sS'celltower_oid'
p3
L14550L
sS'name'
p4
S'Soho'
p5
s.(dp0
S'person_oid'
p1
L74L
sS'oid'
p2
L1194L
sS'celltower_oid'
p3
L21747L
sS'name'
p4
S'Ny home'
p5
s.(dp0
S'person_oid'
p1
L74L
sS'oid'
p2
L1195L
sS'celltower_oid'
p3
L11397L
sS'name'
p4
S'Ny home'
p5
s.(dp0
S'person_oid'
p1
L74L
sS'oid'
p2
L1196L
sS'celltower_oid'
p3
L22054L
sS'name'
p4
S'Bus'
p5
s.(dp0
S'person_oid'
p1
L74L
sS'oid'
p2
L1197L
sS'celltower_oid'
p3
L26222L
sS'name'
p4
S'Bus'
p5
s.(dp0
S'person_oid'
p1
L74L
sS'oid'
p2
L1198L
sS'celltower_oid'
p3
L2062L
sS'name'
p4
S'Bus'
p5
s.(dp0
S'person_oid'
p1
L74L
sS'oid'
p2
L1199L
sS'celltower_oid'
p3
L22055L
sS'name'
p4
S'Sou th station'
p5
s.(dp0
S'person_oid'
p1
L74L
sS'oid'
p2
L1200L
sS'celltower_oid'
p3
L2163L
sS'name'
p4
S'HoME'
p5
s.(dp0
S'person_oid'
p1
L74L
sS'oid'
p2
L1201L
sS'celltower_oid'
p3
L1861L
sS'name'
p4
S'Home'
p5
s.(dp0
S'person_oid'
p1
L74L
sS'oid'
p2
L1202L
sS'celltower_oid'
p3
L1865L
sS'name'
p4
S'Home'
p5
s.(dp0
S'person_oid'
p1
L74L
sS'oid'
p2
L1203L
sS'celltower_oid'
p3
L1927L
sS'name'
p4
S'Ml'
p5
s.(dp0
S'person_oid'
p1
L74L
sS'oid'
p2
L1204L
sS'celltower_oid'
p3
L1899L
sS'name'
p4
S'Ml'
p5
s.(dp0
S'person_oid'
p1
L74L
sS'oid'
p2
L1205L
sS'celltower_oid'
p3
L1882L
sS'name'
p4
S'Home'
p5
s.(dp0
S'person_oid'
p1
L74L
sS'oid'
p2
L1206L
sS'celltower_oid'
p3
L1862L
sS'name'
p4
S'HoME'
p5
s.(dp0
S'person_oid'
p1
L74L
sS'oid'
p2
L1207L
sS'celltower_oid'
p3
L1900L
sS'name'
p4
S'B common'
p5
s.(dp0
S'person_oid'
p1
L74L
sS'oid'
p2
L1208L
sS'celltower_oid'
p3
L1939L
sS'name'
p4
S'Boston chinatown'
p5
s.(dp0
S'person_oid'
p1
L74L
sS'oid'
p2
L1209L
sS'celltower_oid'
p3
L1932L
sS'name'
p4
S'Ml'
p5
s.(dp0
S'person_oid'
p1
L74L
sS'oid'
p2
L1210L
sS'celltower_oid'
p3
L1903L
sS'name'
p4
S'Ml'
p5
s.(dp0
S'person_oid'
p1
L74L
sS'oid'
p2
L1211L
sS'celltower_oid'
p3
L1918L
sS'name'
p4
S'Ml'
p5
s.(dp0
S'person_oid'
p1
L74L
sS'oid'
p2
L1212L
sS'celltower_oid'
p3
L1859L
sS'name'
p4
S'Ml'
p5
s.(dp0
S'person_oid'
p1
L74L
sS'oid'
p2
L1213L
sS'celltower_oid'
p3
L1972L
sS'name'
p4
S'Porter square'
p5
s.(dp0
S'person_oid'
p1
L74L
sS'oid'
p2
L1214L
sS'celltower_oid'
p3
L1968L
sS'name'
p4
S'Porter square'
p5
s.(dp0
S'person_oid'
p1
L74L
sS'oid'
p2
L1215L
sS'celltower_oid'
p3
L1967L
sS'name'
p4
S'Porter'
p5
s.(dp0
S'person_oid'
p1
L74L
sS'oid'
p2
L1216L
sS'celltower_oid'
p3
L1852L
sS'name'
p4
S'Central square'
p5
s.(dp0
S'person_oid'
p1
L74L
sS'oid'
p2
L1217L
sS'celltower_oid'
p3
L1846L
sS'name'
p4
S'Home'
p5
s.(dp0
S'person_oid'
p1
L74L
sS'oid'
p2
L1218L
sS'celltower_oid'
p3
L1989L
sS'name'
p4
S'South statiom'
p5
s.(dp0
S'person_oid'
p1
L74L
sS'oid'
p2
L1219L
sS'celltower_oid'
p3
L1921L
sS'name'
p4
S'South station'
p5
s.(dp0
S'person_oid'
p1
L74L
sS'oid'
p2
L1220L
sS'celltower_oid'
p3
L1953L
sS'name'
p4
S'South station'
p5
s.(dp0
S'person_oid'
p1
L74L
sS'oid'
p2
L1221L
sS'celltower_oid'
p3
L1934L
sS'name'
p4
S'Chinatown bus'
p5
s.(dp0
S'person_oid'
p1
L74L
sS'oid'
p2
L1222L
sS'celltower_oid'
p3
L2010L
sS'name'
p4
S'Chinatown bus'
p5
s.(dp0
S'person_oid'
p1
L74L
sS'oid'
p2
L1223L
sS'celltower_oid'
p3
L2355L
sS'name'
p4
S'Chinatown bus'
p5
s.(dp0
S'person_oid'
p1
L74L
sS'oid'
p2
L1224L
sS'celltower_oid'
p3
L21963L
sS'name'
p4
S'Soho'
p5
s.(dp0
S'person_oid'
p1
L74L
sS'oid'
p2
L1225L
sS'celltower_oid'
p3
L11496L
sS'name'
p4
S'Soho'
p5
s.(dp0
S'person_oid'
p1
L74L
sS'oid'
p2
L1226L
sS'celltower_oid'
p3
L11461L
sS'name'
p4
S'Ny home'
p5
s.(dp0
S'person_oid'
p1
L74L
sS'oid'
p2
L1227L
sS'celltower_oid'
p3
L27470L
sS'name'
p4
S'W34th st, 8th ave'
p5
s.(dp0
S'person_oid'
p1
L74L
sS'oid'
p2
L1228L
sS'celltower_oid'
p3
L2276L
sS'name'
p4
S'111 & broadway'
p5
s.(dp0
S'person_oid'
p1
L74L
sS'oid'
p2
L1229L
sS'celltower_oid'
p3
L27471L
sS'name'
p4
S'Port authority'
p5
s.(dp0
S'person_oid'
p1
L74L
sS'oid'
p2
L1230L
sS'celltower_oid'
p3
L1856L
sS'name'
p4
S'Ml'
p5
s.(dp0
S'person_oid'
p1
L74L
sS'oid'
p2
L1231L
sS'celltower_oid'
p3
L2259L
sS'name'
p4
S'Ny'
p5
s.(dp0
S'person_oid'
p1
L74L
sS'oid'
p2
L1232L
sS'celltower_oid'
p3
L2278L
sS'name'
p4
S'110 st, ny'
p5
s.(dp0
S'person_oid'
p1
L74L
sS'oid'
p2
L1233L
sS'celltower_oid'
p3
L2123L
sS'name'
p4
S'Greyhound'
p5
s.(dp0
S'person_oid'
p1
L74L
sS'oid'
p2
L1234L
sS'celltower_oid'
p3
L2105L
sS'name'
p4
S'Greyhound'
p5
s.(dp0
S'person_oid'
p1
L74L
sS'oid'
p2
L1235L
sS'celltower_oid'
p3
L2059L
sS'name'
p4
S'Greyhound'
p5
s.(dp0
S'person_oid'
p1
L74L
sS'oid'
p2
L1236L
sS'celltower_oid'
p3
L2053L
sS'name'
p4
S'Greyhound'
p5
s.(dp0
S'person_oid'
p1
L74L
sS'oid'
p2
L1237L
sS'celltower_oid'
p3
L1944L
sS'name'
p4
S'Boston common'
p5
s.(dp0
S'person_oid'
p1
L74L
sS'oid'
p2
L1238L
sS'celltower_oid'
p3
L1955L
sS'name'
p4
S'South station'
p5
s.(dp0
S'person_oid'
p1
L74L
sS'oid'
p2
L1239L
sS'celltower_oid'
p3
L2001L
sS'name'
p4
S'Chinatown bus'
p5
s.(dp0
S'person_oid'
p1
L74L
sS'oid'
p2
L1240L
sS'celltower_oid'
p3
L2013L
sS'name'
p4
S'Chinatown bus'
p5
s.(dp0
S'person_oid'
p1
L74L
sS'oid'
p2
L1241L
sS'celltower_oid'
p3
L11425L
sS'name'
p4
S'W18th st, ny'
p5
s.(dp0
S'person_oid'
p1
L74L
sS'oid'
p2
L1242L
sS'celltower_oid'
p3
L12123L
sS'name'
p4
S'18th st, ny'
p5
s.(dp0
S'person_oid'
p1
L74L
sS'oid'
p2
L1243L
sS'celltower_oid'
p3
L26140L
sS'name'
p4
S'Greyhound'
p5
s.(dp0
S'person_oid'
p1
L74L
sS'oid'
p2
L1244L
sS'celltower_oid'
p3
L23029L
sS'name'
p4
S"Tod's house"
p5
s.(dp0
S'person_oid'
p1
L74L
sS'oid'
p2
L1245L
sS'celltower_oid'
p3
L1941L
sS'name'
p4
S'City hall, boston'
p5
s.(dp0
S'person_oid'
p1
L74L
sS'oid'
p2
L1246L
sS'celltower_oid'
p3
L2025L
sS'name'
p4
S'Chinatown bus'
p5
s.(dp0
S'person_oid'
p1
L74L
sS'oid'
p2
L1247L
sS'celltower_oid'
p3
L2037L
sS'name'
p4
S'Chin bus'
p5
s.(dp0
S'person_oid'
p1
L74L
sS'oid'
p2
L1248L
sS'celltower_oid'
p3
L27472L
sS'name'
p4
S'Tribeca'
p5
s.(dp0
S'person_oid'
p1
L74L
sS'oid'
p2
L1249L
sS'celltower_oid'
p3
L2270L
sS'name'
p4
S'110 st, ny'
p5
s.(dp0
S'person_oid'
p1
L74L
sS'oid'
p2
L1250L
sS'celltower_oid'
p3
L2274L
sS'name'
p4
S'113 st'
p5
s.(dp0
S'person_oid'
p1
L74L
sS'oid'
p2
L1251L
sS'celltower_oid'
p3
L2057L
sS'name'
p4
S'Chinatown bus'
p5
s.(dp0
S'person_oid'
p1
L74L
sS'oid'
p2
L1252L
sS'celltower_oid'
p3
L2046L
sS'name'
p4
S'Chinatown bus'
p5
s.(dp0
S'person_oid'
p1
L74L
sS'oid'
p2
L1253L
sS'celltower_oid'
p3
L1930L
sS'name'
p4
S'In a cab'
p5
s.(dp0
S'person_oid'
p1
L74L
sS'oid'
p2
L1254L
sS'celltower_oid'
p3
L27473L
sS'name'
p4
S'L.A. Hilton'
p5
s.(dp0
S'person_oid'
p1
L74L
sS'oid'
p2
L1255L
sS'celltower_oid'
p3
L2018L
sS'name'
p4
S'Chinatown bus'
p5
s.(dp0
S'person_oid'
p1
L74L
sS'oid'
p2
L1256L
sS'celltower_oid'
p3
L2029L
sS'name'
p4
S'Chinatown bus'
p5
s.(dp0
S'person_oid'
p1
L74L
sS'oid'
p2
L1257L
sS'celltower_oid'
p3
L12110L
sS'name'
p4
S'Lincoln center'
p5
s.(dp0
S'person_oid'
p1
L74L
sS'oid'
p2
L1258L
sS'celltower_oid'
p3
L2262L
sS'name'
p4
S'Congee village, nyc'
p5
s.(dp0
S'person_oid'
p1
L74L
sS'oid'
p2
L1259L
sS'celltower_oid'
p3
L2264L
sS'name'
p4
S'Chinatown, nyc'
p5
s.(dp0
S'person_oid'
p1
L74L
sS'oid'
p2
L1260L
sS'celltower_oid'
p3
L2222L
sS'name'
p4
S'Chinatown bus'
p5
s.(dp0
S'person_oid'
p1
L74L
sS'oid'
p2
L1261L
sS'celltower_oid'
p3
L2211L
sS'name'
p4
S'Ct bus'
p5
s.(dp0
S'person_oid'
p1
L74L
sS'oid'
p2
L1262L
sS'celltower_oid'
p3
L27474L
sS'name'
p4
S'Providence ri'
p5
s.(dp0
S'person_oid'
p1
L74L
sS'oid'
p2
L1263L
sS'celltower_oid'
p3
L27475L
sS'name'
p4
S'Amtrak'
p5
s.(dp0
S'person_oid'
p1
L74L
sS'oid'
p2
L1264L
sS'celltower_oid'
p3
L1858L
sS'name'
p4
S'Ml'
p5
s.(dp0
S'person_oid'
p1
L74L
sS'oid'
p2
L1265L
sS'celltower_oid'
p3
L2198L
sS'name'
p4
S'Bus'
p5
s.(dp0
S'person_oid'
p1
L74L
sS'oid'
p2
L1266L
sS'celltower_oid'
p3
L21971L
sS'name'
p4
S'Ny home'
p5
s.(dp0
S'person_oid'
p1
L74L
sS'oid'
p2
L1267L
sS'celltower_oid'
p3
L10887L
sS'name'
p4
S'72nd st ny'
p5
s.(dp0
S'person_oid'
p1
L74L
sS'oid'
p2
L1268L
sS'celltower_oid'
p3
L2313L
sS'name'
p4
S'E 35th st ny'
p5
s.(dp0
S'person_oid'
p1
L74L
sS'oid'
p2
L1269L
sS'celltower_oid'
p3
L23051L
sS'name'
p4
S'Prince st'
p5
s.(dp0
S'person_oid'
p1
L74L
sS'oid'
p2
L1270L
sS'celltower_oid'
p3
L27476L
sS'name'
p4
S'46th st ny'
p5
s.(dp0
S'person_oid'
p1
L74L
sS'oid'
p2
L1271L
sS'celltower_oid'
p3
L12251L
sS'name'
p4
S'25th st'
p5
s.(dp0
S'person_oid'
p1
L74L
sS'oid'
p2
L1272L
sS'celltower_oid'
p3
L12255L
sS'name'
p4
S'E 34th st'
p5
s.(dp0
S'person_oid'
p1
L74L
sS'oid'
p2
L1273L
sS'celltower_oid'
p3
L11923L
sS'name'
p4
S'E 34th st'
p5
s.(dp0
S'person_oid'
p1
L74L
sS'oid'
p2
L1274L
sS'celltower_oid'
p3
L12052L
sS'name'
p4
S'W68th st, ny'
p5
s.(dp0
S'person_oid'
p1
L74L
sS'oid'
p2
L1275L
sS'celltower_oid'
p3
L12191L
sS'name'
p4
S'Broadway, broome st'
p5
s.(dp0
S'person_oid'
p1
L74L
sS'oid'
p2
L1276L
sS'celltower_oid'
p3
L12252L
sS'name'
p4
S'W88th st'
p5
s.(dp0
S'person_oid'
p1
L74L
sS'oid'
p2
L1277L
sS'celltower_oid'
p3
L2768L
sS'name'
p4
S'104th st'
p5
s.(dp0
S'person_oid'
p1
L74L
sS'oid'
p2
L1278L
sS'celltower_oid'
p3
L11395L
sS'name'
p4
S'90th st'
p5
s.(dp0
S'person_oid'
p1
L74L
sS'oid'
p2
L1279L
sS'celltower_oid'
p3
L27477L
sS'name'
p4
S'14th st'
p5
s.(dp0
S'person_oid'
p1
L74L
sS'oid'
p2
L1280L
sS'celltower_oid'
p3
L6188L
sS'name'
p4
S'105th st'
p5
s.(dp0
S'person_oid'
p1
L74L
sS'oid'
p2
L1281L
sS'celltower_oid'
p3
L10902L
sS'name'
p4
S'Greenwich village'
p5
s.(dp0
S'person_oid'
p1
L74L
sS'oid'
p2
L1282L
sS'celltower_oid'
p3
L11527L
sS'name'
p4
S'E34th st'
p5
s.(dp0
S'person_oid'
p1
L74L
sS'oid'
p2
L1283L
sS'celltower_oid'
p3
L11524L
sS'name'
p4
S'Chelsea, ny'
p5
s.(dp0
S'person_oid'
p1
L74L
sS'oid'
p2
L1284L
sS'celltower_oid'
p3
L2012L
sS'name'
p4
S'Chinatown bus'
p5
s.(dp0
S'person_oid'
p1
L74L
sS'oid'
p2
L1285L
sS'celltower_oid'
p3
L27478L
sS'name'
p4
S'27th st'
p5
s.(dp0
S'person_oid'
p1
L74L
sS'oid'
p2
L1286L
sS'celltower_oid'
p3
L1902L
sS'name'
p4
S'Inman square'
p5
s.(dp0
S'person_oid'
p1
L74L
sS'oid'
p2
L1287L
sS'celltower_oid'
p3
L2444L
sS'name'
p4
S'Sullivan square'
p5
s.(dp0
S'person_oid'
p1
L74L
sS'oid'
p2
L1288L
sS'celltower_oid'
p3
L2733L
sS'name'
p4
S'Smith hill, providence, ri'
p5
s.(dp0
S'person_oid'
p1
L74L
sS'oid'
p2
L1289L
sS'celltower_oid'
p3
L2734L
sS'name'
p4
S'Providence'
p5
s.(dp0
S'person_oid'
p1
L74L
sS'oid'
p2
L1290L
sS'celltower_oid'
p3
L2729L
sS'name'
p4
S'Providence'
p5
s.(dp0
S'person_oid'
p1
L74L
sS'oid'
p2
L1291L
sS'celltower_oid'
p3
L27479L
sS'name'
p4
S'Lincoln center'
p5
s.(dp0
S'person_oid'
p1
L74L
sS'oid'
p2
L1292L
sS'celltower_oid'
p3
L12235L
sS'name'
p4
S'Lincoln center'
p5
s.(dp0
S'person_oid'
p1
L74L
sS'oid'
p2
L1293L
sS'celltower_oid'
p3
L27480L
sS'name'
p4
S'Lincoln center'
p5
s.(dp0
S'person_oid'
p1
L74L
sS'oid'
p2
L1294L
sS'celltower_oid'
p3
L11495L
sS'name'
p4
S'Soho'
p5
s.(dp0
S'person_oid'
p1
L74L
sS'oid'
p2
L1295L
sS'celltower_oid'
p3
L2325L
sS'name'
p4
S'Chinatown'
p5
s.(dp0
S'person_oid'
p1
L74L
sS'oid'
p2
L1296L
sS'celltower_oid'
p3
L12116L
sS'name'
p4
S'Mars 2112'
p5
s.(dp0
S'person_oid'
p1
L74L
sS'oid'
p2
L1297L
sS'celltower_oid'
p3
L27481L
sS'name'
p4
S'Lincoln center'
p5
s.(dp0
S'person_oid'
p1
L74L
sS'oid'
p2
L1298L
sS'celltower_oid'
p3
L11292L
sS'name'
p4
S'Greyhound'
p5
s.(dp0
S'person_oid'
p1
L74L
sS'oid'
p2
L1299L
sS'celltower_oid'
p3
L27482L
sS'name'
p4
S'Hartford, ct'
p5
s.(dp0
S'person_oid'
p1
L74L
sS'oid'
p2
L1300L
sS'celltower_oid'
p3
L1857L
sS'name'
p4
S'Boston university'
p5
s.(dp0
S'person_oid'
p1
L74L
sS'oid'
p2
L1301L
sS'celltower_oid'
p3
L1850L
sS'name'
p4
S'Inman sq'
p5
s.(dp0
S'person_oid'
p1
L74L
sS'oid'
p2
L1302L
sS'celltower_oid'
p3
L1948L
sS'name'
p4
S'Harvard'
p5
s.(dp0
S'person_oid'
p1
L74L
sS'oid'
p2
L1303L
sS'celltower_oid'
p3
L1949L
sS'name'
p4
S'Gttjjjjjjwg4..J...A...A,.A.Aa.A.A'
p5
s.(dp0
S'person_oid'
p1
L74L
sS'oid'
p2
L1304L
sS'celltower_oid'
p3
L11436L
sS'name'
p4
S'Times square'
p5
s.(dp0
S'person_oid'
p1
L74L
sS'oid'
p2
L1305L
sS'celltower_oid'
p3
L27483L
sS'name'
p4
S'96th st, ny'
p5
s.(dp0
S'person_oid'
p1
L74L
sS'oid'
p2
L1306L
sS'celltower_oid'
p3
L26564L
sS'name'
p4
S'100th st'
p5
s.(dp0
S'person_oid'
p1
L74L
sS'oid'
p2
L1307L
sS'celltower_oid'
p3
L2265L
sS'name'
p4
S'Chinatown, ny'
p5
s.(dp0
S'person_oid'
p1
L74L
sS'oid'
p2
L1308L
sS'celltower_oid'
p3
L2108L
sS'name'
p4
S'Bus'
p5
s.(dp0
S'person_oid'
p1
L74L
sS'oid'
p2
L1309L
sS'celltower_oid'
p3
L11499L
sS'name'
p4
S'Soho'
p5
s.(dp0
S'person_oid'
p1
L74L
sS'oid'
p2
L1310L
sS'celltower_oid'
p3
L24542L
sS'name'
p4
S'Lincoln center'
p5
s.(dp0
S'person_oid'
p1
L74L
sS'oid'
p2
L1311L
sS'celltower_oid'
p3
L12111L
sS'name'
p4
S'Lincoln center'
p5
s.(dp0
S'person_oid'
p1
L74L
sS'oid'
p2
L1312L
sS'celltower_oid'
p3
L11498L
sS'name'
p4
S'Soho'
p5
s.(dp0
S'person_oid'
p1
L74L
sS'oid'
p2
L1313L
sS'celltower_oid'
p3
L27484L
sS'name'
p4
S'Princeton'
p5
s.(dp0
S'person_oid'
p1
L74L
sS'oid'
p2
L1314L
sS'celltower_oid'
p3
L10611L
sS'name'
p4
S'Starbucks'
p5
s.(dp0
S'person_oid'
p1
L74L
sS'oid'
p2
L1315L
sS'celltower_oid'
p3
L26488L
sS'name'
p4
S'Univ. Rhode island'
p5
s.(dp0
S'person_oid'
p1
L74L
sS'oid'
p2
L1316L
sS'celltower_oid'
p3
L11424L
sS'name'
p4
S'Soho'
p5
s.(dp0
S'person_oid'
p1
L74L
sS'oid'
p2
L1317L
sS'celltower_oid'
p3
L14168L
sS'name'
p4
S'W29th st'
p5
s.(dp0
S'person_oid'
p1
L74L
sS'oid'
p2
L1318L
sS'celltower_oid'
p3
L11515L
sS'name'
p4
S'20th st'
p5
s.(dp0
S'person_oid'
p1
L74L
sS'oid'
p2
L1319L
sS'celltower_oid'
p3
L2317L
sS'name'
p4
S'14th st'
p5
s.(dp0
S'person_oid'
p1
L74L
sS'oid'
p2
L1320L
sS'celltower_oid'
p3
L2058L
sS'name'
p4
S'Chinatown bus'
p5
s.(dp0
S'person_oid'
p1
L74L
sS'oid'
p2
L1321L
sS'celltower_oid'
p3
L2128L
sS'name'
p4
S'Chinatown bus'
p5
s.(dp0
S'person_oid'
p1
L74L
sS'oid'
p2
L1322L
sS'celltower_oid'
p3
L11930L
sS'name'
p4
S'110th st'
p5
s.(dp0
S'person_oid'
p1
L74L
sS'oid'
p2
L1323L
sS'celltower_oid'
p3
L2149L
sS'name'
p4
S'Chinatown bus'
p5
s.(dp0
S'person_oid'
p1
L74L
sS'oid'
p2
L1324L
sS'celltower_oid'
p3
L1848L
sS'name'
p4
S'Inman sq'
p5
s.(dp0
S'person_oid'
p1
L74L
sS'oid'
p2
L1325L
sS'celltower_oid'
p3
L1843L
sS'name'
p4
S'Inman sq'
p5
s.(dp0
S'person_oid'
p1
L74L
sS'oid'
p2
L1326L
sS'celltower_oid'
p3
L27485L
sS'name'
p4
S'27th st'
p5
s.(dp0
S'person_oid'
p1
L74L
sS'oid'
p2
L1327L
sS'celltower_oid'
p3
L2213L
sS'name'
p4
S'Chinatown bus'
p5
s.(dp0
S'person_oid'
p1
L74L
sS'oid'
p2
L1328L
sS'celltower_oid'
p3
L21707L
sS'name'
p4
S'34th st'
p5
s.(dp0
S'person_oid'
p1
L79L
sS'oid'
p2
L1329L
sS'celltower_oid'
p3
L1565L
sS'name'
p4
S'429 norfolk st/indoor'
p5
s.(dp0
S'person_oid'
p1
L79L
sS'oid'
p2
L1330L
sS'celltower_oid'
p3
L2L
sS'name'
p4
S'Hamshire &broadway'
p5
s.(dp0
S'person_oid'
p1
L79L
sS'oid'
p2
L1331L
sS'celltower_oid'
p3
L20L
sS'name'
p4
S'429 norfolk st'
p5
s.(dp0
S'person_oid'
p1
L79L
sS'oid'
p2
L1332L
sS'celltower_oid'
p3
L3L
sS'name'
p4
S'Door store/mass ave'
p5
s.(dp0
S'person_oid'
p1
L79L
sS'oid'
p2
L1333L
sS'celltower_oid'
p3
L7L
sS'name'
p4
S'Central sq'
p5
s.(dp0
S'person_oid'
p1
L79L
sS'oid'
p2
L1334L
sS'celltower_oid'
p3
L1L
sS'name'
p4
S'Tang'
p5
s.(dp0
S'person_oid'
p1
L84L
sS'oid'
p2
L1335L
sS'celltower_oid'
p3
L1844L
sS'name'
p4
S'E51'
p5
s.(dp0
S'person_oid'
p1
L84L
sS'oid'
p2
L1336L
sS'celltower_oid'
p3
L1861L
sS'name'
p4
S'Beacon hill'
p5
s.(dp0
S'person_oid'
p1
L84L
sS'oid'
p2
L1337L
sS'celltower_oid'
p3
L1928L
sS'name'
p4
S'Beacon hill'
p5
s.(dp0
S'person_oid'
p1
L84L
sS'oid'
p2
L1338L
sS'celltower_oid'
p3
L1965L
sS'name'
p4
S'Porter square'
p5
s.(dp0
S'person_oid'
p1
L84L
sS'oid'
p2
L1339L
sS'celltower_oid'
p3
L1948L
sS'name'
p4
S'Harvard square'
p5
s.(dp0
S'person_oid'
p1
L84L
sS'oid'
p2
L1340L
sS'celltower_oid'
p3
L1901L
sS'name'
p4
S'Home'
p5
s.(dp0
S'person_oid'
p1
L84L
sS'oid'
p2
L1341L
sS'celltower_oid'
p3
L1969L
sS'name'
p4
S'Davis square'
p5
s.(dp0
S'person_oid'
p1
L84L
sS'oid'
p2
L1342L
sS'celltower_oid'
p3
L1853L
sS'name'
p4
S'Central square'
p5
s.(dp0
S'person_oid'
p1
L84L
sS'oid'
p2
L1343L
sS'celltower_oid'
p3
L1850L
sS'name'
p4
S'Inman square'
p5
s.(dp0
S'person_oid'
p1
L84L
sS'oid'
p2
L1344L
sS'celltower_oid'
p3
L2689L
sS'name'
p4
S'Braintree'
p5
s.(dp0
S'person_oid'
p1
L84L
sS'oid'
p2
L1345L
sS'celltower_oid'
p3
L1846L
sS'name'
p4
S'Asgard'
p5
s.(dp0
S'person_oid'
p1
L84L
sS'oid'
p2
L1346L
sS'celltower_oid'
p3
L1997L
sS'name'
p4
S'Park t-station'
p5
s.(dp0
S'person_oid'
p1
L84L
sS'oid'
p2
L1347L
sS'celltower_oid'
p3
L27836L
sS'name'
p4
S'Colo spgs - mesa'
p5
s.(dp0
S'person_oid'
p1
L84L
sS'oid'
p2
L1348L
sS'celltower_oid'
p3
L27837L
sS'name'
p4
S'Colo spgs'
p5
s.(dp0
S'person_oid'
p1
L84L
sS'oid'
p2
L1349L
sS'celltower_oid'
p3
L27838L
sS'name'
p4
S'Billerica'
p5
s.(dp0
S'person_oid'
p1
L84L
sS'oid'
p2
L1350L
sS'celltower_oid'
p3
L1996L
sS'name'
p4
S'Downtown crossing'
p5
s.(dp0
S'person_oid'
p1
L84L
sS'oid'
p2
L1351L
sS'celltower_oid'
p3
L1954L
sS'name'
p4
S'Chinatown'
p5
s.(dp0
S'person_oid'
p1
L84L
sS'oid'
p2
L1352L
sS'celltower_oid'
p3
L1937L
sS'name'
p4
S'Boylston station'
p5
s.(dp0
S'person_oid'
p1
L84L
sS'oid'
p2
L1353L
sS'celltower_oid'
p3
L1900L
sS'name'
p4
S'Boston common'
p5
s.(dp0
S'person_oid'
p1
L84L
sS'oid'
p2
L1354L
sS'celltower_oid'
p3
L1944L
sS'name'
p4
S'Downtown xing'
p5
s.(dp0
S'person_oid'
p1
L24L
sS'oid'
p2
L1355L
sS'celltower_oid'
p3
L42L
sS'name'
p4
S'ML'
p5
s.(dp0
S'person_oid'
p1
L24L
sS'oid'
p2
L1356L
sS'celltower_oid'
p3
L41L
sS'name'
p4
S'Burton connor'
p5
s.(dp0
S'person_oid'
p1
L24L
sS'oid'
p2
L1357L
sS'celltower_oid'
p3
L5991L
sS'name'
p4
S'Burton connor'
p5
s.(dp0
S'person_oid'
p1
L24L
sS'oid'
p2
L1358L
sS'celltower_oid'
p3
L1558L
sS'name'
p4
S'Z'
p5
s.(dp0
S'person_oid'
p1
L24L
sS'oid'
p2
L1359L
sS'celltower_oid'
p3
L27931L
sS'name'
p4
S'Santa clara ca'
p5
s.(dp0
S'person_oid'
p1
L24L
sS'oid'
p2
L1360L
sS'celltower_oid'
p3
L16820L
sS'name'
p4
S'York pa'
p5
s.(dp0
S'person_oid'
p1
L24L
sS'oid'
p2
L1361L
sS'celltower_oid'
p3
L24230L
sS'name'
p4
S'Sedona arizona'
p5
s.(dp0
S'person_oid'
p1
L24L
sS'oid'
p2
L1362L
sS'celltower_oid'
p3
L15306L
sS'name'
p4
S'York PA'
p5
s.(dp0
S'person_oid'
p1
L24L
sS'oid'
p2
L1363L
sS'celltower_oid'
p3
L16479L
sS'name'
p4
S'York PA'
p5
s.(dp0
S'person_oid'
p1
L24L
sS'oid'
p2
L1364L
sS'celltower_oid'
p3
L18161L
sS'name'
p4
S'Harrisburg pa'
p5
s.(dp0
S'person_oid'
p1
L24L
sS'oid'
p2
L1365L
sS'celltower_oid'
p3
L27932L
sS'name'
p4
S'York PA'
p5
s.(dp0
S'person_oid'
p1
L24L
sS'oid'
p2
L1366L
sS'celltower_oid'
p3
L15308L
sS'name'
p4
S'York PA'
p5
s.(dp0
S'person_oid'
p1
L24L
sS'oid'
p2
L1367L
sS'celltower_oid'
p3
L27431L
sS'name'
p4
S'Harrisburg PA'
p5
s.(dp0
S'person_oid'
p1
L24L
sS'oid'
p2
L1368L
sS'celltower_oid'
p3
L27933L
sS'name'
p4
S'PSu'
p5
s.(dp0
S'person_oid'
p1
L24L
sS'oid'
p2
L1369L
sS'celltower_oid'
p3
L27934L
sS'name'
p4
S'PSU'
p5
s.(dp0
S'person_oid'
p1
L24L
sS'oid'
p2
L1370L
sS'celltower_oid'
p3
L22683L
sS'name'
p4
S'PSU Airport'
p5
s.(dp0
S'person_oid'
p1
L61L
sS'oid'
p2
L1371L
sS'celltower_oid'
p3
L1552L
sS'name'
p4
S'ML'
p5
s.(dp0
S'person_oid'
p1
L61L
sS'oid'
p2
L1372L
sS'celltower_oid'
p3
L42L
sS'name'
p4
S'ML'
p5
s.(dp0
S'person_oid'
p1
L61L
sS'oid'
p2
L1373L
sS'celltower_oid'
p3
L41L
sS'name'
p4
S'East campus'
p5
s.(dp0
S'person_oid'
p1
L61L
sS'oid'
p2
L1374L
sS'celltower_oid'
p3
L40L
sS'name'
p4
S'East campus'
p5
s.(dp0
S'person_oid'
p1
L61L
sS'oid'
p2
L1375L
sS'celltower_oid'
p3
L6007L
sS'name'
p4
S'East campus'
p5
s.(dp0
S'person_oid'
p1
L61L
sS'oid'
p2
L1376L
sS'celltower_oid'
p3
L28451L
sS'name'
p4
S'Sudbury'
p5
s.(dp0
S'person_oid'
p1
L61L
sS'oid'
p2
L1377L
sS'celltower_oid'
p3
L6005L
sS'name'
p4
S'Ec'
p5
s.(dp0
S'person_oid'
p1
L59L
sS'oid'
p2
L1378L
sS'celltower_oid'
p3
L42L
sS'name'
p4
S'Lll'
p5
s.(dp0
S'person_oid'
p1
L59L
sS'oid'
p2
L1379L
sS'celltower_oid'
p3
L41L
sS'name'
p4
S'Media lab'
p5
s.(dp0
S'person_oid'
p1
L72L
sS'oid'
p2
L1380L
sS'celltower_oid'
p3
L2446L
sS'name'
p4
S'E53-Dewey Library'
p5
s.(dp0
S'person_oid'
p1
L72L
sS'oid'
p2
L1381L
sS'celltower_oid'
p3
L1844L
sS'name'
p4
S'E53'
p5
s.(dp0
S'person_oid'
p1
L72L
sS'oid'
p2
L1382L
sS'celltower_oid'
p3
L1842L
sS'name'
p4
S'E53'
p5
s.(dp0
S'person_oid'
p1
L72L
sS'oid'
p2
L1383L
sS'celltower_oid'
p3
L1858L
sS'name'
p4
S'E51'
p5
s.(dp0
S'person_oid'
p1
L72L
sS'oid'
p2
L1384L
sS'celltower_oid'
p3
L1852L
sS'name'
p4
S'S&P'
p5
s.(dp0
S'person_oid'
p1
L72L
sS'oid'
p2
L1385L
sS'celltower_oid'
p3
L1846L
sS'name'
p4
S'Franklin & Brooklin'
p5
s.(dp0
S'person_oid'
p1
L72L
sS'oid'
p2
L1386L
sS'celltower_oid'
p3
L2012L
sS'name'
p4
S'I-90'
p5
s.(dp0
S'person_oid'
p1
L72L
sS'oid'
p2
L1387L
sS'celltower_oid'
p3
L28506L
sS'name'
p4
S'15 park row, NYC'
p5
s.(dp0
S'person_oid'
p1
L72L
sS'oid'
p2
L1388L
sS'celltower_oid'
p3
L28507L
sS'name'
p4
S'32nd st & 5th ave, NYC'
p5
s.(dp0
S'person_oid'
p1
L72L
sS'oid'
p2
L1389L
sS'celltower_oid'
p3
L2315L
sS'name'
p4
S'15 paqk row, NYC'
p5
s.(dp0
S'person_oid'
p1
L72L
sS'oid'
p2
L1390L
sS'celltower_oid'
p3
L26128L
sS'name'
p4
S'15 park row, NYC'
p5
s.(dp0
S'person_oid'
p1
L72L
sS'oid'
p2
L1391L
sS'celltower_oid'
p3
L1845L
sS'name'
p4
S'129 franklin'
p5
s.(dp0
S'person_oid'
p1
L72L
sS'oid'
p2
L1392L
sS'celltower_oid'
p3
L1861L
sS'name'
p4
S'Mass ave & beacon'
p5
s.(dp0
S'person_oid'
p1
L72L
sS'oid'
p2
L1393L
sS'celltower_oid'
p3
L1893L
sS'name'
p4
S'S&P'
p5
s.(dp0
S'person_oid'
p1
L72L
sS'oid'
p2
L1394L
sS'celltower_oid'
p3
L1853L
sS'name'
p4
S'S&P'
p5
s.(dp0
S'person_oid'
p1
L72L
sS'oid'
p2
L1395L
sS'celltower_oid'
p3
L1901L
sS'name'
p4
S'Harvard Sq'
p5
s.(dp0
S'person_oid'
p1
L72L
sS'oid'
p2
L1396L
sS'celltower_oid'
p3
L28508L
sS'name'
p4
S'Kellogg evanston IL'
p5
s.(dp0
S'person_oid'
p1
L72L
sS'oid'
p2
L1397L
sS'celltower_oid'
p3
L28509L
sS'name'
p4
S'Washington & Golf, evanston IL'
p5
s.(dp0
S'person_oid'
p1
L72L
sS'oid'
p2
L1398L
sS'celltower_oid'
p3
L21912L
sS'name'
p4
S'Kellogg evanston IL'
p5
s.(dp0
S'person_oid'
p1
L72L
sS'oid'
p2
L1399L
sS'celltower_oid'
p3
L28510L
sS'name'
p4
S'15 park row, NYC'
p5
s.(dp0
S'person_oid'
p1
L72L
sS'oid'
p2
L1400L
sS'celltower_oid'
p3
L2325L
sS'name'
p4
S'Canal & bowery, nyc'
p5
s.(dp0
S'person_oid'
p1
L72L
sS'oid'
p2
L1401L
sS'celltower_oid'
p3
L28511L
sS'name'
p4
S'Sf'
p5
s.(dp0
S'person_oid'
p1
L72L
sS'oid'
p2
L1402L
sS'celltower_oid'
p3
L1918L
sS'name'
p4
S'E52'
p5
s.(dp0
S'person_oid'
p1
L72L
sS'oid'
p2
L1403L
sS'celltower_oid'
p3
L23060L
sS'name'
p4
S'A'
p5
s.(dp0
S'person_oid'
p1
L72L
sS'oid'
p2
L1404L
sS'celltower_oid'
p3
L10747L
sS'name'
p4
S'A'
p5
s.(dp0
S'person_oid'
p1
L72L
sS'oid'
p2
L1405L
sS'celltower_oid'
p3
L6309L
sS'name'
p4
S'Sf'
p5
s.(dp0
S'person_oid'
p1
L72L
sS'oid'
p2
L1406L
sS'celltower_oid'
p3
L28512L
sS'name'
p4
S'Sf'
p5
s.(dp0
S'person_oid'
p1
L72L
sS'oid'
p2
L1407L
sS'celltower_oid'
p3
L28513L
sS'name'
p4
S'Sf'
p5
s.(dp0
S'person_oid'
p1
L72L
sS'oid'
p2
L1408L
sS'celltower_oid'
p3
L28514L
sS'name'
p4
S'Sf'
p5
s.(dp0
S'person_oid'
p1
L72L
sS'oid'
p2
L1409L
sS'celltower_oid'
p3
L2123L
sS'name'
p4
S' a'
p5
s.(dp0
S'person_oid'
p1
L72L
sS'oid'
p2
L1410L
sS'celltower_oid'
p3
L12143L
sS'name'
p4
S'A'
p5
s.(dp0
S'person_oid'
p1
L72L
sS'oid'
p2
L1411L
sS'celltower_oid'
p3
L7L
sS'name'
p4
S'E51'
p5
s.(dp0
S'person_oid'
p1
L72L
sS'oid'
p2
L1412L
sS'celltower_oid'
p3
L1L
sS'name'
p4
S'Black sheep restaurant'
p5
s.(dp0
S'person_oid'
p1
L72L
sS'oid'
p2
L1413L
sS'celltower_oid'
p3
L4L
sS'name'
p4
S'River & memorial'
p5
s.(dp0
S'person_oid'
p1
L72L
sS'oid'
p2
L1414L
sS'celltower_oid'
p3
L3L
sS'name'
p4
S'River & memorial'
p5
s.(dp0
S'person_oid'
p1
L72L
sS'oid'
p2
L1415L
sS'celltower_oid'
p3
L46L
sS'name'
p4
S'E51'
p5
s.(dp0
S'person_oid'
p1
L76L
sS'oid'
p2
L1416L
sS'celltower_oid'
p3
L1L
sS'name'
p4
S'ML'
p5
s.(dp0
S'person_oid'
p1
L76L
sS'oid'
p2
L1417L
sS'celltower_oid'
p3
L71L
sS'name'
p4
S'Home'
p5
s.(dp0
S'person_oid'
p1
L76L
sS'oid'
p2
L1418L
sS'celltower_oid'
p3
L46L
sS'name'
p4
S'Mgh'
p5
s.(dp0
S'person_oid'
p1
L76L
sS'oid'
p2
L1419L
sS'celltower_oid'
p3
L22159L
sS'name'
p4
S'Ihop'
p5
s.(dp0
S'person_oid'
p1
L82L
sS'oid'
p2
L1420L
sS'celltower_oid'
p3
L3392L
sS'name'
p4
S'ML'
p5
s.(dp0
S'person_oid'
p1
L45L
sS'oid'
p2
L1421L
sS'celltower_oid'
p3
L2L
sS'name'
p4
S'Starbucks'
p5
s.(dp0
S'person_oid'
p1
L45L
sS'oid'
p2
L1422L
sS'celltower_oid'
p3
L35L
sS'name'
p4
S'Dorm'
p5
s.(dp0
S'person_oid'
p1
L45L
sS'oid'
p2
L1423L
sS'celltower_oid'
p3
L184L
sS'name'
p4
S'Doorm'
p5
s.(dp0
S'person_oid'
p1
L45L
sS'oid'
p2
L1424L
sS'celltower_oid'
p3
L16935L
sS'name'
p4
S'Yale'
p5
s.(dp0
S'person_oid'
p1
L45L
sS'oid'
p2
L1425L
sS'celltower_oid'
p3
L522L
sS'name'
p4
S'Yale'
p5
s.(dp0
S'person_oid'
p1
L45L
sS'oid'
p2
L1426L
sS'celltower_oid'
p3
L28944L
sS'name'
p4
S'Yale'
p5
s.(dp0
S'person_oid'
p1
L45L
sS'oid'
p2
L1427L
sS'celltower_oid'
p3
L28945L
sS'name'
p4
S'K'
p5
s.(dp0
S'person_oid'
p1
L45L
sS'oid'
p2
L1428L
sS'celltower_oid'
p3
L9684L
sS'name'
p4
S'Pa'
p5
s.(dp0
S'person_oid'
p1
L45L
sS'oid'
p2
L1429L
sS'celltower_oid'
p3
L28946L
sS'name'
p4
S'Dgd'
p5
s.(dp0
S'person_oid'
p1
L45L
sS'oid'
p2
L1430L
sS'celltower_oid'
p3
L2616L
sS'name'
p4
S'Dk'
p5
s.(dp0
S'person_oid'
p1
L45L
sS'oid'
p2
L1431L
sS'celltower_oid'
p3
L65L
sS'name'
p4
S'Home'
p5
s.(dp0
S'person_oid'
p1
L45L
sS'oid'
p2
L1432L
sS'celltower_oid'
p3
L46L
sS'name'
p4
S'Tang'
p5
s.(dp0
S'person_oid'
p1
L45L
sS'oid'
p2
L1433L
sS'celltower_oid'
p3
L44L
sS'name'
p4
S'Oleana'
p5
s.(dp0
S'person_oid'
p1
L45L
sS'oid'
p2
L1434L
sS'celltower_oid'
p3
L192L
sS'name'
p4
S'Dorm'
p5
s.(dp0
S'person_oid'
p1
L45L
sS'oid'
p2
L1435L
sS'celltower_oid'
p3
L405L
sS'name'
p4
S'Dorm'
p5
s.(dp0
S'person_oid'
p1
L45L
sS'oid'
p2
L1436L
sS'celltower_oid'
p3
L63L
sS'name'
p4
S'gas'
p5
s.(dp0
S'person_oid'
p1
L45L
sS'oid'
p2
L1437L
sS'celltower_oid'
p3
L28947L
sS'name'
p4
S'Pepperell'
p5
s.(dp0
S'person_oid'
p1
L45L
sS'oid'
p2
L1438L
sS'celltower_oid'
p3
L49L
sS'name'
p4
S'Sevens'
p5
s.(dp0
S'person_oid'
p1
L45L
sS'oid'
p2
L1439L
sS'celltower_oid'
p3
L10146L
sS'name'
p4
S'Fox'
p5
s.(dp0
S'person_oid'
p1
L45L
sS'oid'
p2
L1440L
sS'celltower_oid'
p3
L61L
sS'name'
p4
S'Dorm'
p5
s.(dp0
S'person_oid'
p1
L45L
sS'oid'
p2
L1441L
sS'celltower_oid'
p3
L301L
sS'name'
p4
S'Rumors'
p5
s.(dp0
S'person_oid'
p1
L45L
sS'oid'
p2
L1442L
sS'celltower_oid'
p3
L5L
sS'name'
p4
S'Charles'
p5
s.(dp0
S'person_oid'
p1
L45L
sS'oid'
p2
L1443L
sS'celltower_oid'
p3
L191L
sS'name'
p4
S'Pool'
p5
s.(dp0
S'person_oid'
p1
L50L
sS'oid'
p2
L1444L
sS'celltower_oid'
p3
L1856L
sS'name'
p4
S'S&P'
p5
s.(dp0
S'person_oid'
p1
L50L
sS'oid'
p2
L1445L
sS'celltower_oid'
p3
L1852L
sS'name'
p4
S'S&P'
p5
s.(dp0
S'person_oid'
p1
L50L
sS'oid'
p2
L1446L
sS'celltower_oid'
p3
L1842L
sS'name'
p4
S'S&P'
p5
s.(dp0
S'person_oid'
p1
L50L
sS'oid'
p2
L1447L
sS'celltower_oid'
p3
L1948L
sS'name'
p4
S'Harvard Sq'
p5
s.(dp0
S'person_oid'
p1
L50L
sS'oid'
p2
L1448L
sS'celltower_oid'
p3
L1893L
sS'name'
p4
S'S&P'
p5
s.(dp0
S'person_oid'
p1
L50L
sS'oid'
p2
L1449L
sS'celltower_oid'
p3
L1880L
sS'name'
p4
S'FleetCenter'
p5
s.(dp0
S'person_oid'
p1
L50L
sS'oid'
p2
L1450L
sS'celltower_oid'
p3
L1918L
sS'name'
p4
S'MIT Sloan'
p5
s.(dp0
S'person_oid'
p1
L11L
sS'oid'
p2
L1451L
sS'celltower_oid'
p3
L1552L
sS'name'
p4
S'1cc'
p5
s.(dp0
S'person_oid'
p1
L11L
sS'oid'
p2
L1452L
sS'celltower_oid'
p3
L1551L
sS'name'
p4
S'1cc bathroom'
p5
s.(dp0
S'person_oid'
p1
L11L
sS'oid'
p2
L1453L
sS'celltower_oid'
p3
L42L
sS'name'
p4
S'Taco bell'
p5
s.(dp0
S'person_oid'
p1
L11L
sS'oid'
p2
L1454L
sS'celltower_oid'
p3
L1555L
sS'name'
p4
S'Taco bell'
p5
s.(dp0
S'person_oid'
p1
L11L
sS'oid'
p2
L1455L
sS'celltower_oid'
p3
L5993L
sS'name'
p4
S'Home'
p5
s.(dp0
S'person_oid'
p1
L11L
sS'oid'
p2
L1456L
sS'celltower_oid'
p3
L5991L
sS'name'
p4
S'Student center mit'
p5
s.(dp0
S'person_oid'
p1
L11L
sS'oid'
p2
L1457L
sS'celltower_oid'
p3
L41L
sS'name'
p4
S'Mit 2-163'
p5
s.(dp0
S'person_oid'
p1
L11L
sS'oid'
p2
L1458L
sS'celltower_oid'
p3
L1558L
sS'name'
p4
S'1cc'
p5
s.(dp0
S'person_oid'
p1
L11L
sS'oid'
p2
L1459L
sS'celltower_oid'
p3
L1557L
sS'name'
p4
S'220 putnam ave'
p5
s.(dp0
S'person_oid'
p1
L11L
sS'oid'
p2
L1460L
sS'celltower_oid'
p3
L1556L
sS'name'
p4
S'220 putnam ave'
p5
s.(dp0
S'person_oid'
p1
L77L
sS'oid'
p2
L1461L
sS'celltower_oid'
p3
L8957L
sS'name'
p4
S'Home'
p5
s.(dp0
S'person_oid'
p1
L77L
sS'oid'
p2
L1462L
sS'celltower_oid'
p3
L1552L
sS'name'
p4
S'E25'
p5
s.(dp0
S'person_oid'
p1
L77L
sS'oid'
p2
L1463L
sS'celltower_oid'
p3
L42L
sS'name'
p4
S'Media lab'
p5
s.(dp0
S'person_oid'
p1
L77L
sS'oid'
p2
L1464L
sS'celltower_oid'
p3
L29773L
sS'name'
p4
S'E52'
p5
s.(dp0
S'person_oid'
p1
L77L
sS'oid'
p2
L1465L
sS'celltower_oid'
p3
L1556L
sS'name'
p4
S'Wargel'
p5
s.(dp0
S'person_oid'
p1
L77L
sS'oid'
p2
L1466L
sS'celltower_oid'
p3
L1557L
sS'name'
p4
S'Wargel'
p5
s.(dp0
S'person_oid'
p1
L77L
sS'oid'
p2
L1467L
sS'celltower_oid'
p3
L6011L
sS'name'
p4
S'Brookline'
p5
s.(dp0
S'person_oid'
p1
L86L
sS'oid'
p2
L1468L
sS'celltower_oid'
p3
L1933L
sS'name'
p4
S'Da'
p5
s.(dp0
S'person_oid'
p1
L86L
sS'oid'
p2
L1469L
sS'celltower_oid'
p3
L1842L
sS'name'
p4
S'L'
p5
s.(dp0
S'person_oid'
p1
L86L
sS'oid'
p2
L1470L
sS'celltower_oid'
p3
L1864L
sS'name'
p4
S'L5'
p5
s.(dp0
S'person_oid'
p1
L86L
sS'oid'
p2
L1471L
sS'celltower_oid'
p3
L1852L
sS'name'
p4
S'K'
p5
s.(dp0
S'person_oid'
p1
L86L
sS'oid'
p2
L1472L
sS'celltower_oid'
p3
L1844L
sS'name'
p4
S'Office'
p5
s.(dp0
S'person_oid'
p1
L86L
sS'oid'
p2
L1473L
sS'celltower_oid'
p3
L1851L
sS'name'
p4
S'5'
p5
s.(dp0
S'person_oid'
p1
L86L
sS'oid'
p2
L1474L
sS'celltower_oid'
p3
L2679L
sS'name'
p4
S'L'
p5
s.(dp0
S'person_oid'
p1
L86L
sS'oid'
p2
L1475L
sS'celltower_oid'
p3
L1862L
sS'name'
p4
S'Mgh'
p5
s.(dp0
S'person_oid'
p1
L86L
sS'oid'
p2
L1476L
sS'celltower_oid'
p3
L1916L
sS'name'
p4
S'Dorkville'
p5
s.(dp0
S'person_oid'
p1
L86L
sS'oid'
p2
L1477L
sS'celltower_oid'
p3
L1915L
sS'name'
p4
S'Dooky'
p5
s.(dp0
S'person_oid'
p1
L86L
sS'oid'
p2
L1478L
sS'celltower_oid'
p3
L1876L
sS'name'
p4
S'Airport'
p5
s.(dp0
S'person_oid'
p1
L86L
sS'oid'
p2
L1479L
sS'celltower_oid'
p3
L1880L
sS'name'
p4
S'Car'
p5
s.(dp0
S'person_oid'
p1
L86L
sS'oid'
p2
L1480L
sS'celltower_oid'
p3
L1882L
sS'name'
p4
S'Infinite'
p5
s.(dp0
S'person_oid'
p1
L86L
sS'oid'
p2
L1481L
sS'celltower_oid'
p3
L1847L
sS'name'
p4
S'Cbc'
p5
s.(dp0
S'person_oid'
p1
L86L
sS'oid'
p2
L1482L
sS'celltower_oid'
p3
L1861L
sS'name'
p4
S'Muddy'
p5
s.(dp0
S'person_oid'
p1
L86L
sS'oid'
p2
L1483L
sS'celltower_oid'
p3
L1874L
sS'name'
p4
S'Airport'
p5
s.(dp0
S'person_oid'
p1
L86L
sS'oid'
p2
L1484L
sS'celltower_oid'
p3
L1865L
sS'name'
p4
S'93'
p5
s.(dp0
S'person_oid'
p1
L86L
sS'oid'
p2
L1485L
sS'celltower_oid'
p3
L1927L
sS'name'
p4
S'Mgh'
p5
s.(dp0
S'person_oid'
p1
L47L
sS'oid'
p2
L1486L
sS'celltower_oid'
p3
L3393L
sS'name'
p4
S'ML'
p5
s.(dp0
S'person_oid'
p1
L47L
sS'oid'
p2
L1487L
sS'celltower_oid'
p3
L3925L
sS'name'
p4
S'Star'
p5
s.(dp0
S'person_oid'
p1
L47L
sS'oid'
p2
L1488L
sS'celltower_oid'
p3
L3392L
sS'name'
p4
S'E15'
p5
s.(dp0
S'person_oid'
p1
L47L
sS'oid'
p2
L1489L
sS'celltower_oid'
p3
L3451L
sS'name'
p4
S'1-130'
p5
s.(dp0
S'person_oid'
p1
L47L
sS'oid'
p2
L1490L
sS'celltower_oid'
p3
L3928L
sS'name'
p4
S'Nw30'
p5
s.(dp0
S'person_oid'
p1
L47L
sS'oid'
p2
L1491L
sS'celltower_oid'
p3
L3396L
sS'name'
p4
S'Hardard'
p5
s.(dp0
S'person_oid'
p1
L47L
sS'oid'
p2
L1492L
sS'celltower_oid'
p3
L3394L
sS'name'
p4
S'E15'
p5
s.(dp0
S'person_oid'
p1
L47L
sS'oid'
p2
L1493L
sS'celltower_oid'
p3
L3428L
sS'name'
p4
S'Nw30'
p5
s.(dp0
S'person_oid'
p1
L47L
sS'oid'
p2
L1494L
sS'celltower_oid'
p3
L3457L
sS'name'
p4
S'E.K'
p5
s.(dp0
S'person_oid'
p1
L47L
sS'oid'
p2
L1495L
sS'celltower_oid'
p3
L3469L
sS'name'
p4
S'Logan'
p5
s.(dp0
S'person_oid'
p1
L47L
sS'oid'
p2
L1496L
sS'celltower_oid'
p3
L3933L
sS'name'
p4
S'Central'
p5
s.(dp0
S'person_oid'
p1
L47L
sS'oid'
p2
L1497L
sS'celltower_oid'
p3
L4009L
sS'name'
p4
S'Harvard'
p5
s.(dp0
S'person_oid'
p1
L47L
sS'oid'
p2
L1498L
sS'celltower_oid'
p3
L3433L
sS'name'
p4
S'Commons'
p5
s.(dp0
S'person_oid'
p1
L54L
sS'oid'
p2
L1499L
sS'celltower_oid'
p3
L1L
sS'name'
p4
S'ML'
p5
s.(dp0
S'person_oid'
p1
L54L
sS'oid'
p2
L1500L
sS'celltower_oid'
p3
L2L
sS'name'
p4
S'ML'
p5
s.(dp0
S'person_oid'
p1
L54L
sS'oid'
p2
L1501L
sS'celltower_oid'
p3
L70L
sS'name'
p4
S'ML'
p5
s.(dp0
S'person_oid'
p1
L54L
sS'oid'
p2
L1502L
sS'celltower_oid'
p3
L95L
sS'name'
p4
S'ML'
p5
s.(dp0
S'person_oid'
p1
L54L
sS'oid'
p2
L1503L
sS'celltower_oid'
p3
L398L
sS'name'
p4
S'ML'
p5
s.(dp0
S'person_oid'
p1
L54L
sS'oid'
p2
L1504L
sS'celltower_oid'
p3
L76L
sS'name'
p4
S'ML'
p5
s.(dp0
S'person_oid'
p1
L54L
sS'oid'
p2
L1505L
sS'celltower_oid'
p3
L28L
sS'name'
p4
S'Home'
p5
s.(dp0
S'person_oid'
p1
L54L
sS'oid'
p2
L1506L
sS'celltower_oid'
p3
L77L
sS'name'
p4
S'Porter sq'
p5
s.(dp0
S'person_oid'
p1
L54L
sS'oid'
p2
L1507L
sS'celltower_oid'
p3
L44L
sS'name'
p4
S'Ariane'
p5
s.(dp0
S'person_oid'
p1
L54L
sS'oid'
p2
L1508L
sS'celltower_oid'
p3
L7L
sS'name'
p4
S'Ariane'
p5
s.(dp0
S'person_oid'
p1
L54L
sS'oid'
p2
L1509L
sS'celltower_oid'
p3
L71L
sS'name'
p4
S'Ryles'
p5
s.(dp0
S'person_oid'
p1
L46L
sS'oid'
p2
L1510L
sS'celltower_oid'
p3
L1844L
sS'name'
p4
S'ML'
p5
s.(dp0
S'person_oid'
p1
L46L
sS'oid'
p2
L1511L
sS'celltower_oid'
p3
L1842L
sS'name'
p4
S'ML'
p5
s.(dp0
S'person_oid'
p1
L46L
sS'oid'
p2
L1512L
sS'celltower_oid'
p3
L42L
sS'name'
p4
S'Tang'
p5
s.(dp0
S'person_oid'
p1
L46L
sS'oid'
p2
L1513L
sS'celltower_oid'
p3
L40L
sS'name'
p4
S'Tang'
p5
s.(dp0
S'person_oid'
p1
L46L
sS'oid'
p2
L1514L
sS'celltower_oid'
p3
L1558L
sS'name'
p4
S'Home'
p5
s.(dp0
S'person_oid'
p1
L46L
sS'oid'
p2
L1515L
sS'celltower_oid'
p3
L1556L
sS'name'
p4
S'Home'
p5
s.(dp0
S'person_oid'
p1
L46L
sS'oid'
p2
L1516L
sS'celltower_oid'
p3
L1552L
sS'name'
p4
S'Tang'
p5
s.(dp0
S'person_oid'
p1
L46L
sS'oid'
p2
L1517L
sS'celltower_oid'
p3
L1553L
sS'name'
p4
S"Veronica's"
p5
s.(dp0
S'person_oid'
p1
L37L
sS'oid'
p2
L1518L
sS'celltower_oid'
p3
L5L
sS'name'
p4
S'Brattle theater'
p5
s.(dp0
S'person_oid'
p1
L37L
sS'oid'
p2
L1519L
sS'celltower_oid'
p3
L20L
sS'name'
p4
S'155 webster ave'
p5
s.(dp0
S'person_oid'
p1
L37L
sS'oid'
p2
L1520L
sS'celltower_oid'
p3
L44L
sS'name'
p4
S'29 tremont'
p5
s.(dp0
S'person_oid'
p1
L37L
sS'oid'
p2
L1521L
sS'celltower_oid'
p3
L1L
sS'name'
p4
S'Media lab'
p5
s.(dp0
S'person_oid'
p1
L37L
sS'oid'
p2
L1522L
sS'celltower_oid'
p3
L7L
sS'name'
p4
S'B-side lounge'
p5
s.(dp0
S'person_oid'
p1
L37L
sS'oid'
p2
L1523L
sS'celltower_oid'
p3
L82L
sS'name'
p4
S'Whole foods'
p5
s.(dp0
S'person_oid'
p1
L37L
sS'oid'
p2
L1524L
sS'celltower_oid'
p3
L2445L
sS'name'
p4
S'Martha'
p5
s.(dp0
S'person_oid'
p1
L37L
sS'oid'
p2
L1525L
sS'celltower_oid'
p3
L72L
sS'name'
p4
S'29 tremont st'
p5
s.(dp0
S'person_oid'
p1
L37L
sS'oid'
p2
L1526L
sS'celltower_oid'
p3
L66L
sS'name'
p4
S'Main st'
p5
s.(dp0
S'person_oid'
p1
L37L
sS'oid'
p2
L1527L
sS'celltower_oid'
p3
L408L
sS'name'
p4
S'Newton'
p5
s.(dp0
S'person_oid'
p1
L37L
sS'oid'
p2
L1528L
sS'celltower_oid'
p3
L76L
sS'name'
p4
S'Porter square'
p5
s.(dp0
S'person_oid'
p1
L37L
sS'oid'
p2
L1529L
sS'celltower_oid'
p3
L75L
sS'name'
p4
S'Harvard divinity'
p5
s.(dp0
S'person_oid'
p1
L37L
sS'oid'
p2
L1530L
sS'celltower_oid'
p3
L80L
sS'name'
p4
S'Harvard divinity'
p5
s.(dp0
S'person_oid'
p1
L37L
sS'oid'
p2
L1531L
sS'celltower_oid'
p3
L74L
sS'name'
p4
S'Kirkland'
p5
s.(dp0
S'person_oid'
p1
L37L
sS'oid'
p2
L1532L
sS'celltower_oid'
p3
L71L
sS'name'
p4
S'Medialab'
p5
s.(dp0
S'person_oid'
p1
L37L
sS'oid'
p2
L1533L
sS'celltower_oid'
p3
L73L
sS'name'
p4
S'Toscanini'
p5
s.(dp0
S'person_oid'
p1
L37L
sS'oid'
p2
L1534L
sS'celltower_oid'
p3
L2L
sS'name'
p4
S'Media lab'
p5
s.(dp0
S'person_oid'
p1
L37L
sS'oid'
p2
L1535L
sS'celltower_oid'
p3
L61L
sS'name'
p4
S'Mit 10'
p5
s.(dp0
S'person_oid'
p1
L37L
sS'oid'
p2
L1536L
sS'celltower_oid'
p3
L35L
sS'name'
p4
S'Mit 7'
p5
s.(dp0
S'person_oid'
p1
L37L
sS'oid'
p2
L1537L
sS'celltower_oid'
p3
L154L
sS'name'
p4
S"Oona's"
p5
s.(dp0
S'person_oid'
p1
L37L
sS'oid'
p2
L1538L
sS'celltower_oid'
p3
L280L
sS'name'
p4
S'Brookline house'
p5
s.(dp0
S'person_oid'
p1
L37L
sS'oid'
p2
L1539L
sS'celltower_oid'
p3
L3L
sS'name'
p4
S' Erie and brookline st'
p5
s.(dp0
S'person_oid'
p1
L37L
sS'oid'
p2
L1540L
sS'celltower_oid'
p3
L4L
sS'name'
p4
S'Harvard design and architecture'
p5
s.(dp0
S'person_oid'
p1
L37L
sS'oid'
p2
L1541L
sS'celltower_oid'
p3
L83L
sS'name'
p4
S'1cc'
p5
s.(dp0
S'person_oid'
p1
L37L
sS'oid'
p2
L1542L
sS'celltower_oid'
p3
L31L
sS'name'
p4
S'Break'
p5
s.(dp0
S'person_oid'
p1
L37L
sS'oid'
p2
L1543L
sS'celltower_oid'
p3
L77L
sS'name'
p4
S'Porter'
p5
s.(dp0
S'person_oid'
p1
L37L
sS'oid'
p2
L1544L
sS'celltower_oid'
p3
L34L
sS'name'
p4
S'Someday cafe'
p5
s.(dp0
S'person_oid'
p1
L37L
sS'oid'
p2
L1545L
sS'celltower_oid'
p3
L78L
sS'name'
p4
S"Christopher's"
p5
s.(dp0
S'person_oid'
p1
L37L
sS'oid'
p2
L1546L
sS'celltower_oid'
p3
L2446L
sS'name'
p4
S'Brainscan'
p5
s.(dp0
S'person_oid'
p1
L37L
sS'oid'
p2
L1547L
sS'celltower_oid'
p3
L2447L
sS'name'
p4
S'Bryan'
p5
s.(dp0
S'person_oid'
p1
L37L
sS'oid'
p2
L1548L
sS'celltower_oid'
p3
L2448L
sS'name'
p4
S'This is a commonmost blah'
p5
s.(dp0
S'person_oid'
p1
L37L
sS'oid'
p2
L1549L
sS'celltower_oid'
p3
L2449L
sS'name'
p4
S'Wareham'
p5
s.(dp0
S'person_oid'
p1
L37L
sS'oid'
p2
L1550L
sS'celltower_oid'
p3
L395L
sS'name'
p4
S'Media lab'
p5
s.(dp0
S'person_oid'
p1
L37L
sS'oid'
p2
L1551L
sS'celltower_oid'
p3
L176L
sS'name'
p4
S'Porter T Stop'
p5
s.(dp0
S'person_oid'
p1
L37L
sS'oid'
p2
L1552L
sS'celltower_oid'
p3
L81L
sS'name'
p4
S'Monkey'
p5
s.(dp0
S'person_oid'
p1
L37L
sS'oid'
p2
L1553L
sS'celltower_oid'
p3
L1842L
sS'name'
p4
S'Lab'
p5
s.(dp0
S'person_oid'
p1
L37L
sS'oid'
p2
L1554L
sS'celltower_oid'
p3
L1844L
sS'name'
p4
S'Lab'
p5
s.(dp0
S'person_oid'
p1
L37L
sS'oid'
p2
L1555L
sS'celltower_oid'
p3
L1902L
sS'name'
p4
S'Home'
p5
s.(dp0
S'person_oid'
p1
L37L
sS'oid'
p2
L1556L
sS'celltower_oid'
p3
L1850L
sS'name'
p4
S'Home'
p5
s.(dp0
S'person_oid'
p1
L37L
sS'oid'
p2
L1557L
sS'celltower_oid'
p3
L1948L
sS'name'
p4
S'Harvard sq'
p5
s.(dp0
S'person_oid'
p1
L37L
sS'oid'
p2
L1558L
sS'celltower_oid'
p3
L1852L
sS'name'
p4
S'Central sq'
p5
s.(dp0
S'person_oid'
p1
L37L
sS'oid'
p2
L1559L
sS'celltower_oid'
p3
L1851L
sS'name'
p4
S"Friend's apartment"
p5
s.(dp0
S'person_oid'
p1
L37L
sS'oid'
p2
L1560L
sS'celltower_oid'
p3
L1860L
sS'name'
p4
S'Fenway park'
p5
s.(dp0
S'person_oid'
p1
L37L
sS'oid'
p2
L1561L
sS'celltower_oid'
p3
L1997L
sS'name'
p4
S'Park st'
p5
s.(dp0
S'person_oid'
p1
L37L
sS'oid'
p2
L1562L
sS'celltower_oid'
p3
L1879L
sS'name'
p4
S'North end'
p5
s.(dp0
S'person_oid'
p1
L37L
sS'oid'
p2
L1563L
sS'celltower_oid'
p3
L1973L
sS'name'
p4
S'Wjh'
p5
s.(dp0
S'person_oid'
p1
L37L
sS'oid'
p2
L1564L
sS'celltower_oid'
p3
L1849L
sS'name'
p4
S'WJH'
p5
s.(dp0
S'person_oid'
p1
L37L
sS'oid'
p2
L1565L
sS'celltower_oid'
p3
L1963L
sS'name'
p4
S'Kickland'
p5
s.(dp0
S'person_oid'
p1
L56L
sS'oid'
p2
L1566L
sS'celltower_oid'
p3
L3393L
sS'name'
p4
S'Sloan'
p5
s.(dp0
S'person_oid'
p1
L56L
sS'oid'
p2
L1567L
sS'celltower_oid'
p3
L3392L
sS'name'
p4
S'Sloan'
p5
s.(dp0
S'person_oid'
p1
L56L
sS'oid'
p2
L1568L
sS'celltower_oid'
p3
L3450L
sS'name'
p4
S'Home'
p5
s.(dp0
S'person_oid'
p1
L56L
sS'oid'
p2
L1569L
sS'celltower_oid'
p3
L4008L
sS'name'
p4
S'Sloan'
p5
s.(dp0
S'person_oid'
p1
L34L
sS'oid'
p2
L1570L
sS'celltower_oid'
p3
L2L
sS'name'
p4
S'ML'
p5
s.(dp0
S'person_oid'
p1
L34L
sS'oid'
p2
L1571L
sS'celltower_oid'
p3
L5L
sS'name'
p4
S'Pho pastur'
p5
s.(dp0
S'person_oid'
p1
L34L
sS'oid'
p2
L1572L
sS'celltower_oid'
p3
L1L
sS'name'
p4
S'Ml'
p5
s.(dp0
S'person_oid'
p1
L34L
sS'oid'
p2
L1573L
sS'celltower_oid'
p3
L1565L
sS'name'
p4
S'Home'
p5
s.(dp0
S'person_oid'
p1
L34L
sS'oid'
p2
L1574L
sS'celltower_oid'
p3
L80L
sS'name'
p4
S'Ml'
p5
s.(dp0
S'person_oid'
p1
L34L
sS'oid'
p2
L1575L
sS'celltower_oid'
p3
L22773L
sS'name'
p4
S'Seattle'
p5
s.(dp0
S'person_oid'
p1
L34L
sS'oid'
p2
L1576L
sS'celltower_oid'
p3
L76L
sS'name'
p4
S'Davisq'
p5
s.(dp0
S'person_oid'
p1
L34L
sS'oid'
p2
L1577L
sS'celltower_oid'
p3
L61L
sS'name'
p4
S'Ml'
p5
s.(dp0
S'person_oid'
p1
L34L
sS'oid'
p2
L1578L
sS'celltower_oid'
p3
L34L
sS'name'
p4
S'Davisq'
p5
s.(dp0
S'person_oid'
p1
L34L
sS'oid'
p2
L1579L
sS'celltower_oid'
p3
L28L
sS'name'
p4
S'Somerville theatre'
p5
s.(dp0
S'person_oid'
p1
L34L
sS'oid'
p2
L1580L
sS'celltower_oid'
p3
L7182L
sS'name'
p4
S'Dc'
p5
s.(dp0
S'person_oid'
p1
L34L
sS'oid'
p2
L1581L
sS'celltower_oid'
p3
L983L
sS'name'
p4
S'Dc'
p5
s.(dp0
S'person_oid'
p1
L34L
sS'oid'
p2
L1582L
sS'celltower_oid'
p3
L81L
sS'name'
p4
S'Home'
p5
s.(dp0
S'person_oid'
p1
L34L
sS'oid'
p2
L1583L
sS'celltower_oid'
p3
L35L
sS'name'
p4
S'Mit'
p5
s.(dp0
S'person_oid'
p1
L12L
sS'oid'
p2
L1584L
sS'celltower_oid'
p3
L4008L
sS'name'
p4
S'Sloan'
p5
s.(dp0
S'person_oid'
p1
L12L
sS'oid'
p2
L1585L
sS'celltower_oid'
p3
L3392L
sS'name'
p4
S'Sloan'
p5
s.(dp0
S'person_oid'
p1
L12L
sS'oid'
p2
L1586L
sS'celltower_oid'
p3
L3393L
sS'name'
p4
S'Sloan'
p5
s.(dp0
S'person_oid'
p1
L12L
sS'oid'
p2
L1587L
sS'celltower_oid'
p3
L3450L
sS'name'
p4
S'Sloan'
p5
s.(dp0
S'person_oid'
p1
L12L
sS'oid'
p2
L1588L
sS'celltower_oid'
p3
L4014L
sS'name'
p4
S'Walker'
p5
s.(dp0
S'person_oid'
p1
L12L
sS'oid'
p2
L1589L
sS'celltower_oid'
p3
L3452L
sS'name'
p4
S'Commonwealth'
p5
s.(dp0
S'person_oid'
p1
L12L
sS'oid'
p2
L1590L
sS'celltower_oid'
p3
L4006L
sS'name'
p4
S'Joe restaurant'
p5
s.(dp0
S'person_oid'
p1
L12L
sS'oid'
p2
L1591L
sS'celltower_oid'
p3
L3443L
sS'name'
p4
S'Faculty club'
p5
s.(dp0
S'person_oid'
p1
L12L
sS'oid'
p2
L1592L
sS'celltower_oid'
p3
L3925L
sS'name'
p4
S'Warehouse'
p5
s.(dp0
S'person_oid'
p1
L12L
sS'oid'
p2
L1593L
sS'celltower_oid'
p3
L152L
sS'name'
p4
S'Home'
p5
s.(dp0
S'person_oid'
p1
L12L
sS'oid'
p2
L1594L
sS'celltower_oid'
p3
L2L
sS'name'
p4
S'Home'
p5
s.(dp0
S'person_oid'
p1
L12L
sS'oid'
p2
L1595L
sS'celltower_oid'
p3
L12561L
sS'name'
p4
S'Outlet'
p5
s.(dp0
S'person_oid'
p1
L95L
sS'oid'
p2
L1596L
sS'celltower_oid'
p3
L1L
sS'name'
p4
S'ML'
p5
s.(dp0
S'person_oid'
p1
L95L
sS'oid'
p2
L1597L
sS'celltower_oid'
p3
L32601L
sS'name'
p4
S'Leap'
p5
s.(dp0
S'person_oid'
p1
L95L
sS'oid'
p2
L1598L
sS'celltower_oid'
p3
L12549L
sS'name'
p4
S'Fisk'
p5
s.(dp0
S'person_oid'
p1
L95L
sS'oid'
p2
L1599L
sS'celltower_oid'
p3
L22618L
sS'name'
p4
S'Freshpond'
p5
s.(dp0
S'person_oid'
p1
L95L
sS'oid'
p2
L1600L
sS'celltower_oid'
p3
L158L
sS'name'
p4
S'Freshpond'
p5
s.(dp0
S'person_oid'
p1
L95L
sS'oid'
p2
L1601L
sS'celltower_oid'
p3
L30L
sS'name'
p4
S'Alewife'
p5
s.(dp0
S'person_oid'
p1
L95L
sS'oid'
p2
L1602L
sS'celltower_oid'
p3
L5L
sS'name'
p4
S'Harvard'
p5
s.(dp0
S'person_oid'
p1
L95L
sS'oid'
p2
L1603L
sS'celltower_oid'
p3
L46L
sS'name'
p4
S'Mit'
p5
s.(dp0
S'person_oid'
p1
L95L
sS'oid'
p2
L1604L
sS'celltower_oid'
p3
L59L
sS'name'
p4
S'Mgh'
p5
s.(dp0
S'person_oid'
p1
L95L
sS'oid'
p2
L1605L
sS'celltower_oid'
p3
L999L
sS'name'
p4
S'Healhnet'
p5
s.(dp0
S'person_oid'
p1
L95L
sS'oid'
p2
L1606L
sS'celltower_oid'
p3
L7235L
sS'name'
p4
S'Arlington'
p5
s.(dp0
S'person_oid'
p1
L95L
sS'oid'
p2
L1607L
sS'celltower_oid'
p3
L44L
sS'name'
p4
S'Cimit'
p5
s.(dp0
S'person_oid'
p1
L95L
sS'oid'
p2
L1608L
sS'celltower_oid'
p3
L86L
sS'name'
p4
S'Vna'
p5
s.(dp0
S'person_oid'
p1
L95L
sS'oid'
p2
L1609L
sS'celltower_oid'
p3
L436L
sS'name'
p4
S'Renna'
p5
s.(dp0
S'person_oid'
p1
L95L
sS'oid'
p2
L1610L
sS'celltower_oid'
p3
L162L
sS'name'
p4
S'Alewife'
p5
s.(dp0
S'person_oid'
p1
L95L
sS'oid'
p2
L1611L
sS'celltower_oid'
p3
L75L
sS'name'
p4
S'Home'
p5
s.(dp0
S'person_oid'
p1
L95L
sS'oid'
p2
L1612L
sS'celltower_oid'
p3
L1544L
sS'name'
p4
S'Home'
p5
s.(dp0
S'person_oid'
p1
L95L
sS'oid'
p2
L1613L
sS'celltower_oid'
p3
L35L
sS'name'
p4
S'Ml'
p5
s.(dp0
S'person_oid'
p1
L95L
sS'oid'
p2
L1614L
sS'celltower_oid'
p3
L289L
sS'name'
p4
S'Home'
p5
s.(dp0
S'person_oid'
p1
L95L
sS'oid'
p2
L1615L
sS'celltower_oid'
p3
L22109L
sS'name'
p4
S'Tmronto'
p5
s.(dp0
S'person_oid'
p1
L95L
sS'oid'
p2
L1616L
sS'celltower_oid'
p3
L22110L
sS'name'
p4
S'T'
p5
s.(dp0
S'person_oid'
p1
L95L
sS'oid'
p2
L1617L
sS'celltower_oid'
p3
L22111L
sS'name'
p4
S'T'
p5
s.(dp0
S'person_oid'
p1
L95L
sS'oid'
p2
L1618L
sS'celltower_oid'
p3
L22112L
sS'name'
p4
S'P.'
p5
s.(dp0
S'person_oid'
p1
L95L
sS'oid'
p2
L1619L
sS'celltower_oid'
p3
L22113L
sS'name'
p4
S'T'
p5
s.(dp0
S'person_oid'
p1
L95L
sS'oid'
p2
L1620L
sS'celltower_oid'
p3
L22114L
sS'name'
p4
S'T'
p5
s.(dp0
S'person_oid'
p1
L95L
sS'oid'
p2
L1621L
sS'celltower_oid'
p3
L22115L
sS'name'
p4
S'T'
p5
s.(dp0
S'person_oid'
p1
L95L
sS'oid'
p2
L1622L
sS'celltower_oid'
p3
L22116L
sS'name'
p4
S'Uft'
p5
s.(dp0
S'person_oid'
p1
L95L
sS'oid'
p2
L1623L
sS'celltower_oid'
p3
L22117L
sS'name'
p4
S'Uft'
p5
s.(dp0
S'person_oid'
p1
L95L
sS'oid'
p2
L1624L
sS'celltower_oid'
p3
L22118L
sS'name'
p4
S'Fo'
p5
s.(dp0
S'person_oid'
p1
L95L
sS'oid'
p2
L1625L
sS'celltower_oid'
p3
L22119L
sS'name'
p4
S'Dm'
p5
s.(dp0
S'person_oid'
p1
L95L
sS'oid'
p2
L1626L
sS'celltower_oid'
p3
L22120L
sS'name'
p4
S'H'
p5
s.(dp0
S'person_oid'
p1
L95L
sS'oid'
p2
L1627L
sS'celltower_oid'
p3
L22121L
sS'name'
p4
S'Jatin'
p5
s.(dp0
S'person_oid'
p1
L95L
sS'oid'
p2
L1628L
sS'celltower_oid'
p3
L22122L
sS'name'
p4
S'J'
p5
s.(dp0
S'person_oid'
p1
L95L
sS'oid'
p2
L1629L
sS'celltower_oid'
p3
L22123L
sS'name'
p4
S'J'
p5
s.(dp0
S'person_oid'
p1
L95L
sS'oid'
p2
L1630L
sS'celltower_oid'
p3
L22124L
sS'name'
p4
S'Club'
p5
s.(dp0
S'person_oid'
p1
L95L
sS'oid'
p2
L1631L
sS'celltower_oid'
p3
L22125L
sS'name'
p4
S'C'
p5
s.(dp0
S'person_oid'
p1
L95L
sS'oid'
p2
L1632L
sS'celltower_oid'
p3
L279L
sS'name'
p4
S'\xa3j'
p5
s.